
TempCtrlCoreBoardV1R0.elf:     file format elf32-avr

Sections:
Idx Name          Size      VMA       LMA       File off  Algn
  0 .data         0000010e  00800100  00002716  000027aa  2**0
                  CONTENTS, ALLOC, LOAD, DATA
  1 .text         00002716  00000000  00000000  00000094  2**1
                  CONTENTS, ALLOC, LOAD, READONLY, CODE
  2 .bss          000006c5  0080020e  0080020e  000028b8  2**0
                  ALLOC
  3 .comment      00000030  00000000  00000000  000028b8  2**0
                  CONTENTS, READONLY
  4 .note.gnu.avr.deviceinfo 0000003c  00000000  00000000  000028e8  2**2
                  CONTENTS, READONLY
  5 .debug_aranges 000002a8  00000000  00000000  00002924  2**0
                  CONTENTS, READONLY, DEBUGGING
  6 .debug_info   0000353f  00000000  00000000  00002bcc  2**0
                  CONTENTS, READONLY, DEBUGGING
  7 .debug_abbrev 00000e7b  00000000  00000000  0000610b  2**0
                  CONTENTS, READONLY, DEBUGGING
  8 .debug_line   000021e9  00000000  00000000  00006f86  2**0
                  CONTENTS, READONLY, DEBUGGING
  9 .debug_frame  00000898  00000000  00000000  00009170  2**2
                  CONTENTS, READONLY, DEBUGGING
 10 .debug_str    00000be1  00000000  00000000  00009a08  2**0
                  CONTENTS, READONLY, DEBUGGING
 11 .debug_loc    0000251a  00000000  00000000  0000a5e9  2**0
                  CONTENTS, READONLY, DEBUGGING
 12 .debug_ranges 00000238  00000000  00000000  0000cb03  2**0
                  CONTENTS, READONLY, DEBUGGING

Disassembly of section .text:

00000000 <__vectors>:
       0:	0c 94 27 01 	jmp	0x24e	; 0x24e <__ctors_end>
       4:	0c 94 44 01 	jmp	0x288	; 0x288 <__bad_interrupt>
       8:	0c 94 44 01 	jmp	0x288	; 0x288 <__bad_interrupt>
       c:	0c 94 44 01 	jmp	0x288	; 0x288 <__bad_interrupt>
      10:	0c 94 44 01 	jmp	0x288	; 0x288 <__bad_interrupt>
      14:	0c 94 44 01 	jmp	0x288	; 0x288 <__bad_interrupt>
      18:	0c 94 44 01 	jmp	0x288	; 0x288 <__bad_interrupt>
      1c:	0c 94 44 01 	jmp	0x288	; 0x288 <__bad_interrupt>
      20:	0c 94 44 01 	jmp	0x288	; 0x288 <__bad_interrupt>
      24:	0c 94 44 01 	jmp	0x288	; 0x288 <__bad_interrupt>
      28:	0c 94 e7 0e 	jmp	0x1dce	; 0x1dce <__vector_10>
      2c:	0c 94 44 01 	jmp	0x288	; 0x288 <__bad_interrupt>
      30:	0c 94 dd 0e 	jmp	0x1dba	; 0x1dba <__vector_12>
      34:	0c 94 44 01 	jmp	0x288	; 0x288 <__bad_interrupt>
      38:	0c 94 44 01 	jmp	0x288	; 0x288 <__bad_interrupt>
      3c:	0c 94 44 01 	jmp	0x288	; 0x288 <__bad_interrupt>
      40:	0c 94 e5 0d 	jmp	0x1bca	; 0x1bca <__vector_16>
      44:	0c 94 44 01 	jmp	0x288	; 0x288 <__bad_interrupt>
      48:	0c 94 b7 0f 	jmp	0x1f6e	; 0x1f6e <__vector_18>
      4c:	0c 94 44 01 	jmp	0x288	; 0x288 <__bad_interrupt>
      50:	0c 94 44 01 	jmp	0x288	; 0x288 <__bad_interrupt>
      54:	0c 94 44 01 	jmp	0x288	; 0x288 <__bad_interrupt>
      58:	0c 94 44 01 	jmp	0x288	; 0x288 <__bad_interrupt>
      5c:	0c 94 44 01 	jmp	0x288	; 0x288 <__bad_interrupt>
      60:	0c 94 44 01 	jmp	0x288	; 0x288 <__bad_interrupt>
      64:	0c 94 44 01 	jmp	0x288	; 0x288 <__bad_interrupt>
      68:	0c 94 2e 0f 	jmp	0x1e5c	; 0x1e5c <__vector_26>
      6c:	0c 94 44 01 	jmp	0x288	; 0x288 <__bad_interrupt>
      70:	0c 94 44 01 	jmp	0x288	; 0x288 <__bad_interrupt>
      74:	0c 94 44 01 	jmp	0x288	; 0x288 <__bad_interrupt>
      78:	0c 94 da 0f 	jmp	0x1fb4	; 0x1fb4 <__vector_30>
      7c:	0c 94 44 01 	jmp	0x288	; 0x288 <__bad_interrupt>
      80:	0c 94 44 01 	jmp	0x288	; 0x288 <__bad_interrupt>
      84:	0c 94 44 01 	jmp	0x288	; 0x288 <__bad_interrupt>
      88:	0c 94 44 01 	jmp	0x288	; 0x288 <__bad_interrupt>
      8c:	77 0c       	add	r7, r7
      8e:	80 0c       	add	r8, r0
      90:	82 0c       	add	r8, r2
      92:	87 0c       	add	r8, r7
      94:	8d 0c       	add	r8, r13
      96:	98 0c       	add	r9, r8
      98:	a4 0c       	add	r10, r4
      9a:	b0 0c       	add	r11, r0
      9c:	bc 0c       	add	r11, r12
      9e:	c8 0c       	add	r12, r8
      a0:	d4 0c       	add	r13, r4
      a2:	d7 0c       	add	r13, r7
      a4:	da 0c       	add	r13, r10
      a6:	dd 0c       	add	r13, r13
      a8:	e5 0c       	add	r14, r5
      aa:	ed 0c       	add	r14, r13
      ac:	f5 0c       	add	r15, r5
      ae:	fd 0c       	add	r15, r13
      b0:	01 0d       	add	r16, r1
      b2:	05 0d       	add	r16, r5
      b4:	09 0d       	add	r16, r9
      b6:	0c 0d       	add	r16, r12
      b8:	0f 0d       	add	r16, r15
      ba:	13 0d       	add	r17, r3
      bc:	17 0d       	add	r17, r7
      be:	1a 0d       	add	r17, r10
      c0:	20 0d       	add	r18, r0
      c2:	23 0d       	add	r18, r3
      c4:	29 0d       	add	r18, r9
      c6:	2e 0d       	add	r18, r14
      c8:	33 0d       	add	r19, r3
      ca:	36 0d       	add	r19, r6
      cc:	3e 0d       	add	r19, r14
      ce:	12 11       	cpse	r17, r2
      d0:	e0 12       	cpse	r14, r16
      d2:	1c 11       	cpse	r17, r12
      d4:	e0 12       	cpse	r14, r16
      d6:	2e 11       	cpse	r18, r14
      d8:	e0 12       	cpse	r14, r16
      da:	38 11       	cpse	r19, r8
      dc:	e0 12       	cpse	r14, r16
      de:	45 11       	cpse	r20, r5
      e0:	e0 12       	cpse	r14, r16
      e2:	4a 11       	cpse	r20, r10
      e4:	e0 12       	cpse	r14, r16
      e6:	4f 11       	cpse	r20, r15
      e8:	e0 12       	cpse	r14, r16
      ea:	5c 11       	cpse	r21, r12
      ec:	e0 12       	cpse	r14, r16
      ee:	6f 11       	cpse	r22, r15
      f0:	e0 12       	cpse	r14, r16
      f2:	72 11       	cpse	r23, r2
      f4:	e0 12       	cpse	r14, r16
      f6:	77 11       	cpse	r23, r7
      f8:	e0 12       	cpse	r14, r16
      fa:	7c 11       	cpse	r23, r12
      fc:	e0 12       	cpse	r14, r16
      fe:	42 11       	cpse	r20, r2
     100:	e0 12       	cpse	r14, r16
     102:	e0 12       	cpse	r14, r16
     104:	e0 12       	cpse	r14, r16
     106:	e0 12       	cpse	r14, r16
     108:	e0 12       	cpse	r14, r16
     10a:	e0 12       	cpse	r14, r16
     10c:	e0 12       	cpse	r14, r16
     10e:	e0 12       	cpse	r14, r16
     110:	e0 12       	cpse	r14, r16
     112:	81 11       	cpse	r24, r1
     114:	e0 12       	cpse	r14, r16
     116:	8c 11       	cpse	r24, r12
     118:	e0 12       	cpse	r14, r16
     11a:	97 11       	cpse	r25, r7
     11c:	e0 12       	cpse	r14, r16
     11e:	a2 11       	cpse	r26, r2
     120:	e0 12       	cpse	r14, r16
     122:	ad 11       	cpse	r26, r13
     124:	e0 12       	cpse	r14, r16
     126:	b8 11       	cpse	r27, r8
     128:	e0 12       	cpse	r14, r16
     12a:	c3 11       	cpse	r28, r3
     12c:	e0 12       	cpse	r14, r16
     12e:	ce 11       	cpse	r28, r14
     130:	e0 12       	cpse	r14, r16
     132:	d9 11       	cpse	r29, r9
     134:	e0 12       	cpse	r14, r16
     136:	e4 11       	cpse	r30, r4
     138:	e0 12       	cpse	r14, r16
     13a:	ef 11       	cpse	r30, r15
     13c:	e0 12       	cpse	r14, r16
     13e:	fa 11       	cpse	r31, r10
     140:	e0 12       	cpse	r14, r16
     142:	05 12       	cpse	r0, r21
     144:	e0 12       	cpse	r14, r16
     146:	10 12       	cpse	r1, r16
     148:	e0 12       	cpse	r14, r16
     14a:	1b 12       	cpse	r1, r27
     14c:	e0 12       	cpse	r14, r16
     14e:	26 12       	cpse	r2, r22
     150:	e0 12       	cpse	r14, r16
     152:	31 12       	cpse	r3, r17
     154:	e0 12       	cpse	r14, r16
     156:	3c 12       	cpse	r3, r28
     158:	e0 12       	cpse	r14, r16
     15a:	47 12       	cpse	r4, r23
     15c:	e0 12       	cpse	r14, r16
     15e:	52 12       	cpse	r5, r18
     160:	e0 12       	cpse	r14, r16
     162:	5d 12       	cpse	r5, r29
     164:	e0 12       	cpse	r14, r16
     166:	68 12       	cpse	r6, r24
     168:	e0 12       	cpse	r14, r16
     16a:	73 12       	cpse	r7, r19
     16c:	e0 12       	cpse	r14, r16
     16e:	7e 12       	cpse	r7, r30
     170:	e0 12       	cpse	r14, r16
     172:	89 12       	cpse	r8, r25
     174:	e0 12       	cpse	r14, r16
     176:	94 12       	cpse	r9, r20
     178:	e0 12       	cpse	r14, r16
     17a:	9f 12       	cpse	r9, r31
     17c:	e0 12       	cpse	r14, r16
     17e:	aa 12       	cpse	r10, r26
     180:	e0 12       	cpse	r14, r16
     182:	b5 12       	cpse	r11, r21
     184:	e0 12       	cpse	r14, r16
     186:	c0 12       	cpse	r12, r16
     188:	e0 12       	cpse	r14, r16
     18a:	cb 12       	cpse	r12, r27
     18c:	e0 12       	cpse	r14, r16
     18e:	d6 12       	cpse	r13, r22
     190:	e0 12       	cpse	r14, r16
     192:	15 11       	cpse	r17, r5
     194:	e0 12       	cpse	r14, r16
     196:	e0 12       	cpse	r14, r16
     198:	e0 12       	cpse	r14, r16
     19a:	e0 12       	cpse	r14, r16
     19c:	e0 12       	cpse	r14, r16
     19e:	e0 12       	cpse	r14, r16
     1a0:	e0 12       	cpse	r14, r16
     1a2:	e0 12       	cpse	r14, r16
     1a4:	e0 12       	cpse	r14, r16
     1a6:	e0 12       	cpse	r14, r16
     1a8:	e0 12       	cpse	r14, r16
     1aa:	e0 12       	cpse	r14, r16
     1ac:	e0 12       	cpse	r14, r16
     1ae:	e0 12       	cpse	r14, r16
     1b0:	e0 12       	cpse	r14, r16
     1b2:	e0 12       	cpse	r14, r16
     1b4:	e0 12       	cpse	r14, r16
     1b6:	e0 12       	cpse	r14, r16
     1b8:	e0 12       	cpse	r14, r16
     1ba:	e0 12       	cpse	r14, r16
     1bc:	e0 12       	cpse	r14, r16
     1be:	e0 12       	cpse	r14, r16
     1c0:	e0 12       	cpse	r14, r16
     1c2:	e0 12       	cpse	r14, r16
     1c4:	e0 12       	cpse	r14, r16
     1c6:	e0 12       	cpse	r14, r16
     1c8:	e0 12       	cpse	r14, r16
     1ca:	e0 12       	cpse	r14, r16
     1cc:	e0 12       	cpse	r14, r16
     1ce:	e0 12       	cpse	r14, r16
     1d0:	e0 12       	cpse	r14, r16
     1d2:	e0 12       	cpse	r14, r16
     1d4:	e0 12       	cpse	r14, r16
     1d6:	e0 12       	cpse	r14, r16
     1d8:	e0 12       	cpse	r14, r16
     1da:	e0 12       	cpse	r14, r16
     1dc:	e0 12       	cpse	r14, r16
     1de:	e0 12       	cpse	r14, r16
     1e0:	e0 12       	cpse	r14, r16
     1e2:	e0 12       	cpse	r14, r16
     1e4:	e0 12       	cpse	r14, r16
     1e6:	e0 12       	cpse	r14, r16
     1e8:	e0 12       	cpse	r14, r16
     1ea:	e0 12       	cpse	r14, r16
     1ec:	e0 12       	cpse	r14, r16
     1ee:	e0 12       	cpse	r14, r16
     1f0:	e0 12       	cpse	r14, r16
     1f2:	e0 12       	cpse	r14, r16
     1f4:	e0 12       	cpse	r14, r16
     1f6:	e0 12       	cpse	r14, r16
     1f8:	e0 12       	cpse	r14, r16
     1fa:	e0 12       	cpse	r14, r16
     1fc:	e0 12       	cpse	r14, r16
     1fe:	e0 12       	cpse	r14, r16
     200:	e0 12       	cpse	r14, r16
     202:	e0 12       	cpse	r14, r16
     204:	e0 12       	cpse	r14, r16
     206:	e0 12       	cpse	r14, r16
     208:	e0 12       	cpse	r14, r16
     20a:	e0 12       	cpse	r14, r16
     20c:	e0 12       	cpse	r14, r16
     20e:	e0 12       	cpse	r14, r16
     210:	e0 12       	cpse	r14, r16
     212:	e0 12       	cpse	r14, r16
     214:	e0 12       	cpse	r14, r16
     216:	e0 12       	cpse	r14, r16
     218:	e0 12       	cpse	r14, r16
     21a:	e0 12       	cpse	r14, r16
     21c:	e0 12       	cpse	r14, r16
     21e:	e0 12       	cpse	r14, r16
     220:	e0 12       	cpse	r14, r16
     222:	e0 12       	cpse	r14, r16
     224:	e0 12       	cpse	r14, r16
     226:	e0 12       	cpse	r14, r16
     228:	e0 12       	cpse	r14, r16
     22a:	e0 12       	cpse	r14, r16
     22c:	e0 12       	cpse	r14, r16
     22e:	e0 12       	cpse	r14, r16
     230:	e0 12       	cpse	r14, r16
     232:	e0 12       	cpse	r14, r16
     234:	e0 12       	cpse	r14, r16
     236:	e0 12       	cpse	r14, r16
     238:	e0 12       	cpse	r14, r16
     23a:	e0 12       	cpse	r14, r16
     23c:	e0 12       	cpse	r14, r16
     23e:	e0 12       	cpse	r14, r16
     240:	e0 12       	cpse	r14, r16
     242:	e0 12       	cpse	r14, r16
     244:	e0 12       	cpse	r14, r16
     246:	e0 12       	cpse	r14, r16
     248:	e0 12       	cpse	r14, r16
     24a:	e0 12       	cpse	r14, r16
     24c:	0f 11       	cpse	r16, r15

0000024e <__ctors_end>:
     24e:	11 24       	eor	r1, r1
     250:	1f be       	out	0x3f, r1	; 63
     252:	cf ef       	ldi	r28, 0xFF	; 255
     254:	d0 e1       	ldi	r29, 0x10	; 16
     256:	de bf       	out	0x3e, r29	; 62
     258:	cd bf       	out	0x3d, r28	; 61

0000025a <__do_copy_data>:
     25a:	12 e0       	ldi	r17, 0x02	; 2
     25c:	a0 e0       	ldi	r26, 0x00	; 0
     25e:	b1 e0       	ldi	r27, 0x01	; 1
     260:	e6 e1       	ldi	r30, 0x16	; 22
     262:	f7 e2       	ldi	r31, 0x27	; 39
     264:	02 c0       	rjmp	.+4      	; 0x26a <__do_copy_data+0x10>
     266:	05 90       	lpm	r0, Z+
     268:	0d 92       	st	X+, r0
     26a:	ae 30       	cpi	r26, 0x0E	; 14
     26c:	b1 07       	cpc	r27, r17
     26e:	d9 f7       	brne	.-10     	; 0x266 <__do_copy_data+0xc>

00000270 <__do_clear_bss>:
     270:	28 e0       	ldi	r18, 0x08	; 8
     272:	ae e0       	ldi	r26, 0x0E	; 14
     274:	b2 e0       	ldi	r27, 0x02	; 2
     276:	01 c0       	rjmp	.+2      	; 0x27a <.do_clear_bss_start>

00000278 <.do_clear_bss_loop>:
     278:	1d 92       	st	X+, r1

0000027a <.do_clear_bss_start>:
     27a:	a3 3d       	cpi	r26, 0xD3	; 211
     27c:	b2 07       	cpc	r27, r18
     27e:	e1 f7       	brne	.-8      	; 0x278 <.do_clear_bss_loop>
     280:	0e 94 7e 0d 	call	0x1afc	; 0x1afc <main>
     284:	0c 94 89 13 	jmp	0x2712	; 0x2712 <_exit>

00000288 <__bad_interrupt>:
     288:	0c 94 00 00 	jmp	0	; 0x0 <__vectors>

0000028c <_delay_1us>:
		_delay_1us();
	}
}

void _delay_1us()
{
     28c:	8f e0       	ldi	r24, 0x0F	; 15

	ticks = F_CPU / 1000000UL;

	while (--ticks)
	{
		_nop();
     28e:	00 00       	nop
     290:	81 50       	subi	r24, 0x01	; 1
{
	uint8_t ticks;

	ticks = F_CPU / 1000000UL;

	while (--ticks)
     292:	e9 f7       	brne	.-6      	; 0x28e <_delay_1us+0x2>
	{
		_nop();
	}
     294:	08 95       	ret

00000296 <_delay_ms>:
*/

#include "delay.h"

void _delay_ms(uint32_t nms)
{
     296:	cf 92       	push	r12
     298:	df 92       	push	r13
     29a:	ef 92       	push	r14
     29c:	ff 92       	push	r15
     29e:	9b 01       	movw	r18, r22
     2a0:	ac 01       	movw	r20, r24
	uint32_t us_ticks;
	us_ticks = nms * 1000;
     2a2:	a8 ee       	ldi	r26, 0xE8	; 232
     2a4:	b3 e0       	ldi	r27, 0x03	; 3
     2a6:	0e 94 6a 13 	call	0x26d4	; 0x26d4 <__muluhisi3>

	while (--us_ticks)
     2aa:	6b 01       	movw	r12, r22
     2ac:	7c 01       	movw	r14, r24
     2ae:	21 e0       	ldi	r18, 0x01	; 1
     2b0:	c2 1a       	sub	r12, r18
     2b2:	d1 08       	sbc	r13, r1
     2b4:	e1 08       	sbc	r14, r1
     2b6:	f1 08       	sbc	r15, r1
	{
		_delay_1us();
     2b8:	0e 94 46 01 	call	0x28c	; 0x28c <_delay_1us>
void _delay_ms(uint32_t nms)
{
	uint32_t us_ticks;
	us_ticks = nms * 1000;

	while (--us_ticks)
     2bc:	81 e0       	ldi	r24, 0x01	; 1
     2be:	c8 1a       	sub	r12, r24
     2c0:	d1 08       	sbc	r13, r1
     2c2:	e1 08       	sbc	r14, r1
     2c4:	f1 08       	sbc	r15, r1
     2c6:	c1 f7       	brne	.-16     	; 0x2b8 <_delay_ms+0x22>
	{
		_delay_1us();
	}
}
     2c8:	ff 90       	pop	r15
     2ca:	ef 90       	pop	r14
     2cc:	df 90       	pop	r13
     2ce:	cf 90       	pop	r12
     2d0:	08 95       	ret

000002d2 <init_time_ctrl_value>:
{0xB8, 0xD0, 0xCE, 0xC2, 0xCF, 0xDF, 0xBD, 0xD3, 0xB7, 0xB4},									   //感温线接反
{0xB3, 0xAC, 0xCE, 0xC2, 0xB1, 0xA8, 0xBE, 0xAF},												   //超温报警
{0xC9, 0xFD, 0xCE, 0xC2, 0xB5, 0xBD, 0xB4, 0xEF, 0xC9, 0xE8, 0xB6, 0xA8, 0xCE, 0xC2, 0xB6, 0xC8}}; //升温到达设定温度

void init_time_ctrl_value(void)
{
     2d2:	cf 93       	push	r28
     2d4:	df 93       	push	r29
     2d6:	42 ed       	ldi	r20, 0xD2	; 210
     2d8:	56 e0       	ldi	r21, 0x06	; 6
     2da:	63 ed       	ldi	r22, 0xD3	; 211
     2dc:	77 e0       	ldi	r23, 0x07	; 7
     2de:	c2 ed       	ldi	r28, 0xD2	; 210
     2e0:	d7 e0       	ldi	r29, 0x07	; 7
	{
		for (j = 0; j < 8; j++)
		{
			for (k = 0; k < 4; k++)
			{
				time_ctrl_value[i][j][k] = 500; //射胶控制时间所有数据初始化为
     2e2:	84 ef       	ldi	r24, 0xF4	; 244
     2e4:	91 e0       	ldi	r25, 0x01	; 1
     2e6:	23 c0       	rjmp	.+70     	; 0x32e <init_time_ctrl_value+0x5c>
     2e8:	91 83       	std	Z+1, r25	; 0x01
     2ea:	80 83       	st	Z, r24
				time_ctrl_value_buff[i][j][k] = 500;
     2ec:	11 96       	adiw	r26, 0x01	; 1
     2ee:	9c 93       	st	X, r25
     2f0:	8e 93       	st	-X, r24
	{
		for (j = 0; j < 8; j++)
		{
			for (k = 0; k < 4; k++)
			{
				time_ctrl_value[i][j][k] = 500; //射胶控制时间所有数据初始化为
     2f2:	93 83       	std	Z+3, r25	; 0x03
     2f4:	82 83       	std	Z+2, r24	; 0x02
				time_ctrl_value_buff[i][j][k] = 500;
     2f6:	13 96       	adiw	r26, 0x03	; 3
     2f8:	9c 93       	st	X, r25
     2fa:	8e 93       	st	-X, r24
     2fc:	12 97       	sbiw	r26, 0x02	; 2
	{
		for (j = 0; j < 8; j++)
		{
			for (k = 0; k < 4; k++)
			{
				time_ctrl_value[i][j][k] = 500; //射胶控制时间所有数据初始化为
     2fe:	95 83       	std	Z+5, r25	; 0x05
     300:	84 83       	std	Z+4, r24	; 0x04
				time_ctrl_value_buff[i][j][k] = 500;
     302:	15 96       	adiw	r26, 0x05	; 5
     304:	9c 93       	st	X, r25
     306:	8e 93       	st	-X, r24
     308:	14 97       	sbiw	r26, 0x04	; 4
	{
		for (j = 0; j < 8; j++)
		{
			for (k = 0; k < 4; k++)
			{
				time_ctrl_value[i][j][k] = 500; //射胶控制时间所有数据初始化为
     30a:	97 83       	std	Z+7, r25	; 0x07
     30c:	86 83       	std	Z+6, r24	; 0x06
				time_ctrl_value_buff[i][j][k] = 500;
     30e:	17 96       	adiw	r26, 0x07	; 7
     310:	9c 93       	st	X, r25
     312:	8e 93       	st	-X, r24
     314:	16 97       	sbiw	r26, 0x06	; 6
{
	uint8_t i, j, k;

	for (i = 0; i < 4; i++)
	{
		for (j = 0; j < 8; j++)
     316:	2f 5f       	subi	r18, 0xFF	; 255
     318:	38 96       	adiw	r30, 0x08	; 8
     31a:	18 96       	adiw	r26, 0x08	; 8
     31c:	28 30       	cpi	r18, 0x08	; 8
     31e:	21 f7       	brne	.-56     	; 0x2e8 <init_time_ctrl_value+0x16>
     320:	40 5c       	subi	r20, 0xC0	; 192
     322:	5f 4f       	sbci	r21, 0xFF	; 255
     324:	60 5c       	subi	r22, 0xC0	; 192
     326:	7f 4f       	sbci	r23, 0xFF	; 255

void init_time_ctrl_value(void)
{
	uint8_t i, j, k;

	for (i = 0; i < 4; i++)
     328:	c4 17       	cp	r28, r20
     32a:	d5 07       	cpc	r29, r21
     32c:	21 f0       	breq	.+8      	; 0x336 <init_time_ctrl_value+0x64>
{0xB8, 0xD0, 0xCE, 0xC2, 0xCF, 0xDF, 0xBD, 0xD3, 0xB7, 0xB4},									   //感温线接反
{0xB3, 0xAC, 0xCE, 0xC2, 0xB1, 0xA8, 0xBE, 0xAF},												   //超温报警
{0xC9, 0xFD, 0xCE, 0xC2, 0xB5, 0xBD, 0xB4, 0xEF, 0xC9, 0xE8, 0xB6, 0xA8, 0xCE, 0xC2, 0xB6, 0xC8}}; //升温到达设定温度

void init_time_ctrl_value(void)
{
     32e:	db 01       	movw	r26, r22
     330:	fa 01       	movw	r30, r20
     332:	20 e0       	ldi	r18, 0x00	; 0
     334:	d9 cf       	rjmp	.-78     	; 0x2e8 <init_time_ctrl_value+0x16>
				time_ctrl_value[i][j][k] = 500; //射胶控制时间所有数据初始化为
				time_ctrl_value_buff[i][j][k] = 500;
			}
		}
	}
}
     336:	df 91       	pop	r29
     338:	cf 91       	pop	r28
     33a:	08 95       	ret

0000033c <set_pid>:

/*
**设置PID参数，通过串口1发送到控制办卡
*/
void set_pid(void)
{
     33c:	cf 93       	push	r28
     33e:	df 93       	push	r29
	uint16_t crc = 0;
	uint8_t addr = 0;
	
	/*计算地址，前四位代表示板卡号，后四位表示*/
	addr = (set_pid_channel - 1) / 4 + 1;
     340:	80 91 98 02 	lds	r24, 0x0298	; 0x800298 <set_pid_channel>
     344:	90 e0       	ldi	r25, 0x00	; 0
     346:	01 97       	sbiw	r24, 0x01	; 1
	addr = (addr << 4) + ((set_pid_channel - 1) % 4) + 1;
     348:	9c 01       	movw	r18, r24
     34a:	12 f4       	brpl	.+4      	; 0x350 <set_pid+0x14>
     34c:	2d 5f       	subi	r18, 0xFD	; 253
     34e:	3f 4f       	sbci	r19, 0xFF	; 255
     350:	35 95       	asr	r19
     352:	27 95       	ror	r18
     354:	35 95       	asr	r19
     356:	27 95       	ror	r18
     358:	2f 5f       	subi	r18, 0xFF	; 255
     35a:	22 95       	swap	r18
     35c:	20 7f       	andi	r18, 0xF0	; 240

	usart1_tx_buff[0] = 0xA5;
     35e:	ef ea       	ldi	r30, 0xAF	; 175
     360:	f3 e0       	ldi	r31, 0x03	; 3
     362:	35 ea       	ldi	r19, 0xA5	; 165
     364:	30 83       	st	Z, r19
	usart1_tx_buff[1] = 0x5A;
     366:	3a e5       	ldi	r19, 0x5A	; 90
     368:	31 83       	std	Z+1, r19	; 0x01
	usart1_tx_buff[2] = 0x08;
     36a:	38 e0       	ldi	r19, 0x08	; 8
     36c:	32 83       	std	Z+2, r19	; 0x02
	usart1_tx_buff[3] = PID;
     36e:	32 e0       	ldi	r19, 0x02	; 2
     370:	33 83       	std	Z+3, r19	; 0x03
	usart1_tx_buff[4] = addr;
     372:	83 70       	andi	r24, 0x03	; 3
     374:	90 78       	andi	r25, 0x80	; 128
     376:	99 23       	and	r25, r25
     378:	24 f4       	brge	.+8      	; 0x382 <set_pid+0x46>
     37a:	01 97       	sbiw	r24, 0x01	; 1
     37c:	8c 6f       	ori	r24, 0xFC	; 252
     37e:	9f 6f       	ori	r25, 0xFF	; 255
     380:	01 96       	adiw	r24, 0x01	; 1
     382:	8f 5f       	subi	r24, 0xFF	; 255
     384:	82 0f       	add	r24, r18
     386:	80 93 b3 03 	sts	0x03B3, r24	; 0x8003b3 <usart1_tx_buff+0x4>

	usart1_tx_buff[5] = (uint8_t)(p_value_buff >> 8);
     38a:	80 91 db 01 	lds	r24, 0x01DB	; 0x8001db <p_value_buff>
     38e:	90 91 dc 01 	lds	r25, 0x01DC	; 0x8001dc <p_value_buff+0x1>
     392:	cf ea       	ldi	r28, 0xAF	; 175
     394:	d3 e0       	ldi	r29, 0x03	; 3
     396:	9d 83       	std	Y+5, r25	; 0x05
	usart1_tx_buff[6] = (uint8_t)(p_value_buff);
     398:	8e 83       	std	Y+6, r24	; 0x06

	usart1_tx_buff[7] = (uint8_t)(i_value_buff >> 8);
     39a:	80 91 d9 01 	lds	r24, 0x01D9	; 0x8001d9 <i_value_buff>
     39e:	90 91 da 01 	lds	r25, 0x01DA	; 0x8001da <i_value_buff+0x1>
     3a2:	9f 83       	std	Y+7, r25	; 0x07
	usart1_tx_buff[8] = (uint8_t)(i_value_buff);
     3a4:	88 87       	std	Y+8, r24	; 0x08

	usart1_tx_buff[9] = (uint8_t)(d_value_buff >> 8);
     3a6:	80 91 d7 01 	lds	r24, 0x01D7	; 0x8001d7 <d_value_buff>
     3aa:	90 91 d8 01 	lds	r25, 0x01D8	; 0x8001d8 <d_value_buff+0x1>
     3ae:	99 87       	std	Y+9, r25	; 0x09
	usart1_tx_buff[10] = (uint8_t)(d_value_buff);
     3b0:	8a 87       	std	Y+10, r24	; 0x0a

	crc = crc_check(usart1_tx_buff, 13);
     3b2:	6d e0       	ldi	r22, 0x0D	; 13
     3b4:	ce 01       	movw	r24, r28
     3b6:	0e 94 91 10 	call	0x2122	; 0x2122 <crc_check>

	usart1_tx_buff[11] = crc & 0x00FF;
     3ba:	8b 87       	std	Y+11, r24	; 0x0b
	usart1_tx_buff[12] = crc >> 8;
     3bc:	9c 87       	std	Y+12, r25	; 0x0c
	
	ctrl_command = PID;
     3be:	82 e0       	ldi	r24, 0x02	; 2
     3c0:	80 93 d6 01 	sts	0x01D6, r24	; 0x8001d6 <ctrl_command>
	
	while(usart1_tx_overtime_mask != 1);
     3c4:	80 91 aa 02 	lds	r24, 0x02AA	; 0x8002aa <usart1_tx_overtime_mask>
     3c8:	81 30       	cpi	r24, 0x01	; 1
     3ca:	f1 f7       	brne	.-4      	; 0x3c8 <set_pid+0x8c>
	usart1_tx_overtime_mask = 0;
     3cc:	10 92 aa 02 	sts	0x02AA, r1	; 0x8002aa <usart1_tx_overtime_mask>
	usart1_tx_timecnt = 0;
     3d0:	10 92 ab 02 	sts	0x02AB, r1	; 0x8002ab <usart1_tx_timecnt>
	
	usart1_send_str(usart1_tx_buff, 13);
     3d4:	6d e0       	ldi	r22, 0x0D	; 13
     3d6:	8f ea       	ldi	r24, 0xAF	; 175
     3d8:	93 e0       	ldi	r25, 0x03	; 3
     3da:	0e 94 4b 10 	call	0x2096	; 0x2096 <usart1_send_str>

	ctrl_command = READ_DATA_ALL;
     3de:	81 e0       	ldi	r24, 0x01	; 1
     3e0:	80 93 d6 01 	sts	0x01D6, r24	; 0x8001d6 <ctrl_command>
}
     3e4:	df 91       	pop	r29
     3e6:	cf 91       	pop	r28
     3e8:	08 95       	ret

000003ea <single_set_back>:

void single_set_back(void)
{
	if (set_temp_buff[set_num] != set_temp[set_num])
     3ea:	80 91 99 02 	lds	r24, 0x0299	; 0x800299 <set_num>
     3ee:	90 e0       	ldi	r25, 0x00	; 0
     3f0:	9c 01       	movw	r18, r24
     3f2:	22 0f       	add	r18, r18
     3f4:	33 1f       	adc	r19, r19
     3f6:	f9 01       	movw	r30, r18
     3f8:	e3 54       	subi	r30, 0x43	; 67
     3fa:	fe 4f       	sbci	r31, 0xFE	; 254
     3fc:	40 81       	ld	r20, Z
     3fe:	51 81       	ldd	r21, Z+1	; 0x01
     400:	f9 01       	movw	r30, r18
     402:	e3 52       	subi	r30, 0x23	; 35
     404:	fe 4f       	sbci	r31, 0xFE	; 254
     406:	20 81       	ld	r18, Z
     408:	31 81       	ldd	r19, Z+1	; 0x01
     40a:	24 17       	cp	r18, r20
     40c:	35 07       	cpc	r19, r21
     40e:	39 f0       	breq	.+14     	; 0x41e <__LOCK_REGION_LENGTH__+0x1e>
	{
		set_temp_buff[set_num] = set_temp[set_num];
     410:	fc 01       	movw	r30, r24
     412:	ee 0f       	add	r30, r30
     414:	ff 1f       	adc	r31, r31
     416:	e3 52       	subi	r30, 0x23	; 35
     418:	fe 4f       	sbci	r31, 0xFE	; 254
     41a:	51 83       	std	Z+1, r21	; 0x01
     41c:	40 83       	st	Z, r20
	}

	if (switch_sensor_buff[set_num] != switch_sensor[set_num])
     41e:	9c 01       	movw	r18, r24
     420:	22 0f       	add	r18, r18
     422:	33 1f       	adc	r19, r19
     424:	f9 01       	movw	r30, r18
     426:	e6 5b       	subi	r30, 0xB6	; 182
     428:	fd 4f       	sbci	r31, 0xFD	; 253
     42a:	40 81       	ld	r20, Z
     42c:	51 81       	ldd	r21, Z+1	; 0x01
     42e:	f9 01       	movw	r30, r18
     430:	e9 53       	subi	r30, 0x39	; 57
     432:	fd 4f       	sbci	r31, 0xFD	; 253
     434:	20 81       	ld	r18, Z
     436:	31 81       	ldd	r19, Z+1	; 0x01
     438:	24 17       	cp	r18, r20
     43a:	35 07       	cpc	r19, r21
     43c:	39 f0       	breq	.+14     	; 0x44c <__LOCK_REGION_LENGTH__+0x4c>
	{
		switch_sensor_buff[set_num] = switch_sensor[set_num];
     43e:	fc 01       	movw	r30, r24
     440:	ee 0f       	add	r30, r30
     442:	ff 1f       	adc	r31, r31
     444:	e9 53       	subi	r30, 0x39	; 57
     446:	fd 4f       	sbci	r31, 0xFD	; 253
     448:	51 83       	std	Z+1, r21	; 0x01
     44a:	40 83       	st	Z, r20
	}

	if (sensor_type_buff[set_num] != sensor_type[set_num])
     44c:	9c 01       	movw	r18, r24
     44e:	22 0f       	add	r18, r18
     450:	33 1f       	adc	r19, r19
     452:	f9 01       	movw	r30, r18
     454:	ee 5c       	subi	r30, 0xCE	; 206
     456:	fd 4f       	sbci	r31, 0xFD	; 253
     458:	40 81       	ld	r20, Z
     45a:	51 81       	ldd	r21, Z+1	; 0x01
     45c:	f9 01       	movw	r30, r18
     45e:	e1 55       	subi	r30, 0x51	; 81
     460:	fd 4f       	sbci	r31, 0xFD	; 253
     462:	20 81       	ld	r18, Z
     464:	31 81       	ldd	r19, Z+1	; 0x01
     466:	24 17       	cp	r18, r20
     468:	35 07       	cpc	r19, r21
     46a:	39 f0       	breq	.+14     	; 0x47a <__LOCK_REGION_LENGTH__+0x7a>
	{
		sensor_type_buff[set_num] = sensor_type[set_num];
     46c:	88 0f       	add	r24, r24
     46e:	99 1f       	adc	r25, r25
     470:	fc 01       	movw	r30, r24
     472:	e1 55       	subi	r30, 0x51	; 81
     474:	fd 4f       	sbci	r31, 0xFD	; 253
     476:	51 83       	std	Z+1, r21	; 0x01
     478:	40 83       	st	Z, r20
	}

	in_main_page = 1;
     47a:	81 e0       	ldi	r24, 0x01	; 1
     47c:	80 93 d5 01 	sts	0x01D5, r24	; 0x8001d5 <in_main_page>
	update_run_temp_flag = 0;
     480:	10 92 9e 02 	sts	0x029E, r1	; 0x80029e <update_run_temp_flag>
     484:	08 95       	ret

00000486 <switch_all_sensor>:

	in_main_page = 1;
}

void switch_all_sensor(uint16_t sta)
{
     486:	1f 93       	push	r17
     488:	cf 93       	push	r28
     48a:	df 93       	push	r29
	uint8_t i = 0;
	uint16_t crc = 0;
	uint8_t slave_num = 1;

	ctrl_command = 0;	//不是READ_DATA_ALL 就ok
     48c:	10 92 d6 01 	sts	0x01D6, r1	; 0x8001d6 <ctrl_command>
	
	usart1_tx_buff[0] = 0xA5;
     490:	ef ea       	ldi	r30, 0xAF	; 175
     492:	f3 e0       	ldi	r31, 0x03	; 3
     494:	25 ea       	ldi	r18, 0xA5	; 165
     496:	20 83       	st	Z, r18
	usart1_tx_buff[1] = 0x5A;
     498:	2a e5       	ldi	r18, 0x5A	; 90
     49a:	21 83       	std	Z+1, r18	; 0x01
	usart1_tx_buff[2] = 0x04;
     49c:	24 e0       	ldi	r18, 0x04	; 4
     49e:	22 83       	std	Z+2, r18	; 0x02
	usart1_tx_buff[3] = 0x06;
     4a0:	26 e0       	ldi	r18, 0x06	; 6
     4a2:	23 83       	std	Z+3, r18	; 0x03
	usart1_tx_buff[5] = 0x00;
     4a4:	15 82       	std	Z+5, r1	; 0x05
	usart1_tx_buff[6] = sta;
     4a6:	86 83       	std	Z+6, r24	; 0x06

	pre_system_sta = sta;
     4a8:	80 93 9a 02 	sts	0x029A, r24	; 0x80029a <pre_system_sta>
     4ac:	90 93 9b 02 	sts	0x029B, r25	; 0x80029b <pre_system_sta+0x1>
     4b0:	ea e4       	ldi	r30, 0x4A	; 74
     4b2:	f2 e0       	ldi	r31, 0x02	; 2
     4b4:	a7 ec       	ldi	r26, 0xC7	; 199
     4b6:	b2 e0       	ldi	r27, 0x02	; 2
     4b8:	22 e6       	ldi	r18, 0x62	; 98
     4ba:	32 e0       	ldi	r19, 0x02	; 2

 	for (i = 0; i < 12; i++)		
 	{
 		switch_sensor[i] = sta;
     4bc:	80 83       	st	Z, r24
     4be:	91 83       	std	Z+1, r25	; 0x01
     4c0:	32 96       	adiw	r30, 0x02	; 2
 		switch_sensor_buff[i] = sta;
     4c2:	8c 93       	st	X, r24
     4c4:	11 96       	adiw	r26, 0x01	; 1
     4c6:	9c 93       	st	X, r25
     4c8:	11 97       	sbiw	r26, 0x01	; 1
     4ca:	12 96       	adiw	r26, 0x02	; 2
	usart1_tx_buff[5] = 0x00;
	usart1_tx_buff[6] = sta;

	pre_system_sta = sta;

 	for (i = 0; i < 12; i++)		
     4cc:	e2 17       	cp	r30, r18
     4ce:	f3 07       	cpc	r31, r19
     4d0:	a9 f7       	brne	.-22     	; 0x4bc <switch_all_sensor+0x36>
     4d2:	11 e0       	ldi	r17, 0x01	; 1
// 		eeprom_write(SINGLE_SWSENSOR_EEADDR+i, switch_sensor[i]);
	}
	
	for (;slave_num <= 3; slave_num++)
	{
		usart1_tx_buff[4] = slave_num << 4;
     4d4:	cf ea       	ldi	r28, 0xAF	; 175
     4d6:	d3 e0       	ldi	r29, 0x03	; 3
     4d8:	81 2f       	mov	r24, r17
     4da:	82 95       	swap	r24
     4dc:	80 7f       	andi	r24, 0xF0	; 240
     4de:	8c 83       	std	Y+4, r24	; 0x04
		
		crc = crc_check(usart1_tx_buff, 9);
     4e0:	69 e0       	ldi	r22, 0x09	; 9
     4e2:	ce 01       	movw	r24, r28
     4e4:	0e 94 91 10 	call	0x2122	; 0x2122 <crc_check>
	
		usart1_tx_buff[7] = crc & 0x00FF;
     4e8:	8f 83       	std	Y+7, r24	; 0x07
		usart1_tx_buff[8] = crc >> 8;
     4ea:	98 87       	std	Y+8, r25	; 0x08
		
		while (usart1_tx_overtime_mask != 1);
     4ec:	80 91 aa 02 	lds	r24, 0x02AA	; 0x8002aa <usart1_tx_overtime_mask>
     4f0:	81 30       	cpi	r24, 0x01	; 1
     4f2:	f1 f7       	brne	.-4      	; 0x4f0 <switch_all_sensor+0x6a>
		usart1_tx_overtime_mask = 0;
     4f4:	10 92 aa 02 	sts	0x02AA, r1	; 0x8002aa <usart1_tx_overtime_mask>
		usart1_tx_timecnt = 0;
     4f8:	10 92 ab 02 	sts	0x02AB, r1	; 0x8002ab <usart1_tx_timecnt>
		
		usart1_send_str(usart1_tx_buff, 9);
     4fc:	69 e0       	ldi	r22, 0x09	; 9
     4fe:	ce 01       	movw	r24, r28
     500:	0e 94 4b 10 	call	0x2096	; 0x2096 <usart1_send_str>
 		switch_sensor[i] = sta;
 		switch_sensor_buff[i] = sta;
// 		eeprom_write(SINGLE_SWSENSOR_EEADDR+i, switch_sensor[i]);
	}
	
	for (;slave_num <= 3; slave_num++)
     504:	1f 5f       	subi	r17, 0xFF	; 255
     506:	14 30       	cpi	r17, 0x04	; 4
     508:	39 f7       	brne	.-50     	; 0x4d8 <switch_all_sensor+0x52>
		usart1_tx_timecnt = 0;
		
		usart1_send_str(usart1_tx_buff, 9);
	}

	ctrl_command = READ_DATA_ALL;
     50a:	81 e0       	ldi	r24, 0x01	; 1
     50c:	80 93 d6 01 	sts	0x01D6, r24	; 0x8001d6 <ctrl_command>
}
     510:	df 91       	pop	r29
     512:	cf 91       	pop	r28
     514:	1f 91       	pop	r17
     516:	08 95       	ret

00000518 <get_set_name>:

void get_set_name(void)
{
	set_name_buff = usart0_rx_buff[7];
     518:	ea e0       	ldi	r30, 0x0A	; 10
     51a:	f6 e0       	ldi	r31, 0x06	; 6
	set_name_buff = (set_name_buff << 8) | usart0_rx_buff[8];
	set_name_buff = (set_name_buff << 8) | usart0_rx_buff[9];
	set_name_buff = (set_name_buff << 8) | usart0_rx_buff[10];
     51c:	87 81       	ldd	r24, Z+7	; 0x07
     51e:	90 e0       	ldi	r25, 0x00	; 0
     520:	a0 e0       	ldi	r26, 0x00	; 0
     522:	b0 e0       	ldi	r27, 0x00	; 0
     524:	ba 2f       	mov	r27, r26
     526:	a9 2f       	mov	r26, r25
     528:	98 2f       	mov	r25, r24
     52a:	88 27       	eor	r24, r24
     52c:	20 85       	ldd	r18, Z+8	; 0x08
     52e:	82 2b       	or	r24, r18
     530:	ba 2f       	mov	r27, r26
     532:	a9 2f       	mov	r26, r25
     534:	98 2f       	mov	r25, r24
     536:	88 27       	eor	r24, r24
     538:	21 85       	ldd	r18, Z+9	; 0x09
     53a:	82 2b       	or	r24, r18
     53c:	ba 2f       	mov	r27, r26
     53e:	a9 2f       	mov	r26, r25
     540:	98 2f       	mov	r25, r24
     542:	88 27       	eor	r24, r24
     544:	22 85       	ldd	r18, Z+10	; 0x0a
     546:	82 2b       	or	r24, r18
     548:	80 93 2e 02 	sts	0x022E, r24	; 0x80022e <set_name_buff>
     54c:	90 93 2f 02 	sts	0x022F, r25	; 0x80022f <set_name_buff+0x1>
     550:	a0 93 30 02 	sts	0x0230, r26	; 0x800230 <set_name_buff+0x2>
     554:	b0 93 31 02 	sts	0x0231, r27	; 0x800231 <set_name_buff+0x3>
     558:	08 95       	ret

0000055a <single_set>:
}

void single_set(uint8_t command, uint16_t value)
{
     55a:	cf 93       	push	r28
     55c:	df 93       	push	r29
     55e:	58 2f       	mov	r21, r24
	uint16_t crc = 0;
	uint8_t addr = 0;
	
	ctrl_command = 0; // 不是READ_DATA_ALL 就OK
     560:	10 92 d6 01 	sts	0x01D6, r1	; 0x8001d6 <ctrl_command>
	
	if (temp_unit_buff == 1)
     564:	80 91 df 02 	lds	r24, 0x02DF	; 0x8002df <temp_unit_buff>
     568:	90 91 e0 02 	lds	r25, 0x02E0	; 0x8002e0 <temp_unit_buff+0x1>
     56c:	01 97       	sbiw	r24, 0x01	; 1
     56e:	c1 f4       	brne	.+48     	; 0x5a0 <single_set+0x46>
	{
		value = ((value - 32) * 10 / 18);
     570:	9b 01       	movw	r18, r22
     572:	22 0f       	add	r18, r18
     574:	33 1f       	adc	r19, r19
     576:	66 0f       	add	r22, r22
     578:	77 1f       	adc	r23, r23
     57a:	66 0f       	add	r22, r22
     57c:	77 1f       	adc	r23, r23
     57e:	66 0f       	add	r22, r22
     580:	77 1f       	adc	r23, r23
     582:	26 0f       	add	r18, r22
     584:	37 1f       	adc	r19, r23
     586:	20 54       	subi	r18, 0x40	; 64
     588:	31 40       	sbci	r19, 0x01	; 1
     58a:	af e8       	ldi	r26, 0x8F	; 143
     58c:	b3 ee       	ldi	r27, 0xE3	; 227
     58e:	0e 94 5b 13 	call	0x26b6	; 0x26b6 <__umulhisi3>
     592:	bc 01       	movw	r22, r24
     594:	72 95       	swap	r23
     596:	62 95       	swap	r22
     598:	6f 70       	andi	r22, 0x0F	; 15
     59a:	67 27       	eor	r22, r23
     59c:	7f 70       	andi	r23, 0x0F	; 15
     59e:	67 27       	eor	r22, r23
	}

	addr = (set_num / 4) + 1;
     5a0:	40 91 99 02 	lds	r20, 0x0299	; 0x800299 <set_num>
	addr = (addr << 4) | ((set_num % 4) + 1);
     5a4:	94 2f       	mov	r25, r20
     5a6:	96 95       	lsr	r25
     5a8:	96 95       	lsr	r25
     5aa:	9f 5f       	subi	r25, 0xFF	; 255
     5ac:	80 e1       	ldi	r24, 0x10	; 16
     5ae:	98 9f       	mul	r25, r24
     5b0:	90 01       	movw	r18, r0
     5b2:	11 24       	eor	r1, r1
     5b4:	43 70       	andi	r20, 0x03	; 3
     5b6:	4f 5f       	subi	r20, 0xFF	; 255
     5b8:	24 2b       	or	r18, r20

	usart1_tx_buff[0] = 0xA5;
     5ba:	cf ea       	ldi	r28, 0xAF	; 175
     5bc:	d3 e0       	ldi	r29, 0x03	; 3
     5be:	85 ea       	ldi	r24, 0xA5	; 165
     5c0:	88 83       	st	Y, r24
	usart1_tx_buff[1] = 0x5A;
     5c2:	8a e5       	ldi	r24, 0x5A	; 90
     5c4:	89 83       	std	Y+1, r24	; 0x01
	usart1_tx_buff[2] = 0x04;
     5c6:	84 e0       	ldi	r24, 0x04	; 4
     5c8:	8a 83       	std	Y+2, r24	; 0x02
	usart1_tx_buff[3] = command;
     5ca:	5b 83       	std	Y+3, r21	; 0x03
	usart1_tx_buff[4] = addr;
     5cc:	2c 83       	std	Y+4, r18	; 0x04
	usart1_tx_buff[5] = (value >> 8);
     5ce:	7d 83       	std	Y+5, r23	; 0x05
	usart1_tx_buff[6] = value;
     5d0:	6e 83       	std	Y+6, r22	; 0x06

	crc = crc_check(usart1_tx_buff, 9);
     5d2:	69 e0       	ldi	r22, 0x09	; 9
     5d4:	ce 01       	movw	r24, r28
     5d6:	0e 94 91 10 	call	0x2122	; 0x2122 <crc_check>

	usart1_tx_buff[7] = crc & 0x00FF;
     5da:	8f 83       	std	Y+7, r24	; 0x07
	usart1_tx_buff[8] = crc >> 8;
     5dc:	98 87       	std	Y+8, r25	; 0x08
	
	while(usart1_tx_overtime_mask != 1);
     5de:	80 91 aa 02 	lds	r24, 0x02AA	; 0x8002aa <usart1_tx_overtime_mask>
     5e2:	81 30       	cpi	r24, 0x01	; 1
     5e4:	f1 f7       	brne	.-4      	; 0x5e2 <single_set+0x88>
	usart1_tx_overtime_mask = 0;
     5e6:	10 92 aa 02 	sts	0x02AA, r1	; 0x8002aa <usart1_tx_overtime_mask>
	usart1_tx_timecnt = 0;
     5ea:	10 92 ab 02 	sts	0x02AB, r1	; 0x8002ab <usart1_tx_timecnt>
	
	usart1_send_str(usart1_tx_buff, 9);
     5ee:	69 e0       	ldi	r22, 0x09	; 9
     5f0:	8f ea       	ldi	r24, 0xAF	; 175
     5f2:	93 e0       	ldi	r25, 0x03	; 3
     5f4:	0e 94 4b 10 	call	0x2096	; 0x2096 <usart1_send_str>

	ctrl_command = READ_DATA_ALL;
     5f8:	81 e0       	ldi	r24, 0x01	; 1
     5fa:	80 93 d6 01 	sts	0x01D6, r24	; 0x8001d6 <ctrl_command>
}
     5fe:	df 91       	pop	r29
     600:	cf 91       	pop	r28
     602:	08 95       	ret

00000604 <all_set>:

void all_set(uint8_t command, uint16_t value)
{
     604:	1f 93       	push	r17
     606:	cf 93       	push	r28
     608:	df 93       	push	r29
     60a:	48 2f       	mov	r20, r24
	uint16_t crc = 0;
	uint8_t slave_num = 1;

	ctrl_command = 0;		//不是READ_DATA_ALL 就ok
     60c:	10 92 d6 01 	sts	0x01D6, r1	; 0x8001d6 <ctrl_command>
	
	if (command == TEMP)
     610:	83 30       	cpi	r24, 0x03	; 3
     612:	f1 f4       	brne	.+60     	; 0x650 <all_set+0x4c>
	{
		if (temp_unit_buff == 1)
     614:	80 91 df 02 	lds	r24, 0x02DF	; 0x8002df <temp_unit_buff>
     618:	90 91 e0 02 	lds	r25, 0x02E0	; 0x8002e0 <temp_unit_buff+0x1>
     61c:	01 97       	sbiw	r24, 0x01	; 1
     61e:	c1 f4       	brne	.+48     	; 0x650 <all_set+0x4c>
		{
			value = ((value - 32) * 10 / 18);
     620:	9b 01       	movw	r18, r22
     622:	22 0f       	add	r18, r18
     624:	33 1f       	adc	r19, r19
     626:	66 0f       	add	r22, r22
     628:	77 1f       	adc	r23, r23
     62a:	66 0f       	add	r22, r22
     62c:	77 1f       	adc	r23, r23
     62e:	66 0f       	add	r22, r22
     630:	77 1f       	adc	r23, r23
     632:	26 0f       	add	r18, r22
     634:	37 1f       	adc	r19, r23
     636:	20 54       	subi	r18, 0x40	; 64
     638:	31 40       	sbci	r19, 0x01	; 1
     63a:	af e8       	ldi	r26, 0x8F	; 143
     63c:	b3 ee       	ldi	r27, 0xE3	; 227
     63e:	0e 94 5b 13 	call	0x26b6	; 0x26b6 <__umulhisi3>
     642:	bc 01       	movw	r22, r24
     644:	72 95       	swap	r23
     646:	62 95       	swap	r22
     648:	6f 70       	andi	r22, 0x0F	; 15
     64a:	67 27       	eor	r22, r23
     64c:	7f 70       	andi	r23, 0x0F	; 15
     64e:	67 27       	eor	r22, r23
		}
	}
	
	usart1_tx_buff[0] = 0xA5;
     650:	ef ea       	ldi	r30, 0xAF	; 175
     652:	f3 e0       	ldi	r31, 0x03	; 3
     654:	85 ea       	ldi	r24, 0xA5	; 165
     656:	80 83       	st	Z, r24
	usart1_tx_buff[1] = 0x5A;
     658:	8a e5       	ldi	r24, 0x5A	; 90
     65a:	81 83       	std	Z+1, r24	; 0x01
	usart1_tx_buff[2] = 0x04;
     65c:	84 e0       	ldi	r24, 0x04	; 4
     65e:	82 83       	std	Z+2, r24	; 0x02
	usart1_tx_buff[3] = command;
     660:	43 83       	std	Z+3, r20	; 0x03
	usart1_tx_buff[5] = (value >> 8);
     662:	75 83       	std	Z+5, r23	; 0x05
	usart1_tx_buff[6] = value;
     664:	66 83       	std	Z+6, r22	; 0x06
}

void all_set(uint8_t command, uint16_t value)
{
	uint16_t crc = 0;
	uint8_t slave_num = 1;
     666:	11 e0       	ldi	r17, 0x01	; 1
	usart1_tx_buff[5] = (value >> 8);
	usart1_tx_buff[6] = value;
	
	for (;slave_num <= 3; slave_num++)
	{
		usart1_tx_buff[4] = slave_num << 4;
     668:	ef 01       	movw	r28, r30
     66a:	81 2f       	mov	r24, r17
     66c:	82 95       	swap	r24
     66e:	80 7f       	andi	r24, 0xF0	; 240
     670:	8c 83       	std	Y+4, r24	; 0x04
	
		crc = crc_check(usart1_tx_buff, 9);
     672:	69 e0       	ldi	r22, 0x09	; 9
     674:	ce 01       	movw	r24, r28
     676:	0e 94 91 10 	call	0x2122	; 0x2122 <crc_check>
	
		usart1_tx_buff[7] = crc & 0x00FF;
     67a:	8f 83       	std	Y+7, r24	; 0x07
		usart1_tx_buff[8] = crc >> 8;
     67c:	98 87       	std	Y+8, r25	; 0x08
	
		while (usart1_tx_overtime_mask != 1);
     67e:	80 91 aa 02 	lds	r24, 0x02AA	; 0x8002aa <usart1_tx_overtime_mask>
     682:	81 30       	cpi	r24, 0x01	; 1
     684:	f1 f7       	brne	.-4      	; 0x682 <all_set+0x7e>
		usart1_tx_overtime_mask = 0;
     686:	10 92 aa 02 	sts	0x02AA, r1	; 0x8002aa <usart1_tx_overtime_mask>
		usart1_tx_timecnt = 0;
     68a:	10 92 ab 02 	sts	0x02AB, r1	; 0x8002ab <usart1_tx_timecnt>
		
		usart1_send_str(usart1_tx_buff, 9);
     68e:	69 e0       	ldi	r22, 0x09	; 9
     690:	ce 01       	movw	r24, r28
     692:	0e 94 4b 10 	call	0x2096	; 0x2096 <usart1_send_str>
	usart1_tx_buff[2] = 0x04;
	usart1_tx_buff[3] = command;
	usart1_tx_buff[5] = (value >> 8);
	usart1_tx_buff[6] = value;
	
	for (;slave_num <= 3; slave_num++)
     696:	1f 5f       	subi	r17, 0xFF	; 255
     698:	14 30       	cpi	r17, 0x04	; 4
     69a:	39 f7       	brne	.-50     	; 0x66a <all_set+0x66>
		usart1_tx_timecnt = 0;
		
		usart1_send_str(usart1_tx_buff, 9);
	}
	
	ctrl_command = READ_DATA_ALL;
     69c:	81 e0       	ldi	r24, 0x01	; 1
     69e:	80 93 d6 01 	sts	0x01D6, r24	; 0x8001d6 <ctrl_command>
}
     6a2:	df 91       	pop	r29
     6a4:	cf 91       	pop	r28
     6a6:	1f 91       	pop	r17
     6a8:	08 95       	ret

000006aa <save_time_ctrl_data>:
	}
}

/*按下保存键 保存输入的数据  不按保存直接返回的话  则不保存*/
void save_time_ctrl_data(void)
{
     6aa:	e0 91 40 01 	lds	r30, 0x0140	; 0x800140 <module_num>
     6ae:	f0 e0       	ldi	r31, 0x00	; 0
     6b0:	31 97       	sbiw	r30, 0x01	; 1
     6b2:	00 24       	eor	r0, r0
     6b4:	f6 95       	lsr	r31
     6b6:	e7 95       	ror	r30
     6b8:	07 94       	ror	r0
     6ba:	f6 95       	lsr	r31
     6bc:	e7 95       	ror	r30
     6be:	07 94       	ror	r0
     6c0:	fe 2f       	mov	r31, r30
     6c2:	e0 2d       	mov	r30, r0
     6c4:	df 01       	movw	r26, r30
     6c6:	ad 52       	subi	r26, 0x2D	; 45
     6c8:	b8 4f       	sbci	r27, 0xF8	; 248
     6ca:	ee 52       	subi	r30, 0x2E	; 46
     6cc:	f9 4f       	sbci	r31, 0xF9	; 249

	for (i = 0; i < 8; i++)
	{
		for (j = 0; j < 4; j++)
		{
			time_ctrl_value[module_num - 1][i][j] = time_ctrl_value_buff[module_num - 1][i][j];
     6ce:	88 e0       	ldi	r24, 0x08	; 8
     6d0:	2d 91       	ld	r18, X+
     6d2:	3c 91       	ld	r19, X
     6d4:	11 97       	sbiw	r26, 0x01	; 1
     6d6:	31 83       	std	Z+1, r19	; 0x01
     6d8:	20 83       	st	Z, r18
     6da:	12 96       	adiw	r26, 0x02	; 2
     6dc:	2d 91       	ld	r18, X+
     6de:	3c 91       	ld	r19, X
     6e0:	13 97       	sbiw	r26, 0x03	; 3
     6e2:	33 83       	std	Z+3, r19	; 0x03
     6e4:	22 83       	std	Z+2, r18	; 0x02
     6e6:	14 96       	adiw	r26, 0x04	; 4
     6e8:	2d 91       	ld	r18, X+
     6ea:	3c 91       	ld	r19, X
     6ec:	15 97       	sbiw	r26, 0x05	; 5
     6ee:	35 83       	std	Z+5, r19	; 0x05
     6f0:	24 83       	std	Z+4, r18	; 0x04
     6f2:	16 96       	adiw	r26, 0x06	; 6
     6f4:	2d 91       	ld	r18, X+
     6f6:	3c 91       	ld	r19, X
     6f8:	17 97       	sbiw	r26, 0x07	; 7
     6fa:	37 83       	std	Z+7, r19	; 0x07
     6fc:	26 83       	std	Z+6, r18	; 0x06
     6fe:	81 50       	subi	r24, 0x01	; 1
     700:	18 96       	adiw	r26, 0x08	; 8
     702:	38 96       	adiw	r30, 0x08	; 8
/*按下保存键 保存输入的数据  不按保存直接返回的话  则不保存*/
void save_time_ctrl_data(void)
{
	uint8_t i, j;

	for (i = 0; i < 8; i++)
     704:	81 11       	cpse	r24, r1
     706:	e4 cf       	rjmp	.-56     	; 0x6d0 <save_time_ctrl_data+0x26>
		for (j = 0; j < 4; j++)
		{
			time_ctrl_value[module_num - 1][i][j] = time_ctrl_value_buff[module_num - 1][i][j];
		}
	}
}
     708:	08 95       	ret

0000070a <change_page>:

	eeprom_write(PRE_LANGUAGE_EEADDR, pre_language);
}

void change_page(uint8_t page_num)
{
     70a:	cf 93       	push	r28
     70c:	df 93       	push	r29
	uint16_t crc = 0;

	usart0_tx_buff[0] = 0xA5;
     70e:	c2 e4       	ldi	r28, 0x42	; 66
     710:	d5 e0       	ldi	r29, 0x05	; 5
     712:	95 ea       	ldi	r25, 0xA5	; 165
     714:	98 83       	st	Y, r25
	usart0_tx_buff[1] = 0x5A;
     716:	9a e5       	ldi	r25, 0x5A	; 90
     718:	99 83       	std	Y+1, r25	; 0x01
	usart0_tx_buff[2] = 0x04; //4.3寸屏为4  5寸屏为6
     71a:	94 e0       	ldi	r25, 0x04	; 4
     71c:	9a 83       	std	Y+2, r25	; 0x02
	usart0_tx_buff[3] = 0x80;
     71e:	90 e8       	ldi	r25, 0x80	; 128
     720:	9b 83       	std	Y+3, r25	; 0x03
	usart0_tx_buff[4] = 0x03;
     722:	93 e0       	ldi	r25, 0x03	; 3
     724:	9c 83       	std	Y+4, r25	; 0x04
	usart0_tx_buff[5] = 0x00;
     726:	1d 82       	std	Y+5, r1	; 0x05
	usart0_tx_buff[6] = page_num;
     728:	8e 83       	std	Y+6, r24	; 0x06

	crc = crc_check(usart0_tx_buff, 9);
     72a:	69 e0       	ldi	r22, 0x09	; 9
     72c:	ce 01       	movw	r24, r28
     72e:	0e 94 91 10 	call	0x2122	; 0x2122 <crc_check>

	usart0_tx_buff[7] = crc & 0x00FF;
     732:	8f 83       	std	Y+7, r24	; 0x07
	usart0_tx_buff[8] = crc >> 8;
     734:	98 87       	std	Y+8, r25	; 0x08

	usart0_send_str(usart0_tx_buff, 9);
     736:	69 e0       	ldi	r22, 0x09	; 9
     738:	ce 01       	movw	r24, r28
     73a:	0e 94 2a 10 	call	0x2054	; 0x2054 <usart0_send_str>
}
     73e:	df 91       	pop	r29
     740:	cf 91       	pop	r28
     742:	08 95       	ret

00000744 <switch_language>:
	}
}

void switch_language(void)
{
	if (pre_language == 1)
     744:	80 91 9d 02 	lds	r24, 0x029D	; 0x80029d <pre_language>
     748:	81 30       	cpi	r24, 0x01	; 1
     74a:	21 f4       	brne	.+8      	; 0x754 <switch_language+0x10>
	{
		change_page(3); //暂定英文页面为13
     74c:	83 e0       	ldi	r24, 0x03	; 3
     74e:	0e 94 85 03 	call	0x70a	; 0x70a <change_page>
     752:	03 c0       	rjmp	.+6      	; 0x75a <switch_language+0x16>
	}
	else
	{
		change_page(1);
     754:	81 e0       	ldi	r24, 0x01	; 1
     756:	0e 94 85 03 	call	0x70a	; 0x70a <change_page>
	}

	eeprom_write(PRE_LANGUAGE_EEADDR, pre_language);
     75a:	60 91 9d 02 	lds	r22, 0x029D	; 0x80029d <pre_language>
     75e:	80 e0       	ldi	r24, 0x00	; 0
     760:	90 e0       	ldi	r25, 0x00	; 0
     762:	0e 94 46 0d 	call	0x1a8c	; 0x1a8c <eeprom_write>
     766:	08 95       	ret

00000768 <send_variables>:
* @brief  指定地址下发变量到dgus
* @param  addr变量地址  data变量值
* @retval None
*/
void send_variables(uint16_t addr, uint16_t data)
{
     768:	cf 93       	push	r28
     76a:	df 93       	push	r29
	uint16_t crc = 0;
	usart0_tx_buff[0] = 0xA5;
     76c:	c2 e4       	ldi	r28, 0x42	; 66
     76e:	d5 e0       	ldi	r29, 0x05	; 5
     770:	25 ea       	ldi	r18, 0xA5	; 165
     772:	28 83       	st	Y, r18
	usart0_tx_buff[1] = 0x5A;
     774:	2a e5       	ldi	r18, 0x5A	; 90
     776:	29 83       	std	Y+1, r18	; 0x01
	usart0_tx_buff[2] = 0x05;
     778:	25 e0       	ldi	r18, 0x05	; 5
     77a:	2a 83       	std	Y+2, r18	; 0x02
	usart0_tx_buff[3] = 0x82;
     77c:	22 e8       	ldi	r18, 0x82	; 130
     77e:	2b 83       	std	Y+3, r18	; 0x03
	usart0_tx_buff[4] = addr >> 8;
     780:	9c 83       	std	Y+4, r25	; 0x04
	usart0_tx_buff[5] = addr & 0x00FF;
     782:	8d 83       	std	Y+5, r24	; 0x05
	usart0_tx_buff[6] = data >> 8;
     784:	7e 83       	std	Y+6, r23	; 0x06
	usart0_tx_buff[7] = data & 0x00FF;
     786:	6f 83       	std	Y+7, r22	; 0x07

	crc = crc_check(usart0_tx_buff, 10);
     788:	6a e0       	ldi	r22, 0x0A	; 10
     78a:	ce 01       	movw	r24, r28
     78c:	0e 94 91 10 	call	0x2122	; 0x2122 <crc_check>

	usart0_tx_buff[8] = crc & 0x00FF;
     790:	88 87       	std	Y+8, r24	; 0x08
	usart0_tx_buff[9] = crc >> 8;
     792:	99 87       	std	Y+9, r25	; 0x09

	usart0_send_str(usart0_tx_buff, 10);
     794:	6a e0       	ldi	r22, 0x0A	; 10
     796:	ce 01       	movw	r24, r28
     798:	0e 94 2a 10 	call	0x2054	; 0x2054 <usart0_send_str>
}
     79c:	df 91       	pop	r29
     79e:	cf 91       	pop	r28
     7a0:	08 95       	ret

000007a2 <pid_set_ok>:
	in_main_page = 1;
}

void pid_set_ok(void)
{
	p_value[set_pid_channel - 1] = p_value_buff;
     7a2:	80 91 98 02 	lds	r24, 0x0298	; 0x800298 <set_pid_channel>
     7a6:	90 e0       	ldi	r25, 0x00	; 0
     7a8:	01 97       	sbiw	r24, 0x01	; 1
     7aa:	60 91 db 01 	lds	r22, 0x01DB	; 0x8001db <p_value_buff>
     7ae:	70 91 dc 01 	lds	r23, 0x01DC	; 0x8001dc <p_value_buff+0x1>
     7b2:	88 0f       	add	r24, r24
     7b4:	99 1f       	adc	r25, r25
     7b6:	fc 01       	movw	r30, r24
     7b8:	eb 58       	subi	r30, 0x8B	; 139
     7ba:	fe 4f       	sbci	r31, 0xFE	; 254
     7bc:	71 83       	std	Z+1, r23	; 0x01
     7be:	60 83       	st	Z, r22
	i_value[set_pid_channel - 1] = i_value_buff;
     7c0:	fc 01       	movw	r30, r24
     7c2:	e3 5a       	subi	r30, 0xA3	; 163
     7c4:	fe 4f       	sbci	r31, 0xFE	; 254
     7c6:	20 91 d9 01 	lds	r18, 0x01D9	; 0x8001d9 <i_value_buff>
     7ca:	30 91 da 01 	lds	r19, 0x01DA	; 0x8001da <i_value_buff+0x1>
     7ce:	31 83       	std	Z+1, r19	; 0x01
     7d0:	20 83       	st	Z, r18
	d_value[set_pid_channel - 1] = d_value_buff;
     7d2:	fc 01       	movw	r30, r24
     7d4:	eb 5b       	subi	r30, 0xBB	; 187
     7d6:	fe 4f       	sbci	r31, 0xFE	; 254
     7d8:	20 91 d7 01 	lds	r18, 0x01D7	; 0x8001d7 <d_value_buff>
     7dc:	30 91 d8 01 	lds	r19, 0x01D8	; 0x8001d8 <d_value_buff+0x1>
     7e0:	31 83       	std	Z+1, r19	; 0x01
     7e2:	20 83       	st	Z, r18
// 	eeprom_write(PID_I_EEADDR + ((set_pid_channel - 1) * 2) + 1, i_value[set_pid_channel - 1] >> 8);
// 
// 	eeprom_write(PID_D_EEADDR + ((set_pid_channel - 1) * 2), d_value[set_pid_channel - 1]);
// 	eeprom_write(PID_D_EEADDR + ((set_pid_channel - 1) * 2) + 1, d_value[set_pid_channel - 1] >> 8);

	send_variables(PID_P_ADDR, p_value[set_pid_channel - 1]);
     7e4:	86 e3       	ldi	r24, 0x36	; 54
     7e6:	90 e0       	ldi	r25, 0x00	; 0
     7e8:	0e 94 b4 03 	call	0x768	; 0x768 <send_variables>
	send_variables(PID_I_ADDR, i_value[set_pid_channel - 1]);
     7ec:	e0 91 98 02 	lds	r30, 0x0298	; 0x800298 <set_pid_channel>
     7f0:	f0 e0       	ldi	r31, 0x00	; 0
     7f2:	ee 0f       	add	r30, r30
     7f4:	ff 1f       	adc	r31, r31
     7f6:	e5 5a       	subi	r30, 0xA5	; 165
     7f8:	fe 4f       	sbci	r31, 0xFE	; 254
     7fa:	60 81       	ld	r22, Z
     7fc:	71 81       	ldd	r23, Z+1	; 0x01
     7fe:	88 e3       	ldi	r24, 0x38	; 56
     800:	90 e0       	ldi	r25, 0x00	; 0
     802:	0e 94 b4 03 	call	0x768	; 0x768 <send_variables>
	send_variables(PID_D_ADDR, d_value[set_pid_channel - 1]);
     806:	e0 91 98 02 	lds	r30, 0x0298	; 0x800298 <set_pid_channel>
     80a:	f0 e0       	ldi	r31, 0x00	; 0
     80c:	ee 0f       	add	r30, r30
     80e:	ff 1f       	adc	r31, r31
     810:	ed 5b       	subi	r30, 0xBD	; 189
     812:	fe 4f       	sbci	r31, 0xFE	; 254
     814:	60 81       	ld	r22, Z
     816:	71 81       	ldd	r23, Z+1	; 0x01
     818:	8a e3       	ldi	r24, 0x3A	; 58
     81a:	90 e0       	ldi	r25, 0x00	; 0
     81c:	0e 94 b4 03 	call	0x768	; 0x768 <send_variables>
	
	set_pid();
     820:	0e 94 9e 01 	call	0x33c	; 0x33c <set_pid>
     824:	08 95       	ret

00000826 <all_set_back>:
	update_run_temp_flag = 0;
}

void all_set_back(void)
{
	if (all_temp_buff != all_temp)
     826:	60 91 41 01 	lds	r22, 0x0141	; 0x800141 <all_temp>
     82a:	70 91 42 01 	lds	r23, 0x0142	; 0x800142 <all_temp+0x1>
     82e:	80 91 f7 01 	lds	r24, 0x01F7	; 0x8001f7 <all_temp_buff>
     832:	90 91 f8 01 	lds	r25, 0x01F8	; 0x8001f8 <all_temp_buff+0x1>
     836:	86 17       	cp	r24, r22
     838:	97 07       	cpc	r25, r23
     83a:	41 f0       	breq	.+16     	; 0x84c <all_set_back+0x26>
	{
		all_temp_buff = all_temp;
     83c:	70 93 f8 01 	sts	0x01F8, r23	; 0x8001f8 <all_temp_buff+0x1>
     840:	60 93 f7 01 	sts	0x01F7, r22	; 0x8001f7 <all_temp_buff>
		send_variables(ALL_SET_TEMP, all_temp);
     844:	88 e4       	ldi	r24, 0x48	; 72
     846:	91 e0       	ldi	r25, 0x01	; 1
     848:	0e 94 b4 03 	call	0x768	; 0x768 <send_variables>
	}

	if (preheat_time_buff != preheat_time)
     84c:	60 91 43 01 	lds	r22, 0x0143	; 0x800143 <preheat_time>
     850:	70 91 44 01 	lds	r23, 0x0144	; 0x800144 <preheat_time+0x1>
     854:	80 91 f5 01 	lds	r24, 0x01F5	; 0x8001f5 <preheat_time_buff>
     858:	90 91 f6 01 	lds	r25, 0x01F6	; 0x8001f6 <preheat_time_buff+0x1>
     85c:	86 17       	cp	r24, r22
     85e:	97 07       	cpc	r25, r23
     860:	41 f0       	breq	.+16     	; 0x872 <all_set_back+0x4c>
	{
		preheat_time_buff = preheat_time;
     862:	70 93 f6 01 	sts	0x01F6, r23	; 0x8001f6 <preheat_time_buff+0x1>
     866:	60 93 f5 01 	sts	0x01F5, r22	; 0x8001f5 <preheat_time_buff>
		send_variables(SET_PREHEAT_TIME, preheat_time);
     86a:	8a e4       	ldi	r24, 0x4A	; 74
     86c:	91 e0       	ldi	r25, 0x01	; 1
     86e:	0e 94 b4 03 	call	0x768	; 0x768 <send_variables>
	}

	if (all_sensor_type_buff != all_sensor_type)
     872:	80 91 14 02 	lds	r24, 0x0214	; 0x800214 <all_sensor_type>
     876:	90 91 15 02 	lds	r25, 0x0215	; 0x800215 <all_sensor_type+0x1>
     87a:	20 91 e1 02 	lds	r18, 0x02E1	; 0x8002e1 <all_sensor_type_buff>
     87e:	30 91 e2 02 	lds	r19, 0x02E2	; 0x8002e2 <all_sensor_type_buff+0x1>
     882:	28 17       	cp	r18, r24
     884:	39 07       	cpc	r19, r25
     886:	61 f0       	breq	.+24     	; 0x8a0 <all_set_back+0x7a>
	{
		all_sensor_type_buff = all_sensor_type;
     888:	90 93 e2 02 	sts	0x02E2, r25	; 0x8002e2 <all_sensor_type_buff+0x1>
     88c:	80 93 e1 02 	sts	0x02E1, r24	; 0x8002e1 <all_sensor_type_buff>
		send_variables(ALL_SENSOR_TYPE_ADDR, TYPE_J + (all_sensor_type * TYPE_K));
     890:	86 5b       	subi	r24, 0xB6	; 182
     892:	9f 4f       	sbci	r25, 0xFF	; 255
     894:	60 e0       	ldi	r22, 0x00	; 0
     896:	78 2f       	mov	r23, r24
     898:	84 e9       	ldi	r24, 0x94	; 148
     89a:	92 e0       	ldi	r25, 0x02	; 2
     89c:	0e 94 b4 03 	call	0x768	; 0x768 <send_variables>
	}

	if (temp_unit_buff != temp_unit)
     8a0:	80 91 12 02 	lds	r24, 0x0212	; 0x800212 <temp_unit>
     8a4:	90 91 13 02 	lds	r25, 0x0213	; 0x800213 <temp_unit+0x1>
     8a8:	20 91 df 02 	lds	r18, 0x02DF	; 0x8002df <temp_unit_buff>
     8ac:	30 91 e0 02 	lds	r19, 0x02E0	; 0x8002e0 <temp_unit_buff+0x1>
     8b0:	28 17       	cp	r18, r24
     8b2:	39 07       	cpc	r19, r25
     8b4:	91 f0       	breq	.+36     	; 0x8da <all_set_back+0xb4>
	{
		temp_unit_buff = temp_unit;
     8b6:	90 93 e0 02 	sts	0x02E0, r25	; 0x8002e0 <temp_unit_buff+0x1>
     8ba:	80 93 df 02 	sts	0x02DF, r24	; 0x8002df <temp_unit_buff>
		send_variables(TEMP_UINT_ADDR, (CELSIUS + temp_unit * FAHRENHEIT));
     8be:	20 e0       	ldi	r18, 0x00	; 0
     8c0:	33 e0       	ldi	r19, 0x03	; 3
     8c2:	82 9f       	mul	r24, r18
     8c4:	b0 01       	movw	r22, r0
     8c6:	83 9f       	mul	r24, r19
     8c8:	70 0d       	add	r23, r0
     8ca:	92 9f       	mul	r25, r18
     8cc:	70 0d       	add	r23, r0
     8ce:	11 24       	eor	r1, r1
     8d0:	7d 5b       	subi	r23, 0xBD	; 189
     8d2:	8c e3       	ldi	r24, 0x3C	; 60
     8d4:	92 e0       	ldi	r25, 0x02	; 2
     8d6:	0e 94 b4 03 	call	0x768	; 0x768 <send_variables>
	}

	in_main_page = 1;
     8da:	81 e0       	ldi	r24, 0x01	; 1
     8dc:	80 93 d5 01 	sts	0x01D5, r24	; 0x8001d5 <in_main_page>
     8e0:	08 95       	ret

000008e2 <update_pid_page>:

	set_name_buff = set_name[set_num];
}

void update_pid_page(uint8_t channel)
{
     8e2:	ef 92       	push	r14
     8e4:	ff 92       	push	r15
     8e6:	0f 93       	push	r16
     8e8:	1f 93       	push	r17
     8ea:	cf 93       	push	r28
     8ec:	df 93       	push	r29
     8ee:	c8 2f       	mov	r28, r24
	set_pid_channel = channel;
     8f0:	80 93 98 02 	sts	0x0298, r24	; 0x800298 <set_pid_channel>

	if (channel == 1)
     8f4:	81 30       	cpi	r24, 0x01	; 1
     8f6:	31 f4       	brne	.+12     	; 0x904 <update_pid_page+0x22>
	{
		send_variables(PID_CHANNEL, 1);
     8f8:	61 e0       	ldi	r22, 0x01	; 1
     8fa:	70 e0       	ldi	r23, 0x00	; 0
     8fc:	80 e5       	ldi	r24, 0x50	; 80
     8fe:	91 e0       	ldi	r25, 0x01	; 1
     900:	0e 94 b4 03 	call	0x768	; 0x768 <send_variables>
	}

	send_variables(PID_P_ADDR, p_value[channel - 1]);
     904:	d0 e0       	ldi	r29, 0x00	; 0
     906:	21 97       	sbiw	r28, 0x01	; 1
     908:	cc 0f       	add	r28, r28
     90a:	dd 1f       	adc	r29, r29
     90c:	ce 01       	movw	r24, r28
     90e:	8b 58       	subi	r24, 0x8B	; 139
     910:	9e 4f       	sbci	r25, 0xFE	; 254
     912:	7c 01       	movw	r14, r24
     914:	fc 01       	movw	r30, r24
     916:	60 81       	ld	r22, Z
     918:	71 81       	ldd	r23, Z+1	; 0x01
     91a:	86 e3       	ldi	r24, 0x36	; 54
     91c:	90 e0       	ldi	r25, 0x00	; 0
     91e:	0e 94 b4 03 	call	0x768	; 0x768 <send_variables>
	send_variables(PID_I_ADDR, i_value[channel - 1]);
     922:	8e 01       	movw	r16, r28
     924:	03 5a       	subi	r16, 0xA3	; 163
     926:	1e 4f       	sbci	r17, 0xFE	; 254
     928:	f8 01       	movw	r30, r16
     92a:	60 81       	ld	r22, Z
     92c:	71 81       	ldd	r23, Z+1	; 0x01
     92e:	88 e3       	ldi	r24, 0x38	; 56
     930:	90 e0       	ldi	r25, 0x00	; 0
     932:	0e 94 b4 03 	call	0x768	; 0x768 <send_variables>
	send_variables(PID_D_ADDR, d_value[channel - 1]);
     936:	cb 5b       	subi	r28, 0xBB	; 187
     938:	de 4f       	sbci	r29, 0xFE	; 254
     93a:	68 81       	ld	r22, Y
     93c:	79 81       	ldd	r23, Y+1	; 0x01
     93e:	8a e3       	ldi	r24, 0x3A	; 58
     940:	90 e0       	ldi	r25, 0x00	; 0
     942:	0e 94 b4 03 	call	0x768	; 0x768 <send_variables>

	send_variables(PID_P, p_value[channel - 1]);
     946:	f7 01       	movw	r30, r14
     948:	60 81       	ld	r22, Z
     94a:	71 81       	ldd	r23, Z+1	; 0x01
     94c:	82 e5       	ldi	r24, 0x52	; 82
     94e:	91 e0       	ldi	r25, 0x01	; 1
     950:	0e 94 b4 03 	call	0x768	; 0x768 <send_variables>
	send_variables(PID_I, i_value[channel - 1]);
     954:	f8 01       	movw	r30, r16
     956:	60 81       	ld	r22, Z
     958:	71 81       	ldd	r23, Z+1	; 0x01
     95a:	84 e5       	ldi	r24, 0x54	; 84
     95c:	91 e0       	ldi	r25, 0x01	; 1
     95e:	0e 94 b4 03 	call	0x768	; 0x768 <send_variables>
	send_variables(PID_D, d_value[channel - 1]);
     962:	68 81       	ld	r22, Y
     964:	79 81       	ldd	r23, Y+1	; 0x01
     966:	86 e5       	ldi	r24, 0x56	; 86
     968:	91 e0       	ldi	r25, 0x01	; 1
     96a:	0e 94 b4 03 	call	0x768	; 0x768 <send_variables>

	p_value_buff = p_value[channel - 1];
     96e:	f7 01       	movw	r30, r14
     970:	80 81       	ld	r24, Z
     972:	91 81       	ldd	r25, Z+1	; 0x01
     974:	90 93 dc 01 	sts	0x01DC, r25	; 0x8001dc <p_value_buff+0x1>
     978:	80 93 db 01 	sts	0x01DB, r24	; 0x8001db <p_value_buff>
	i_value_buff = i_value[channel - 1];
     97c:	f8 01       	movw	r30, r16
     97e:	80 81       	ld	r24, Z
     980:	91 81       	ldd	r25, Z+1	; 0x01
     982:	90 93 da 01 	sts	0x01DA, r25	; 0x8001da <i_value_buff+0x1>
     986:	80 93 d9 01 	sts	0x01D9, r24	; 0x8001d9 <i_value_buff>
	d_value_buff = d_value[channel - 1];
     98a:	88 81       	ld	r24, Y
     98c:	99 81       	ldd	r25, Y+1	; 0x01
     98e:	90 93 d8 01 	sts	0x01D8, r25	; 0x8001d8 <d_value_buff+0x1>
     992:	80 93 d7 01 	sts	0x01D7, r24	; 0x8001d7 <d_value_buff>
}
     996:	df 91       	pop	r29
     998:	cf 91       	pop	r28
     99a:	1f 91       	pop	r17
     99c:	0f 91       	pop	r16
     99e:	ff 90       	pop	r15
     9a0:	ef 90       	pop	r14
     9a2:	08 95       	ret

000009a4 <update_time_ctrl_page>:
	OPEN_CURVE(count);
}

/*更新射胶时间控制界面*/
void update_time_ctrl_page(void)
{
     9a4:	ef 92       	push	r14
     9a6:	ff 92       	push	r15
     9a8:	0f 93       	push	r16
     9aa:	1f 93       	push	r17
     9ac:	cf 93       	push	r28
     9ae:	df 93       	push	r29
	uint8_t j, k;
	uint8_t addr_offset = 0x00;

	if (module_num < 1)
     9b0:	60 91 40 01 	lds	r22, 0x0140	; 0x800140 <module_num>
     9b4:	61 11       	cpse	r22, r1
     9b6:	04 c0       	rjmp	.+8      	; 0x9c0 <update_time_ctrl_page+0x1c>
	{
		module_num = 1;
     9b8:	81 e0       	ldi	r24, 0x01	; 1
     9ba:	80 93 40 01 	sts	0x0140, r24	; 0x800140 <module_num>
     9be:	49 c0       	rjmp	.+146    	; 0xa52 <update_time_ctrl_page+0xae>
	}
	else if (module_num > 4)
     9c0:	65 30       	cpi	r22, 0x05	; 5
     9c2:	20 f0       	brcs	.+8      	; 0x9cc <update_time_ctrl_page+0x28>
	{
		module_num = 4;
     9c4:	84 e0       	ldi	r24, 0x04	; 4
     9c6:	80 93 40 01 	sts	0x0140, r24	; 0x800140 <module_num>
     9ca:	43 c0       	rjmp	.+134    	; 0xa52 <update_time_ctrl_page+0xae>
	}
	else
	{
		send_variables(MODULE_NUM_ADDR, module_num);
     9cc:	70 e0       	ldi	r23, 0x00	; 0
     9ce:	82 e7       	ldi	r24, 0x72	; 114
     9d0:	90 e0       	ldi	r25, 0x00	; 0
     9d2:	0e 94 b4 03 	call	0x768	; 0x768 <send_variables>
		send_variables(MODULE_STATUS_ADDR, module_status[module_num - 1]);
     9d6:	e0 91 40 01 	lds	r30, 0x0140	; 0x800140 <module_num>
     9da:	f0 e0       	ldi	r31, 0x00	; 0
     9dc:	e3 5f       	subi	r30, 0xF3	; 243
     9de:	fd 4f       	sbci	r31, 0xFD	; 253
     9e0:	60 81       	ld	r22, Z
     9e2:	70 e0       	ldi	r23, 0x00	; 0
     9e4:	80 e7       	ldi	r24, 0x70	; 112
     9e6:	90 e0       	ldi	r25, 0x00	; 0
     9e8:	0e 94 b4 03 	call	0x768	; 0x768 <send_variables>
     9ec:	c0 e0       	ldi	r28, 0x00	; 0
     9ee:	d0 e0       	ldi	r29, 0x00	; 0

/*更新射胶时间控制界面*/
void update_time_ctrl_page(void)
{
	uint8_t j, k;
	uint8_t addr_offset = 0x00;
     9f0:	e1 2c       	mov	r14, r1
     9f2:	2b c0       	rjmp	.+86     	; 0xa4a <update_time_ctrl_page+0xa6>

		for (j = 0; j < 8; j++)
		{
			for (k = 0; k < 4; k++)
			{
				send_variables(IQR1_T1 + addr_offset, time_ctrl_value[module_num - 1][j][k]);
     9f4:	e0 91 40 01 	lds	r30, 0x0140	; 0x800140 <module_num>
     9f8:	f0 e0       	ldi	r31, 0x00	; 0
     9fa:	31 97       	sbiw	r30, 0x01	; 1
     9fc:	ee 0f       	add	r30, r30
     9fe:	ff 1f       	adc	r31, r31
     a00:	ee 0f       	add	r30, r30
     a02:	ff 1f       	adc	r31, r31
     a04:	ee 0f       	add	r30, r30
     a06:	ff 1f       	adc	r31, r31
     a08:	ec 0f       	add	r30, r28
     a0a:	fd 1f       	adc	r31, r29
     a0c:	ee 0f       	add	r30, r30
     a0e:	ff 1f       	adc	r31, r31
     a10:	ee 0f       	add	r30, r30
     a12:	ff 1f       	adc	r31, r31
     a14:	e0 0f       	add	r30, r16
     a16:	f1 1f       	adc	r31, r17
     a18:	ee 0f       	add	r30, r30
     a1a:	ff 1f       	adc	r31, r31
     a1c:	ee 52       	subi	r30, 0x2E	; 46
     a1e:	f9 4f       	sbci	r31, 0xF9	; 249
     a20:	60 81       	ld	r22, Z
     a22:	71 81       	ldd	r23, Z+1	; 0x01
     a24:	8f 2d       	mov	r24, r15
     a26:	90 e0       	ldi	r25, 0x00	; 0
     a28:	8e 59       	subi	r24, 0x9E	; 158
     a2a:	9e 4f       	sbci	r25, 0xFE	; 254
     a2c:	0e 94 b4 03 	call	0x768	; 0x768 <send_variables>
				addr_offset += 0x02;
     a30:	f3 94       	inc	r15
     a32:	f3 94       	inc	r15
     a34:	0f 5f       	subi	r16, 0xFF	; 255
     a36:	1f 4f       	sbci	r17, 0xFF	; 255
		send_variables(MODULE_NUM_ADDR, module_num);
		send_variables(MODULE_STATUS_ADDR, module_status[module_num - 1]);

		for (j = 0; j < 8; j++)
		{
			for (k = 0; k < 4; k++)
     a38:	04 30       	cpi	r16, 0x04	; 4
     a3a:	11 05       	cpc	r17, r1
     a3c:	d9 f6       	brne	.-74     	; 0x9f4 <update_time_ctrl_page+0x50>
     a3e:	88 e0       	ldi	r24, 0x08	; 8
     a40:	e8 0e       	add	r14, r24
     a42:	21 96       	adiw	r28, 0x01	; 1
	else
	{
		send_variables(MODULE_NUM_ADDR, module_num);
		send_variables(MODULE_STATUS_ADDR, module_status[module_num - 1]);

		for (j = 0; j < 8; j++)
     a44:	80 e4       	ldi	r24, 0x40	; 64
     a46:	e8 16       	cp	r14, r24
     a48:	21 f0       	breq	.+8      	; 0xa52 <update_time_ctrl_page+0xae>
	OPEN_CURVE(count);
}

/*更新射胶时间控制界面*/
void update_time_ctrl_page(void)
{
     a4a:	fe 2c       	mov	r15, r14
     a4c:	00 e0       	ldi	r16, 0x00	; 0
     a4e:	10 e0       	ldi	r17, 0x00	; 0
     a50:	d1 cf       	rjmp	.-94     	; 0x9f4 <update_time_ctrl_page+0x50>
				send_variables(IQR1_T1 + addr_offset, time_ctrl_value[module_num - 1][j][k]);
				addr_offset += 0x02;
			}
		}
	}
}
     a52:	df 91       	pop	r29
     a54:	cf 91       	pop	r28
     a56:	1f 91       	pop	r17
     a58:	0f 91       	pop	r16
     a5a:	ff 90       	pop	r15
     a5c:	ef 90       	pop	r14
     a5e:	08 95       	ret

00000a60 <start_time_ctrl>:
	}
}

/*向时间控制子模块发送开始命令 并发送每个通道的 T1―T4 数据*/
void start_time_ctrl(uint8_t slave_num)
{
     a60:	df 92       	push	r13
     a62:	ef 92       	push	r14
     a64:	ff 92       	push	r15
     a66:	0f 93       	push	r16
     a68:	1f 93       	push	r17
     a6a:	cf 93       	push	r28
     a6c:	df 93       	push	r29
	uint8_t i, j;
	uint8_t cnt = 0; //计数第几个数据
	uint16_t crc = 0;

	usart2_tx_buff[0] = 0xA5;
     a6e:	e4 ee       	ldi	r30, 0xE4	; 228
     a70:	f2 e0       	ldi	r31, 0x02	; 2
     a72:	95 ea       	ldi	r25, 0xA5	; 165
     a74:	90 83       	st	Z, r25
	usart2_tx_buff[1] = 0x5A;
     a76:	9a e5       	ldi	r25, 0x5A	; 90
     a78:	91 83       	std	Z+1, r25	; 0x01
	usart2_tx_buff[2] = 0x42;
     a7a:	92 e4       	ldi	r25, 0x42	; 66
     a7c:	92 83       	std	Z+2, r25	; 0x02
	usart2_tx_buff[3] = TIME_CTRL_START;
     a7e:	9d e1       	ldi	r25, 0x1D	; 29
     a80:	93 83       	std	Z+3, r25	; 0x03
	usart2_tx_buff[4] = slave_num - 1;
     a82:	9f ef       	ldi	r25, 0xFF	; 255
     a84:	98 0f       	add	r25, r24
     a86:	94 83       	std	Z+4, r25	; 0x04
     a88:	40 e4       	ldi	r20, 0x40	; 64
     a8a:	84 9f       	mul	r24, r20
     a8c:	90 01       	movw	r18, r0
     a8e:	11 24       	eor	r1, r1
     a90:	a9 01       	movw	r20, r18
     a92:	4e 56       	subi	r20, 0x6E	; 110
     a94:	59 4f       	sbci	r21, 0xF9	; 249
     a96:	7a 01       	movw	r14, r20

/*向时间控制子模块发送开始命令 并发送每个通道的 T1―T4 数据*/
void start_time_ctrl(uint8_t slave_num)
{
	uint8_t i, j;
	uint8_t cnt = 0; //计数第几个数据
     a98:	90 e0       	ldi	r25, 0x00	; 0

	for (i = 0; i < 8; i++)
	{
		for (j = 0; j < 4; j++)
		{
			usart2_tx_buff[cnt + 5] = time_ctrl_value[slave_num - 1][i][j] >> 8;
     a9a:	68 2f       	mov	r22, r24
     a9c:	70 e0       	ldi	r23, 0x00	; 0
     a9e:	d8 2e       	mov	r13, r24
     aa0:	57 2f       	mov	r21, r23
     aa2:	61 50       	subi	r22, 0x01	; 1
     aa4:	71 09       	sbc	r23, r1
     aa6:	17 c0       	rjmp	.+46     	; 0xad6 <start_time_ctrl+0x76>
     aa8:	e9 2f       	mov	r30, r25
     aaa:	f0 e0       	ldi	r31, 0x00	; 0
     aac:	cd 2d       	mov	r28, r13
     aae:	d5 2f       	mov	r29, r21
     ab0:	8b 01       	movw	r16, r22
     ab2:	2c 91       	ld	r18, X
     ab4:	11 96       	adiw	r26, 0x01	; 1
     ab6:	3c 91       	ld	r19, X
     ab8:	11 97       	sbiw	r26, 0x01	; 1
     aba:	12 96       	adiw	r26, 0x02	; 2
     abc:	ec 51       	subi	r30, 0x1C	; 28
     abe:	fd 4f       	sbci	r31, 0xFD	; 253
     ac0:	35 83       	std	Z+5, r19	; 0x05
			usart2_tx_buff[cnt + 6] = time_ctrl_value[slave_num - 1][i][j];
     ac2:	26 83       	std	Z+6, r18	; 0x06
			cnt += 2;
     ac4:	9e 5f       	subi	r25, 0xFE	; 254
	usart2_tx_buff[3] = TIME_CTRL_START;
	usart2_tx_buff[4] = slave_num - 1;

	for (i = 0; i < 8; i++)
	{
		for (j = 0; j < 4; j++)
     ac6:	94 13       	cpse	r25, r20
     ac8:	ef cf       	rjmp	.-34     	; 0xaa8 <start_time_ctrl+0x48>
     aca:	98 e0       	ldi	r25, 0x08	; 8
     acc:	e9 0e       	add	r14, r25
     ace:	f1 1c       	adc	r15, r1
		{
			usart2_tx_buff[cnt + 5] = time_ctrl_value[slave_num - 1][i][j] >> 8;
			usart2_tx_buff[cnt + 6] = time_ctrl_value[slave_num - 1][i][j];
			cnt += 2;
     ad0:	94 2f       	mov	r25, r20
	usart2_tx_buff[1] = 0x5A;
	usart2_tx_buff[2] = 0x42;
	usart2_tx_buff[3] = TIME_CTRL_START;
	usart2_tx_buff[4] = slave_num - 1;

	for (i = 0; i < 8; i++)
     ad2:	40 34       	cpi	r20, 0x40	; 64
     ad4:	21 f0       	breq	.+8      	; 0xade <start_time_ctrl+0x7e>
     ad6:	48 e0       	ldi	r20, 0x08	; 8
     ad8:	49 0f       	add	r20, r25
	}
}

/*向时间控制子模块发送开始命令 并发送每个通道的 T1―T4 数据*/
void start_time_ctrl(uint8_t slave_num)
{
     ada:	d7 01       	movw	r26, r14
     adc:	e5 cf       	rjmp	.-54     	; 0xaa8 <start_time_ctrl+0x48>
			usart2_tx_buff[cnt + 6] = time_ctrl_value[slave_num - 1][i][j];
			cnt += 2;
		}
	}

	crc = crc_check(usart2_tx_buff, 71);
     ade:	67 e4       	ldi	r22, 0x47	; 71
     ae0:	84 ee       	ldi	r24, 0xE4	; 228
     ae2:	92 e0       	ldi	r25, 0x02	; 2
     ae4:	0e 94 91 10 	call	0x2122	; 0x2122 <crc_check>

	usart2_tx_buff[69] = crc & 0x00FF;
     ae8:	80 93 29 03 	sts	0x0329, r24	; 0x800329 <usart2_tx_buff+0x45>
	usart2_tx_buff[70] = crc >> 8;
     aec:	90 93 2a 03 	sts	0x032A, r25	; 0x80032a <usart2_tx_buff+0x46>

	usart2_send_str(usart2_tx_buff, 71);
     af0:	67 e4       	ldi	r22, 0x47	; 71
     af2:	84 ee       	ldi	r24, 0xE4	; 228
     af4:	92 e0       	ldi	r25, 0x02	; 2
     af6:	0e 94 73 10 	call	0x20e6	; 0x20e6 <usart2_send_str>

	module_status[slave_num - 1] = 1;
     afa:	f8 01       	movw	r30, r16
     afc:	e2 5f       	subi	r30, 0xF2	; 242
     afe:	fd 4f       	sbci	r31, 0xFD	; 253
     b00:	81 e0       	ldi	r24, 0x01	; 1
     b02:	80 83       	st	Z, r24
	send_variables(MODULE_STATUS_ADDR, module_status[slave_num - 1]);
     b04:	61 e0       	ldi	r22, 0x01	; 1
     b06:	70 e0       	ldi	r23, 0x00	; 0
     b08:	80 e7       	ldi	r24, 0x70	; 112
     b0a:	90 e0       	ldi	r25, 0x00	; 0
     b0c:	0e 94 b4 03 	call	0x768	; 0x768 <send_variables>
	PORTA &= ~(1 << (7 - slave_num));
     b10:	2b b3       	in	r18, 0x1b	; 27
     b12:	47 e0       	ldi	r20, 0x07	; 7
     b14:	50 e0       	ldi	r21, 0x00	; 0
     b16:	4c 1b       	sub	r20, r28
     b18:	5d 0b       	sbc	r21, r29
     b1a:	81 e0       	ldi	r24, 0x01	; 1
     b1c:	90 e0       	ldi	r25, 0x00	; 0
     b1e:	02 c0       	rjmp	.+4      	; 0xb24 <start_time_ctrl+0xc4>
     b20:	88 0f       	add	r24, r24
     b22:	99 1f       	adc	r25, r25
     b24:	4a 95       	dec	r20
     b26:	e2 f7       	brpl	.-8      	; 0xb20 <start_time_ctrl+0xc0>
     b28:	80 95       	com	r24
     b2a:	82 23       	and	r24, r18
     b2c:	8b bb       	out	0x1b, r24	; 27
}
     b2e:	df 91       	pop	r29
     b30:	cf 91       	pop	r28
     b32:	1f 91       	pop	r17
     b34:	0f 91       	pop	r16
     b36:	ff 90       	pop	r15
     b38:	ef 90       	pop	r14
     b3a:	df 90       	pop	r13
     b3c:	08 95       	ret

00000b3e <stop_time_ctrl>:

/*向时间控制子模块发送停止命令 不需要发送每个通道的 T1―T4 数据*/
void stop_time_ctrl(uint8_t slave_num)
{
     b3e:	1f 93       	push	r17
     b40:	cf 93       	push	r28
     b42:	df 93       	push	r29
     b44:	18 2f       	mov	r17, r24
	uint16_t crc = 0;

	usart2_tx_buff[0] = 0xA5;
     b46:	c4 ee       	ldi	r28, 0xE4	; 228
     b48:	d2 e0       	ldi	r29, 0x02	; 2
     b4a:	85 ea       	ldi	r24, 0xA5	; 165
     b4c:	88 83       	st	Y, r24
	usart2_tx_buff[1] = 0x5A;
     b4e:	8a e5       	ldi	r24, 0x5A	; 90
     b50:	89 83       	std	Y+1, r24	; 0x01
	usart2_tx_buff[2] = 0x02;
     b52:	82 e0       	ldi	r24, 0x02	; 2
     b54:	8a 83       	std	Y+2, r24	; 0x02
	usart2_tx_buff[3] = TIME_CTRL_STOP;
     b56:	8c e1       	ldi	r24, 0x1C	; 28
     b58:	8b 83       	std	Y+3, r24	; 0x03
	usart2_tx_buff[4] = slave_num - 1;
     b5a:	8f ef       	ldi	r24, 0xFF	; 255
     b5c:	81 0f       	add	r24, r17
     b5e:	8c 83       	std	Y+4, r24	; 0x04

	crc = crc_check(usart2_tx_buff, 7);
     b60:	67 e0       	ldi	r22, 0x07	; 7
     b62:	ce 01       	movw	r24, r28
     b64:	0e 94 91 10 	call	0x2122	; 0x2122 <crc_check>

	usart2_tx_buff[5] = crc & 0x00FF;
     b68:	8d 83       	std	Y+5, r24	; 0x05
	usart2_tx_buff[6] = crc >> 8;
     b6a:	9e 83       	std	Y+6, r25	; 0x06

	usart2_send_str(usart2_tx_buff, 7);
     b6c:	67 e0       	ldi	r22, 0x07	; 7
     b6e:	ce 01       	movw	r24, r28
     b70:	0e 94 73 10 	call	0x20e6	; 0x20e6 <usart2_send_str>

	module_status[slave_num - 1] = 0;
     b74:	c1 2f       	mov	r28, r17
     b76:	d0 e0       	ldi	r29, 0x00	; 0
     b78:	fe 01       	movw	r30, r28
     b7a:	e3 5f       	subi	r30, 0xF3	; 243
     b7c:	fd 4f       	sbci	r31, 0xFD	; 253
     b7e:	10 82       	st	Z, r1
	send_variables(MODULE_STATUS_ADDR, module_status[slave_num - 1]);
     b80:	60 e0       	ldi	r22, 0x00	; 0
     b82:	70 e0       	ldi	r23, 0x00	; 0
     b84:	80 e7       	ldi	r24, 0x70	; 112
     b86:	90 e0       	ldi	r25, 0x00	; 0
     b88:	0e 94 b4 03 	call	0x768	; 0x768 <send_variables>
	PORTA |= (1 << (7 - slave_num));
     b8c:	4b b3       	in	r20, 0x1b	; 27
     b8e:	27 e0       	ldi	r18, 0x07	; 7
     b90:	30 e0       	ldi	r19, 0x00	; 0
     b92:	2c 1b       	sub	r18, r28
     b94:	3d 0b       	sbc	r19, r29
     b96:	81 e0       	ldi	r24, 0x01	; 1
     b98:	90 e0       	ldi	r25, 0x00	; 0
     b9a:	02 c0       	rjmp	.+4      	; 0xba0 <stop_time_ctrl+0x62>
     b9c:	88 0f       	add	r24, r24
     b9e:	99 1f       	adc	r25, r25
     ba0:	2a 95       	dec	r18
     ba2:	e2 f7       	brpl	.-8      	; 0xb9c <stop_time_ctrl+0x5e>
     ba4:	84 2b       	or	r24, r20
     ba6:	8b bb       	out	0x1b, r24	; 27
}
     ba8:	df 91       	pop	r29
     baa:	cf 91       	pop	r28
     bac:	1f 91       	pop	r17
     bae:	08 95       	ret

00000bb0 <send_name>:

	usart0_send_str(usart0_tx_buff, 10);
}

void send_name(uint16_t addr, uint32_t name)
{
     bb0:	cf 93       	push	r28
     bb2:	df 93       	push	r29
	uint16_t crc = 0;

	usart0_tx_buff[0] = 0xA5;
     bb4:	c2 e4       	ldi	r28, 0x42	; 66
     bb6:	d5 e0       	ldi	r29, 0x05	; 5
     bb8:	25 ea       	ldi	r18, 0xA5	; 165
     bba:	28 83       	st	Y, r18
	usart0_tx_buff[1] = 0x5A;
     bbc:	2a e5       	ldi	r18, 0x5A	; 90
     bbe:	29 83       	std	Y+1, r18	; 0x01
	usart0_tx_buff[2] = 0x07;
     bc0:	27 e0       	ldi	r18, 0x07	; 7
     bc2:	2a 83       	std	Y+2, r18	; 0x02
	usart0_tx_buff[3] = 0x82;
     bc4:	22 e8       	ldi	r18, 0x82	; 130
     bc6:	2b 83       	std	Y+3, r18	; 0x03
	usart0_tx_buff[4] = addr >> 8;
     bc8:	9c 83       	std	Y+4, r25	; 0x04
	usart0_tx_buff[5] = addr & 0x00FF;
     bca:	8d 83       	std	Y+5, r24	; 0x05
	usart0_tx_buff[6] = name >> 24;
     bcc:	7e 83       	std	Y+6, r23	; 0x06
	usart0_tx_buff[7] = name >> 16;
     bce:	6f 83       	std	Y+7, r22	; 0x07
	usart0_tx_buff[8] = name >> 8;
     bd0:	58 87       	std	Y+8, r21	; 0x08
	usart0_tx_buff[9] = name;
     bd2:	49 87       	std	Y+9, r20	; 0x09

	crc = crc_check(usart0_tx_buff, 12);
     bd4:	6c e0       	ldi	r22, 0x0C	; 12
     bd6:	ce 01       	movw	r24, r28
     bd8:	0e 94 91 10 	call	0x2122	; 0x2122 <crc_check>

	usart0_tx_buff[10] = crc & 0x00FF;
     bdc:	8a 87       	std	Y+10, r24	; 0x0a
	usart0_tx_buff[11] = crc >> 8;
     bde:	9b 87       	std	Y+11, r25	; 0x0b

	usart0_send_str(usart0_tx_buff, 12);
     be0:	6c e0       	ldi	r22, 0x0C	; 12
     be2:	ce 01       	movw	r24, r28
     be4:	0e 94 2a 10 	call	0x2054	; 0x2054 <usart0_send_str>
}
     be8:	df 91       	pop	r29
     bea:	cf 91       	pop	r28
     bec:	08 95       	ret

00000bee <update_main_page>:
		}
	}
}

void update_main_page(void)
{
     bee:	af 92       	push	r10
     bf0:	bf 92       	push	r11
     bf2:	cf 92       	push	r12
     bf4:	df 92       	push	r13
     bf6:	ef 92       	push	r14
     bf8:	ff 92       	push	r15
     bfa:	0f 93       	push	r16
     bfc:	1f 93       	push	r17
     bfe:	cf 93       	push	r28
     c00:	df 93       	push	r29
     c02:	68 94       	set
     c04:	ee 24       	eor	r14, r14
     c06:	e6 f8       	bld	r14, 6
     c08:	ff 24       	eor	r15, r15
     c0a:	f1 f8       	bld	r15, 1
     c0c:	0f 2e       	mov	r0, r31
     c0e:	f0 e7       	ldi	r31, 0x70	; 112
     c10:	cf 2e       	mov	r12, r31
     c12:	f2 e0       	ldi	r31, 0x02	; 2
     c14:	df 2e       	mov	r13, r31
     c16:	f0 2d       	mov	r31, r0
     c18:	0c e0       	ldi	r16, 0x0C	; 12
     c1a:	10 e0       	ldi	r17, 0x00	; 0
     c1c:	c0 e0       	ldi	r28, 0x00	; 0
     c1e:	d0 e0       	ldi	r29, 0x00	; 0

	for (i = 0; i < 6; i++)
	{
		send_variables(MAINPAGE_NUM1_ADDR + (i * 2), (i + (pre_main_page * 6) + 1));		//主页面传感器序号显示
		send_variables(MAIN_OUTRATE1_ADDR + (i * 2), output_rate[i + (pre_main_page * 6)]); //传感器输出比例
		send_variables(MAIN_RUNTEMP1_ADDR + (i * 2), run_temp[i + (pre_main_page * 6)] +
     c20:	0f 2e       	mov	r0, r31
     c22:	fa e0       	ldi	r31, 0x0A	; 10
     c24:	af 2e       	mov	r10, r31
     c26:	b1 2c       	mov	r11, r1
     c28:	f0 2d       	mov	r31, r0
{
	uint8_t i = 0;

	for (i = 0; i < 6; i++)
	{
		send_variables(MAINPAGE_NUM1_ADDR + (i * 2), (i + (pre_main_page * 6) + 1));		//主页面传感器序号显示
     c2a:	80 91 9c 02 	lds	r24, 0x029C	; 0x80029c <pre_main_page>
     c2e:	90 e0       	ldi	r25, 0x00	; 0
     c30:	bc 01       	movw	r22, r24
     c32:	66 0f       	add	r22, r22
     c34:	77 1f       	adc	r23, r23
     c36:	68 0f       	add	r22, r24
     c38:	79 1f       	adc	r23, r25
     c3a:	66 0f       	add	r22, r22
     c3c:	77 1f       	adc	r23, r23
     c3e:	6c 0f       	add	r22, r28
     c40:	7d 1f       	adc	r23, r29
     c42:	6f 5f       	subi	r22, 0xFF	; 255
     c44:	7f 4f       	sbci	r23, 0xFF	; 255
     c46:	ce 01       	movw	r24, r28
     c48:	88 0f       	add	r24, r24
     c4a:	99 1f       	adc	r25, r25
     c4c:	0e 94 b4 03 	call	0x768	; 0x768 <send_variables>
		send_variables(MAIN_OUTRATE1_ADDR + (i * 2), output_rate[i + (pre_main_page * 6)]); //传感器输出比例
     c50:	80 91 9c 02 	lds	r24, 0x029C	; 0x80029c <pre_main_page>
     c54:	90 e0       	ldi	r25, 0x00	; 0
     c56:	fc 01       	movw	r30, r24
     c58:	ee 0f       	add	r30, r30
     c5a:	ff 1f       	adc	r31, r31
     c5c:	e8 0f       	add	r30, r24
     c5e:	f9 1f       	adc	r31, r25
     c60:	ee 0f       	add	r30, r30
     c62:	ff 1f       	adc	r31, r31
     c64:	ea 57       	subi	r30, 0x7A	; 122
     c66:	fd 4f       	sbci	r31, 0xFD	; 253
     c68:	ec 0f       	add	r30, r28
     c6a:	fd 1f       	adc	r31, r29
     c6c:	60 81       	ld	r22, Z
     c6e:	70 e0       	ldi	r23, 0x00	; 0
     c70:	c8 01       	movw	r24, r16
     c72:	0e 94 b4 03 	call	0x768	; 0x768 <send_variables>
		send_variables(MAIN_RUNTEMP1_ADDR + (i * 2), run_temp[i + (pre_main_page * 6)] +
     c76:	80 91 9c 02 	lds	r24, 0x029C	; 0x80029c <pre_main_page>
     c7a:	90 e0       	ldi	r25, 0x00	; 0
     c7c:	fc 01       	movw	r30, r24
     c7e:	ee 0f       	add	r30, r30
     c80:	ff 1f       	adc	r31, r31
     c82:	e8 0f       	add	r30, r24
     c84:	f9 1f       	adc	r31, r25
     c86:	ee 0f       	add	r30, r30
     c88:	ff 1f       	adc	r31, r31
     c8a:	ec 0f       	add	r30, r28
     c8c:	fd 1f       	adc	r31, r29
     c8e:	ee 0f       	add	r30, r30
     c90:	ff 1f       	adc	r31, r31
     c92:	ee 59       	subi	r30, 0x9E	; 158
     c94:	fd 4f       	sbci	r31, 0xFD	; 253
     c96:	20 81       	ld	r18, Z
     c98:	31 81       	ldd	r19, Z+1	; 0x01
     c9a:	c9 01       	movw	r24, r18
     c9c:	88 0f       	add	r24, r24
     c9e:	99 1f       	adc	r25, r25
     ca0:	88 0f       	add	r24, r24
     ca2:	99 1f       	adc	r25, r25
     ca4:	88 0f       	add	r24, r24
     ca6:	99 1f       	adc	r25, r25
     ca8:	b5 01       	movw	r22, r10
     caa:	0e 94 1f 13 	call	0x263e	; 0x263e <__divmodhi4>
     cae:	cb 01       	movw	r24, r22
     cb0:	80 96       	adiw	r24, 0x20	; 32
     cb2:	40 91 12 02 	lds	r20, 0x0212	; 0x800212 <temp_unit>
     cb6:	50 91 13 02 	lds	r21, 0x0213	; 0x800213 <temp_unit+0x1>
     cba:	84 9f       	mul	r24, r20
     cbc:	b0 01       	movw	r22, r0
     cbe:	85 9f       	mul	r24, r21
     cc0:	70 0d       	add	r23, r0
     cc2:	94 9f       	mul	r25, r20
     cc4:	70 0d       	add	r23, r0
     cc6:	11 24       	eor	r1, r1
     cc8:	62 0f       	add	r22, r18
     cca:	73 1f       	adc	r23, r19
     ccc:	c8 01       	movw	r24, r16
     cce:	0c 96       	adiw	r24, 0x0c	; 12
     cd0:	0e 94 b4 03 	call	0x768	; 0x768 <send_variables>
		temp_unit * (run_temp[i + (pre_main_page * 6)] * 8 / 10 + 32)); //运行温度
		send_variables(MAIN_SETTEMP1_ADDR + (i * 2), set_temp[i + (pre_main_page * 6)]);								 //设定温度
     cd4:	80 91 9c 02 	lds	r24, 0x029C	; 0x80029c <pre_main_page>
     cd8:	90 e0       	ldi	r25, 0x00	; 0
     cda:	fc 01       	movw	r30, r24
     cdc:	ee 0f       	add	r30, r30
     cde:	ff 1f       	adc	r31, r31
     ce0:	e8 0f       	add	r30, r24
     ce2:	f9 1f       	adc	r31, r25
     ce4:	ee 0f       	add	r30, r30
     ce6:	ff 1f       	adc	r31, r31
     ce8:	ec 0f       	add	r30, r28
     cea:	fd 1f       	adc	r31, r29
     cec:	ee 0f       	add	r30, r30
     cee:	ff 1f       	adc	r31, r31
     cf0:	e3 54       	subi	r30, 0x43	; 67
     cf2:	fe 4f       	sbci	r31, 0xFE	; 254
     cf4:	60 81       	ld	r22, Z
     cf6:	71 81       	ldd	r23, Z+1	; 0x01
     cf8:	c8 01       	movw	r24, r16
     cfa:	48 96       	adiw	r24, 0x18	; 24
     cfc:	0e 94 b4 03 	call	0x768	; 0x768 <send_variables>
		send_variables(MAIN_SENSOR1_TYPE_ADDR + (i * 2), TYPE_J + (sensor_type[i + (pre_main_page * 6)]) * TYPE_K);
     d00:	80 91 9c 02 	lds	r24, 0x029C	; 0x80029c <pre_main_page>
     d04:	90 e0       	ldi	r25, 0x00	; 0
     d06:	fc 01       	movw	r30, r24
     d08:	ee 0f       	add	r30, r30
     d0a:	ff 1f       	adc	r31, r31
     d0c:	e8 0f       	add	r30, r24
     d0e:	f9 1f       	adc	r31, r25
     d10:	ee 0f       	add	r30, r30
     d12:	ff 1f       	adc	r31, r31
     d14:	ec 0f       	add	r30, r28
     d16:	fd 1f       	adc	r31, r29
     d18:	ee 0f       	add	r30, r30
     d1a:	ff 1f       	adc	r31, r31
     d1c:	ee 5c       	subi	r30, 0xCE	; 206
     d1e:	fd 4f       	sbci	r31, 0xFD	; 253
     d20:	80 81       	ld	r24, Z
     d22:	91 81       	ldd	r25, Z+1	; 0x01
     d24:	86 5b       	subi	r24, 0xB6	; 182
     d26:	9f 4f       	sbci	r25, 0xFF	; 255
     d28:	60 e0       	ldi	r22, 0x00	; 0
     d2a:	78 2f       	mov	r23, r24
     d2c:	c8 01       	movw	r24, r16
     d2e:	8c 5d       	subi	r24, 0xDC	; 220
     d30:	9d 4f       	sbci	r25, 0xFD	; 253
     d32:	0e 94 b4 03 	call	0x768	; 0x768 <send_variables>

		send_name(MAIN_NAME1_ADDR + (i * 8), set_name[i + (pre_main_page * 6)]);
     d36:	80 91 9c 02 	lds	r24, 0x029C	; 0x80029c <pre_main_page>
     d3a:	90 e0       	ldi	r25, 0x00	; 0
     d3c:	fc 01       	movw	r30, r24
     d3e:	ee 0f       	add	r30, r30
     d40:	ff 1f       	adc	r31, r31
     d42:	e8 0f       	add	r30, r24
     d44:	f9 1f       	adc	r31, r25
     d46:	ee 0f       	add	r30, r30
     d48:	ff 1f       	adc	r31, r31
     d4a:	ec 0f       	add	r30, r28
     d4c:	fd 1f       	adc	r31, r29
     d4e:	ee 0f       	add	r30, r30
     d50:	ff 1f       	adc	r31, r31
     d52:	ee 0f       	add	r30, r30
     d54:	ff 1f       	adc	r31, r31
     d56:	e3 57       	subi	r30, 0x73	; 115
     d58:	fe 4f       	sbci	r31, 0xFE	; 254
     d5a:	40 81       	ld	r20, Z
     d5c:	51 81       	ldd	r21, Z+1	; 0x01
     d5e:	62 81       	ldd	r22, Z+2	; 0x02
     d60:	73 81       	ldd	r23, Z+3	; 0x03
     d62:	c7 01       	movw	r24, r14
     d64:	80 54       	subi	r24, 0x40	; 64
     d66:	91 09       	sbc	r25, r1
     d68:	0e 94 d8 05 	call	0xbb0	; 0xbb0 <send_name>
		
		/*更新传感状态图标 sensor_sta >= 3 时显示告警 0~2：关闭 开启 跟随*/
		/*更新告警类型图标 sensor_sta >= 3 时显示对应各种告警类型  0~2：显示运行正常*/
		if(sensor_sta[i + (pre_main_page * 6)] >= 3)
     d6c:	80 91 9c 02 	lds	r24, 0x029C	; 0x80029c <pre_main_page>
     d70:	90 e0       	ldi	r25, 0x00	; 0
     d72:	fc 01       	movw	r30, r24
     d74:	ee 0f       	add	r30, r30
     d76:	ff 1f       	adc	r31, r31
     d78:	e8 0f       	add	r30, r24
     d7a:	f9 1f       	adc	r31, r25
     d7c:	ee 0f       	add	r30, r30
     d7e:	ff 1f       	adc	r31, r31
     d80:	e6 58       	subi	r30, 0x86	; 134
     d82:	fd 4f       	sbci	r31, 0xFD	; 253
     d84:	ec 0f       	add	r30, r28
     d86:	fd 1f       	adc	r31, r29
     d88:	60 81       	ld	r22, Z
     d8a:	63 30       	cpi	r22, 0x03	; 3
     d8c:	c8 f0       	brcs	.+50     	; 0xdc0 <update_main_page+0x1d2>
		{
			send_variables(MAIN_STA1_ADDR+(i * 4), 3);
     d8e:	63 e0       	ldi	r22, 0x03	; 3
     d90:	70 e0       	ldi	r23, 0x00	; 0
     d92:	c6 01       	movw	r24, r12
     d94:	0e 94 b4 03 	call	0x768	; 0x768 <send_variables>
			send_variables(MAIN_ALARM1_ADDR+(i*8), sensor_sta[i + (pre_main_page * 6)]);
     d98:	80 91 9c 02 	lds	r24, 0x029C	; 0x80029c <pre_main_page>
     d9c:	90 e0       	ldi	r25, 0x00	; 0
     d9e:	fc 01       	movw	r30, r24
     da0:	ee 0f       	add	r30, r30
     da2:	ff 1f       	adc	r31, r31
     da4:	e8 0f       	add	r30, r24
     da6:	f9 1f       	adc	r31, r25
     da8:	ee 0f       	add	r30, r30
     daa:	ff 1f       	adc	r31, r31
     dac:	e6 58       	subi	r30, 0x86	; 134
     dae:	fd 4f       	sbci	r31, 0xFD	; 253
     db0:	ec 0f       	add	r30, r28
     db2:	fd 1f       	adc	r31, r29
     db4:	60 81       	ld	r22, Z
     db6:	70 e0       	ldi	r23, 0x00	; 0
     db8:	c7 01       	movw	r24, r14
     dba:	0e 94 b4 03 	call	0x768	; 0x768 <send_variables>
     dbe:	09 c0       	rjmp	.+18     	; 0xdd2 <update_main_page+0x1e4>
		}
		else
		{
			send_variables(MAIN_STA1_ADDR+(i * 4), sensor_sta[i + (pre_main_page * 6)]);
     dc0:	70 e0       	ldi	r23, 0x00	; 0
     dc2:	c6 01       	movw	r24, r12
     dc4:	0e 94 b4 03 	call	0x768	; 0x768 <send_variables>
			send_variables(MAIN_ALARM1_ADDR+(i*8), 2);
     dc8:	62 e0       	ldi	r22, 0x02	; 2
     dca:	70 e0       	ldi	r23, 0x00	; 0
     dcc:	c7 01       	movw	r24, r14
     dce:	0e 94 b4 03 	call	0x768	; 0x768 <send_variables>
     dd2:	21 96       	adiw	r28, 0x01	; 1
     dd4:	0e 5f       	subi	r16, 0xFE	; 254
     dd6:	1f 4f       	sbci	r17, 0xFF	; 255
     dd8:	84 e0       	ldi	r24, 0x04	; 4
     dda:	c8 0e       	add	r12, r24
     ddc:	d1 1c       	adc	r13, r1
     dde:	88 e0       	ldi	r24, 0x08	; 8
     de0:	e8 0e       	add	r14, r24
     de2:	f1 1c       	adc	r15, r1

void update_main_page(void)
{
	uint8_t i = 0;

	for (i = 0; i < 6; i++)
     de4:	c6 30       	cpi	r28, 0x06	; 6
     de6:	d1 05       	cpc	r29, r1
     de8:	09 f0       	breq	.+2      	; 0xdec <update_main_page+0x1fe>
     dea:	1f cf       	rjmp	.-450    	; 0xc2a <update_main_page+0x3c>
		{
			send_variables(MAIN_STA1_ADDR+(i * 4), sensor_sta[i + (pre_main_page * 6)]);
			send_variables(MAIN_ALARM1_ADDR+(i*8), 2);
		}
	}
}
     dec:	df 91       	pop	r29
     dee:	cf 91       	pop	r28
     df0:	1f 91       	pop	r17
     df2:	0f 91       	pop	r16
     df4:	ff 90       	pop	r15
     df6:	ef 90       	pop	r14
     df8:	df 90       	pop	r13
     dfa:	cf 90       	pop	r12
     dfc:	bf 90       	pop	r11
     dfe:	af 90       	pop	r10
     e00:	08 95       	ret

00000e02 <single_set_ok>:
		break;
	}
}

void single_set_ok(void)
{
     e02:	0f 93       	push	r16
     e04:	1f 93       	push	r17
	if (set_temp_buff[set_num] != set_temp[set_num])
     e06:	80 91 99 02 	lds	r24, 0x0299	; 0x800299 <set_num>
     e0a:	90 e0       	ldi	r25, 0x00	; 0
     e0c:	9c 01       	movw	r18, r24
     e0e:	22 0f       	add	r18, r18
     e10:	33 1f       	adc	r19, r19
     e12:	f9 01       	movw	r30, r18
     e14:	e3 52       	subi	r30, 0x23	; 35
     e16:	fe 4f       	sbci	r31, 0xFE	; 254
     e18:	60 81       	ld	r22, Z
     e1a:	71 81       	ldd	r23, Z+1	; 0x01
     e1c:	f9 01       	movw	r30, r18
     e1e:	e3 54       	subi	r30, 0x43	; 67
     e20:	fe 4f       	sbci	r31, 0xFE	; 254
     e22:	20 81       	ld	r18, Z
     e24:	31 81       	ldd	r19, Z+1	; 0x01
     e26:	62 17       	cp	r22, r18
     e28:	73 07       	cpc	r23, r19
     e2a:	51 f0       	breq	.+20     	; 0xe40 <single_set_ok+0x3e>
	{
		set_temp[set_num] = set_temp_buff[set_num];
     e2c:	88 0f       	add	r24, r24
     e2e:	99 1f       	adc	r25, r25
     e30:	fc 01       	movw	r30, r24
     e32:	e3 54       	subi	r30, 0x43	; 67
     e34:	fe 4f       	sbci	r31, 0xFE	; 254
     e36:	71 83       	std	Z+1, r23	; 0x01
     e38:	60 83       	st	Z, r22
		single_set(TEMP, set_temp[set_num]);
     e3a:	83 e0       	ldi	r24, 0x03	; 3
     e3c:	0e 94 ad 02 	call	0x55a	; 0x55a <single_set>
// 		eeprom_write(SINGLE_SETTEMP_EEADDR + (set_num * 2), set_temp[set_num]);
// 		eeprom_write(SINGLE_SETTEMP_EEADDR + (set_num * 2) + 1, set_temp[set_num] >> 8);
	}

	if (switch_sensor_buff[set_num] != switch_sensor[set_num])
     e40:	80 91 99 02 	lds	r24, 0x0299	; 0x800299 <set_num>
     e44:	90 e0       	ldi	r25, 0x00	; 0
     e46:	9c 01       	movw	r18, r24
     e48:	22 0f       	add	r18, r18
     e4a:	33 1f       	adc	r19, r19
     e4c:	f9 01       	movw	r30, r18
     e4e:	e9 53       	subi	r30, 0x39	; 57
     e50:	fd 4f       	sbci	r31, 0xFD	; 253
     e52:	60 81       	ld	r22, Z
     e54:	71 81       	ldd	r23, Z+1	; 0x01
     e56:	f9 01       	movw	r30, r18
     e58:	e6 5b       	subi	r30, 0xB6	; 182
     e5a:	fd 4f       	sbci	r31, 0xFD	; 253
     e5c:	20 81       	ld	r18, Z
     e5e:	31 81       	ldd	r19, Z+1	; 0x01
     e60:	62 17       	cp	r22, r18
     e62:	73 07       	cpc	r23, r19
     e64:	51 f0       	breq	.+20     	; 0xe7a <single_set_ok+0x78>
	{
		switch_sensor[set_num] = switch_sensor_buff[set_num];
     e66:	88 0f       	add	r24, r24
     e68:	99 1f       	adc	r25, r25
     e6a:	fc 01       	movw	r30, r24
     e6c:	e6 5b       	subi	r30, 0xB6	; 182
     e6e:	fd 4f       	sbci	r31, 0xFD	; 253
     e70:	71 83       	std	Z+1, r23	; 0x01
     e72:	60 83       	st	Z, r22
		single_set(SWITCH_SENSOR, switch_sensor[set_num]);
     e74:	86 e0       	ldi	r24, 0x06	; 6
     e76:	0e 94 ad 02 	call	0x55a	; 0x55a <single_set>
// 		sensor_type[set_num] = sensor_type_buff[set_num];
// 		ctrl_command = SENSOR_TYPE;
// //		eeprom_write(SINGLE_SENSORTYPE_EEADDR + set_num, sensor_type[set_num]);
// 	}
	
	if(follow_sta_buff[set_num]!= follow_sta[set_num])
     e7a:	80 91 99 02 	lds	r24, 0x0299	; 0x800299 <set_num>
     e7e:	90 e0       	ldi	r25, 0x00	; 0
     e80:	fc 01       	movw	r30, r24
     e82:	ea 5e       	subi	r30, 0xEA	; 234
     e84:	fd 4f       	sbci	r31, 0xFD	; 253
     e86:	60 81       	ld	r22, Z
     e88:	fc 01       	movw	r30, r24
     e8a:	ee 5d       	subi	r30, 0xDE	; 222
     e8c:	fd 4f       	sbci	r31, 0xFD	; 253
     e8e:	20 81       	ld	r18, Z
     e90:	62 17       	cp	r22, r18
     e92:	41 f0       	breq	.+16     	; 0xea4 <single_set_ok+0xa2>
	{
		follow_sta[set_num] = follow_sta_buff[set_num];
     e94:	fc 01       	movw	r30, r24
     e96:	ee 5d       	subi	r30, 0xDE	; 222
     e98:	fd 4f       	sbci	r31, 0xFD	; 253
     e9a:	60 83       	st	Z, r22
		single_set(SET_FOLLOW, follow_sta[set_num]);
     e9c:	70 e0       	ldi	r23, 0x00	; 0
     e9e:	88 e0       	ldi	r24, 0x08	; 8
     ea0:	0e 94 ad 02 	call	0x55a	; 0x55a <single_set>
	}
	
	if (set_name_buff != set_name[set_num])
     ea4:	80 91 99 02 	lds	r24, 0x0299	; 0x800299 <set_num>
     ea8:	90 e0       	ldi	r25, 0x00	; 0
     eaa:	40 91 2e 02 	lds	r20, 0x022E	; 0x80022e <set_name_buff>
     eae:	50 91 2f 02 	lds	r21, 0x022F	; 0x80022f <set_name_buff+0x1>
     eb2:	60 91 30 02 	lds	r22, 0x0230	; 0x800230 <set_name_buff+0x2>
     eb6:	70 91 31 02 	lds	r23, 0x0231	; 0x800231 <set_name_buff+0x3>
     eba:	fc 01       	movw	r30, r24
     ebc:	ee 0f       	add	r30, r30
     ebe:	ff 1f       	adc	r31, r31
     ec0:	ee 0f       	add	r30, r30
     ec2:	ff 1f       	adc	r31, r31
     ec4:	e3 57       	subi	r30, 0x73	; 115
     ec6:	fe 4f       	sbci	r31, 0xFE	; 254
     ec8:	00 81       	ld	r16, Z
     eca:	11 81       	ldd	r17, Z+1	; 0x01
     ecc:	22 81       	ldd	r18, Z+2	; 0x02
     ece:	33 81       	ldd	r19, Z+3	; 0x03
     ed0:	04 17       	cp	r16, r20
     ed2:	15 07       	cpc	r17, r21
     ed4:	26 07       	cpc	r18, r22
     ed6:	37 07       	cpc	r19, r23
     ed8:	59 f0       	breq	.+22     	; 0xef0 <single_set_ok+0xee>
	{
		set_name[set_num] = set_name_buff;
     eda:	88 0f       	add	r24, r24
     edc:	99 1f       	adc	r25, r25
     ede:	88 0f       	add	r24, r24
     ee0:	99 1f       	adc	r25, r25
     ee2:	fc 01       	movw	r30, r24
     ee4:	e3 57       	subi	r30, 0x73	; 115
     ee6:	fe 4f       	sbci	r31, 0xFE	; 254
     ee8:	40 83       	st	Z, r20
     eea:	51 83       	std	Z+1, r21	; 0x01
     eec:	62 83       	std	Z+2, r22	; 0x02
     eee:	73 83       	std	Z+3, r23	; 0x03
// 		eeprom_write(SET_NAME_EEADDR + (set_num * 4) + 1, set_name[set_num] >> 8);
// 		eeprom_write(SET_NAME_EEADDR + (set_num * 4) + 2, set_name[set_num] >> 16);
// 		eeprom_write(SET_NAME_EEADDR + (set_num * 4) + 3, set_name[set_num] >> 24);
	}

	update_main_page();
     ef0:	0e 94 f7 05 	call	0xbee	; 0xbee <update_main_page>
	in_main_page = 1;
     ef4:	81 e0       	ldi	r24, 0x01	; 1
     ef6:	80 93 d5 01 	sts	0x01D5, r24	; 0x8001d5 <in_main_page>
	update_run_temp_flag = 0;
     efa:	10 92 9e 02 	sts	0x029E, r1	; 0x80029e <update_run_temp_flag>
}
     efe:	1f 91       	pop	r17
     f00:	0f 91       	pop	r16
     f02:	08 95       	ret

00000f04 <all_set_ok>:

void all_set_ok(void)
{
	uint8_t i = 0;
	
	all_temp = all_temp_buff;
     f04:	80 91 f7 01 	lds	r24, 0x01F7	; 0x8001f7 <all_temp_buff>
     f08:	90 91 f8 01 	lds	r25, 0x01F8	; 0x8001f8 <all_temp_buff+0x1>
     f0c:	90 93 42 01 	sts	0x0142, r25	; 0x800142 <all_temp+0x1>
     f10:	80 93 41 01 	sts	0x0141, r24	; 0x800141 <all_temp>
     f14:	ed eb       	ldi	r30, 0xBD	; 189
     f16:	f1 e0       	ldi	r31, 0x01	; 1
     f18:	ad ed       	ldi	r26, 0xDD	; 221
     f1a:	b1 e0       	ldi	r27, 0x01	; 1
     f1c:	25 ed       	ldi	r18, 0xD5	; 213
     f1e:	31 e0       	ldi	r19, 0x01	; 1

	for (i = 0; i < 12; i++)
	{
		set_temp[i] = all_temp;
     f20:	81 93       	st	Z+, r24
     f22:	91 93       	st	Z+, r25
		set_temp_buff[i] = all_temp;
     f24:	8d 93       	st	X+, r24
     f26:	9d 93       	st	X+, r25
{
	uint8_t i = 0;
	
	all_temp = all_temp_buff;

	for (i = 0; i < 12; i++)
     f28:	e2 17       	cp	r30, r18
     f2a:	f3 07       	cpc	r31, r19
     f2c:	c9 f7       	brne	.-14     	; 0xf20 <all_set_ok+0x1c>
		// 		eeprom_write(SINGLE_SETTEMP_EEADDR + (i * 2) + 1, set_temp[i] >> 8);
	}

// 	if (temp_unit_buff != temp_unit)
// 	{
		temp_unit = temp_unit_buff;
     f2e:	80 91 df 02 	lds	r24, 0x02DF	; 0x8002df <temp_unit_buff>
     f32:	90 91 e0 02 	lds	r25, 0x02E0	; 0x8002e0 <temp_unit_buff+0x1>
     f36:	90 93 13 02 	sts	0x0213, r25	; 0x800213 <temp_unit+0x1>
     f3a:	80 93 12 02 	sts	0x0212, r24	; 0x800212 <temp_unit>
// 		
// 		//发送给控制板卡  保存数据
// 		/*		eeprom_write(TEMP_UNIT_EEADDR, temp_unit);*/
// 	}
	
	preheat_time = preheat_time_buff;
     f3e:	80 91 f5 01 	lds	r24, 0x01F5	; 0x8001f5 <preheat_time_buff>
     f42:	90 91 f6 01 	lds	r25, 0x01F6	; 0x8001f6 <preheat_time_buff+0x1>
     f46:	90 93 44 01 	sts	0x0144, r25	; 0x800144 <preheat_time+0x1>
     f4a:	80 93 43 01 	sts	0x0143, r24	; 0x800143 <preheat_time>
	
	all_sensor_type = all_sensor_type_buff;
     f4e:	80 91 e1 02 	lds	r24, 0x02E1	; 0x8002e1 <all_sensor_type_buff>
     f52:	90 91 e2 02 	lds	r25, 0x02E2	; 0x8002e2 <all_sensor_type_buff+0x1>
     f56:	90 93 15 02 	sts	0x0215, r25	; 0x800215 <all_sensor_type+0x1>
     f5a:	80 93 14 02 	sts	0x0214, r24	; 0x800214 <all_sensor_type>
     f5e:	e2 e3       	ldi	r30, 0x32	; 50
     f60:	f2 e0       	ldi	r31, 0x02	; 2
     f62:	af ea       	ldi	r26, 0xAF	; 175
     f64:	b2 e0       	ldi	r27, 0x02	; 2
     f66:	2a e4       	ldi	r18, 0x4A	; 74
     f68:	32 e0       	ldi	r19, 0x02	; 2

	for (i = 0; i < 12; i++)
	{
		sensor_type[i] = all_sensor_type;
     f6a:	81 93       	st	Z+, r24
     f6c:	91 93       	st	Z+, r25
		sensor_type_buff[i] = all_sensor_type;
     f6e:	8d 93       	st	X+, r24
     f70:	9d 93       	st	X+, r25
	
	preheat_time = preheat_time_buff;
	
	all_sensor_type = all_sensor_type_buff;

	for (i = 0; i < 12; i++)
     f72:	e2 17       	cp	r30, r18
     f74:	f3 07       	cpc	r31, r19
     f76:	c9 f7       	brne	.-14     	; 0xf6a <all_set_ok+0x66>
		sensor_type_buff[i] = all_sensor_type;
//			eeprom_write(SINGLE_SENSORTYPE_EEADDR + i, sensor_type[i]);
	}
//	send_variables(ALL_SENSOR_TYPE_ADDR, TYPE_J + (all_sensor_type * TYPE_K));
	
	update_main_page();
     f78:	0e 94 f7 05 	call	0xbee	; 0xbee <update_main_page>
	
	all_set(TEMP, all_temp);
     f7c:	60 91 41 01 	lds	r22, 0x0141	; 0x800141 <all_temp>
     f80:	70 91 42 01 	lds	r23, 0x0142	; 0x800142 <all_temp+0x1>
     f84:	83 e0       	ldi	r24, 0x03	; 3
     f86:	0e 94 02 03 	call	0x604	; 0x604 <all_set>
	all_set(PREHEAT_TIME, preheat_time);
     f8a:	60 91 43 01 	lds	r22, 0x0143	; 0x800143 <preheat_time>
     f8e:	70 91 44 01 	lds	r23, 0x0144	; 0x800144 <preheat_time+0x1>
     f92:	84 e0       	ldi	r24, 0x04	; 4
     f94:	0e 94 02 03 	call	0x604	; 0x604 <all_set>
	all_set(SENSOR_TYPE, all_sensor_type);
     f98:	60 91 14 02 	lds	r22, 0x0214	; 0x800214 <all_sensor_type>
     f9c:	70 91 15 02 	lds	r23, 0x0215	; 0x800215 <all_sensor_type+0x1>
     fa0:	85 e0       	ldi	r24, 0x05	; 5
     fa2:	0e 94 02 03 	call	0x604	; 0x604 <all_set>
// //			eeprom_write(SINGLE_SENSORTYPE_EEADDR + i, sensor_type[i]);
// 		}
// 		send_variables(ALL_SENSOR_TYPE_ADDR, TYPE_J + (all_sensor_type * TYPE_K));
// 	}
// 	
	in_main_page = 1;
     fa6:	81 e0       	ldi	r24, 0x01	; 1
     fa8:	80 93 d5 01 	sts	0x01D5, r24	; 0x8001d5 <in_main_page>
     fac:	08 95       	ret

00000fae <update_single_set_page>:
	ctrl_command = READ_DATA_ALL;
}

void update_single_set_page(void)
{
	in_main_page = 0;
     fae:	10 92 d5 01 	sts	0x01D5, r1	; 0x8001d5 <in_main_page>

	update_run_temp_flag = 1;
     fb2:	81 e0       	ldi	r24, 0x01	; 1
     fb4:	80 93 9e 02 	sts	0x029E, r24	; 0x80029e <update_run_temp_flag>
	run_temp_page = 1;
     fb8:	80 93 9f 02 	sts	0x029F, r24	; 0x80029f <run_temp_page>

	send_variables(SINGLE_NUM_ADDR, set_num + 1);															  //序号显示
     fbc:	60 91 99 02 	lds	r22, 0x0299	; 0x800299 <set_num>
     fc0:	70 e0       	ldi	r23, 0x00	; 0
     fc2:	6f 5f       	subi	r22, 0xFF	; 255
     fc4:	7f 4f       	sbci	r23, 0xFF	; 255
     fc6:	80 e3       	ldi	r24, 0x30	; 48
     fc8:	90 e0       	ldi	r25, 0x00	; 0
     fca:	0e 94 b4 03 	call	0x768	; 0x768 <send_variables>
	send_variables(SINGLE_RUNTEMP_ADDR, run_temp[set_num] + temp_unit * ((run_temp[set_num] * 8 / 10) + 32)); //运行温度显示
     fce:	e0 91 99 02 	lds	r30, 0x0299	; 0x800299 <set_num>
     fd2:	f0 e0       	ldi	r31, 0x00	; 0
     fd4:	ee 0f       	add	r30, r30
     fd6:	ff 1f       	adc	r31, r31
     fd8:	ee 59       	subi	r30, 0x9E	; 158
     fda:	fd 4f       	sbci	r31, 0xFD	; 253
     fdc:	20 81       	ld	r18, Z
     fde:	31 81       	ldd	r19, Z+1	; 0x01
     fe0:	c9 01       	movw	r24, r18
     fe2:	88 0f       	add	r24, r24
     fe4:	99 1f       	adc	r25, r25
     fe6:	88 0f       	add	r24, r24
     fe8:	99 1f       	adc	r25, r25
     fea:	88 0f       	add	r24, r24
     fec:	99 1f       	adc	r25, r25
     fee:	6a e0       	ldi	r22, 0x0A	; 10
     ff0:	70 e0       	ldi	r23, 0x00	; 0
     ff2:	0e 94 1f 13 	call	0x263e	; 0x263e <__divmodhi4>
     ff6:	cb 01       	movw	r24, r22
     ff8:	80 96       	adiw	r24, 0x20	; 32
     ffa:	40 91 12 02 	lds	r20, 0x0212	; 0x800212 <temp_unit>
     ffe:	50 91 13 02 	lds	r21, 0x0213	; 0x800213 <temp_unit+0x1>
    1002:	84 9f       	mul	r24, r20
    1004:	b0 01       	movw	r22, r0
    1006:	85 9f       	mul	r24, r21
    1008:	70 0d       	add	r23, r0
    100a:	94 9f       	mul	r25, r20
    100c:	70 0d       	add	r23, r0
    100e:	11 24       	eor	r1, r1
    1010:	62 0f       	add	r22, r18
    1012:	73 1f       	adc	r23, r19
    1014:	82 e3       	ldi	r24, 0x32	; 50
    1016:	90 e0       	ldi	r25, 0x00	; 0
    1018:	0e 94 b4 03 	call	0x768	; 0x768 <send_variables>
	send_variables(SINGLE_SETTEMP_ADDR, set_temp[set_num]);													  //设定温度显示
    101c:	e0 91 99 02 	lds	r30, 0x0299	; 0x800299 <set_num>
    1020:	f0 e0       	ldi	r31, 0x00	; 0
    1022:	ee 0f       	add	r30, r30
    1024:	ff 1f       	adc	r31, r31
    1026:	e3 54       	subi	r30, 0x43	; 67
    1028:	fe 4f       	sbci	r31, 0xFE	; 254
    102a:	60 81       	ld	r22, Z
    102c:	71 81       	ldd	r23, Z+1	; 0x01
    102e:	84 e3       	ldi	r24, 0x34	; 52
    1030:	90 e0       	ldi	r25, 0x00	; 0
    1032:	0e 94 b4 03 	call	0x768	; 0x768 <send_variables>
	send_variables(SINGLE_SET_TEMP, set_temp[set_num]);														  //温度设定输入框显示
    1036:	e0 91 99 02 	lds	r30, 0x0299	; 0x800299 <set_num>
    103a:	f0 e0       	ldi	r31, 0x00	; 0
    103c:	ee 0f       	add	r30, r30
    103e:	ff 1f       	adc	r31, r31
    1040:	e3 54       	subi	r30, 0x43	; 67
    1042:	fe 4f       	sbci	r31, 0xFE	; 254
    1044:	60 81       	ld	r22, Z
    1046:	71 81       	ldd	r23, Z+1	; 0x01
    1048:	86 e4       	ldi	r24, 0x46	; 70
    104a:	91 e0       	ldi	r25, 0x01	; 1
    104c:	0e 94 b4 03 	call	0x768	; 0x768 <send_variables>
	send_variables(SINGLE_SET_SWITCH, switch_sensor[set_num]);												  //传感器开启/关闭状态
    1050:	e0 91 99 02 	lds	r30, 0x0299	; 0x800299 <set_num>
    1054:	f0 e0       	ldi	r31, 0x00	; 0
    1056:	ee 0f       	add	r30, r30
    1058:	ff 1f       	adc	r31, r31
    105a:	e6 5b       	subi	r30, 0xB6	; 182
    105c:	fd 4f       	sbci	r31, 0xFD	; 253
    105e:	60 81       	ld	r22, Z
    1060:	71 81       	ldd	r23, Z+1	; 0x01
    1062:	84 e4       	ldi	r24, 0x44	; 68
    1064:	91 e0       	ldi	r25, 0x01	; 1
    1066:	0e 94 b4 03 	call	0x768	; 0x768 <send_variables>
	send_variables(SINGLE_SENSORTYPE_ADDR, TYPE_J + (sensor_type[set_num] * TYPE_K));						  //DANDUPAGE传感器类型选择显示
    106a:	e0 91 99 02 	lds	r30, 0x0299	; 0x800299 <set_num>
    106e:	f0 e0       	ldi	r31, 0x00	; 0
    1070:	ee 0f       	add	r30, r30
    1072:	ff 1f       	adc	r31, r31
    1074:	ee 5c       	subi	r30, 0xCE	; 206
    1076:	fd 4f       	sbci	r31, 0xFD	; 253
    1078:	80 81       	ld	r24, Z
    107a:	91 81       	ldd	r25, Z+1	; 0x01
    107c:	86 5b       	subi	r24, 0xB6	; 182
    107e:	9f 4f       	sbci	r25, 0xFF	; 255
    1080:	60 e0       	ldi	r22, 0x00	; 0
    1082:	78 2f       	mov	r23, r24
    1084:	80 e9       	ldi	r24, 0x90	; 144
    1086:	92 e0       	ldi	r25, 0x02	; 2
    1088:	0e 94 b4 03 	call	0x768	; 0x768 <send_variables>

	send_name(SINGLE_NAME_ADDR, set_name[set_num]);
    108c:	e0 91 99 02 	lds	r30, 0x0299	; 0x800299 <set_num>
    1090:	f0 e0       	ldi	r31, 0x00	; 0
    1092:	ee 0f       	add	r30, r30
    1094:	ff 1f       	adc	r31, r31
    1096:	ee 0f       	add	r30, r30
    1098:	ff 1f       	adc	r31, r31
    109a:	e3 57       	subi	r30, 0x73	; 115
    109c:	fe 4f       	sbci	r31, 0xFE	; 254
    109e:	40 81       	ld	r20, Z
    10a0:	51 81       	ldd	r21, Z+1	; 0x01
    10a2:	62 81       	ldd	r22, Z+2	; 0x02
    10a4:	73 81       	ldd	r23, Z+3	; 0x03
    10a6:	88 e8       	ldi	r24, 0x88	; 136
    10a8:	92 e0       	ldi	r25, 0x02	; 2
    10aa:	0e 94 d8 05 	call	0xbb0	; 0xbb0 <send_name>

	send_name(SINGLE_SET_NAME, set_name[set_num]);
    10ae:	e0 91 99 02 	lds	r30, 0x0299	; 0x800299 <set_num>
    10b2:	f0 e0       	ldi	r31, 0x00	; 0
    10b4:	ee 0f       	add	r30, r30
    10b6:	ff 1f       	adc	r31, r31
    10b8:	ee 0f       	add	r30, r30
    10ba:	ff 1f       	adc	r31, r31
    10bc:	e3 57       	subi	r30, 0x73	; 115
    10be:	fe 4f       	sbci	r31, 0xFE	; 254
    10c0:	40 81       	ld	r20, Z
    10c2:	51 81       	ldd	r21, Z+1	; 0x01
    10c4:	62 81       	ldd	r22, Z+2	; 0x02
    10c6:	73 81       	ldd	r23, Z+3	; 0x03
    10c8:	88 e5       	ldi	r24, 0x58	; 88
    10ca:	91 e0       	ldi	r25, 0x01	; 1
    10cc:	0e 94 d8 05 	call	0xbb0	; 0xbb0 <send_name>

	set_name_buff = set_name[set_num];
    10d0:	e0 91 99 02 	lds	r30, 0x0299	; 0x800299 <set_num>
    10d4:	f0 e0       	ldi	r31, 0x00	; 0
    10d6:	ee 0f       	add	r30, r30
    10d8:	ff 1f       	adc	r31, r31
    10da:	ee 0f       	add	r30, r30
    10dc:	ff 1f       	adc	r31, r31
    10de:	e3 57       	subi	r30, 0x73	; 115
    10e0:	fe 4f       	sbci	r31, 0xFE	; 254
    10e2:	80 81       	ld	r24, Z
    10e4:	91 81       	ldd	r25, Z+1	; 0x01
    10e6:	a2 81       	ldd	r26, Z+2	; 0x02
    10e8:	b3 81       	ldd	r27, Z+3	; 0x03
    10ea:	80 93 2e 02 	sts	0x022E, r24	; 0x80022e <set_name_buff>
    10ee:	90 93 2f 02 	sts	0x022F, r25	; 0x80022f <set_name_buff+0x1>
    10f2:	a0 93 30 02 	sts	0x0230, r26	; 0x800230 <set_name_buff+0x2>
    10f6:	b0 93 31 02 	sts	0x0231, r27	; 0x800231 <set_name_buff+0x3>
    10fa:	08 95       	ret

000010fc <send_to_channel>:

	usart0_send_str(usart0_tx_buff, 12);
}

void send_to_channel(uint8_t ch, uint16_t value)
{
    10fc:	cf 93       	push	r28
    10fe:	df 93       	push	r29
	uint16_t crc = 0;

	usart0_tx_buff[0] = 0xA5;
    1100:	c2 e4       	ldi	r28, 0x42	; 66
    1102:	d5 e0       	ldi	r29, 0x05	; 5
    1104:	95 ea       	ldi	r25, 0xA5	; 165
    1106:	98 83       	st	Y, r25
	usart0_tx_buff[1] = 0x5A;
    1108:	9a e5       	ldi	r25, 0x5A	; 90
    110a:	99 83       	std	Y+1, r25	; 0x01
	usart0_tx_buff[2] = 0x04;
    110c:	94 e0       	ldi	r25, 0x04	; 4
    110e:	9a 83       	std	Y+2, r25	; 0x02
	usart0_tx_buff[3] = 0x84;
    1110:	94 e8       	ldi	r25, 0x84	; 132
    1112:	9b 83       	std	Y+3, r25	; 0x03
	usart0_tx_buff[4] = ch;
    1114:	8c 83       	std	Y+4, r24	; 0x04
	usart0_tx_buff[5] = value >> 8;
    1116:	7d 83       	std	Y+5, r23	; 0x05
	usart0_tx_buff[6] = value;
    1118:	6e 83       	std	Y+6, r22	; 0x06

	crc = crc_check(usart0_tx_buff, 9);
    111a:	69 e0       	ldi	r22, 0x09	; 9
    111c:	ce 01       	movw	r24, r28
    111e:	0e 94 91 10 	call	0x2122	; 0x2122 <crc_check>

	usart0_tx_buff[7] = crc & 0x00FF;
    1122:	8f 83       	std	Y+7, r24	; 0x07
	usart0_tx_buff[8] = crc >> 8;
    1124:	98 87       	std	Y+8, r25	; 0x08

	usart0_send_str(usart0_tx_buff, 9);
    1126:	69 e0       	ldi	r22, 0x09	; 9
    1128:	ce 01       	movw	r24, r28
    112a:	0e 94 2a 10 	call	0x2054	; 0x2054 <usart0_send_str>
}
    112e:	df 91       	pop	r29
    1130:	cf 91       	pop	r28
    1132:	08 95       	ret

00001134 <send_alarm_msg>:

void send_alarm_msg(uint8_t type, uint8_t msg_num, uint16_t sen_num)
{
    1134:	0f 93       	push	r16
    1136:	1f 93       	push	r17
    1138:	cf 93       	push	r28
    113a:	df 93       	push	r29
    113c:	8a 01       	movw	r16, r20
	uint8_t i = 0;
	uint16_t crc = 0;
	uint16_t sensor_num = 0;

	usart0_tx_buff[0] = 0xA5;
    113e:	e2 e4       	ldi	r30, 0x42	; 66
    1140:	f5 e0       	ldi	r31, 0x05	; 5
    1142:	95 ea       	ldi	r25, 0xA5	; 165
    1144:	90 83       	st	Z, r25
	usart0_tx_buff[1] = 0x5A;
    1146:	9a e5       	ldi	r25, 0x5A	; 90
    1148:	91 83       	std	Z+1, r25	; 0x01
	usart0_tx_buff[2] = 0x13;
    114a:	93 e1       	ldi	r25, 0x13	; 19
    114c:	92 83       	std	Z+2, r25	; 0x02
	usart0_tx_buff[3] = 0x82;
    114e:	92 e8       	ldi	r25, 0x82	; 130
    1150:	93 83       	std	Z+3, r25	; 0x03
	usart0_tx_buff[4] = (ALAEM_MSG1_ADDR + (msg_num * 16)) >> 8;
    1152:	c6 2f       	mov	r28, r22
    1154:	d0 e0       	ldi	r29, 0x00	; 0
    1156:	9e 01       	movw	r18, r28
    1158:	25 5d       	subi	r18, 0xD5	; 213
    115a:	3f 4f       	sbci	r19, 0xFF	; 255
    115c:	a9 01       	movw	r20, r18
    115e:	42 95       	swap	r20
    1160:	52 95       	swap	r21
    1162:	50 7f       	andi	r21, 0xF0	; 240
    1164:	54 27       	eor	r21, r20
    1166:	40 7f       	andi	r20, 0xF0	; 240
    1168:	54 27       	eor	r21, r20
    116a:	54 83       	std	Z+4, r21	; 0x04
	usart0_tx_buff[5] = (ALAEM_MSG1_ADDR + (msg_num * 16)) & 0x00FF;
    116c:	22 95       	swap	r18
    116e:	20 7f       	andi	r18, 0xF0	; 240
    1170:	25 83       	std	Z+5, r18	; 0x05
    1172:	20 e1       	ldi	r18, 0x10	; 16
    1174:	82 9f       	mul	r24, r18
    1176:	c0 01       	movw	r24, r0
    1178:	11 24       	eor	r1, r1
    117a:	dc 01       	movw	r26, r24
    117c:	a0 51       	subi	r26, 0x10	; 16
    117e:	bf 4f       	sbci	r27, 0xFF	; 255
    1180:	e8 e4       	ldi	r30, 0x48	; 72
    1182:	f5 e0       	ldi	r31, 0x05	; 5
    1184:	28 e5       	ldi	r18, 0x58	; 88
    1186:	35 e0       	ldi	r19, 0x05	; 5

	for (i = 0; i < 16; i++)
	{
		usart0_tx_buff[i + 6] = alarm_msg[type - 1][i];
    1188:	9d 91       	ld	r25, X+
    118a:	91 93       	st	Z+, r25
	usart0_tx_buff[2] = 0x13;
	usart0_tx_buff[3] = 0x82;
	usart0_tx_buff[4] = (ALAEM_MSG1_ADDR + (msg_num * 16)) >> 8;
	usart0_tx_buff[5] = (ALAEM_MSG1_ADDR + (msg_num * 16)) & 0x00FF;

	for (i = 0; i < 16; i++)
    118c:	e2 17       	cp	r30, r18
    118e:	f3 07       	cpc	r31, r19
    1190:	d9 f7       	brne	.-10     	; 0x1188 <send_alarm_msg+0x54>
	{
		usart0_tx_buff[i + 6] = alarm_msg[type - 1][i];
	}

	crc = crc_check(usart0_tx_buff, 24);
    1192:	68 e1       	ldi	r22, 0x18	; 24
    1194:	82 e4       	ldi	r24, 0x42	; 66
    1196:	95 e0       	ldi	r25, 0x05	; 5
    1198:	0e 94 91 10 	call	0x2122	; 0x2122 <crc_check>

	usart0_tx_buff[22] = crc & 0x00FF;
    119c:	e2 e4       	ldi	r30, 0x42	; 66
    119e:	f5 e0       	ldi	r31, 0x05	; 5
    11a0:	86 8b       	std	Z+22, r24	; 0x16
	usart0_tx_buff[23] = crc >> 8;
    11a2:	97 8b       	std	Z+23, r25	; 0x17

	usart0_send_str(usart0_tx_buff, 24);
    11a4:	68 e1       	ldi	r22, 0x18	; 24
    11a6:	cf 01       	movw	r24, r30
    11a8:	0e 94 2a 10 	call	0x2054	; 0x2054 <usart0_send_str>

	if (sen_num <= 8)
    11ac:	09 30       	cpi	r16, 0x09	; 9
    11ae:	11 05       	cpc	r17, r1
    11b0:	28 f4       	brcc	.+10     	; 0x11bc <send_alarm_msg+0x88>
	{
		sensor_num = 0x2300 | (sen_num + 49);
    11b2:	0f 5c       	subi	r16, 0xCF	; 207
    11b4:	1f 4f       	sbci	r17, 0xFF	; 255
    11b6:	b8 01       	movw	r22, r16
    11b8:	73 62       	ori	r23, 0x23	; 35
    11ba:	04 c0       	rjmp	.+8      	; 0x11c4 <send_alarm_msg+0x90>
	}
	else
	{
		sensor_num = 0x2300 | (sen_num + 56);
    11bc:	08 5c       	subi	r16, 0xC8	; 200
    11be:	1f 4f       	sbci	r17, 0xFF	; 255
    11c0:	b8 01       	movw	r22, r16
    11c2:	73 62       	ori	r23, 0x23	; 35
	}

	send_variables(ALARM_DEVICE_NUM1_ADDR + (msg_num * 2), sensor_num);
    11c4:	ce 01       	movw	r24, r28
    11c6:	cc 96       	adiw	r24, 0x3c	; 60
    11c8:	88 0f       	add	r24, r24
    11ca:	99 1f       	adc	r25, r25
    11cc:	0e 94 b4 03 	call	0x768	; 0x768 <send_variables>
}
    11d0:	df 91       	pop	r29
    11d2:	cf 91       	pop	r28
    11d4:	1f 91       	pop	r17
    11d6:	0f 91       	pop	r16
    11d8:	08 95       	ret

000011da <read_setting_data>:
/*
*功能：读取一块主控板设定数据
*返回数据：0:断线 1:连接（收到数据）
*/
uint8_t read_setting_data(uint8_t addr)
{
    11da:	3f 92       	push	r3
    11dc:	4f 92       	push	r4
    11de:	5f 92       	push	r5
    11e0:	6f 92       	push	r6
    11e2:	7f 92       	push	r7
    11e4:	8f 92       	push	r8
    11e6:	9f 92       	push	r9
    11e8:	af 92       	push	r10
    11ea:	bf 92       	push	r11
    11ec:	cf 92       	push	r12
    11ee:	df 92       	push	r13
    11f0:	ef 92       	push	r14
    11f2:	ff 92       	push	r15
    11f4:	0f 93       	push	r16
    11f6:	1f 93       	push	r17
    11f8:	cf 93       	push	r28
    11fa:	df 93       	push	r29
	uint8_t board_sta = 0;
	uint16_t crc = 0;
	uint8_t i;
	read_setting_data_mask = 0;
    11fc:	10 92 ad 02 	sts	0x02AD, r1	; 0x8002ad <read_setting_data_mask>
	read_setting_data_cnt = 0;
    1200:	10 92 ac 02 	sts	0x02AC, r1	; 0x8002ac <read_setting_data_cnt>
	{
		usart1_tx_buff[0] = 0xA5;
		usart1_tx_buff[1] = 0x5A;
		usart1_tx_buff[2] = 0x02;
		usart1_tx_buff[3] = READ_SETTING_DATA;
		usart1_tx_buff[4] = (addr << 4)+i;
    1204:	98 2f       	mov	r25, r24
    1206:	92 95       	swap	r25
    1208:	90 7f       	andi	r25, 0xF0	; 240
    120a:	ff 24       	eor	r15, r15
    120c:	f3 94       	inc	r15
    120e:	f9 0e       	add	r15, r25
    1210:	20 e1       	ldi	r18, 0x10	; 16
    1212:	82 9f       	mul	r24, r18
    1214:	80 01       	movw	r16, r0
    1216:	11 24       	eor	r1, r1
    1218:	0f 5f       	subi	r16, 0xFF	; 255
    121a:	1f 4f       	sbci	r17, 0xFF	; 255
    121c:	0f 2e       	mov	r0, r31
    121e:	f5 e0       	ldi	r31, 0x05	; 5
    1220:	9f 2e       	mov	r9, r31
    1222:	f0 2d       	mov	r31, r0
    1224:	99 0e       	add	r9, r25
*功能：读取一块主控板设定数据
*返回数据：0:断线 1:连接（收到数据）
*/
uint8_t read_setting_data(uint8_t addr)
{
	uint8_t board_sta = 0;
    1226:	41 2c       	mov	r4, r1
	read_setting_data_mask = 0;
	read_setting_data_cnt = 0;
	
	for (i=1;i<5;i++)
	{
		usart1_tx_buff[0] = 0xA5;
    1228:	cf ea       	ldi	r28, 0xAF	; 175
    122a:	d3 e0       	ldi	r29, 0x03	; 3
    122c:	0f 2e       	mov	r0, r31
    122e:	f5 ea       	ldi	r31, 0xA5	; 165
    1230:	5f 2e       	mov	r5, r31
    1232:	f0 2d       	mov	r31, r0
		usart1_tx_buff[1] = 0x5A;
    1234:	0f 2e       	mov	r0, r31
    1236:	fa e5       	ldi	r31, 0x5A	; 90
    1238:	6f 2e       	mov	r6, r31
    123a:	f0 2d       	mov	r31, r0
		usart1_tx_buff[2] = 0x02;
    123c:	68 94       	set
    123e:	77 24       	eor	r7, r7
    1240:	71 f8       	bld	r7, 1
		usart1_tx_buff[3] = READ_SETTING_DATA;
    1242:	0f 2e       	mov	r0, r31
    1244:	f7 e0       	ldi	r31, 0x07	; 7
    1246:	ef 2e       	mov	r14, r31
    1248:	f0 2d       	mov	r31, r0
    124a:	8e 2c       	mov	r8, r14
			if (usart1_rx_end)
			{
				usart1_deal();
				usart1_rx_end = 0;
				
				if (usart1_rx_buff[4] == (addr << 4)+i)
    124c:	0f 2e       	mov	r0, r31
    124e:	f7 e7       	ldi	r31, 0x77	; 119
    1250:	af 2e       	mov	r10, r31
    1252:	f4 e0       	ldi	r31, 0x04	; 4
    1254:	bf 2e       	mov	r11, r31
    1256:	f0 2d       	mov	r31, r0
				{
					board_sta = 1;
    1258:	33 24       	eor	r3, r3
    125a:	33 94       	inc	r3
	read_setting_data_mask = 0;
	read_setting_data_cnt = 0;
	
	for (i=1;i<5;i++)
	{
		usart1_tx_buff[0] = 0xA5;
    125c:	58 82       	st	Y, r5
		usart1_tx_buff[1] = 0x5A;
    125e:	69 82       	std	Y+1, r6	; 0x01
		usart1_tx_buff[2] = 0x02;
    1260:	7a 82       	std	Y+2, r7	; 0x02
		usart1_tx_buff[3] = READ_SETTING_DATA;
    1262:	8b 82       	std	Y+3, r8	; 0x03
		usart1_tx_buff[4] = (addr << 4)+i;
    1264:	fc 82       	std	Y+4, r15	; 0x04

		crc = crc_check(usart1_tx_buff, 7);
    1266:	6e 2d       	mov	r22, r14
    1268:	ce 01       	movw	r24, r28
    126a:	0e 94 91 10 	call	0x2122	; 0x2122 <crc_check>

		usart1_tx_buff[5] = crc & 0x00FF;
    126e:	8d 83       	std	Y+5, r24	; 0x05
		usart1_tx_buff[6] = crc >> 8;
    1270:	9e 83       	std	Y+6, r25	; 0x06

		usart1_send_str(usart1_tx_buff, 7);
    1272:	6e 2d       	mov	r22, r14
    1274:	ce 01       	movw	r24, r28
    1276:	0e 94 4b 10 	call	0x2096	; 0x2096 <usart1_send_str>
			if (usart1_rx_end)
			{
				usart1_deal();
				usart1_rx_end = 0;
				
				if (usart1_rx_buff[4] == (addr << 4)+i)
    127a:	68 01       	movw	r12, r16
		usart1_tx_buff[5] = crc & 0x00FF;
		usart1_tx_buff[6] = crc >> 8;

		usart1_send_str(usart1_tx_buff, 7);

		while (read_setting_data_mask != 1)
    127c:	0d c0       	rjmp	.+26     	; 0x1298 <read_setting_data+0xbe>
		{
			if (usart1_rx_end)
    127e:	99 23       	and	r25, r25
    1280:	79 f0       	breq	.+30     	; 0x12a0 <read_setting_data+0xc6>
			{
				usart1_deal();
    1282:	0e 94 fe 0f 	call	0x1ffc	; 0x1ffc <usart1_deal>
				usart1_rx_end = 0;
    1286:	10 92 ae 03 	sts	0x03AE, r1	; 0x8003ae <usart1_rx_end>
				
				if (usart1_rx_buff[4] == (addr << 4)+i)
    128a:	f5 01       	movw	r30, r10
    128c:	84 81       	ldd	r24, Z+4	; 0x04
    128e:	90 e0       	ldi	r25, 0x00	; 0
    1290:	8c 15       	cp	r24, r12
    1292:	9d 05       	cpc	r25, r13
    1294:	09 f4       	brne	.+2      	; 0x1298 <read_setting_data+0xbe>
				{
					board_sta = 1;
    1296:	43 2c       	mov	r4, r3
		usart1_tx_buff[5] = crc & 0x00FF;
		usart1_tx_buff[6] = crc >> 8;

		usart1_send_str(usart1_tx_buff, 7);

		while (read_setting_data_mask != 1)
    1298:	80 91 ad 02 	lds	r24, 0x02AD	; 0x8002ad <read_setting_data_mask>
		{
			if (usart1_rx_end)
    129c:	90 91 ae 03 	lds	r25, 0x03AE	; 0x8003ae <usart1_rx_end>
		usart1_tx_buff[5] = crc & 0x00FF;
		usart1_tx_buff[6] = crc >> 8;

		usart1_send_str(usart1_tx_buff, 7);

		while (read_setting_data_mask != 1)
    12a0:	81 30       	cpi	r24, 0x01	; 1
    12a2:	69 f7       	brne	.-38     	; 0x127e <read_setting_data+0xa4>
				{
					board_sta = 1;
				}
			}
		}
		read_setting_data_mask = 0; read_setting_data_cnt = 0;
    12a4:	10 92 ad 02 	sts	0x02AD, r1	; 0x8002ad <read_setting_data_mask>
    12a8:	10 92 ac 02 	sts	0x02AC, r1	; 0x8002ac <read_setting_data_cnt>
    12ac:	f3 94       	inc	r15
    12ae:	0f 5f       	subi	r16, 0xFF	; 255
    12b0:	1f 4f       	sbci	r17, 0xFF	; 255
	uint16_t crc = 0;
	uint8_t i;
	read_setting_data_mask = 0;
	read_setting_data_cnt = 0;
	
	for (i=1;i<5;i++)
    12b2:	f9 10       	cpse	r15, r9
    12b4:	d3 cf       	rjmp	.-90     	; 0x125c <read_setting_data+0x82>
			}
		}
		read_setting_data_mask = 0; read_setting_data_cnt = 0;
	}
	return board_sta;
}
    12b6:	84 2d       	mov	r24, r4
    12b8:	df 91       	pop	r29
    12ba:	cf 91       	pop	r28
    12bc:	1f 91       	pop	r17
    12be:	0f 91       	pop	r16
    12c0:	ff 90       	pop	r15
    12c2:	ef 90       	pop	r14
    12c4:	df 90       	pop	r13
    12c6:	cf 90       	pop	r12
    12c8:	bf 90       	pop	r11
    12ca:	af 90       	pop	r10
    12cc:	9f 90       	pop	r9
    12ce:	8f 90       	pop	r8
    12d0:	7f 90       	pop	r7
    12d2:	6f 90       	pop	r6
    12d4:	5f 90       	pop	r5
    12d6:	4f 90       	pop	r4
    12d8:	3f 90       	pop	r3
    12da:	08 95       	ret

000012dc <read_setting_data_all>:
	send_variables(ALARM_DEVICE_NUM1_ADDR + (msg_num * 2), sensor_num);
}

/* 依次读取三块主控板设定数据 */
void read_setting_data_all(void)
{
    12dc:	cf 93       	push	r28
    12de:	df 93       	push	r29
	uint8_t i, j;		//i:板号   j：通道号
	
	ctrl_board_sta[0] = read_setting_data(1);
    12e0:	81 e0       	ldi	r24, 0x01	; 1
    12e2:	0e 94 ed 08 	call	0x11da	; 0x11da <read_setting_data>
    12e6:	c2 e9       	ldi	r28, 0x92	; 146
    12e8:	d2 e0       	ldi	r29, 0x02	; 2
    12ea:	88 83       	st	Y, r24
	ctrl_board_sta[1] = read_setting_data(2);
    12ec:	82 e0       	ldi	r24, 0x02	; 2
    12ee:	0e 94 ed 08 	call	0x11da	; 0x11da <read_setting_data>
    12f2:	89 83       	std	Y+1, r24	; 0x01
	ctrl_board_sta[2] = read_setting_data(3);
    12f4:	83 e0       	ldi	r24, 0x03	; 3
    12f6:	0e 94 ed 08 	call	0x11da	; 0x11da <read_setting_data>
    12fa:	8a 83       	std	Y+2, r24	; 0x02
	
	for(i=0; i<3; i++)
	{
		if(ctrl_board_sta[i] == 0)
    12fc:	98 81       	ld	r25, Y
    12fe:	91 11       	cpse	r25, r1
    1300:	07 c0       	rjmp	.+14     	; 0x1310 <read_setting_data_all+0x34>
		{
			for (j=0; j<4; j++)
			{
				sensor_sta[i*4+j] = 3;
    1302:	ea e7       	ldi	r30, 0x7A	; 122
    1304:	f2 e0       	ldi	r31, 0x02	; 2
    1306:	93 e0       	ldi	r25, 0x03	; 3
    1308:	90 83       	st	Z, r25
    130a:	91 83       	std	Z+1, r25	; 0x01
    130c:	92 83       	std	Z+2, r25	; 0x02
    130e:	93 83       	std	Z+3, r25	; 0x03
	ctrl_board_sta[1] = read_setting_data(2);
	ctrl_board_sta[2] = read_setting_data(3);
	
	for(i=0; i<3; i++)
	{
		if(ctrl_board_sta[i] == 0)
    1310:	90 91 93 02 	lds	r25, 0x0293	; 0x800293 <ctrl_board_sta+0x1>
    1314:	91 11       	cpse	r25, r1
    1316:	07 c0       	rjmp	.+14     	; 0x1326 <read_setting_data_all+0x4a>
		{
			for (j=0; j<4; j++)
			{
				sensor_sta[i*4+j] = 3;
    1318:	ea e7       	ldi	r30, 0x7A	; 122
    131a:	f2 e0       	ldi	r31, 0x02	; 2
    131c:	93 e0       	ldi	r25, 0x03	; 3
    131e:	94 83       	std	Z+4, r25	; 0x04
    1320:	95 83       	std	Z+5, r25	; 0x05
    1322:	96 83       	std	Z+6, r25	; 0x06
    1324:	97 83       	std	Z+7, r25	; 0x07
	ctrl_board_sta[1] = read_setting_data(2);
	ctrl_board_sta[2] = read_setting_data(3);
	
	for(i=0; i<3; i++)
	{
		if(ctrl_board_sta[i] == 0)
    1326:	81 11       	cpse	r24, r1
    1328:	07 c0       	rjmp	.+14     	; 0x1338 <read_setting_data_all+0x5c>
		{
			for (j=0; j<4; j++)
			{
				sensor_sta[i*4+j] = 3;
    132a:	ea e7       	ldi	r30, 0x7A	; 122
    132c:	f2 e0       	ldi	r31, 0x02	; 2
    132e:	83 e0       	ldi	r24, 0x03	; 3
    1330:	80 87       	std	Z+8, r24	; 0x08
    1332:	81 87       	std	Z+9, r24	; 0x09
    1334:	82 87       	std	Z+10, r24	; 0x0a
    1336:	83 87       	std	Z+11, r24	; 0x0b
			}
		}
	}
}
    1338:	df 91       	pop	r29
    133a:	cf 91       	pop	r28
    133c:	08 95       	ret

0000133e <get_setting_data>:
void get_setting_data(uint8_t addr)
{
	uint8_t i;
	uint8_t iqr_num = ((addr >> 4) - 1) * 4 + (addr & 0x0F) - 1;

	set_name[iqr_num] = usart1_rx_buff[5];
    133e:	98 2f       	mov	r25, r24
    1340:	92 95       	swap	r25
    1342:	9f 70       	andi	r25, 0x0F	; 15
    1344:	99 0f       	add	r25, r25
    1346:	99 0f       	add	r25, r25
    1348:	8f 70       	andi	r24, 0x0F	; 15
    134a:	89 0f       	add	r24, r25
    134c:	85 50       	subi	r24, 0x05	; 5
    134e:	90 e0       	ldi	r25, 0x00	; 0
	set_name[iqr_num] = (set_name[iqr_num] << 8) | usart1_rx_buff[6];
	set_name[iqr_num] = (set_name[iqr_num] << 8) | usart1_rx_buff[7];
	set_name[iqr_num] = (set_name[iqr_num] << 8) | usart1_rx_buff[8];
    1350:	dc 01       	movw	r26, r24
    1352:	aa 0f       	add	r26, r26
    1354:	bb 1f       	adc	r27, r27
    1356:	aa 0f       	add	r26, r26
    1358:	bb 1f       	adc	r27, r27
    135a:	a3 57       	subi	r26, 0x73	; 115
    135c:	be 4f       	sbci	r27, 0xFE	; 254
void get_setting_data(uint8_t addr)
{
	uint8_t i;
	uint8_t iqr_num = ((addr >> 4) - 1) * 4 + (addr & 0x0F) - 1;

	set_name[iqr_num] = usart1_rx_buff[5];
    135e:	e7 e7       	ldi	r30, 0x77	; 119
    1360:	f4 e0       	ldi	r31, 0x04	; 4
	set_name[iqr_num] = (set_name[iqr_num] << 8) | usart1_rx_buff[6];
	set_name[iqr_num] = (set_name[iqr_num] << 8) | usart1_rx_buff[7];
	set_name[iqr_num] = (set_name[iqr_num] << 8) | usart1_rx_buff[8];
    1362:	45 81       	ldd	r20, Z+5	; 0x05
    1364:	50 e0       	ldi	r21, 0x00	; 0
    1366:	60 e0       	ldi	r22, 0x00	; 0
    1368:	70 e0       	ldi	r23, 0x00	; 0
    136a:	76 2f       	mov	r23, r22
    136c:	65 2f       	mov	r22, r21
    136e:	54 2f       	mov	r21, r20
    1370:	44 27       	eor	r20, r20
    1372:	26 81       	ldd	r18, Z+6	; 0x06
    1374:	42 2b       	or	r20, r18
    1376:	76 2f       	mov	r23, r22
    1378:	65 2f       	mov	r22, r21
    137a:	54 2f       	mov	r21, r20
    137c:	44 27       	eor	r20, r20
    137e:	27 81       	ldd	r18, Z+7	; 0x07
    1380:	42 2b       	or	r20, r18
    1382:	76 2f       	mov	r23, r22
    1384:	65 2f       	mov	r22, r21
    1386:	54 2f       	mov	r21, r20
    1388:	44 27       	eor	r20, r20
    138a:	20 85       	ldd	r18, Z+8	; 0x08
    138c:	42 2b       	or	r20, r18
    138e:	4d 93       	st	X+, r20
    1390:	5d 93       	st	X+, r21
    1392:	6d 93       	st	X+, r22
    1394:	7c 93       	st	X, r23
    1396:	13 97       	sbiw	r26, 0x03	; 3

	set_temp[iqr_num] = usart1_rx_buff[9];
	set_temp[iqr_num] = (set_temp[iqr_num] << 8) | usart1_rx_buff[10];
    1398:	21 85       	ldd	r18, Z+9	; 0x09
    139a:	30 e0       	ldi	r19, 0x00	; 0
    139c:	32 2f       	mov	r19, r18
    139e:	22 27       	eor	r18, r18
    13a0:	42 85       	ldd	r20, Z+10	; 0x0a
    13a2:	24 2b       	or	r18, r20
    13a4:	ac 01       	movw	r20, r24
    13a6:	44 0f       	add	r20, r20
    13a8:	55 1f       	adc	r21, r21
    13aa:	da 01       	movw	r26, r20
    13ac:	a3 54       	subi	r26, 0x43	; 67
    13ae:	be 4f       	sbci	r27, 0xFE	; 254
    13b0:	2d 93       	st	X+, r18
    13b2:	3c 93       	st	X, r19
	set_temp_buff[iqr_num] = set_temp[iqr_num];
    13b4:	da 01       	movw	r26, r20
    13b6:	a3 52       	subi	r26, 0x23	; 35
    13b8:	be 4f       	sbci	r27, 0xFE	; 254
    13ba:	2d 93       	st	X+, r18
    13bc:	3c 93       	st	X, r19

	all_sensor_type = usart1_rx_buff[12];
    13be:	24 85       	ldd	r18, Z+12	; 0x0c
    13c0:	30 e0       	ldi	r19, 0x00	; 0
    13c2:	30 93 15 02 	sts	0x0215, r19	; 0x800215 <all_sensor_type+0x1>
    13c6:	20 93 14 02 	sts	0x0214, r18	; 0x800214 <all_sensor_type>
	all_sensor_type_buff = all_sensor_type;
    13ca:	30 93 e2 02 	sts	0x02E2, r19	; 0x8002e2 <all_sensor_type_buff+0x1>
    13ce:	20 93 e1 02 	sts	0x02E1, r18	; 0x8002e1 <all_sensor_type_buff>
    13d2:	e2 e3       	ldi	r30, 0x32	; 50
    13d4:	f2 e0       	ldi	r31, 0x02	; 2
    13d6:	4a e4       	ldi	r20, 0x4A	; 74
    13d8:	52 e0       	ldi	r21, 0x02	; 2
	
	for(i=0; i<12; i++)
	{
		sensor_type[i] = all_sensor_type;
    13da:	21 93       	st	Z+, r18
    13dc:	31 93       	st	Z+, r19
	set_temp_buff[iqr_num] = set_temp[iqr_num];

	all_sensor_type = usart1_rx_buff[12];
	all_sensor_type_buff = all_sensor_type;
	
	for(i=0; i<12; i++)
    13de:	e4 17       	cp	r30, r20
    13e0:	f5 07       	cpc	r31, r21
    13e2:	d9 f7       	brne	.-10     	; 0x13da <get_setting_data+0x9c>
	{
		sensor_type[i] = all_sensor_type;
	}
	
	follow_sta[iqr_num] = usart1_rx_buff[14];
    13e4:	e7 e7       	ldi	r30, 0x77	; 119
    13e6:	f4 e0       	ldi	r31, 0x04	; 4
    13e8:	26 85       	ldd	r18, Z+14	; 0x0e
    13ea:	dc 01       	movw	r26, r24
    13ec:	ae 5d       	subi	r26, 0xDE	; 222
    13ee:	bd 4f       	sbci	r27, 0xFD	; 253
    13f0:	2c 93       	st	X, r18
	follow_sta_buff[iqr_num] = follow_sta[iqr_num];
    13f2:	dc 01       	movw	r26, r24
    13f4:	aa 5e       	subi	r26, 0xEA	; 234
    13f6:	bd 4f       	sbci	r27, 0xFD	; 253
    13f8:	2c 93       	st	X, r18
	
	if(usart1_rx_buff[16] <= 2)				//通道状态： 0：关闭  1：开启  2:跟随 3~n：告警类型
    13fa:	20 89       	ldd	r18, Z+16	; 0x10
    13fc:	23 30       	cpi	r18, 0x03	; 3
    13fe:	a8 f4       	brcc	.+42     	; 0x142a <get_setting_data+0xec>
	{
		switch_sensor[iqr_num] = usart1_rx_buff[16] & 0x01;		//0：关闭  1：开启 （跟随归属到开启）    
    1400:	42 2f       	mov	r20, r18
    1402:	41 70       	andi	r20, 0x01	; 1
    1404:	30 e0       	ldi	r19, 0x00	; 0
    1406:	fc 01       	movw	r30, r24
    1408:	ee 0f       	add	r30, r30
    140a:	ff 1f       	adc	r31, r31
    140c:	df 01       	movw	r26, r30
    140e:	a6 5b       	subi	r26, 0xB6	; 182
    1410:	bd 4f       	sbci	r27, 0xFD	; 253
    1412:	4c 93       	st	X, r20
    1414:	11 96       	adiw	r26, 0x01	; 1
    1416:	3c 93       	st	X, r19
		switch_sensor_buff[iqr_num] = switch_sensor[iqr_num];
    1418:	e9 53       	subi	r30, 0x39	; 57
    141a:	fd 4f       	sbci	r31, 0xFD	; 253
    141c:	40 83       	st	Z, r20
    141e:	31 83       	std	Z+1, r19	; 0x01
		
		sensor_sta[iqr_num] = usart1_rx_buff[16];
    1420:	fc 01       	movw	r30, r24
    1422:	e6 58       	subi	r30, 0x86	; 134
    1424:	fd 4f       	sbci	r31, 0xFD	; 253
    1426:	20 83       	st	Z, r18
    1428:	11 c0       	rjmp	.+34     	; 0x144c <get_setting_data+0x10e>
	}
	else
	{
		sensor_sta[iqr_num] = usart1_rx_buff[16];
    142a:	fc 01       	movw	r30, r24
    142c:	e6 58       	subi	r30, 0x86	; 134
    142e:	fd 4f       	sbci	r31, 0xFD	; 253
    1430:	20 83       	st	Z, r18
		switch_sensor[iqr_num] = 0;
    1432:	9c 01       	movw	r18, r24
    1434:	22 0f       	add	r18, r18
    1436:	33 1f       	adc	r19, r19
    1438:	f9 01       	movw	r30, r18
    143a:	e6 5b       	subi	r30, 0xB6	; 182
    143c:	fd 4f       	sbci	r31, 0xFD	; 253
    143e:	11 82       	std	Z+1, r1	; 0x01
    1440:	10 82       	st	Z, r1
		switch_sensor_buff[iqr_num] = 0;
    1442:	f9 01       	movw	r30, r18
    1444:	e9 53       	subi	r30, 0x39	; 57
    1446:	fd 4f       	sbci	r31, 0xFD	; 253
    1448:	11 82       	std	Z+1, r1	; 0x01
    144a:	10 82       	st	Z, r1
	}
	
	
	p_value[iqr_num] = usart1_rx_buff[17];
	p_value[iqr_num] = (p_value[iqr_num] << 8) | usart1_rx_buff[18];
    144c:	88 0f       	add	r24, r24
    144e:	99 1f       	adc	r25, r25
    1450:	dc 01       	movw	r26, r24
    1452:	ab 58       	subi	r26, 0x8B	; 139
    1454:	be 4f       	sbci	r27, 0xFE	; 254
		switch_sensor[iqr_num] = 0;
		switch_sensor_buff[iqr_num] = 0;
	}
	
	
	p_value[iqr_num] = usart1_rx_buff[17];
    1456:	e7 e7       	ldi	r30, 0x77	; 119
    1458:	f4 e0       	ldi	r31, 0x04	; 4
	p_value[iqr_num] = (p_value[iqr_num] << 8) | usart1_rx_buff[18];
    145a:	21 89       	ldd	r18, Z+17	; 0x11
    145c:	30 e0       	ldi	r19, 0x00	; 0
    145e:	32 2f       	mov	r19, r18
    1460:	22 27       	eor	r18, r18
    1462:	42 89       	ldd	r20, Z+18	; 0x12
    1464:	24 2b       	or	r18, r20
    1466:	2d 93       	st	X+, r18
    1468:	3c 93       	st	X, r19
	
	i_value[iqr_num] = usart1_rx_buff[19];
	i_value[iqr_num] = (i_value[iqr_num] << 8) | usart1_rx_buff[20];
    146a:	dc 01       	movw	r26, r24
    146c:	a3 5a       	subi	r26, 0xA3	; 163
    146e:	be 4f       	sbci	r27, 0xFE	; 254
    1470:	23 89       	ldd	r18, Z+19	; 0x13
    1472:	30 e0       	ldi	r19, 0x00	; 0
    1474:	32 2f       	mov	r19, r18
    1476:	22 27       	eor	r18, r18
    1478:	44 89       	ldd	r20, Z+20	; 0x14
    147a:	24 2b       	or	r18, r20
    147c:	2d 93       	st	X+, r18
    147e:	3c 93       	st	X, r19
	
	d_value[iqr_num] = usart1_rx_buff[21];
	d_value[iqr_num] = (d_value[iqr_num] << 8) | usart1_rx_buff[22];
    1480:	dc 01       	movw	r26, r24
    1482:	ab 5b       	subi	r26, 0xBB	; 187
    1484:	be 4f       	sbci	r27, 0xFE	; 254
    1486:	25 89       	ldd	r18, Z+21	; 0x15
    1488:	30 e0       	ldi	r19, 0x00	; 0
    148a:	32 2f       	mov	r19, r18
    148c:	22 27       	eor	r18, r18
    148e:	46 89       	ldd	r20, Z+22	; 0x16
    1490:	24 2b       	or	r18, r20
    1492:	2d 93       	st	X+, r18
    1494:	3c 93       	st	X, r19
    1496:	08 95       	ret

00001498 <send_request_all>:

	//	pre_system_sta
}

void send_request_all(uint8_t addr)
{
    1498:	cf 93       	push	r28
    149a:	df 93       	push	r29
	uint16_t crc = 0;

	usart1_tx_buff[0] = 0xA5;
    149c:	cf ea       	ldi	r28, 0xAF	; 175
    149e:	d3 e0       	ldi	r29, 0x03	; 3
    14a0:	95 ea       	ldi	r25, 0xA5	; 165
    14a2:	98 83       	st	Y, r25
	usart1_tx_buff[1] = 0x5A;
    14a4:	9a e5       	ldi	r25, 0x5A	; 90
    14a6:	99 83       	std	Y+1, r25	; 0x01
	usart1_tx_buff[2] = 0x02;
    14a8:	92 e0       	ldi	r25, 0x02	; 2
    14aa:	9a 83       	std	Y+2, r25	; 0x02
	usart1_tx_buff[3] = 0x01;
    14ac:	91 e0       	ldi	r25, 0x01	; 1
    14ae:	9b 83       	std	Y+3, r25	; 0x03
	usart1_tx_buff[4] = (addr << 4);
    14b0:	82 95       	swap	r24
    14b2:	80 7f       	andi	r24, 0xF0	; 240
    14b4:	8c 83       	std	Y+4, r24	; 0x04

	crc = crc_check(usart1_tx_buff, 7);
    14b6:	67 e0       	ldi	r22, 0x07	; 7
    14b8:	ce 01       	movw	r24, r28
    14ba:	0e 94 91 10 	call	0x2122	; 0x2122 <crc_check>

	usart1_tx_buff[5] = crc & 0x00FF;
    14be:	8d 83       	std	Y+5, r24	; 0x05
	usart1_tx_buff[6] = crc >> 8;
    14c0:	9e 83       	std	Y+6, r25	; 0x06

	usart1_send_str(usart1_tx_buff, 7);
    14c2:	67 e0       	ldi	r22, 0x07	; 7
    14c4:	ce 01       	movw	r24, r28
    14c6:	0e 94 4b 10 	call	0x2096	; 0x2096 <usart1_send_str>
}
    14ca:	df 91       	pop	r29
    14cc:	cf 91       	pop	r28
    14ce:	08 95       	ret

000014d0 <get_data_all>:

void get_data_all()
{
    14d0:	1f 93       	push	r17
    14d2:	cf 93       	push	r28
    14d4:	df 93       	push	r29
	uint8_t slave_num = 0;

	slave_num = (usart1_rx_buff[4] >> 4);
    14d6:	e7 e7       	ldi	r30, 0x77	; 119
    14d8:	f4 e0       	ldi	r31, 0x04	; 4

	output_rate[0 + ((slave_num - 1) * 4)] = usart1_rx_buff[5];
    14da:	84 81       	ldd	r24, Z+4	; 0x04
    14dc:	82 95       	swap	r24
    14de:	8f 70       	andi	r24, 0x0F	; 15
    14e0:	90 e0       	ldi	r25, 0x00	; 0
    14e2:	01 97       	sbiw	r24, 0x01	; 1
    14e4:	88 0f       	add	r24, r24
    14e6:	99 1f       	adc	r25, r25
    14e8:	88 0f       	add	r24, r24
    14ea:	99 1f       	adc	r25, r25
    14ec:	dc 01       	movw	r26, r24
    14ee:	aa 57       	subi	r26, 0x7A	; 122
    14f0:	bd 4f       	sbci	r27, 0xFD	; 253
    14f2:	25 81       	ldd	r18, Z+5	; 0x05
    14f4:	2c 93       	st	X, r18
	output_rate[1 + ((slave_num - 1) * 4)] = usart1_rx_buff[6];
    14f6:	dc 01       	movw	r26, r24
    14f8:	11 96       	adiw	r26, 0x01	; 1
    14fa:	ed 01       	movw	r28, r26
    14fc:	ca 57       	subi	r28, 0x7A	; 122
    14fe:	dd 4f       	sbci	r29, 0xFD	; 253
    1500:	26 81       	ldd	r18, Z+6	; 0x06
    1502:	28 83       	st	Y, r18
	output_rate[2 + ((slave_num - 1) * 4)] = usart1_rx_buff[7];
    1504:	bc 01       	movw	r22, r24
    1506:	6e 5f       	subi	r22, 0xFE	; 254
    1508:	7f 4f       	sbci	r23, 0xFF	; 255
    150a:	eb 01       	movw	r28, r22
    150c:	ca 57       	subi	r28, 0x7A	; 122
    150e:	dd 4f       	sbci	r29, 0xFD	; 253
    1510:	27 81       	ldd	r18, Z+7	; 0x07
    1512:	28 83       	st	Y, r18
	output_rate[3 + ((slave_num - 1) * 4)] = usart1_rx_buff[8];
    1514:	ac 01       	movw	r20, r24
    1516:	4d 5f       	subi	r20, 0xFD	; 253
    1518:	5f 4f       	sbci	r21, 0xFF	; 255
    151a:	ea 01       	movw	r28, r20
    151c:	ca 57       	subi	r28, 0x7A	; 122
    151e:	dd 4f       	sbci	r29, 0xFD	; 253
    1520:	20 85       	ldd	r18, Z+8	; 0x08
    1522:	28 83       	st	Y, r18
	sensor_sta[1 + ((slave_num - 1) * 4)] = usart1_rx_buff[10];
	sensor_sta[2 + ((slave_num - 1) * 4)] = usart1_rx_buff[11];
	sensor_sta[3 + ((slave_num - 1) * 4)] = usart1_rx_buff[12];

	run_temp[0 + ((slave_num - 1) * 4)] = usart1_rx_buff[13];
	run_temp[0 + ((slave_num - 1) * 4)] = (run_temp[0 + ((slave_num - 1) * 4)] << 8) | usart1_rx_buff[14];
    1524:	ec 01       	movw	r28, r24
    1526:	cc 0f       	add	r28, r28
    1528:	dd 1f       	adc	r29, r29
    152a:	ce 59       	subi	r28, 0x9E	; 158
    152c:	dd 4f       	sbci	r29, 0xFD	; 253
    152e:	25 85       	ldd	r18, Z+13	; 0x0d
    1530:	30 e0       	ldi	r19, 0x00	; 0
    1532:	32 2f       	mov	r19, r18
    1534:	22 27       	eor	r18, r18
    1536:	16 85       	ldd	r17, Z+14	; 0x0e
    1538:	21 2b       	or	r18, r17
    153a:	39 83       	std	Y+1, r19	; 0x01
    153c:	28 83       	st	Y, r18
	run_temp[1 + ((slave_num - 1) * 4)] = usart1_rx_buff[15];
	run_temp[1 + ((slave_num - 1) * 4)] = (run_temp[1 + ((slave_num - 1) * 4)] << 8) | usart1_rx_buff[16];
    153e:	ed 01       	movw	r28, r26
    1540:	cc 0f       	add	r28, r28
    1542:	dd 1f       	adc	r29, r29
    1544:	ce 59       	subi	r28, 0x9E	; 158
    1546:	dd 4f       	sbci	r29, 0xFD	; 253
    1548:	27 85       	ldd	r18, Z+15	; 0x0f
    154a:	30 e0       	ldi	r19, 0x00	; 0
    154c:	32 2f       	mov	r19, r18
    154e:	22 27       	eor	r18, r18
    1550:	10 89       	ldd	r17, Z+16	; 0x10
    1552:	21 2b       	or	r18, r17
    1554:	39 83       	std	Y+1, r19	; 0x01
    1556:	28 83       	st	Y, r18
	run_temp[2 + ((slave_num - 1) * 4)] = usart1_rx_buff[17];
	run_temp[2 + ((slave_num - 1) * 4)] = (run_temp[2 + ((slave_num - 1) * 4)] << 8) | usart1_rx_buff[18];
    1558:	eb 01       	movw	r28, r22
    155a:	cc 0f       	add	r28, r28
    155c:	dd 1f       	adc	r29, r29
    155e:	ce 59       	subi	r28, 0x9E	; 158
    1560:	dd 4f       	sbci	r29, 0xFD	; 253
    1562:	21 89       	ldd	r18, Z+17	; 0x11
    1564:	30 e0       	ldi	r19, 0x00	; 0
    1566:	32 2f       	mov	r19, r18
    1568:	22 27       	eor	r18, r18
    156a:	12 89       	ldd	r17, Z+18	; 0x12
    156c:	21 2b       	or	r18, r17
    156e:	39 83       	std	Y+1, r19	; 0x01
    1570:	28 83       	st	Y, r18
	run_temp[3 + ((slave_num - 1) * 4)] = usart1_rx_buff[19];
	run_temp[3 + ((slave_num - 1) * 4)] = (run_temp[3 + ((slave_num - 1) * 4)] << 8) | usart1_rx_buff[20];
    1572:	ea 01       	movw	r28, r20
    1574:	cc 0f       	add	r28, r28
    1576:	dd 1f       	adc	r29, r29
    1578:	ce 59       	subi	r28, 0x9E	; 158
    157a:	dd 4f       	sbci	r29, 0xFD	; 253
    157c:	23 89       	ldd	r18, Z+19	; 0x13
    157e:	30 e0       	ldi	r19, 0x00	; 0
    1580:	32 2f       	mov	r19, r18
    1582:	22 27       	eor	r18, r18
    1584:	14 89       	ldd	r17, Z+20	; 0x14
    1586:	21 2b       	or	r18, r17
    1588:	39 83       	std	Y+1, r19	; 0x01
    158a:	28 83       	st	Y, r18

	sensor_sta[0 + ((slave_num - 1) * 4)] = usart1_rx_buff[21];
    158c:	ec 01       	movw	r28, r24
    158e:	c6 58       	subi	r28, 0x86	; 134
    1590:	dd 4f       	sbci	r29, 0xFD	; 253
    1592:	25 89       	ldd	r18, Z+21	; 0x15
    1594:	28 83       	st	Y, r18
	sensor_sta[1 + ((slave_num - 1) * 4)] = usart1_rx_buff[22];
    1596:	a6 58       	subi	r26, 0x86	; 134
    1598:	bd 4f       	sbci	r27, 0xFD	; 253
    159a:	86 89       	ldd	r24, Z+22	; 0x16
    159c:	8c 93       	st	X, r24
	sensor_sta[2 + ((slave_num - 1) * 4)] = usart1_rx_buff[23];
    159e:	db 01       	movw	r26, r22
    15a0:	a6 58       	subi	r26, 0x86	; 134
    15a2:	bd 4f       	sbci	r27, 0xFD	; 253
    15a4:	87 89       	ldd	r24, Z+23	; 0x17
    15a6:	8c 93       	st	X, r24
	sensor_sta[3 + ((slave_num - 1) * 4)] = usart1_rx_buff[24];
    15a8:	da 01       	movw	r26, r20
    15aa:	a6 58       	subi	r26, 0x86	; 134
    15ac:	bd 4f       	sbci	r27, 0xFD	; 253
    15ae:	80 8d       	ldd	r24, Z+24	; 0x18
    15b0:	8c 93       	st	X, r24
	
	update_main_page();
    15b2:	0e 94 f7 05 	call	0xbee	; 0xbee <update_main_page>
}
    15b6:	df 91       	pop	r29
    15b8:	cf 91       	pop	r28
    15ba:	1f 91       	pop	r17
    15bc:	08 95       	ret

000015be <clear_alarm_msg>:

void clear_alarm_msg(uint8_t msg_num)
{
    15be:	cf 93       	push	r28
    15c0:	df 93       	push	r29
	uint8_t i = 0;
	uint16_t crc = 0;

	usart0_tx_buff[0] = 0xA5;
    15c2:	e2 e4       	ldi	r30, 0x42	; 66
    15c4:	f5 e0       	ldi	r31, 0x05	; 5
    15c6:	95 ea       	ldi	r25, 0xA5	; 165
    15c8:	90 83       	st	Z, r25
	usart0_tx_buff[1] = 0x5A;
    15ca:	9a e5       	ldi	r25, 0x5A	; 90
    15cc:	91 83       	std	Z+1, r25	; 0x01
	usart0_tx_buff[2] = 0x13;
    15ce:	93 e1       	ldi	r25, 0x13	; 19
    15d0:	92 83       	std	Z+2, r25	; 0x02
	usart0_tx_buff[3] = 0x82;
    15d2:	92 e8       	ldi	r25, 0x82	; 130
    15d4:	93 83       	std	Z+3, r25	; 0x03
	usart0_tx_buff[4] = (ALAEM_MSG1_ADDR + (msg_num * 16)) >> 8;
    15d6:	c8 2f       	mov	r28, r24
    15d8:	d0 e0       	ldi	r29, 0x00	; 0
    15da:	ce 01       	movw	r24, r28
    15dc:	8b 96       	adiw	r24, 0x2b	; 43
    15de:	9c 01       	movw	r18, r24
    15e0:	22 95       	swap	r18
    15e2:	32 95       	swap	r19
    15e4:	30 7f       	andi	r19, 0xF0	; 240
    15e6:	32 27       	eor	r19, r18
    15e8:	20 7f       	andi	r18, 0xF0	; 240
    15ea:	32 27       	eor	r19, r18
    15ec:	34 83       	std	Z+4, r19	; 0x04
	usart0_tx_buff[5] = (ALAEM_MSG1_ADDR + (msg_num * 16)) & 0x00FF;
    15ee:	82 95       	swap	r24
    15f0:	80 7f       	andi	r24, 0xF0	; 240
    15f2:	85 83       	std	Z+5, r24	; 0x05
    15f4:	e8 e4       	ldi	r30, 0x48	; 72
    15f6:	f5 e0       	ldi	r31, 0x05	; 5
    15f8:	28 e5       	ldi	r18, 0x58	; 88
    15fa:	35 e0       	ldi	r19, 0x05	; 5

	for (i = 0; i < 16; i++)
	{
		usart0_tx_buff[i + 6] = 0x00;
    15fc:	11 92       	st	Z+, r1
	usart0_tx_buff[2] = 0x13;
	usart0_tx_buff[3] = 0x82;
	usart0_tx_buff[4] = (ALAEM_MSG1_ADDR + (msg_num * 16)) >> 8;
	usart0_tx_buff[5] = (ALAEM_MSG1_ADDR + (msg_num * 16)) & 0x00FF;

	for (i = 0; i < 16; i++)
    15fe:	e2 17       	cp	r30, r18
    1600:	f3 07       	cpc	r31, r19
    1602:	e1 f7       	brne	.-8      	; 0x15fc <clear_alarm_msg+0x3e>
	{
		usart0_tx_buff[i + 6] = 0x00;
	}

	crc = crc_check(usart0_tx_buff, 24);
    1604:	68 e1       	ldi	r22, 0x18	; 24
    1606:	82 e4       	ldi	r24, 0x42	; 66
    1608:	95 e0       	ldi	r25, 0x05	; 5
    160a:	0e 94 91 10 	call	0x2122	; 0x2122 <crc_check>

	usart0_tx_buff[22] = crc & 0x00FF;
    160e:	e2 e4       	ldi	r30, 0x42	; 66
    1610:	f5 e0       	ldi	r31, 0x05	; 5
    1612:	86 8b       	std	Z+22, r24	; 0x16
	usart0_tx_buff[23] = crc >> 8;
    1614:	97 8b       	std	Z+23, r25	; 0x17

	usart0_send_str(usart0_tx_buff, 24);
    1616:	68 e1       	ldi	r22, 0x18	; 24
    1618:	cf 01       	movw	r24, r30
    161a:	0e 94 2a 10 	call	0x2054	; 0x2054 <usart0_send_str>

	send_variables(ALARM_DEVICE_NUM1_ADDR + (msg_num * 2), 0x0000);
    161e:	ce 01       	movw	r24, r28
    1620:	cc 96       	adiw	r24, 0x3c	; 60
    1622:	60 e0       	ldi	r22, 0x00	; 0
    1624:	70 e0       	ldi	r23, 0x00	; 0
    1626:	88 0f       	add	r24, r24
    1628:	99 1f       	adc	r25, r25
    162a:	0e 94 b4 03 	call	0x768	; 0x768 <send_variables>
}
    162e:	df 91       	pop	r29
    1630:	cf 91       	pop	r28
    1632:	08 95       	ret

00001634 <update_alarm_page>:
	send_variables(MODULE_STATUS_ADDR, module_status[slave_num - 1]);
	PORTA |= (1 << (7 - slave_num));
}

void update_alarm_page(uint8_t page_num)
{
    1634:	cf 92       	push	r12
    1636:	df 92       	push	r13
    1638:	ef 92       	push	r14
    163a:	ff 92       	push	r15
    163c:	0f 93       	push	r16
    163e:	1f 93       	push	r17
    1640:	cf 93       	push	r28
    1642:	df 93       	push	r29
    1644:	90 e0       	ldi	r25, 0x00	; 0
    1646:	01 97       	sbiw	r24, 0x01	; 1
    1648:	ec 01       	movw	r28, r24
    164a:	cc 0f       	add	r28, r28
    164c:	dd 1f       	adc	r29, r29
    164e:	cc 0f       	add	r28, r28
    1650:	dd 1f       	adc	r29, r29
    1652:	cc 0f       	add	r28, r28
    1654:	dd 1f       	adc	r29, r29
    1656:	c8 1b       	sub	r28, r24
    1658:	d9 0b       	sbc	r29, r25
    165a:	21 96       	adiw	r28, 0x01	; 1
	uint8_t alarm_msg_num = 0;
	uint16_t sensor_num = 0;

	for (i = 0; i < 7; i++)
	{
		send_variables(ALARM_PAGE_NUM1_ADDR + (i * 2), i + ((page_num - 1) * 7) + 1);
    165c:	04 e4       	ldi	r16, 0x44	; 68
    165e:	10 e0       	ldi	r17, 0x00	; 0
    1660:	be 01       	movw	r22, r28
    1662:	c8 01       	movw	r24, r16
    1664:	0e 94 b4 03 	call	0x768	; 0x768 <send_variables>
    1668:	0e 5f       	subi	r16, 0xFE	; 254
    166a:	1f 4f       	sbci	r17, 0xFF	; 255
    166c:	21 96       	adiw	r28, 0x01	; 1
{
	uint8_t i = 0;
	uint8_t alarm_msg_num = 0;
	uint16_t sensor_num = 0;

	for (i = 0; i < 7; i++)
    166e:	02 35       	cpi	r16, 0x52	; 82
    1670:	11 05       	cpc	r17, r1
    1672:	b1 f7       	brne	.-20     	; 0x1660 <update_alarm_page+0x2c>
    1674:	0f 2e       	mov	r0, r31
    1676:	f6 e8       	ldi	r31, 0x86	; 134
    1678:	ef 2e       	mov	r14, r31
    167a:	f2 e0       	ldi	r31, 0x02	; 2
    167c:	ff 2e       	mov	r15, r31
    167e:	f0 2d       	mov	r31, r0
    1680:	0a e7       	ldi	r16, 0x7A	; 122
    1682:	12 e0       	ldi	r17, 0x02	; 2
    1684:	c0 e0       	ldi	r28, 0x00	; 0
	for (i = 0; i < 12; i++)
	{
		if (sensor_sta[i] >= 3)
		{
			sensor_num = i;
			send_alarm_msg(sensor_sta[i], alarm_msg_num, sensor_num);
    1686:	68 01       	movw	r12, r16
    1688:	c0 94       	com	r12
    168a:	d0 94       	com	r13
		send_variables(ALARM_PAGE_NUM1_ADDR + (i * 2), i + ((page_num - 1) * 7) + 1);
	}

	for (i = 0; i < 12; i++)
	{
		if (sensor_sta[i] >= 3)
    168c:	f8 01       	movw	r30, r16
    168e:	81 91       	ld	r24, Z+
    1690:	8f 01       	movw	r16, r30
    1692:	83 30       	cpi	r24, 0x03	; 3
    1694:	38 f0       	brcs	.+14     	; 0x16a4 <update_alarm_page+0x70>
		{
			sensor_num = i;
			send_alarm_msg(sensor_sta[i], alarm_msg_num, sensor_num);
    1696:	a6 01       	movw	r20, r12
    1698:	4e 0f       	add	r20, r30
    169a:	5f 1f       	adc	r21, r31
    169c:	6c 2f       	mov	r22, r28
    169e:	0e 94 9a 08 	call	0x1134	; 0x1134 <send_alarm_msg>
			alarm_msg_num++;
    16a2:	cf 5f       	subi	r28, 0xFF	; 255
	for (i = 0; i < 7; i++)
	{
		send_variables(ALARM_PAGE_NUM1_ADDR + (i * 2), i + ((page_num - 1) * 7) + 1);
	}

	for (i = 0; i < 12; i++)
    16a4:	e0 16       	cp	r14, r16
    16a6:	f1 06       	cpc	r15, r17
    16a8:	89 f7       	brne	.-30     	; 0x168c <update_alarm_page+0x58>
			send_alarm_msg(sensor_sta[i], alarm_msg_num, sensor_num);
			alarm_msg_num++;
		}
	}

	for (; alarm_msg_num < 7; alarm_msg_num++)
    16aa:	c7 30       	cpi	r28, 0x07	; 7
    16ac:	30 f4       	brcc	.+12     	; 0x16ba <update_alarm_page+0x86>
	{
		clear_alarm_msg(alarm_msg_num);
    16ae:	8c 2f       	mov	r24, r28
    16b0:	0e 94 df 0a 	call	0x15be	; 0x15be <clear_alarm_msg>
			send_alarm_msg(sensor_sta[i], alarm_msg_num, sensor_num);
			alarm_msg_num++;
		}
	}

	for (; alarm_msg_num < 7; alarm_msg_num++)
    16b4:	cf 5f       	subi	r28, 0xFF	; 255
    16b6:	c7 30       	cpi	r28, 0x07	; 7
    16b8:	d1 f7       	brne	.-12     	; 0x16ae <update_alarm_page+0x7a>
	{
		clear_alarm_msg(alarm_msg_num);
	}
}
    16ba:	df 91       	pop	r29
    16bc:	cf 91       	pop	r28
    16be:	1f 91       	pop	r17
    16c0:	0f 91       	pop	r16
    16c2:	ff 90       	pop	r15
    16c4:	ef 90       	pop	r14
    16c6:	df 90       	pop	r13
    16c8:	cf 90       	pop	r12
    16ca:	08 95       	ret

000016cc <clear_curve_buff>:

	send_variables(ALARM_DEVICE_NUM1_ADDR + (msg_num * 2), 0x0000);
}

void clear_curve_buff(uint8_t channel)
{
    16cc:	cf 93       	push	r28
    16ce:	df 93       	push	r29
	uint16_t crc = 0;

	usart0_tx_buff[0] = 0xA5;
    16d0:	c2 e4       	ldi	r28, 0x42	; 66
    16d2:	d5 e0       	ldi	r29, 0x05	; 5
    16d4:	95 ea       	ldi	r25, 0xA5	; 165
    16d6:	98 83       	st	Y, r25
	usart0_tx_buff[1] = 0x5A;
    16d8:	9a e5       	ldi	r25, 0x5A	; 90
    16da:	99 83       	std	Y+1, r25	; 0x01
	usart0_tx_buff[2] = 0x03;
    16dc:	93 e0       	ldi	r25, 0x03	; 3
    16de:	9a 83       	std	Y+2, r25	; 0x02
	usart0_tx_buff[3] = 0x80;
    16e0:	90 e8       	ldi	r25, 0x80	; 128
    16e2:	9b 83       	std	Y+3, r25	; 0x03
	usart0_tx_buff[4] = 0xEB;
    16e4:	9b ee       	ldi	r25, 0xEB	; 235
    16e6:	9c 83       	std	Y+4, r25	; 0x04
	usart0_tx_buff[5] = channel;
    16e8:	8d 83       	std	Y+5, r24	; 0x05

	crc = crc_check(usart0_tx_buff, 8);
    16ea:	68 e0       	ldi	r22, 0x08	; 8
    16ec:	ce 01       	movw	r24, r28
    16ee:	0e 94 91 10 	call	0x2122	; 0x2122 <crc_check>

	usart0_tx_buff[6] = crc & 0x00FF;
    16f2:	8e 83       	std	Y+6, r24	; 0x06
	usart0_tx_buff[7] = crc >> 8;
    16f4:	9f 83       	std	Y+7, r25	; 0x07

	usart0_send_str(usart0_tx_buff, 8);
    16f6:	68 e0       	ldi	r22, 0x08	; 8
    16f8:	ce 01       	movw	r24, r28
    16fa:	0e 94 2a 10 	call	0x2054	; 0x2054 <usart0_send_str>
}
    16fe:	df 91       	pop	r29
    1700:	cf 91       	pop	r28
    1702:	08 95       	ret

00001704 <update_curve_page>:
	i_value_buff = i_value[channel - 1];
	d_value_buff = d_value[channel - 1];
}

void update_curve_page(void)
{
    1704:	bf 92       	push	r11
    1706:	cf 92       	push	r12
    1708:	df 92       	push	r13
    170a:	ef 92       	push	r14
    170c:	ff 92       	push	r15
    170e:	0f 93       	push	r16
    1710:	1f 93       	push	r17
    1712:	cf 93       	push	r28
    1714:	df 93       	push	r29
    1716:	cd b7       	in	r28, 0x3d	; 61
    1718:	de b7       	in	r29, 0x3e	; 62
    171a:	64 97       	sbiw	r28, 0x14	; 20
    171c:	0f b6       	in	r0, 0x3f	; 63
    171e:	f8 94       	cli
    1720:	de bf       	out	0x3e, r29	; 62
    1722:	0f be       	out	0x3f, r0	; 63
    1724:	cd bf       	out	0x3d, r28	; 61
	uint8_t i = 0;
	uint8_t count = 0;
	uint16_t time_line[10] = {2, 4, 6, 8, 10, 12, 14, 16, 18, 20};
    1726:	84 e1       	ldi	r24, 0x14	; 20
    1728:	e9 ef       	ldi	r30, 0xF9	; 249
    172a:	f1 e0       	ldi	r31, 0x01	; 1
    172c:	de 01       	movw	r26, r28
    172e:	11 96       	adiw	r26, 0x01	; 1
    1730:	01 90       	ld	r0, Z+
    1732:	0d 92       	st	X+, r0
    1734:	8a 95       	dec	r24
    1736:	e1 f7       	brne	.-8      	; 0x1730 <update_curve_page+0x2c>

	update_run_temp_flag = 1;
    1738:	81 e0       	ldi	r24, 0x01	; 1
    173a:	80 93 9e 02 	sts	0x029E, r24	; 0x80029e <update_run_temp_flag>
	run_temp_page = 0;
    173e:	10 92 9f 02 	sts	0x029F, r1	; 0x80029f <run_temp_page>

	if (curve_time_level >= 4)
    1742:	80 91 96 02 	lds	r24, 0x0296	; 0x800296 <curve_time_level>
    1746:	84 30       	cpi	r24, 0x04	; 4
    1748:	24 f0       	brlt	.+8      	; 0x1752 <update_curve_page+0x4e>
	{
		curve_time_level = 3;
    174a:	83 e0       	ldi	r24, 0x03	; 3
    174c:	80 93 96 02 	sts	0x0296, r24	; 0x800296 <curve_time_level>
    1750:	04 c0       	rjmp	.+8      	; 0x175a <update_curve_page+0x56>
	}
	else if (curve_time_level < 0)
    1752:	88 23       	and	r24, r24
    1754:	14 f4       	brge	.+4      	; 0x175a <update_curve_page+0x56>
	{
		curve_time_level = 0;
    1756:	10 92 96 02 	sts	0x0296, r1	; 0x800296 <curve_time_level>
	}

	if (curve_page_num >= 12)
    175a:	80 91 97 02 	lds	r24, 0x0297	; 0x800297 <curve_page_num>
    175e:	8c 30       	cpi	r24, 0x0C	; 12
    1760:	1c f0       	brlt	.+6      	; 0x1768 <update_curve_page+0x64>
	{
		curve_page_num = 0;
    1762:	10 92 97 02 	sts	0x0297, r1	; 0x800297 <curve_page_num>
    1766:	05 c0       	rjmp	.+10     	; 0x1772 <update_curve_page+0x6e>
	}
	else if (curve_page_num < 0)
    1768:	88 23       	and	r24, r24
    176a:	1c f4       	brge	.+6      	; 0x1772 <update_curve_page+0x6e>
	{
		curve_page_num = 11;
    176c:	8b e0       	ldi	r24, 0x0B	; 11
    176e:	80 93 97 02 	sts	0x0297, r24	; 0x800297 <curve_page_num>
	}

	count = 10 * (curve_time_level + 1);
    1772:	80 91 96 02 	lds	r24, 0x0296	; 0x800296 <curve_time_level>
    1776:	88 0f       	add	r24, r24
    1778:	8e 5f       	subi	r24, 0xFE	; 254
    177a:	b8 2e       	mov	r11, r24
    177c:	bb 0c       	add	r11, r11
    177e:	bb 0c       	add	r11, r11
    1780:	b8 0e       	add	r11, r24

	CLOSE_CURVE;
    1782:	85 b5       	in	r24, 0x25	; 37
    1784:	88 7f       	andi	r24, 0xF8	; 248
    1786:	85 bd       	out	0x25, r24	; 37
	clear_curve_buff(CHANNEL0_BUFF);
    1788:	8a e5       	ldi	r24, 0x5A	; 90
    178a:	0e 94 66 0b 	call	0x16cc	; 0x16cc <clear_curve_buff>
    178e:	ce 01       	movw	r24, r28
    1790:	01 96       	adiw	r24, 0x01	; 1
    1792:	7e 01       	movw	r14, r28
    1794:	25 e1       	ldi	r18, 0x15	; 21
    1796:	e2 0e       	add	r14, r18
    1798:	f1 1c       	adc	r15, r1
    179a:	6c 01       	movw	r12, r24

	for (i = 0; i < 10; i++)
	{
		time_line[i] *= (curve_time_level + 1);
		send_variables(CURVE_TIMELINE_ADDR + (i * 2), time_line[i]);
    179c:	00 e5       	ldi	r16, 0x50	; 80
    179e:	10 e0       	ldi	r17, 0x00	; 0
    17a0:	08 1b       	sub	r16, r24
    17a2:	19 0b       	sbc	r17, r25
	CLOSE_CURVE;
	clear_curve_buff(CHANNEL0_BUFF);

	for (i = 0; i < 10; i++)
	{
		time_line[i] *= (curve_time_level + 1);
    17a4:	80 91 96 02 	lds	r24, 0x0296	; 0x800296 <curve_time_level>
    17a8:	08 2e       	mov	r0, r24
    17aa:	00 0c       	add	r0, r0
    17ac:	99 0b       	sbc	r25, r25
    17ae:	01 96       	adiw	r24, 0x01	; 1
    17b0:	f6 01       	movw	r30, r12
    17b2:	20 81       	ld	r18, Z
    17b4:	31 81       	ldd	r19, Z+1	; 0x01
    17b6:	82 9f       	mul	r24, r18
    17b8:	b0 01       	movw	r22, r0
    17ba:	83 9f       	mul	r24, r19
    17bc:	70 0d       	add	r23, r0
    17be:	92 9f       	mul	r25, r18
    17c0:	70 0d       	add	r23, r0
    17c2:	11 24       	eor	r1, r1
    17c4:	61 93       	st	Z+, r22
    17c6:	71 93       	st	Z+, r23
    17c8:	6f 01       	movw	r12, r30
		send_variables(CURVE_TIMELINE_ADDR + (i * 2), time_line[i]);
    17ca:	c8 01       	movw	r24, r16
    17cc:	8e 0f       	add	r24, r30
    17ce:	9f 1f       	adc	r25, r31
    17d0:	0e 94 b4 03 	call	0x768	; 0x768 <send_variables>
	count = 10 * (curve_time_level + 1);

	CLOSE_CURVE;
	clear_curve_buff(CHANNEL0_BUFF);

	for (i = 0; i < 10; i++)
    17d4:	ce 14       	cp	r12, r14
    17d6:	df 04       	cpc	r13, r15
    17d8:	29 f7       	brne	.-54     	; 0x17a4 <update_curve_page+0xa0>
	{
		time_line[i] *= (curve_time_level + 1);
		send_variables(CURVE_TIMELINE_ADDR + (i * 2), time_line[i]);
	}

	send_variables(CURVE_PAGE_NUM_ADDR, curve_page_num + 1);
    17da:	60 91 97 02 	lds	r22, 0x0297	; 0x800297 <curve_page_num>
    17de:	06 2e       	mov	r0, r22
    17e0:	00 0c       	add	r0, r0
    17e2:	77 0b       	sbc	r23, r23
    17e4:	6f 5f       	subi	r22, 0xFF	; 255
    17e6:	7f 4f       	sbci	r23, 0xFF	; 255
    17e8:	8c e3       	ldi	r24, 0x3C	; 60
    17ea:	90 e0       	ldi	r25, 0x00	; 0
    17ec:	0e 94 b4 03 	call	0x768	; 0x768 <send_variables>
	send_variables(CURVE_PAGE_RUNTEMP_ADDR, run_temp[curve_page_num] +
    17f0:	e0 91 97 02 	lds	r30, 0x0297	; 0x800297 <curve_page_num>
    17f4:	ee 0f       	add	r30, r30
    17f6:	ff 0b       	sbc	r31, r31
    17f8:	ee 59       	subi	r30, 0x9E	; 158
    17fa:	fd 4f       	sbci	r31, 0xFD	; 253
    17fc:	20 81       	ld	r18, Z
    17fe:	31 81       	ldd	r19, Z+1	; 0x01
    1800:	c9 01       	movw	r24, r18
    1802:	88 0f       	add	r24, r24
    1804:	99 1f       	adc	r25, r25
    1806:	88 0f       	add	r24, r24
    1808:	99 1f       	adc	r25, r25
    180a:	88 0f       	add	r24, r24
    180c:	99 1f       	adc	r25, r25
    180e:	6a e0       	ldi	r22, 0x0A	; 10
    1810:	70 e0       	ldi	r23, 0x00	; 0
    1812:	0e 94 1f 13 	call	0x263e	; 0x263e <__divmodhi4>
    1816:	cb 01       	movw	r24, r22
    1818:	80 96       	adiw	r24, 0x20	; 32
    181a:	40 91 12 02 	lds	r20, 0x0212	; 0x800212 <temp_unit>
    181e:	50 91 13 02 	lds	r21, 0x0213	; 0x800213 <temp_unit+0x1>
    1822:	84 9f       	mul	r24, r20
    1824:	b0 01       	movw	r22, r0
    1826:	85 9f       	mul	r24, r21
    1828:	70 0d       	add	r23, r0
    182a:	94 9f       	mul	r25, r20
    182c:	70 0d       	add	r23, r0
    182e:	11 24       	eor	r1, r1
    1830:	62 0f       	add	r22, r18
    1832:	73 1f       	adc	r23, r19
    1834:	8e e3       	ldi	r24, 0x3E	; 62
    1836:	90 e0       	ldi	r25, 0x00	; 0
    1838:	0e 94 b4 03 	call	0x768	; 0x768 <send_variables>
	temp_unit * (run_temp[curve_page_num] * 8 / 10 + 32)); //运行温度
	send_variables(CURVE_PAGE_SETTEMP_ADDR, set_temp[curve_page_num]);								   //设定温度
    183c:	e0 91 97 02 	lds	r30, 0x0297	; 0x800297 <curve_page_num>
    1840:	ee 0f       	add	r30, r30
    1842:	ff 0b       	sbc	r31, r31
    1844:	e3 54       	subi	r30, 0x43	; 67
    1846:	fe 4f       	sbci	r31, 0xFE	; 254
    1848:	60 81       	ld	r22, Z
    184a:	71 81       	ldd	r23, Z+1	; 0x01
    184c:	80 e4       	ldi	r24, 0x40	; 64
    184e:	90 e0       	ldi	r25, 0x00	; 0
    1850:	0e 94 b4 03 	call	0x768	; 0x768 <send_variables>
	send_variables(CURVE_PAGE_OUTRATE_ADDR, output_rate[curve_page_num]);
    1854:	e0 91 97 02 	lds	r30, 0x0297	; 0x800297 <curve_page_num>
    1858:	0e 2e       	mov	r0, r30
    185a:	00 0c       	add	r0, r0
    185c:	ff 0b       	sbc	r31, r31
    185e:	ea 57       	subi	r30, 0x7A	; 122
    1860:	fd 4f       	sbci	r31, 0xFD	; 253
    1862:	60 81       	ld	r22, Z
    1864:	70 e0       	ldi	r23, 0x00	; 0
    1866:	82 e4       	ldi	r24, 0x42	; 66
    1868:	90 e0       	ldi	r25, 0x00	; 0
    186a:	0e 94 b4 03 	call	0x768	; 0x768 <send_variables>
	send_variables(CURVE_PAGE_SENSORTYPE_ADDR, TYPE_J + (sensor_type[curve_page_num] * TYPE_K));
    186e:	e0 91 97 02 	lds	r30, 0x0297	; 0x800297 <curve_page_num>
    1872:	ee 0f       	add	r30, r30
    1874:	ff 0b       	sbc	r31, r31
    1876:	ee 5c       	subi	r30, 0xCE	; 206
    1878:	fd 4f       	sbci	r31, 0xFD	; 253
    187a:	80 81       	ld	r24, Z
    187c:	91 81       	ldd	r25, Z+1	; 0x01
    187e:	86 5b       	subi	r24, 0xB6	; 182
    1880:	9f 4f       	sbci	r25, 0xFF	; 255
    1882:	60 e0       	ldi	r22, 0x00	; 0
    1884:	78 2f       	mov	r23, r24
    1886:	80 ea       	ldi	r24, 0xA0	; 160
    1888:	92 e0       	ldi	r25, 0x02	; 2
    188a:	0e 94 b4 03 	call	0x768	; 0x768 <send_variables>
	send_name(CURVE_PAGE_NAME_ADDR, set_name[curve_page_num]);
    188e:	e0 91 97 02 	lds	r30, 0x0297	; 0x800297 <curve_page_num>
    1892:	24 e0       	ldi	r18, 0x04	; 4
    1894:	e2 02       	muls	r30, r18
    1896:	f0 01       	movw	r30, r0
    1898:	11 24       	eor	r1, r1
    189a:	e3 57       	subi	r30, 0x73	; 115
    189c:	fe 4f       	sbci	r31, 0xFE	; 254
    189e:	40 81       	ld	r20, Z
    18a0:	51 81       	ldd	r21, Z+1	; 0x01
    18a2:	62 81       	ldd	r22, Z+2	; 0x02
    18a4:	73 81       	ldd	r23, Z+3	; 0x03
    18a6:	88 e9       	ldi	r24, 0x98	; 152
    18a8:	92 e0       	ldi	r25, 0x02	; 2
    18aa:	0e 94 d8 05 	call	0xbb0	; 0xbb0 <send_name>

	OPEN_CURVE(count);
    18ae:	b0 92 ae 02 	sts	0x02AE, r11	; 0x8002ae <timer2_ovf>
    18b2:	82 eb       	ldi	r24, 0xB2	; 178
    18b4:	84 bd       	out	0x24, r24	; 36
    18b6:	85 b5       	in	r24, 0x25	; 37
    18b8:	85 60       	ori	r24, 0x05	; 5
    18ba:	85 bd       	out	0x25, r24	; 37
}
    18bc:	64 96       	adiw	r28, 0x14	; 20
    18be:	0f b6       	in	r0, 0x3f	; 63
    18c0:	f8 94       	cli
    18c2:	de bf       	out	0x3e, r29	; 62
    18c4:	0f be       	out	0x3f, r0	; 63
    18c6:	cd bf       	out	0x3d, r28	; 61
    18c8:	df 91       	pop	r29
    18ca:	cf 91       	pop	r28
    18cc:	1f 91       	pop	r17
    18ce:	0f 91       	pop	r16
    18d0:	ff 90       	pop	r15
    18d2:	ef 90       	pop	r14
    18d4:	df 90       	pop	r13
    18d6:	cf 90       	pop	r12
    18d8:	bf 90       	pop	r11
    18da:	08 95       	ret

000018dc <key_action>:
	}
}

void key_action(uint16_t key_code)
{
	switch (key_code)
    18dc:	81 32       	cpi	r24, 0x21	; 33
    18de:	91 05       	cpc	r25, r1
    18e0:	08 f0       	brcs	.+2      	; 0x18e4 <key_action+0x8>
    18e2:	d3 c0       	rjmp	.+422    	; 0x1a8a <key_action+0x1ae>
    18e4:	fc 01       	movw	r30, r24
    18e6:	ea 5b       	subi	r30, 0xBA	; 186
    18e8:	ff 4f       	sbci	r31, 0xFF	; 255
    18ea:	0c 94 55 13 	jmp	0x26aa	; 0x26aa <__tablejump2__>
	{
		case SWITCH_LANGUAGE:
		pre_language ^= 0x01;
    18ee:	90 91 9d 02 	lds	r25, 0x029D	; 0x80029d <pre_language>
    18f2:	81 e0       	ldi	r24, 0x01	; 1
    18f4:	89 27       	eor	r24, r25
    18f6:	80 93 9d 02 	sts	0x029D, r24	; 0x80029d <pre_language>
		switch_language();
    18fa:	0e 94 a2 03 	call	0x744	; 0x744 <switch_language>
		break;
    18fe:	08 95       	ret
		case CLEAR_ALARM_SOUND:
		ALARM_OFF;
    1900:	94 98       	cbi	0x12, 4	; 18
		break;
    1902:	08 95       	ret
		case MAIN_PAGE_UP:
		pre_main_page = 0;
    1904:	10 92 9c 02 	sts	0x029C, r1	; 0x80029c <pre_main_page>
		update_main_page();
    1908:	0e 94 f7 05 	call	0xbee	; 0xbee <update_main_page>
		break;
    190c:	08 95       	ret
		case MAIN_PAGE_DOWN:
		pre_main_page = 1;
    190e:	81 e0       	ldi	r24, 0x01	; 1
    1910:	80 93 9c 02 	sts	0x029C, r24	; 0x80029c <pre_main_page>
		update_main_page();
    1914:	0e 94 f7 05 	call	0xbee	; 0xbee <update_main_page>
		break;
    1918:	08 95       	ret
		case MAIN_SENSOR1_SET:
		set_num = 0 + (pre_main_page * 6);
    191a:	80 91 9c 02 	lds	r24, 0x029C	; 0x80029c <pre_main_page>
    191e:	98 2f       	mov	r25, r24
    1920:	99 0f       	add	r25, r25
    1922:	89 0f       	add	r24, r25
    1924:	88 0f       	add	r24, r24
    1926:	80 93 99 02 	sts	0x0299, r24	; 0x800299 <set_num>
		update_single_set_page();
    192a:	0e 94 d7 07 	call	0xfae	; 0xfae <update_single_set_page>
		break;
    192e:	08 95       	ret
		case MAIN_SENSOR2_SET:
		set_num = 1 + (pre_main_page * 6);
    1930:	80 91 9c 02 	lds	r24, 0x029C	; 0x80029c <pre_main_page>
    1934:	98 2f       	mov	r25, r24
    1936:	99 0f       	add	r25, r25
    1938:	89 0f       	add	r24, r25
    193a:	88 0f       	add	r24, r24
    193c:	8f 5f       	subi	r24, 0xFF	; 255
    193e:	80 93 99 02 	sts	0x0299, r24	; 0x800299 <set_num>
		update_single_set_page();
    1942:	0e 94 d7 07 	call	0xfae	; 0xfae <update_single_set_page>
		break;
    1946:	08 95       	ret
		case MAIN_SENSOR3_SET:
		set_num = 2 + (pre_main_page * 6);
    1948:	80 91 9c 02 	lds	r24, 0x029C	; 0x80029c <pre_main_page>
    194c:	98 2f       	mov	r25, r24
    194e:	99 0f       	add	r25, r25
    1950:	89 0f       	add	r24, r25
    1952:	88 0f       	add	r24, r24
    1954:	8e 5f       	subi	r24, 0xFE	; 254
    1956:	80 93 99 02 	sts	0x0299, r24	; 0x800299 <set_num>
		update_single_set_page();
    195a:	0e 94 d7 07 	call	0xfae	; 0xfae <update_single_set_page>
		break;
    195e:	08 95       	ret
		case MAIN_SENSOR4_SET:
		set_num = 3 + (pre_main_page * 6);
    1960:	80 91 9c 02 	lds	r24, 0x029C	; 0x80029c <pre_main_page>
    1964:	98 2f       	mov	r25, r24
    1966:	99 0f       	add	r25, r25
    1968:	89 0f       	add	r24, r25
    196a:	88 0f       	add	r24, r24
    196c:	8d 5f       	subi	r24, 0xFD	; 253
    196e:	80 93 99 02 	sts	0x0299, r24	; 0x800299 <set_num>
		update_single_set_page();
    1972:	0e 94 d7 07 	call	0xfae	; 0xfae <update_single_set_page>
		break;
    1976:	08 95       	ret
		case MAIN_SENSOR5_SET:
		set_num = 4 + (pre_main_page * 6);
    1978:	80 91 9c 02 	lds	r24, 0x029C	; 0x80029c <pre_main_page>
    197c:	98 2f       	mov	r25, r24
    197e:	99 0f       	add	r25, r25
    1980:	89 0f       	add	r24, r25
    1982:	88 0f       	add	r24, r24
    1984:	8c 5f       	subi	r24, 0xFC	; 252
    1986:	80 93 99 02 	sts	0x0299, r24	; 0x800299 <set_num>
		update_single_set_page();
    198a:	0e 94 d7 07 	call	0xfae	; 0xfae <update_single_set_page>
		break;
    198e:	08 95       	ret
		case MAIN_SENSOR6_SET:
		set_num = 5 + (pre_main_page * 6);
    1990:	80 91 9c 02 	lds	r24, 0x029C	; 0x80029c <pre_main_page>
    1994:	98 2f       	mov	r25, r24
    1996:	99 0f       	add	r25, r25
    1998:	89 0f       	add	r24, r25
    199a:	88 0f       	add	r24, r24
    199c:	8b 5f       	subi	r24, 0xFB	; 251
    199e:	80 93 99 02 	sts	0x0299, r24	; 0x800299 <set_num>
		update_single_set_page();
    19a2:	0e 94 d7 07 	call	0xfae	; 0xfae <update_single_set_page>
		break;
    19a6:	08 95       	ret
		case SINGLE_SET_OK:
		single_set_ok();
    19a8:	0e 94 01 07 	call	0xe02	; 0xe02 <single_set_ok>
		break;
    19ac:	08 95       	ret
		case ALL_SET_OK:
		all_set_ok();
    19ae:	0e 94 82 07 	call	0xf04	; 0xf04 <all_set_ok>
		break;
    19b2:	08 95       	ret
		case PID_SET_OK:
		pid_set_ok();
    19b4:	0e 94 d1 03 	call	0x7a2	; 0x7a2 <pid_set_ok>
		break;
    19b8:	08 95       	ret
		case CURVE_ZOOM_OUT:
		curve_time_level--;
    19ba:	80 91 96 02 	lds	r24, 0x0296	; 0x800296 <curve_time_level>
    19be:	81 50       	subi	r24, 0x01	; 1
    19c0:	80 93 96 02 	sts	0x0296, r24	; 0x800296 <curve_time_level>
		update_curve_page();
    19c4:	0e 94 82 0b 	call	0x1704	; 0x1704 <update_curve_page>
		break;
    19c8:	08 95       	ret
		case CURVE_ZOOM_IN:
		curve_time_level++;
    19ca:	80 91 96 02 	lds	r24, 0x0296	; 0x800296 <curve_time_level>
    19ce:	8f 5f       	subi	r24, 0xFF	; 255
    19d0:	80 93 96 02 	sts	0x0296, r24	; 0x800296 <curve_time_level>
		update_curve_page();
    19d4:	0e 94 82 0b 	call	0x1704	; 0x1704 <update_curve_page>
		break;
    19d8:	08 95       	ret
		case CURVE_PAGE_UP:
		curve_page_num--;
    19da:	80 91 97 02 	lds	r24, 0x0297	; 0x800297 <curve_page_num>
    19de:	81 50       	subi	r24, 0x01	; 1
    19e0:	80 93 97 02 	sts	0x0297, r24	; 0x800297 <curve_page_num>
		update_curve_page();
    19e4:	0e 94 82 0b 	call	0x1704	; 0x1704 <update_curve_page>
		break;
    19e8:	08 95       	ret
		case CURVE_PAGE_DOWN:
		curve_page_num++;
    19ea:	80 91 97 02 	lds	r24, 0x0297	; 0x800297 <curve_page_num>
    19ee:	8f 5f       	subi	r24, 0xFF	; 255
    19f0:	80 93 97 02 	sts	0x0297, r24	; 0x800297 <curve_page_num>
		update_curve_page();
    19f4:	0e 94 82 0b 	call	0x1704	; 0x1704 <update_curve_page>
		break;
    19f8:	08 95       	ret
		case CLEAR_ALARM_MSG:
		clear_alarm_msg(15);
    19fa:	8f e0       	ldi	r24, 0x0F	; 15
    19fc:	0e 94 df 0a 	call	0x15be	; 0x15be <clear_alarm_msg>
		break;
    1a00:	08 95       	ret
		case ALARM_PAGE_UP:
		update_alarm_page(1);
    1a02:	81 e0       	ldi	r24, 0x01	; 1
    1a04:	0e 94 1a 0b 	call	0x1634	; 0x1634 <update_alarm_page>
		break;
    1a08:	08 95       	ret
		case ALARM_PAGE_DOWN:
		update_alarm_page(2);
    1a0a:	82 e0       	ldi	r24, 0x02	; 2
    1a0c:	0e 94 1a 0b 	call	0x1634	; 0x1634 <update_alarm_page>
		break;
    1a10:	08 95       	ret
		case SINGLE_SET_BACK:
		single_set_back();
    1a12:	0e 94 f5 01 	call	0x3ea	; 0x3ea <single_set_back>
		break;
    1a16:	08 95       	ret
		case ALL_SET_BACK:
		all_set_back();
    1a18:	0e 94 13 04 	call	0x826	; 0x826 <all_set_back>
		break;
    1a1c:	08 95       	ret
		case PID_PAGE_ENTER:
		update_pid_page(1);
    1a1e:	81 e0       	ldi	r24, 0x01	; 1
    1a20:	0e 94 71 04 	call	0x8e2	; 0x8e2 <update_pid_page>
		break;
    1a24:	08 95       	ret
		case ALARM_PAGE_ENTER:
		update_alarm_page(1);
    1a26:	81 e0       	ldi	r24, 0x01	; 1
    1a28:	0e 94 1a 0b 	call	0x1634	; 0x1634 <update_alarm_page>
		break;
    1a2c:	08 95       	ret
		case CURVE_PAGE_ENTER:
		update_curve_page();
    1a2e:	0e 94 82 0b 	call	0x1704	; 0x1704 <update_curve_page>
		break;
    1a32:	08 95       	ret
		case CURVE_PAGE_BACK:
		CLOSE_CURVE;
    1a34:	85 b5       	in	r24, 0x25	; 37
    1a36:	88 7f       	andi	r24, 0xF8	; 248
    1a38:	85 bd       	out	0x25, r24	; 37
		update_run_temp_flag = 0;
    1a3a:	10 92 9e 02 	sts	0x029E, r1	; 0x80029e <update_run_temp_flag>
		break;
    1a3e:	08 95       	ret
		case MENU_PAGE_ENTER:
		in_main_page = 0;
    1a40:	10 92 d5 01 	sts	0x01D5, r1	; 0x8001d5 <in_main_page>
		break;
    1a44:	08 95       	ret
		case TIME_CTRL_ENTER:
		module_num = 1;
    1a46:	81 e0       	ldi	r24, 0x01	; 1
    1a48:	80 93 40 01 	sts	0x0140, r24	; 0x800140 <module_num>
		update_time_ctrl_page();
    1a4c:	0e 94 d2 04 	call	0x9a4	; 0x9a4 <update_time_ctrl_page>
		break;
    1a50:	08 95       	ret
		case TIME_CTRL_STOP:
		stop_time_ctrl(module_num);
    1a52:	80 91 40 01 	lds	r24, 0x0140	; 0x800140 <module_num>
    1a56:	0e 94 9f 05 	call	0xb3e	; 0xb3e <stop_time_ctrl>
		break;
    1a5a:	08 95       	ret
		case TIME_CTRL_START:
		start_time_ctrl(module_num);
    1a5c:	80 91 40 01 	lds	r24, 0x0140	; 0x800140 <module_num>
    1a60:	0e 94 30 05 	call	0xa60	; 0xa60 <start_time_ctrl>
		break;
    1a64:	08 95       	ret
		case TIME_CTRL_SAVEDAT:
		save_time_ctrl_data();
    1a66:	0e 94 55 03 	call	0x6aa	; 0x6aa <save_time_ctrl_data>
		break;
    1a6a:	08 95       	ret
		case TIME_CTRL_PAGEUP:
		module_num -= 1;
    1a6c:	80 91 40 01 	lds	r24, 0x0140	; 0x800140 <module_num>
    1a70:	81 50       	subi	r24, 0x01	; 1
    1a72:	80 93 40 01 	sts	0x0140, r24	; 0x800140 <module_num>
		update_time_ctrl_page();
    1a76:	0e 94 d2 04 	call	0x9a4	; 0x9a4 <update_time_ctrl_page>
		break;
    1a7a:	08 95       	ret
		case TIME_CTRL_PAGEDOWN:
		module_num += 1;
    1a7c:	80 91 40 01 	lds	r24, 0x0140	; 0x800140 <module_num>
    1a80:	8f 5f       	subi	r24, 0xFF	; 255
    1a82:	80 93 40 01 	sts	0x0140, r24	; 0x800140 <module_num>
		update_time_ctrl_page();
    1a86:	0e 94 d2 04 	call	0x9a4	; 0x9a4 <update_time_ctrl_page>
    1a8a:	08 95       	ret

00001a8c <eeprom_write>:
	}
}

void eeprom_write(uint16_t addr, uint8_t data)
{
	while (EECR & (1 << EEWE))
    1a8c:	e1 99       	sbic	0x1c, 1	; 28
    1a8e:	fe cf       	rjmp	.-4      	; 0x1a8c <eeprom_write>
		;
	EEAR = addr;
    1a90:	9f bb       	out	0x1f, r25	; 31
    1a92:	8e bb       	out	0x1e, r24	; 30
	EEDR = data;
    1a94:	6d bb       	out	0x1d, r22	; 29

	SREG &= 0x7F; //关中断
    1a96:	8f b7       	in	r24, 0x3f	; 63
    1a98:	8f 77       	andi	r24, 0x7F	; 127
    1a9a:	8f bf       	out	0x3f, r24	; 63
	EECR |= (1 << EEMWE);
    1a9c:	e2 9a       	sbi	0x1c, 2	; 28
	EECR |= (1 << EEWE);
    1a9e:	e1 9a       	sbi	0x1c, 1	; 28
	SREG |= 0x80; //开中断
    1aa0:	8f b7       	in	r24, 0x3f	; 63
    1aa2:	80 68       	ori	r24, 0x80	; 128
    1aa4:	8f bf       	out	0x3f, r24	; 63
    1aa6:	08 95       	ret

00001aa8 <gpio_init>:
*初始化gpio
*/
void gpio_init()
{
	/* LED相关IO口初始化 */
	LED1_PIN_OUTPUT;
    1aa8:	d6 9a       	sbi	0x1a, 6	; 26
	LED2_PIN_OUTPUT;
    1aaa:	d5 9a       	sbi	0x1a, 5	; 26
	LED3_PIN_OUTPUT;
    1aac:	d4 9a       	sbi	0x1a, 4	; 26
	LED4_PIN_OUTPUT;
    1aae:	d3 9a       	sbi	0x1a, 3	; 26
	LED5_PIN_OUTPUT;
    1ab0:	d2 9a       	sbi	0x1a, 2	; 26
	LED6_PIN_OUTPUT;
    1ab2:	d1 9a       	sbi	0x1a, 1	; 26
	LED7_PIN_OUTPUT;
    1ab4:	d0 9a       	sbi	0x1a, 0	; 26

	LED1_OFF;
    1ab6:	de 9a       	sbi	0x1b, 6	; 27
	LED2_OFF;
    1ab8:	dd 9a       	sbi	0x1b, 5	; 27
	LED3_OFF;
    1aba:	dc 9a       	sbi	0x1b, 4	; 27
	LED4_OFF;
    1abc:	db 9a       	sbi	0x1b, 3	; 27
	LED5_ON;
    1abe:	da 98       	cbi	0x1b, 2	; 27
	LED6_OFF;
    1ac0:	d9 9a       	sbi	0x1b, 1	; 27
	LED7_ON;
    1ac2:	d8 98       	cbi	0x1b, 0	; 27
	IQR6_CLOSE;
	IQR7_CLOSE;
	*/

	/* 继电器相关IO口初始化 */
	ALARM_PIN_OUTPUT;
    1ac4:	8c 9a       	sbi	0x11, 4	; 17
	ACCON_PIN_OUTPUT;
    1ac6:	8d 9a       	sbi	0x11, 5	; 17

	ALARM_OFF;
    1ac8:	94 98       	cbi	0x12, 4	; 18
	ACCON_ON;
    1aca:	95 9a       	sbi	0x12, 5	; 18
    1acc:	08 95       	ret

00001ace <system_init>:
	return 0;
}

void system_init()
{
	gpio_init();
    1ace:	0e 94 54 0d 	call	0x1aa8	; 0x1aa8 <gpio_init>
	usart0_init(MYUBRR(9600));
    1ad2:	87 e6       	ldi	r24, 0x67	; 103
    1ad4:	90 e0       	ldi	r25, 0x00	; 0
    1ad6:	0e 94 e5 12 	call	0x25ca	; 0x25ca <usart0_init>
	usart1_init(MYUBRR(8928));
    1ada:	8f e6       	ldi	r24, 0x6F	; 111
    1adc:	90 e0       	ldi	r25, 0x00	; 0
    1ade:	0e 94 f3 12 	call	0x25e6	; 0x25e6 <usart1_init>
	usart2_init(9600);
    1ae2:	80 e8       	ldi	r24, 0x80	; 128
    1ae4:	95 e2       	ldi	r25, 0x25	; 37
    1ae6:	0e 94 00 13 	call	0x2600	; 0x2600 <usart2_init>

	timer0_init();
    1aea:	0e 94 85 0f 	call	0x1f0a	; 0x1f0a <timer0_init>
	timer2_init();
    1aee:	0e 94 a5 0f 	call	0x1f4a	; 0x1f4a <timer2_init>
	timer1_init();
    1af2:	0e 94 94 0f 	call	0x1f28	; 0x1f28 <timer1_init>
	init_time_ctrl_value();
    1af6:	0e 94 69 01 	call	0x2d2	; 0x2d2 <init_time_ctrl_value>
    1afa:	08 95       	ret

00001afc <main>:

int main(void)
{
	uint8_t slave_num = 1;
	
	system_init();
    1afc:	0e 94 67 0d 	call	0x1ace	; 0x1ace <system_init>
	EN_INTERRUPT;
    1b00:	8f b7       	in	r24, 0x3f	; 63
    1b02:	80 68       	ori	r24, 0x80	; 128
    1b04:	8f bf       	out	0x3f, r24	; 63
	//	read_eeprom_data();

	_delay_ms(300);
    1b06:	6c e2       	ldi	r22, 0x2C	; 44
    1b08:	71 e0       	ldi	r23, 0x01	; 1
    1b0a:	80 e0       	ldi	r24, 0x00	; 0
    1b0c:	90 e0       	ldi	r25, 0x00	; 0
    1b0e:	0e 94 4b 01 	call	0x296	; 0x296 <_delay_ms>
	
	read_setting_data_all(); //开机从主控板读取设定数据
    1b12:	0e 94 6e 09 	call	0x12dc	; 0x12dc <read_setting_data_all>

	//	send_variables(MASTER_SWITCH, pre_system_sta);	//默认系统为关闭状态 调节屏幕状态图标为关闭
	send_variables(ALL_SET_TEMP, all_temp);
    1b16:	60 91 41 01 	lds	r22, 0x0141	; 0x800141 <all_temp>
    1b1a:	70 91 42 01 	lds	r23, 0x0142	; 0x800142 <all_temp+0x1>
    1b1e:	88 e4       	ldi	r24, 0x48	; 72
    1b20:	91 e0       	ldi	r25, 0x01	; 1
    1b22:	0e 94 b4 03 	call	0x768	; 0x768 <send_variables>
	send_variables(SET_PREHEAT_TIME, preheat_time);
    1b26:	60 91 43 01 	lds	r22, 0x0143	; 0x800143 <preheat_time>
    1b2a:	70 91 44 01 	lds	r23, 0x0144	; 0x800144 <preheat_time+0x1>
    1b2e:	8a e4       	ldi	r24, 0x4A	; 74
    1b30:	91 e0       	ldi	r25, 0x01	; 1
    1b32:	0e 94 b4 03 	call	0x768	; 0x768 <send_variables>
	send_variables(TEMP_UINT_ADDR, (CELSIUS + temp_unit * FAHRENHEIT));
    1b36:	20 91 12 02 	lds	r18, 0x0212	; 0x800212 <temp_unit>
    1b3a:	30 91 13 02 	lds	r19, 0x0213	; 0x800213 <temp_unit+0x1>
    1b3e:	80 e0       	ldi	r24, 0x00	; 0
    1b40:	93 e0       	ldi	r25, 0x03	; 3
    1b42:	28 9f       	mul	r18, r24
    1b44:	b0 01       	movw	r22, r0
    1b46:	29 9f       	mul	r18, r25
    1b48:	70 0d       	add	r23, r0
    1b4a:	38 9f       	mul	r19, r24
    1b4c:	70 0d       	add	r23, r0
    1b4e:	11 24       	eor	r1, r1
    1b50:	7d 5b       	subi	r23, 0xBD	; 189
    1b52:	8c e3       	ldi	r24, 0x3C	; 60
    1b54:	92 e0       	ldi	r25, 0x02	; 2
    1b56:	0e 94 b4 03 	call	0x768	; 0x768 <send_variables>
	send_variables(ALL_SENSOR_TYPE_ADDR, TYPE_J + (all_sensor_type * TYPE_K));
    1b5a:	80 91 14 02 	lds	r24, 0x0214	; 0x800214 <all_sensor_type>
    1b5e:	90 91 15 02 	lds	r25, 0x0215	; 0x800215 <all_sensor_type+0x1>
    1b62:	86 5b       	subi	r24, 0xB6	; 182
    1b64:	9f 4f       	sbci	r25, 0xFF	; 255
    1b66:	60 e0       	ldi	r22, 0x00	; 0
    1b68:	78 2f       	mov	r23, r24
    1b6a:	84 e9       	ldi	r24, 0x94	; 148
    1b6c:	92 e0       	ldi	r25, 0x02	; 2
    1b6e:	0e 94 b4 03 	call	0x768	; 0x768 <send_variables>

	init_complete = 1;
    1b72:	81 e0       	ldi	r24, 0x01	; 1
    1b74:	80 93 a9 02 	sts	0x02A9, r24	; 0x8002a9 <init_complete>
	update_main_page();
    1b78:	0e 94 f7 05 	call	0xbee	; 0xbee <update_main_page>
	switch_language();
    1b7c:	0e 94 a2 03 	call	0x744	; 0x744 <switch_language>

void system_init(void);

int main(void)
{
	uint8_t slave_num = 1;
    1b80:	c1 e0       	ldi	r28, 0x01	; 1
	switch_language();
	
	/* Replace with your application code */
	while (1)
	{
		if (usart0_rx_end) //屏相关数据接收完成
    1b82:	80 91 41 05 	lds	r24, 0x0541	; 0x800541 <usart0_rx_end>
    1b86:	88 23       	and	r24, r24
    1b88:	21 f0       	breq	.+8      	; 0x1b92 <main+0x96>
		{
			usart0_deal();
    1b8a:	0e 94 b8 10 	call	0x2170	; 0x2170 <usart0_deal>
			usart0_rx_end = 0;
    1b8e:	10 92 41 05 	sts	0x0541, r1	; 0x800541 <usart0_rx_end>
		}

		if (usart1_rx_end) //控制卡数据接收完成
    1b92:	80 91 ae 03 	lds	r24, 0x03AE	; 0x8003ae <usart1_rx_end>
    1b96:	88 23       	and	r24, r24
    1b98:	21 f0       	breq	.+8      	; 0x1ba2 <main+0xa6>
		{
			usart1_deal();
    1b9a:	0e 94 fe 0f 	call	0x1ffc	; 0x1ffc <usart1_deal>
			usart1_rx_end = 0;
    1b9e:	10 92 ae 03 	sts	0x03AE, r1	; 0x8003ae <usart1_rx_end>
// 		{
// 			update_main_page();
// 		}
		
		/*500ms发送一次请求获取主控板卡运行数据*/
		if (ctrl_command == READ_DATA_ALL)
    1ba2:	80 91 d6 01 	lds	r24, 0x01D6	; 0x8001d6 <ctrl_command>
    1ba6:	81 30       	cpi	r24, 0x01	; 1
    1ba8:	61 f7       	brne	.-40     	; 0x1b82 <main+0x86>
		{
			if(usart1_tx_overtime_mask == 1)
    1baa:	80 91 aa 02 	lds	r24, 0x02AA	; 0x8002aa <usart1_tx_overtime_mask>
    1bae:	81 30       	cpi	r24, 0x01	; 1
    1bb0:	41 f7       	brne	.-48     	; 0x1b82 <main+0x86>
			{
				send_request_all(slave_num);
    1bb2:	8c 2f       	mov	r24, r28
    1bb4:	0e 94 4c 0a 	call	0x1498	; 0x1498 <send_request_all>
				
				if(++slave_num >=4)
    1bb8:	cf 5f       	subi	r28, 0xFF	; 255
    1bba:	c4 30       	cpi	r28, 0x04	; 4
    1bbc:	08 f0       	brcs	.+2      	; 0x1bc0 <main+0xc4>
				{
					slave_num = 1;
    1bbe:	c1 e0       	ldi	r28, 0x01	; 1
				}
				
				usart1_tx_overtime_mask = 0;
    1bc0:	10 92 aa 02 	sts	0x02AA, r1	; 0x8002aa <usart1_tx_overtime_mask>
				usart1_tx_timecnt = 0;
    1bc4:	10 92 ab 02 	sts	0x02AB, r1	; 0x8002ab <usart1_tx_timecnt>
    1bc8:	dc cf       	rjmp	.-72     	; 0x1b82 <main+0x86>

00001bca <__vector_16>:
uint8_t usart1_tx_timecnt = 0;
uint8_t usart1_tx_overtime_mask = 0;
uint8_t init_complete = 0;

ISR(TIMER0_OVF_vect)
{
    1bca:	1f 92       	push	r1
    1bcc:	0f 92       	push	r0
    1bce:	0f b6       	in	r0, 0x3f	; 63
    1bd0:	0f 92       	push	r0
    1bd2:	11 24       	eor	r1, r1
    1bd4:	2f 93       	push	r18
    1bd6:	3f 93       	push	r19
    1bd8:	4f 93       	push	r20
    1bda:	5f 93       	push	r21
    1bdc:	6f 93       	push	r22
    1bde:	7f 93       	push	r23
    1be0:	8f 93       	push	r24
    1be2:	9f 93       	push	r25
    1be4:	af 93       	push	r26
    1be6:	bf 93       	push	r27
    1be8:	ef 93       	push	r30
    1bea:	ff 93       	push	r31
	
/*	static uint8_t time_cnt = 0;  //时间计数*/
/*	static uint8_t slave_num = 1; //控制板号码*/
	static uint16_t update_run_temp_cnt = 0;

	EN_INTERRUPT;
    1bec:	8f b7       	in	r24, 0x3f	; 63
    1bee:	80 68       	ori	r24, 0x80	; 128
    1bf0:	8f bf       	out	0x3f, r24	; 63
	TCNT0 = 0xB2;
    1bf2:	82 eb       	ldi	r24, 0xB2	; 178
    1bf4:	82 bf       	out	0x32, r24	; 50
	
	if (++read_setting_data_cnt >= 60)
    1bf6:	80 91 ac 02 	lds	r24, 0x02AC	; 0x8002ac <read_setting_data_cnt>
    1bfa:	8f 5f       	subi	r24, 0xFF	; 255
    1bfc:	8c 33       	cpi	r24, 0x3C	; 60
    1bfe:	18 f4       	brcc	.+6      	; 0x1c06 <__vector_16+0x3c>
    1c00:	80 93 ac 02 	sts	0x02AC, r24	; 0x8002ac <read_setting_data_cnt>
    1c04:	05 c0       	rjmp	.+10     	; 0x1c10 <__vector_16+0x46>
	{
		read_setting_data_cnt = 0;
    1c06:	10 92 ac 02 	sts	0x02AC, r1	; 0x8002ac <read_setting_data_cnt>
		read_setting_data_mask = 1;
    1c0a:	81 e0       	ldi	r24, 0x01	; 1
    1c0c:	80 93 ad 02 	sts	0x02AD, r24	; 0x8002ad <read_setting_data_mask>
	}

	if (init_complete)
    1c10:	80 91 a9 02 	lds	r24, 0x02A9	; 0x8002a9 <init_complete>
    1c14:	88 23       	and	r24, r24
    1c16:	69 f0       	breq	.+26     	; 0x1c32 <__vector_16+0x68>
	{
		if (++usart1_tx_timecnt >= 100)
    1c18:	80 91 ab 02 	lds	r24, 0x02AB	; 0x8002ab <usart1_tx_timecnt>
    1c1c:	8f 5f       	subi	r24, 0xFF	; 255
    1c1e:	84 36       	cpi	r24, 0x64	; 100
    1c20:	18 f4       	brcc	.+6      	; 0x1c28 <__vector_16+0x5e>
    1c22:	80 93 ab 02 	sts	0x02AB, r24	; 0x8002ab <usart1_tx_timecnt>
    1c26:	05 c0       	rjmp	.+10     	; 0x1c32 <__vector_16+0x68>
		{
			usart1_tx_timecnt = 0;
    1c28:	10 92 ab 02 	sts	0x02AB, r1	; 0x8002ab <usart1_tx_timecnt>
			usart1_tx_overtime_mask = 1;
    1c2c:	81 e0       	ldi	r24, 0x01	; 1
    1c2e:	80 93 aa 02 	sts	0x02AA, r24	; 0x8002aa <usart1_tx_overtime_mask>
		} //每一百毫秒请求一个主控板发送所有采集数据  300毫秒完成3个主控板采集数据的发送
	}

	if (update_run_temp_flag) //如果在单独设定界面，1s更新一次运行温度
    1c32:	80 91 9e 02 	lds	r24, 0x029E	; 0x80029e <update_run_temp_flag>
    1c36:	88 23       	and	r24, r24
    1c38:	09 f4       	brne	.+2      	; 0x1c3c <__vector_16+0x72>
    1c3a:	70 c0       	rjmp	.+224    	; 0x1d1c <__vector_16+0x152>
	{
		update_run_temp_cnt++;
    1c3c:	80 91 a7 02 	lds	r24, 0x02A7	; 0x8002a7 <update_run_temp_cnt.1794>
    1c40:	90 91 a8 02 	lds	r25, 0x02A8	; 0x8002a8 <update_run_temp_cnt.1794+0x1>
    1c44:	01 96       	adiw	r24, 0x01	; 1

		if (update_run_temp_cnt >= 200)
    1c46:	88 3c       	cpi	r24, 0xC8	; 200
    1c48:	91 05       	cpc	r25, r1
    1c4a:	28 f4       	brcc	.+10     	; 0x1c56 <__vector_16+0x8c>
		} //每一百毫秒请求一个主控板发送所有采集数据  300毫秒完成3个主控板采集数据的发送
	}

	if (update_run_temp_flag) //如果在单独设定界面，1s更新一次运行温度
	{
		update_run_temp_cnt++;
    1c4c:	90 93 a8 02 	sts	0x02A8, r25	; 0x8002a8 <update_run_temp_cnt.1794+0x1>
    1c50:	80 93 a7 02 	sts	0x02A7, r24	; 0x8002a7 <update_run_temp_cnt.1794>
    1c54:	63 c0       	rjmp	.+198    	; 0x1d1c <__vector_16+0x152>

		if (update_run_temp_cnt >= 200)
		{
			update_run_temp_cnt = 0;
    1c56:	10 92 a8 02 	sts	0x02A8, r1	; 0x8002a8 <update_run_temp_cnt.1794+0x1>
    1c5a:	10 92 a7 02 	sts	0x02A7, r1	; 0x8002a7 <update_run_temp_cnt.1794>

			if (run_temp_page)
    1c5e:	80 91 9f 02 	lds	r24, 0x029F	; 0x80029f <run_temp_page>
    1c62:	88 23       	and	r24, r24
    1c64:	41 f1       	breq	.+80     	; 0x1cb6 <__vector_16+0xec>
			{
				send_variables(SINGLE_RUNTEMP_ADDR, run_temp[set_num] + temp_unit * ((run_temp[set_num] * 8 / 10) + 32)); //单独设定界面更新运行温度
    1c66:	e0 91 99 02 	lds	r30, 0x0299	; 0x800299 <set_num>
    1c6a:	f0 e0       	ldi	r31, 0x00	; 0
    1c6c:	ee 0f       	add	r30, r30
    1c6e:	ff 1f       	adc	r31, r31
    1c70:	ee 59       	subi	r30, 0x9E	; 158
    1c72:	fd 4f       	sbci	r31, 0xFD	; 253
    1c74:	20 81       	ld	r18, Z
    1c76:	31 81       	ldd	r19, Z+1	; 0x01
    1c78:	c9 01       	movw	r24, r18
    1c7a:	88 0f       	add	r24, r24
    1c7c:	99 1f       	adc	r25, r25
    1c7e:	88 0f       	add	r24, r24
    1c80:	99 1f       	adc	r25, r25
    1c82:	88 0f       	add	r24, r24
    1c84:	99 1f       	adc	r25, r25
    1c86:	6a e0       	ldi	r22, 0x0A	; 10
    1c88:	70 e0       	ldi	r23, 0x00	; 0
    1c8a:	0e 94 1f 13 	call	0x263e	; 0x263e <__divmodhi4>
    1c8e:	cb 01       	movw	r24, r22
    1c90:	80 96       	adiw	r24, 0x20	; 32
    1c92:	40 91 12 02 	lds	r20, 0x0212	; 0x800212 <temp_unit>
    1c96:	50 91 13 02 	lds	r21, 0x0213	; 0x800213 <temp_unit+0x1>
    1c9a:	84 9f       	mul	r24, r20
    1c9c:	b0 01       	movw	r22, r0
    1c9e:	85 9f       	mul	r24, r21
    1ca0:	70 0d       	add	r23, r0
    1ca2:	94 9f       	mul	r25, r20
    1ca4:	70 0d       	add	r23, r0
    1ca6:	11 24       	eor	r1, r1
    1ca8:	62 0f       	add	r22, r18
    1caa:	73 1f       	adc	r23, r19
    1cac:	82 e3       	ldi	r24, 0x32	; 50
    1cae:	90 e0       	ldi	r25, 0x00	; 0
    1cb0:	0e 94 b4 03 	call	0x768	; 0x768 <send_variables>
    1cb4:	33 c0       	rjmp	.+102    	; 0x1d1c <__vector_16+0x152>
			}
			else
			{
				send_variables(CURVE_PAGE_RUNTEMP_ADDR, run_temp[curve_page_num] +
    1cb6:	e0 91 97 02 	lds	r30, 0x0297	; 0x800297 <curve_page_num>
    1cba:	ee 0f       	add	r30, r30
    1cbc:	ff 0b       	sbc	r31, r31
    1cbe:	ee 59       	subi	r30, 0x9E	; 158
    1cc0:	fd 4f       	sbci	r31, 0xFD	; 253
    1cc2:	20 81       	ld	r18, Z
    1cc4:	31 81       	ldd	r19, Z+1	; 0x01
    1cc6:	c9 01       	movw	r24, r18
    1cc8:	88 0f       	add	r24, r24
    1cca:	99 1f       	adc	r25, r25
    1ccc:	88 0f       	add	r24, r24
    1cce:	99 1f       	adc	r25, r25
    1cd0:	88 0f       	add	r24, r24
    1cd2:	99 1f       	adc	r25, r25
    1cd4:	6a e0       	ldi	r22, 0x0A	; 10
    1cd6:	70 e0       	ldi	r23, 0x00	; 0
    1cd8:	0e 94 1f 13 	call	0x263e	; 0x263e <__divmodhi4>
    1cdc:	cb 01       	movw	r24, r22
    1cde:	80 96       	adiw	r24, 0x20	; 32
    1ce0:	40 91 12 02 	lds	r20, 0x0212	; 0x800212 <temp_unit>
    1ce4:	50 91 13 02 	lds	r21, 0x0213	; 0x800213 <temp_unit+0x1>
    1ce8:	84 9f       	mul	r24, r20
    1cea:	b0 01       	movw	r22, r0
    1cec:	85 9f       	mul	r24, r21
    1cee:	70 0d       	add	r23, r0
    1cf0:	94 9f       	mul	r25, r20
    1cf2:	70 0d       	add	r23, r0
    1cf4:	11 24       	eor	r1, r1
    1cf6:	62 0f       	add	r22, r18
    1cf8:	73 1f       	adc	r23, r19
    1cfa:	8e e3       	ldi	r24, 0x3E	; 62
    1cfc:	90 e0       	ldi	r25, 0x00	; 0
    1cfe:	0e 94 b4 03 	call	0x768	; 0x768 <send_variables>
				temp_unit * (run_temp[curve_page_num] * 8 / 10 + 32)); //曲线界面更新运行温度

				send_variables(CURVE_PAGE_OUTRATE_ADDR, output_rate[curve_page_num]); //曲线界面更新输出比例
    1d02:	e0 91 97 02 	lds	r30, 0x0297	; 0x800297 <curve_page_num>
    1d06:	0e 2e       	mov	r0, r30
    1d08:	00 0c       	add	r0, r0
    1d0a:	ff 0b       	sbc	r31, r31
    1d0c:	ea 57       	subi	r30, 0x7A	; 122
    1d0e:	fd 4f       	sbci	r31, 0xFD	; 253
    1d10:	60 81       	ld	r22, Z
    1d12:	70 e0       	ldi	r23, 0x00	; 0
    1d14:	82 e4       	ldi	r24, 0x42	; 66
    1d16:	90 e0       	ldi	r25, 0x00	; 0
    1d18:	0e 94 b4 03 	call	0x768	; 0x768 <send_variables>
			}
		}
	}

	if (usart1_rx_cnt != pre_usart1_rx_cnt)
    1d1c:	80 91 ac 03 	lds	r24, 0x03AC	; 0x8003ac <usart1_rx_cnt>
    1d20:	90 91 a6 02 	lds	r25, 0x02A6	; 0x8002a6 <pre_usart1_rx_cnt.1791>
    1d24:	89 17       	cp	r24, r25
    1d26:	29 f0       	breq	.+10     	; 0x1d32 <__vector_16+0x168>
	{
		pre_usart1_rx_cnt = usart1_rx_cnt;
    1d28:	80 93 a6 02 	sts	0x02A6, r24	; 0x8002a6 <pre_usart1_rx_cnt.1791>
		usart1_cnt = 0;
    1d2c:	10 92 a5 02 	sts	0x02A5, r1	; 0x8002a5 <usart1_cnt.1790>
    1d30:	14 c0       	rjmp	.+40     	; 0x1d5a <__vector_16+0x190>
	} //如果usart1当前接收计数与上次计数不一样 表示有数据接收  清除时间计数
	else
	{
		if (usart1_rx_cnt != 0) //如果usart1接收计数为0 认为没有开始接收数据  则不进行超时计数
    1d32:	88 23       	and	r24, r24
    1d34:	91 f0       	breq	.+36     	; 0x1d5a <__vector_16+0x190>
		{
			usart1_cnt++;
    1d36:	90 91 a5 02 	lds	r25, 0x02A5	; 0x8002a5 <usart1_cnt.1790>
    1d3a:	9f 5f       	subi	r25, 0xFF	; 255
    1d3c:	90 93 a5 02 	sts	0x02A5, r25	; 0x8002a5 <usart1_cnt.1790>

			if (usart1_cnt >= 4)
    1d40:	94 30       	cpi	r25, 0x04	; 4
    1d42:	58 f0       	brcs	.+22     	; 0x1d5a <__vector_16+0x190>
			{
				usart1_rx_lenth = usart1_rx_cnt;
    1d44:	80 93 ad 03 	sts	0x03AD, r24	; 0x8003ad <usart1_rx_lenth>
				usart1_rx_end = 1;
    1d48:	81 e0       	ldi	r24, 0x01	; 1
    1d4a:	80 93 ae 03 	sts	0x03AE, r24	; 0x8003ae <usart1_rx_end>

				usart1_rx_cnt = 0;
    1d4e:	10 92 ac 03 	sts	0x03AC, r1	; 0x8003ac <usart1_rx_cnt>
				pre_usart1_rx_cnt = 0;
    1d52:	10 92 a6 02 	sts	0x02A6, r1	; 0x8002a6 <pre_usart1_rx_cnt.1791>

				usart1_cnt = 0;
    1d56:	10 92 a5 02 	sts	0x02A5, r1	; 0x8002a5 <usart1_cnt.1790>
			}
		}
	} //如果大于21毫秒没有数据接收  认为完成一次数据的接收      清除时间计数

	if (usart0_rx_cnt != pre_usart0_rx_cnt)
    1d5a:	80 91 3f 05 	lds	r24, 0x053F	; 0x80053f <usart0_rx_cnt>
    1d5e:	90 91 a4 02 	lds	r25, 0x02A4	; 0x8002a4 <pre_usart0_rx_cnt.1793>
    1d62:	89 17       	cp	r24, r25
    1d64:	29 f0       	breq	.+10     	; 0x1d70 <__vector_16+0x1a6>
	{
		pre_usart0_rx_cnt = usart0_rx_cnt;
    1d66:	80 93 a4 02 	sts	0x02A4, r24	; 0x8002a4 <pre_usart0_rx_cnt.1793>
		usart0_cnt = 0;
    1d6a:	10 92 a3 02 	sts	0x02A3, r1	; 0x8002a3 <usart0_cnt.1792>
    1d6e:	14 c0       	rjmp	.+40     	; 0x1d98 <__vector_16+0x1ce>
	} //如果usart0当前接收计数与上次计数不一样 表示有数据接收  清除时间计数
	else
	{
		if (usart0_rx_cnt != 0) //如果usart0接收计数为0   认为没有开始接收数据  则不进行超时计数
    1d70:	88 23       	and	r24, r24
    1d72:	91 f0       	breq	.+36     	; 0x1d98 <__vector_16+0x1ce>
		{
			usart0_cnt++;
    1d74:	90 91 a3 02 	lds	r25, 0x02A3	; 0x8002a3 <usart0_cnt.1792>
    1d78:	9f 5f       	subi	r25, 0xFF	; 255
    1d7a:	90 93 a3 02 	sts	0x02A3, r25	; 0x8002a3 <usart0_cnt.1792>

			if (usart0_cnt >= 4)
    1d7e:	94 30       	cpi	r25, 0x04	; 4
    1d80:	58 f0       	brcs	.+22     	; 0x1d98 <__vector_16+0x1ce>
			{
				usart0_rx_lenth = usart0_rx_cnt;
    1d82:	80 93 40 05 	sts	0x0540, r24	; 0x800540 <usart0_rx_lenth>
				usart0_rx_end = 1;
    1d86:	81 e0       	ldi	r24, 0x01	; 1
    1d88:	80 93 41 05 	sts	0x0541, r24	; 0x800541 <usart0_rx_end>

				usart0_rx_cnt = 0;
    1d8c:	10 92 3f 05 	sts	0x053F, r1	; 0x80053f <usart0_rx_cnt>
				pre_usart0_rx_cnt = 0;
    1d90:	10 92 a4 02 	sts	0x02A4, r1	; 0x8002a4 <pre_usart0_rx_cnt.1793>

				usart0_cnt = 0;
    1d94:	10 92 a3 02 	sts	0x02A3, r1	; 0x8002a3 <usart0_cnt.1792>
			}
		}
	} //如果大于21毫秒没有数据接收  认为完成一次数据的接收      清除时间计数
}
    1d98:	ff 91       	pop	r31
    1d9a:	ef 91       	pop	r30
    1d9c:	bf 91       	pop	r27
    1d9e:	af 91       	pop	r26
    1da0:	9f 91       	pop	r25
    1da2:	8f 91       	pop	r24
    1da4:	7f 91       	pop	r23
    1da6:	6f 91       	pop	r22
    1da8:	5f 91       	pop	r21
    1daa:	4f 91       	pop	r20
    1dac:	3f 91       	pop	r19
    1dae:	2f 91       	pop	r18
    1db0:	0f 90       	pop	r0
    1db2:	0f be       	out	0x3f, r0	; 63
    1db4:	0f 90       	pop	r0
    1db6:	1f 90       	pop	r1
    1db8:	18 95       	reti

00001dba <__vector_12>:

ISR(TIMER1_COMPA_vect)
{
    1dba:	1f 92       	push	r1
    1dbc:	0f 92       	push	r0
    1dbe:	0f b6       	in	r0, 0x3f	; 63
    1dc0:	0f 92       	push	r0
    1dc2:	11 24       	eor	r1, r1
	}
	}
	}
	}
	*/
}
    1dc4:	0f 90       	pop	r0
    1dc6:	0f be       	out	0x3f, r0	; 63
    1dc8:	0f 90       	pop	r0
    1dca:	1f 90       	pop	r1
    1dcc:	18 95       	reti

00001dce <__vector_10>:

ISR(TIMER2_OVF_vect)
{
    1dce:	1f 92       	push	r1
    1dd0:	0f 92       	push	r0
    1dd2:	0f b6       	in	r0, 0x3f	; 63
    1dd4:	0f 92       	push	r0
    1dd6:	11 24       	eor	r1, r1
    1dd8:	2f 93       	push	r18
    1dda:	3f 93       	push	r19
    1ddc:	4f 93       	push	r20
    1dde:	5f 93       	push	r21
    1de0:	6f 93       	push	r22
    1de2:	7f 93       	push	r23
    1de4:	8f 93       	push	r24
    1de6:	9f 93       	push	r25
    1de8:	af 93       	push	r26
    1dea:	bf 93       	push	r27
    1dec:	ef 93       	push	r30
    1dee:	ff 93       	push	r31
	static uint8_t time_cnt = 0;
	int16_t temp_differ = 0;

	EN_INTERRUPT;
    1df0:	8f b7       	in	r24, 0x3f	; 63
    1df2:	80 68       	ori	r24, 0x80	; 128
    1df4:	8f bf       	out	0x3f, r24	; 63
	TCNT2 = 0xB2;
    1df6:	82 eb       	ldi	r24, 0xB2	; 178
    1df8:	84 bd       	out	0x24, r24	; 36

	temp_differ = (run_temp[curve_page_num] - set_temp[curve_page_num]) + 100;
    1dfa:	80 91 97 02 	lds	r24, 0x0297	; 0x800297 <curve_page_num>
    1dfe:	88 0f       	add	r24, r24
    1e00:	99 0b       	sbc	r25, r25
    1e02:	fc 01       	movw	r30, r24
    1e04:	ee 59       	subi	r30, 0x9E	; 158
    1e06:	fd 4f       	sbci	r31, 0xFD	; 253
    1e08:	60 81       	ld	r22, Z
    1e0a:	71 81       	ldd	r23, Z+1	; 0x01
    1e0c:	fc 01       	movw	r30, r24
    1e0e:	e3 54       	subi	r30, 0x43	; 67
    1e10:	fe 4f       	sbci	r31, 0xFE	; 254
    1e12:	20 81       	ld	r18, Z
    1e14:	31 81       	ldd	r19, Z+1	; 0x01

	time_cnt++;
    1e16:	80 91 a2 02 	lds	r24, 0x02A2	; 0x8002a2 <time_cnt.1805>
    1e1a:	8f 5f       	subi	r24, 0xFF	; 255
    1e1c:	80 93 a2 02 	sts	0x02A2, r24	; 0x8002a2 <time_cnt.1805>
	if (time_cnt >= timer2_ovf)
    1e20:	90 91 ae 02 	lds	r25, 0x02AE	; 0x8002ae <timer2_ovf>
    1e24:	89 17       	cp	r24, r25
    1e26:	48 f0       	brcs	.+18     	; 0x1e3a <__vector_10+0x6c>
	{
		time_cnt = 0;
    1e28:	10 92 a2 02 	sts	0x02A2, r1	; 0x8002a2 <time_cnt.1805>
		send_to_channel(CHANNEL0, temp_differ);
    1e2c:	62 1b       	sub	r22, r18
    1e2e:	73 0b       	sbc	r23, r19
    1e30:	6c 59       	subi	r22, 0x9C	; 156
    1e32:	7f 4f       	sbci	r23, 0xFF	; 255
    1e34:	81 e0       	ldi	r24, 0x01	; 1
    1e36:	0e 94 7e 08 	call	0x10fc	; 0x10fc <send_to_channel>
	}
}
    1e3a:	ff 91       	pop	r31
    1e3c:	ef 91       	pop	r30
    1e3e:	bf 91       	pop	r27
    1e40:	af 91       	pop	r26
    1e42:	9f 91       	pop	r25
    1e44:	8f 91       	pop	r24
    1e46:	7f 91       	pop	r23
    1e48:	6f 91       	pop	r22
    1e4a:	5f 91       	pop	r21
    1e4c:	4f 91       	pop	r20
    1e4e:	3f 91       	pop	r19
    1e50:	2f 91       	pop	r18
    1e52:	0f 90       	pop	r0
    1e54:	0f be       	out	0x3f, r0	; 63
    1e56:	0f 90       	pop	r0
    1e58:	1f 90       	pop	r1
    1e5a:	18 95       	reti

00001e5c <__vector_26>:

ISR(TIMER3_COMPA_vect)
{
    1e5c:	1f 92       	push	r1
    1e5e:	0f 92       	push	r0
    1e60:	0f b6       	in	r0, 0x3f	; 63
    1e62:	0f 92       	push	r0
    1e64:	11 24       	eor	r1, r1
    1e66:	2f 93       	push	r18
    1e68:	3f 93       	push	r19
    1e6a:	4f 93       	push	r20
    1e6c:	8f 93       	push	r24
    1e6e:	9f 93       	push	r25
    1e70:	ef 93       	push	r30
    1e72:	ff 93       	push	r31
	static uint8_t cnt = 0;
	static uint8_t pos = 0; //当前发送数据BIt 的位置

	cnt++;
    1e74:	80 91 a1 02 	lds	r24, 0x02A1	; 0x8002a1 <cnt.1812>
    1e78:	8f 5f       	subi	r24, 0xFF	; 255
    1e7a:	80 93 a1 02 	sts	0x02A1, r24	; 0x8002a1 <cnt.1812>

	if (usart2_sta == USART2_IN_TX)
    1e7e:	90 91 d2 07 	lds	r25, 0x07D2	; 0x8007d2 <usart2_sta>
    1e82:	91 11       	cpse	r25, r1
    1e84:	36 c0       	rjmp	.+108    	; 0x1ef2 <__vector_26+0x96>
	{
		if (cnt <= 8)
    1e86:	89 30       	cpi	r24, 0x09	; 9
    1e88:	f8 f4       	brcc	.+62     	; 0x1ec8 <__vector_26+0x6c>
		{
			if (((usart2_buff & (1 << pos)) >> pos) == 1)
    1e8a:	40 91 a0 02 	lds	r20, 0x02A0	; 0x8002a0 <pos.1813>
    1e8e:	80 91 e3 02 	lds	r24, 0x02E3	; 0x8002e3 <usart2_buff>
    1e92:	28 2f       	mov	r18, r24
    1e94:	30 e0       	ldi	r19, 0x00	; 0
    1e96:	81 e0       	ldi	r24, 0x01	; 1
    1e98:	90 e0       	ldi	r25, 0x00	; 0
    1e9a:	04 2e       	mov	r0, r20
    1e9c:	02 c0       	rjmp	.+4      	; 0x1ea2 <__vector_26+0x46>
    1e9e:	88 0f       	add	r24, r24
    1ea0:	99 1f       	adc	r25, r25
    1ea2:	0a 94       	dec	r0
    1ea4:	e2 f7       	brpl	.-8      	; 0x1e9e <__vector_26+0x42>
    1ea6:	82 23       	and	r24, r18
    1ea8:	93 23       	and	r25, r19
    1eaa:	02 c0       	rjmp	.+4      	; 0x1eb0 <__vector_26+0x54>
    1eac:	95 95       	asr	r25
    1eae:	87 95       	ror	r24
    1eb0:	4a 95       	dec	r20
    1eb2:	e2 f7       	brpl	.-8      	; 0x1eac <__vector_26+0x50>
    1eb4:	01 97       	sbiw	r24, 0x01	; 1
    1eb6:	11 f4       	brne	.+4      	; 0x1ebc <__vector_26+0x60>
			{
				USART2_TX_PIN_SET;
    1eb8:	af 9a       	sbi	0x15, 7	; 21
    1eba:	01 c0       	rjmp	.+2      	; 0x1ebe <__vector_26+0x62>
			}
			else
			{
				USART2_TX_PIN_RESET;
    1ebc:	af 98       	cbi	0x15, 7	; 21
			}
			pos++;
    1ebe:	80 91 a0 02 	lds	r24, 0x02A0	; 0x8002a0 <pos.1813>
    1ec2:	8f 5f       	subi	r24, 0xFF	; 255
    1ec4:	80 93 a0 02 	sts	0x02A0, r24	; 0x8002a0 <pos.1813>
		}

		if (cnt == 9)
    1ec8:	80 91 a1 02 	lds	r24, 0x02A1	; 0x8002a1 <cnt.1812>
    1ecc:	89 30       	cpi	r24, 0x09	; 9
    1ece:	19 f4       	brne	.+6      	; 0x1ed6 <__vector_26+0x7a>
		{
			pos = 0;		   //数据发送完成，发送位置恢复1
    1ed0:	10 92 a0 02 	sts	0x02A0, r1	; 0x8002a0 <pos.1813>
			USART2_TX_PIN_SET; //停止位
    1ed4:	af 9a       	sbi	0x15, 7	; 21
		}

		if (cnt == 10)
    1ed6:	80 91 a1 02 	lds	r24, 0x02A1	; 0x8002a1 <cnt.1812>
    1eda:	8a 30       	cpi	r24, 0x0A	; 10
    1edc:	51 f4       	brne	.+20     	; 0x1ef2 <__vector_26+0x96>
		{
			cnt = 0;
    1ede:	10 92 a1 02 	sts	0x02A1, r1	; 0x8002a1 <cnt.1812>
			usart2_sta = USART2_TX_END; //更改USART2状态为发送完成
    1ee2:	83 e0       	ldi	r24, 0x03	; 3
    1ee4:	80 93 d2 07 	sts	0x07D2, r24	; 0x8007d2 <usart2_sta>
			TCCR3B &= 0xF8;				//关闭关闭定时器
    1ee8:	ea e8       	ldi	r30, 0x8A	; 138
    1eea:	f0 e0       	ldi	r31, 0x00	; 0
    1eec:	80 81       	ld	r24, Z
    1eee:	88 7f       	andi	r24, 0xF8	; 248
    1ef0:	80 83       	st	Z, r24
		}
	}
}
    1ef2:	ff 91       	pop	r31
    1ef4:	ef 91       	pop	r30
    1ef6:	9f 91       	pop	r25
    1ef8:	8f 91       	pop	r24
    1efa:	4f 91       	pop	r20
    1efc:	3f 91       	pop	r19
    1efe:	2f 91       	pop	r18
    1f00:	0f 90       	pop	r0
    1f02:	0f be       	out	0x3f, r0	; 63
    1f04:	0f 90       	pop	r0
    1f06:	1f 90       	pop	r1
    1f08:	18 95       	reti

00001f0a <timer0_init>:

void timer0_init()
{
	TCCR0 &= 0xF8; //关闭定时器0
    1f0a:	83 b7       	in	r24, 0x33	; 51
    1f0c:	88 7f       	andi	r24, 0xF8	; 248
    1f0e:	83 bf       	out	0x33, r24	; 51

	TCNT0 = 0xB2; //定时5ms
    1f10:	82 eb       	ldi	r24, 0xB2	; 178
    1f12:	82 bf       	out	0x32, r24	; 50

	TIMSK &= 0xFC;
    1f14:	87 b7       	in	r24, 0x37	; 55
    1f16:	8c 7f       	andi	r24, 0xFC	; 252
    1f18:	87 bf       	out	0x37, r24	; 55
	TIMSK |= 0x01; //使能定时器0溢出中断
    1f1a:	87 b7       	in	r24, 0x37	; 55
    1f1c:	81 60       	ori	r24, 0x01	; 1
    1f1e:	87 bf       	out	0x37, r24	; 55

	TCCR0 |= 0x07; //开启定时器0 正常模式TOP:0xFF, OC0不输出信号, clk/1024
    1f20:	83 b7       	in	r24, 0x33	; 51
    1f22:	87 60       	ori	r24, 0x07	; 7
    1f24:	83 bf       	out	0x33, r24	; 51
    1f26:	08 95       	ret

00001f28 <timer1_init>:
}

void timer1_init()
{
	TCCR1B |= 0x08; //WGM12位置1
    1f28:	8e b5       	in	r24, 0x2e	; 46
    1f2a:	88 60       	ori	r24, 0x08	; 8
    1f2c:	8e bd       	out	0x2e, r24	; 46
	TCCR1B &= 0xF8; //关闭定时器（清除时钟选择位 CS10 CS11 CS12）
    1f2e:	8e b5       	in	r24, 0x2e	; 46
    1f30:	88 7f       	andi	r24, 0xF8	; 248
    1f32:	8e bd       	out	0x2e, r24	; 46

	OCR1AH = 0x09; //定时10ms
    1f34:	89 e0       	ldi	r24, 0x09	; 9
    1f36:	8b bd       	out	0x2b, r24	; 43
	OCR1AL = 0xC4;
    1f38:	84 ec       	ldi	r24, 0xC4	; 196
    1f3a:	8a bd       	out	0x2a, r24	; 42

	TIMSK |= 0x10; //定时器1 A输出比较中断使能
    1f3c:	87 b7       	in	r24, 0x37	; 55
    1f3e:	80 61       	ori	r24, 0x10	; 16
    1f40:	87 bf       	out	0x37, r24	; 55

	TCCR1B |= 0x03; //开启定时器1 CTC模式 top:OCR1A, OC1A OC1B OC1C DISCONNECT,CLK/64
    1f42:	8e b5       	in	r24, 0x2e	; 46
    1f44:	83 60       	ori	r24, 0x03	; 3
    1f46:	8e bd       	out	0x2e, r24	; 46
    1f48:	08 95       	ret

00001f4a <timer2_init>:
}

void timer2_init()
{
	TCCR2 &= 0xF8; //关闭定时器
    1f4a:	85 b5       	in	r24, 0x25	; 37
    1f4c:	88 7f       	andi	r24, 0xF8	; 248
    1f4e:	85 bd       	out	0x25, r24	; 37

	TCNT2 = 0xB2; //定时5ms
    1f50:	82 eb       	ldi	r24, 0xB2	; 178
    1f52:	84 bd       	out	0x24, r24	; 36

	TIMSK &= 0x3F;
    1f54:	87 b7       	in	r24, 0x37	; 55
    1f56:	8f 73       	andi	r24, 0x3F	; 63
    1f58:	87 bf       	out	0x37, r24	; 55
	TIMSK |= 0x40; //使能定时器2溢出中断
    1f5a:	87 b7       	in	r24, 0x37	; 55
    1f5c:	80 64       	ori	r24, 0x40	; 64
    1f5e:	87 bf       	out	0x37, r24	; 55

	TCCR2 |= 0x05; //开启定时器2 正常模式TOP:0xFF, OC0不输出信号, clk/1024
    1f60:	85 b5       	in	r24, 0x25	; 37
    1f62:	85 60       	ori	r24, 0x05	; 5
    1f64:	85 bd       	out	0x25, r24	; 37
	TCCR2 &= 0xF8;
    1f66:	85 b5       	in	r24, 0x25	; 37
    1f68:	88 7f       	andi	r24, 0xF8	; 248
    1f6a:	85 bd       	out	0x25, r24	; 37
    1f6c:	08 95       	ret

00001f6e <__vector_18>:
uint16_t d_value_buff = 100;

uint16_t time_ctrl_value_buff[4][8][4];

ISR(USART0_RX_vect)
{
    1f6e:	1f 92       	push	r1
    1f70:	0f 92       	push	r0
    1f72:	0f b6       	in	r0, 0x3f	; 63
    1f74:	0f 92       	push	r0
    1f76:	11 24       	eor	r1, r1
    1f78:	8f 93       	push	r24
    1f7a:	9f 93       	push	r25
    1f7c:	ef 93       	push	r30
    1f7e:	ff 93       	push	r31
	usart0_rx_buff[usart0_rx_cnt++] = UDR0;
    1f80:	e0 91 3f 05 	lds	r30, 0x053F	; 0x80053f <usart0_rx_cnt>
    1f84:	81 e0       	ldi	r24, 0x01	; 1
    1f86:	8e 0f       	add	r24, r30
    1f88:	80 93 3f 05 	sts	0x053F, r24	; 0x80053f <usart0_rx_cnt>
    1f8c:	9c b1       	in	r25, 0x0c	; 12
    1f8e:	f0 e0       	ldi	r31, 0x00	; 0
    1f90:	e6 5f       	subi	r30, 0xF6	; 246
    1f92:	f9 4f       	sbci	r31, 0xF9	; 249
    1f94:	90 83       	st	Z, r25

	if (usart0_rx_cnt >= 200)
    1f96:	88 3c       	cpi	r24, 0xC8	; 200
    1f98:	20 f0       	brcs	.+8      	; 0x1fa2 <__vector_18+0x34>
	{
		usart0_rx_lenth = usart0_rx_cnt;
    1f9a:	80 93 40 05 	sts	0x0540, r24	; 0x800540 <usart0_rx_lenth>
		usart0_rx_cnt = 0;
    1f9e:	10 92 3f 05 	sts	0x053F, r1	; 0x80053f <usart0_rx_cnt>
	}
}
    1fa2:	ff 91       	pop	r31
    1fa4:	ef 91       	pop	r30
    1fa6:	9f 91       	pop	r25
    1fa8:	8f 91       	pop	r24
    1faa:	0f 90       	pop	r0
    1fac:	0f be       	out	0x3f, r0	; 63
    1fae:	0f 90       	pop	r0
    1fb0:	1f 90       	pop	r1
    1fb2:	18 95       	reti

00001fb4 <__vector_30>:

ISR(USART1_RX_vect)
{
    1fb4:	1f 92       	push	r1
    1fb6:	0f 92       	push	r0
    1fb8:	0f b6       	in	r0, 0x3f	; 63
    1fba:	0f 92       	push	r0
    1fbc:	11 24       	eor	r1, r1
    1fbe:	8f 93       	push	r24
    1fc0:	9f 93       	push	r25
    1fc2:	ef 93       	push	r30
    1fc4:	ff 93       	push	r31
	usart1_rx_buff[usart1_rx_cnt++] = UDR1;
    1fc6:	e0 91 ac 03 	lds	r30, 0x03AC	; 0x8003ac <usart1_rx_cnt>
    1fca:	81 e0       	ldi	r24, 0x01	; 1
    1fcc:	8e 0f       	add	r24, r30
    1fce:	80 93 ac 03 	sts	0x03AC, r24	; 0x8003ac <usart1_rx_cnt>
    1fd2:	90 91 9c 00 	lds	r25, 0x009C	; 0x80009c <__TEXT_REGION_LENGTH__+0x7e009c>
    1fd6:	f0 e0       	ldi	r31, 0x00	; 0
    1fd8:	e9 58       	subi	r30, 0x89	; 137
    1fda:	fb 4f       	sbci	r31, 0xFB	; 251
    1fdc:	90 83       	st	Z, r25

	if (usart1_rx_cnt >= 200)
    1fde:	88 3c       	cpi	r24, 0xC8	; 200
    1fe0:	20 f0       	brcs	.+8      	; 0x1fea <__vector_30+0x36>
	{
		usart1_rx_lenth = usart1_rx_cnt;
    1fe2:	80 93 ad 03 	sts	0x03AD, r24	; 0x8003ad <usart1_rx_lenth>
		usart1_rx_cnt = 0;
    1fe6:	10 92 ac 03 	sts	0x03AC, r1	; 0x8003ac <usart1_rx_cnt>
	}
}
    1fea:	ff 91       	pop	r31
    1fec:	ef 91       	pop	r30
    1fee:	9f 91       	pop	r25
    1ff0:	8f 91       	pop	r24
    1ff2:	0f 90       	pop	r0
    1ff4:	0f be       	out	0x3f, r0	; 63
    1ff6:	0f 90       	pop	r0
    1ff8:	1f 90       	pop	r1
    1ffa:	18 95       	reti

00001ffc <usart1_deal>:
	uint16_t crc_data = 0;

	crc_data = usart1_rx_buff[usart1_rx_lenth - 1];
	crc_data = (crc_data << 8) + usart1_rx_buff[usart1_rx_lenth - 2];

	if ((usart1_rx_buff[0] != 0xA5) || (usart1_rx_buff[1] != 0x5A))
    1ffc:	80 91 77 04 	lds	r24, 0x0477	; 0x800477 <usart1_rx_buff>
    2000:	85 3a       	cpi	r24, 0xA5	; 165
    2002:	21 f4       	brne	.+8      	; 0x200c <usart1_deal+0x10>
    2004:	80 91 78 04 	lds	r24, 0x0478	; 0x800478 <usart1_rx_buff+0x1>
    2008:	8a 35       	cpi	r24, 0x5A	; 90
    200a:	19 f0       	breq	.+6      	; 0x2012 <usart1_deal+0x16>
	{
		usart1_rx_end = 0;
    200c:	10 92 ae 03 	sts	0x03AE, r1	; 0x8003ae <usart1_rx_end>
		return 0;
    2010:	1a c0       	rjmp	.+52     	; 0x2046 <usart1_deal+0x4a>
	}

	if ((usart1_rx_buff[2] + 5) != usart1_rx_lenth)
    2012:	20 91 ad 03 	lds	r18, 0x03AD	; 0x8003ad <usart1_rx_lenth>
    2016:	30 e0       	ldi	r19, 0x00	; 0
    2018:	80 91 79 04 	lds	r24, 0x0479	; 0x800479 <usart1_rx_buff+0x2>
    201c:	90 e0       	ldi	r25, 0x00	; 0
    201e:	05 96       	adiw	r24, 0x05	; 5
    2020:	28 17       	cp	r18, r24
    2022:	39 07       	cpc	r19, r25
    2024:	19 f0       	breq	.+6      	; 0x202c <usart1_deal+0x30>
	{
		usart1_rx_end = 0;
    2026:	10 92 ae 03 	sts	0x03AE, r1	; 0x8003ae <usart1_rx_end>
		return 0;
    202a:	0d c0       	rjmp	.+26     	; 0x2046 <usart1_deal+0x4a>
// 	{
// 		usart1_rx_end = 0;
// 		return 0;
// 	}

	if (RX1_COMMAND == READ_DATA_ALL)
    202c:	80 91 7a 04 	lds	r24, 0x047A	; 0x80047a <usart1_rx_buff+0x3>
    2030:	81 30       	cpi	r24, 0x01	; 1
    2032:	19 f4       	brne	.+6      	; 0x203a <usart1_deal+0x3e>
	{
		get_data_all();
    2034:	0e 94 68 0a 	call	0x14d0	; 0x14d0 <get_data_all>
    2038:	06 c0       	rjmp	.+12     	; 0x2046 <usart1_deal+0x4a>
	}
	else if (RX1_COMMAND == READ_SETTING_DATA)
    203a:	87 30       	cpi	r24, 0x07	; 7
    203c:	21 f4       	brne	.+8      	; 0x2046 <usart1_deal+0x4a>
	{
		get_setting_data(usart1_rx_buff[4]);
    203e:	80 91 7b 04 	lds	r24, 0x047B	; 0x80047b <usart1_rx_buff+0x4>
    2042:	0e 94 9f 09 	call	0x133e	; 0x133e <get_setting_data>
	}

	return 0;
}
    2046:	80 e0       	ldi	r24, 0x00	; 0
    2048:	90 e0       	ldi	r25, 0x00	; 0
    204a:	08 95       	ret

0000204c <usart0_send_char>:

void usart0_send_char(uint8_t data)
{
	while (!(UCSR0A & (1 << UDRE0)))
    204c:	5d 9b       	sbis	0x0b, 5	; 11
    204e:	fe cf       	rjmp	.-4      	; 0x204c <usart0_send_char>
		;
	UDR0 = data;
    2050:	8c b9       	out	0x0c, r24	; 12
    2052:	08 95       	ret

00002054 <usart0_send_str>:
}

void usart0_send_str(uint8_t *str, uint8_t data_size)
{
    2054:	0f 93       	push	r16
    2056:	1f 93       	push	r17
    2058:	cf 93       	push	r28
    205a:	df 93       	push	r29
	uint8_t i = 0;

	for (i = 0; i < data_size; i++)
    205c:	66 23       	and	r22, r22
    205e:	71 f0       	breq	.+28     	; 0x207c <usart0_send_str+0x28>
    2060:	ec 01       	movw	r28, r24
    2062:	61 50       	subi	r22, 0x01	; 1
    2064:	06 2f       	mov	r16, r22
    2066:	10 e0       	ldi	r17, 0x00	; 0
    2068:	0f 5f       	subi	r16, 0xFF	; 255
    206a:	1f 4f       	sbci	r17, 0xFF	; 255
    206c:	08 0f       	add	r16, r24
    206e:	19 1f       	adc	r17, r25
	{
		usart0_send_char(*str++);
    2070:	89 91       	ld	r24, Y+
    2072:	0e 94 26 10 	call	0x204c	; 0x204c <usart0_send_char>

void usart0_send_str(uint8_t *str, uint8_t data_size)
{
	uint8_t i = 0;

	for (i = 0; i < data_size; i++)
    2076:	c0 17       	cp	r28, r16
    2078:	d1 07       	cpc	r29, r17
    207a:	d1 f7       	brne	.-12     	; 0x2070 <usart0_send_str+0x1c>
	{
		usart0_send_char(*str++);
	}
}
    207c:	df 91       	pop	r29
    207e:	cf 91       	pop	r28
    2080:	1f 91       	pop	r17
    2082:	0f 91       	pop	r16
    2084:	08 95       	ret

00002086 <usart1_send_char>:

void usart1_send_char(uint8_t data)
{
	while (!(UCSR1A & (1 << UDRE1)))
    2086:	eb e9       	ldi	r30, 0x9B	; 155
    2088:	f0 e0       	ldi	r31, 0x00	; 0
    208a:	90 81       	ld	r25, Z
    208c:	95 ff       	sbrs	r25, 5
    208e:	fd cf       	rjmp	.-6      	; 0x208a <usart1_send_char+0x4>
		; //等待发送寄存器为空
	UDR1 = data;
    2090:	80 93 9c 00 	sts	0x009C, r24	; 0x80009c <__TEXT_REGION_LENGTH__+0x7e009c>
    2094:	08 95       	ret

00002096 <usart1_send_str>:
}

void usart1_send_str(uint8_t *str, uint8_t data_size)
{
    2096:	0f 93       	push	r16
    2098:	1f 93       	push	r17
    209a:	cf 93       	push	r28
    209c:	df 93       	push	r29
	uint8_t i = 0;

	for (i = 0; i < data_size; i++)
    209e:	66 23       	and	r22, r22
    20a0:	71 f0       	breq	.+28     	; 0x20be <usart1_send_str+0x28>
    20a2:	ec 01       	movw	r28, r24
    20a4:	61 50       	subi	r22, 0x01	; 1
    20a6:	06 2f       	mov	r16, r22
    20a8:	10 e0       	ldi	r17, 0x00	; 0
    20aa:	0f 5f       	subi	r16, 0xFF	; 255
    20ac:	1f 4f       	sbci	r17, 0xFF	; 255
    20ae:	08 0f       	add	r16, r24
    20b0:	19 1f       	adc	r17, r25
	{
		usart1_send_char(*str++);
    20b2:	89 91       	ld	r24, Y+
    20b4:	0e 94 43 10 	call	0x2086	; 0x2086 <usart1_send_char>

void usart1_send_str(uint8_t *str, uint8_t data_size)
{
	uint8_t i = 0;

	for (i = 0; i < data_size; i++)
    20b8:	c0 17       	cp	r28, r16
    20ba:	d1 07       	cpc	r29, r17
    20bc:	d1 f7       	brne	.-12     	; 0x20b2 <usart1_send_str+0x1c>
	{
		usart1_send_char(*str++);
	}
}
    20be:	df 91       	pop	r29
    20c0:	cf 91       	pop	r28
    20c2:	1f 91       	pop	r17
    20c4:	0f 91       	pop	r16
    20c6:	08 95       	ret

000020c8 <usart2_send_char>:

void usart2_send_char(uint8_t data)
{
	usart2_buff = data; //把数据保存到发送数据缓冲区
    20c8:	80 93 e3 02 	sts	0x02E3, r24	; 0x8002e3 <usart2_buff>

	usart2_sta = USART2_IN_TX; //状态更改为发送状态
    20cc:	10 92 d2 07 	sts	0x07D2, r1	; 0x8007d2 <usart2_sta>

	USART2_TX_PIN_RESET; //给起始位
    20d0:	af 98       	cbi	0x15, 7	; 21

	TCNT3 = 0x0000; //定时器3计数器清零
    20d2:	10 92 89 00 	sts	0x0089, r1	; 0x800089 <__TEXT_REGION_LENGTH__+0x7e0089>
    20d6:	10 92 88 00 	sts	0x0088, r1	; 0x800088 <__TEXT_REGION_LENGTH__+0x7e0088>
	TCCR3B |= 0x01; //启动定时器
    20da:	ea e8       	ldi	r30, 0x8A	; 138
    20dc:	f0 e0       	ldi	r31, 0x00	; 0
    20de:	80 81       	ld	r24, Z
    20e0:	81 60       	ori	r24, 0x01	; 1
    20e2:	80 83       	st	Z, r24
    20e4:	08 95       	ret

000020e6 <usart2_send_str>:
}

void usart2_send_str(uint8_t *str, uint8_t data_size)
{
    20e6:	0f 93       	push	r16
    20e8:	1f 93       	push	r17
    20ea:	cf 93       	push	r28
    20ec:	df 93       	push	r29
	uint8_t i = 0;

	for (i = 0; i < data_size; i++)
    20ee:	66 23       	and	r22, r22
    20f0:	99 f0       	breq	.+38     	; 0x2118 <usart2_send_str+0x32>
    20f2:	8c 01       	movw	r16, r24
    20f4:	ec 01       	movw	r28, r24
    20f6:	61 50       	subi	r22, 0x01	; 1
    20f8:	26 2f       	mov	r18, r22
    20fa:	30 e0       	ldi	r19, 0x00	; 0
    20fc:	2f 5f       	subi	r18, 0xFF	; 255
    20fe:	3f 4f       	sbci	r19, 0xFF	; 255
    2100:	02 0f       	add	r16, r18
    2102:	13 1f       	adc	r17, r19
	{
		usart2_send_char(*str++);
    2104:	89 91       	ld	r24, Y+
    2106:	0e 94 64 10 	call	0x20c8	; 0x20c8 <usart2_send_char>
		//		_delay_us(1200);S
		while (usart2_sta != USART2_TX_END)
    210a:	80 91 d2 07 	lds	r24, 0x07D2	; 0x8007d2 <usart2_sta>
    210e:	83 30       	cpi	r24, 0x03	; 3
    2110:	f1 f7       	brne	.-4      	; 0x210e <usart2_send_str+0x28>

void usart2_send_str(uint8_t *str, uint8_t data_size)
{
	uint8_t i = 0;

	for (i = 0; i < data_size; i++)
    2112:	c0 17       	cp	r28, r16
    2114:	d1 07       	cpc	r29, r17
    2116:	b1 f7       	brne	.-20     	; 0x2104 <usart2_send_str+0x1e>
		usart2_send_char(*str++);
		//		_delay_us(1200);S
		while (usart2_sta != USART2_TX_END)
			;
	}
}
    2118:	df 91       	pop	r29
    211a:	cf 91       	pop	r28
    211c:	1f 91       	pop	r17
    211e:	0f 91       	pop	r16
    2120:	08 95       	ret

00002122 <crc_check>:

uint16_t crc_check(uint8_t *p, uint8_t data_size)
{
    2122:	dc 01       	movw	r26, r24
	uint16_t crc = 0xFFFF;
	uint8_t i, j;

	for (j = 0; j < (data_size - 5); j++)
    2124:	70 e0       	ldi	r23, 0x00	; 0
    2126:	65 50       	subi	r22, 0x05	; 5
    2128:	71 09       	sbc	r23, r1
    212a:	16 16       	cp	r1, r22
    212c:	17 06       	cpc	r1, r23
    212e:	ec f4       	brge	.+58     	; 0x216a <crc_check+0x48>
    2130:	30 e0       	ldi	r19, 0x00	; 0
    2132:	8f ef       	ldi	r24, 0xFF	; 255
    2134:	9f ef       	ldi	r25, 0xFF	; 255
	{
		crc = crc ^ *(p + j + 3);
    2136:	fd 01       	movw	r30, r26
    2138:	e3 0f       	add	r30, r19
    213a:	f1 1d       	adc	r31, r1
    213c:	23 81       	ldd	r18, Z+3	; 0x03
    213e:	82 27       	eor	r24, r18
    2140:	28 e0       	ldi	r18, 0x08	; 8
		for (i = 0; i < 8; i++)
		{
			if ((crc & 0x0001) > 0)
    2142:	80 ff       	sbrs	r24, 0
    2144:	07 c0       	rjmp	.+14     	; 0x2154 <crc_check+0x32>
			{
				crc >>= 1;
    2146:	96 95       	lsr	r25
    2148:	87 95       	ror	r24
				crc ^= 0xA001;
    214a:	41 e0       	ldi	r20, 0x01	; 1
    214c:	84 27       	eor	r24, r20
    214e:	40 ea       	ldi	r20, 0xA0	; 160
    2150:	94 27       	eor	r25, r20
    2152:	02 c0       	rjmp	.+4      	; 0x2158 <crc_check+0x36>
			}
			else
				crc >>= 1;
    2154:	96 95       	lsr	r25
    2156:	87 95       	ror	r24
    2158:	21 50       	subi	r18, 0x01	; 1
	uint8_t i, j;

	for (j = 0; j < (data_size - 5); j++)
	{
		crc = crc ^ *(p + j + 3);
		for (i = 0; i < 8; i++)
    215a:	99 f7       	brne	.-26     	; 0x2142 <crc_check+0x20>
uint16_t crc_check(uint8_t *p, uint8_t data_size)
{
	uint16_t crc = 0xFFFF;
	uint8_t i, j;

	for (j = 0; j < (data_size - 5); j++)
    215c:	3f 5f       	subi	r19, 0xFF	; 255
    215e:	43 2f       	mov	r20, r19
    2160:	50 e0       	ldi	r21, 0x00	; 0
    2162:	46 17       	cp	r20, r22
    2164:	57 07       	cpc	r21, r23
    2166:	3c f3       	brlt	.-50     	; 0x2136 <crc_check+0x14>
    2168:	08 95       	ret
	}
}

uint16_t crc_check(uint8_t *p, uint8_t data_size)
{
	uint16_t crc = 0xFFFF;
    216a:	8f ef       	ldi	r24, 0xFF	; 255
    216c:	9f ef       	ldi	r25, 0xFF	; 255
				crc >>= 1;
		}
	}

	return crc;
}
    216e:	08 95       	ret

00002170 <usart0_deal>:
		usart1_rx_cnt = 0;
	}
}

int usart0_deal(void)
{
    2170:	cf 93       	push	r28
    2172:	df 93       	push	r29
	variable_addr = (variable_addr << 8) | usart0_rx_buff[5]; //读取变量地址

	variable = usart0_rx_buff[usart0_rx_lenth - 4];
	variable = (variable << 8) | usart0_rx_buff[usart0_rx_lenth - 3]; //读取变量值

	if ((usart0_rx_buff[0] != 0xA5) || (usart0_rx_buff[1] != 0x5A)) //判断数据头是否正确
    2174:	80 91 0a 06 	lds	r24, 0x060A	; 0x80060a <usart0_rx_buff>
    2178:	85 3a       	cpi	r24, 0xA5	; 165
    217a:	21 f4       	brne	.+8      	; 0x2184 <usart0_deal+0x14>
    217c:	80 91 0b 06 	lds	r24, 0x060B	; 0x80060b <usart0_rx_buff+0x1>
    2180:	8a 35       	cpi	r24, 0x5A	; 90
    2182:	19 f0       	breq	.+6      	; 0x218a <usart0_deal+0x1a>
	{
		usart0_rx_end = 0;
    2184:	10 92 41 05 	sts	0x0541, r1	; 0x800541 <usart0_rx_end>
		return 0;
    2188:	1b c2       	rjmp	.+1078   	; 0x25c0 <usart0_deal+0x450>
	uint16_t crc_data = 0;

	uint16_t variable_addr = 0;
	uint16_t variable = 0;

	crc_data = usart0_rx_buff[usart0_rx_lenth - 1];
    218a:	60 91 40 05 	lds	r22, 0x0540	; 0x800540 <usart0_rx_lenth>
    218e:	c6 2f       	mov	r28, r22
    2190:	d0 e0       	ldi	r29, 0x00	; 0
	{
		usart0_rx_end = 0;
		return 0;
	}

	if ((usart0_rx_buff[2] + 5) != usart0_rx_lenth) //判断数据长度是否正确
    2192:	80 91 0c 06 	lds	r24, 0x060C	; 0x80060c <usart0_rx_buff+0x2>
    2196:	90 e0       	ldi	r25, 0x00	; 0
    2198:	05 96       	adiw	r24, 0x05	; 5
    219a:	c8 17       	cp	r28, r24
    219c:	d9 07       	cpc	r29, r25
    219e:	19 f0       	breq	.+6      	; 0x21a6 <usart0_deal+0x36>
	{
		usart0_rx_end = 0;
    21a0:	10 92 41 05 	sts	0x0541, r1	; 0x800541 <usart0_rx_end>
		return 0;
    21a4:	0d c2       	rjmp	.+1050   	; 0x25c0 <usart0_deal+0x450>
	}

	if (crc_data != crc_check(usart0_rx_buff, usart0_rx_lenth)) //判断crc校验是否正确
    21a6:	8a e0       	ldi	r24, 0x0A	; 10
    21a8:	96 e0       	ldi	r25, 0x06	; 6
    21aa:	0e 94 91 10 	call	0x2122	; 0x2122 <crc_check>
	uint16_t crc_data = 0;

	uint16_t variable_addr = 0;
	uint16_t variable = 0;

	crc_data = usart0_rx_buff[usart0_rx_lenth - 1];
    21ae:	ae 01       	movw	r20, r28
    21b0:	46 5f       	subi	r20, 0xF6	; 246
    21b2:	59 4f       	sbci	r21, 0xF9	; 249
    21b4:	fa 01       	movw	r30, r20
    21b6:	31 97       	sbiw	r30, 0x01	; 1
	crc_data = (crc_data << 8) + usart0_rx_buff[usart0_rx_lenth - 2]; //读取接收数据后两个字节的校验值
    21b8:	20 81       	ld	r18, Z
    21ba:	30 e0       	ldi	r19, 0x00	; 0
    21bc:	32 2f       	mov	r19, r18
    21be:	22 27       	eor	r18, r18
    21c0:	31 97       	sbiw	r30, 0x01	; 1
	{
		usart0_rx_end = 0;
		return 0;
	}

	if (crc_data != crc_check(usart0_rx_buff, usart0_rx_lenth)) //判断crc校验是否正确
    21c2:	40 81       	ld	r20, Z
    21c4:	24 0f       	add	r18, r20
    21c6:	31 1d       	adc	r19, r1
    21c8:	28 17       	cp	r18, r24
    21ca:	39 07       	cpc	r19, r25
    21cc:	19 f0       	breq	.+6      	; 0x21d4 <usart0_deal+0x64>
	{
		usart0_rx_end = 0;
    21ce:	10 92 41 05 	sts	0x0541, r1	; 0x800541 <usart0_rx_end>
		return 0;
    21d2:	f6 c1       	rjmp	.+1004   	; 0x25c0 <usart0_deal+0x450>
	}

	if (RX0_COMMAND == ACCESS_VARIABLE)
    21d4:	80 91 0d 06 	lds	r24, 0x060D	; 0x80060d <usart0_rx_buff+0x3>
    21d8:	83 38       	cpi	r24, 0x83	; 131
    21da:	09 f0       	breq	.+2      	; 0x21de <usart0_deal+0x6e>
    21dc:	f1 c1       	rjmp	.+994    	; 0x25c0 <usart0_deal+0x450>
	crc_data = (crc_data << 8) + usart0_rx_buff[usart0_rx_lenth - 2]; //读取接收数据后两个字节的校验值

	variable_addr = usart0_rx_buff[4];
	variable_addr = (variable_addr << 8) | usart0_rx_buff[5]; //读取变量地址

	variable = usart0_rx_buff[usart0_rx_lenth - 4];
    21de:	aa e0       	ldi	r26, 0x0A	; 10
    21e0:	b6 e0       	ldi	r27, 0x06	; 6
    21e2:	c6 5f       	subi	r28, 0xF6	; 246
    21e4:	d9 4f       	sbci	r29, 0xF9	; 249
    21e6:	fe 01       	movw	r30, r28
    21e8:	34 97       	sbiw	r30, 0x04	; 4
	variable = (variable << 8) | usart0_rx_buff[usart0_rx_lenth - 3]; //读取变量值
    21ea:	80 81       	ld	r24, Z
    21ec:	90 e0       	ldi	r25, 0x00	; 0
    21ee:	98 2f       	mov	r25, r24
    21f0:	88 27       	eor	r24, r24
    21f2:	23 97       	sbiw	r28, 0x03	; 3
    21f4:	28 81       	ld	r18, Y
    21f6:	82 2b       	or	r24, r18

	crc_data = usart0_rx_buff[usart0_rx_lenth - 1];
	crc_data = (crc_data << 8) + usart0_rx_buff[usart0_rx_lenth - 2]; //读取接收数据后两个字节的校验值

	variable_addr = usart0_rx_buff[4];
	variable_addr = (variable_addr << 8) | usart0_rx_buff[5]; //读取变量地址
    21f8:	14 96       	adiw	r26, 0x04	; 4
    21fa:	ec 91       	ld	r30, X
    21fc:	14 97       	sbiw	r26, 0x04	; 4
    21fe:	f0 e0       	ldi	r31, 0x00	; 0
    2200:	fe 2f       	mov	r31, r30
    2202:	ee 27       	eor	r30, r30
		return 0;
	}

	if (RX0_COMMAND == ACCESS_VARIABLE)
	{
		switch (variable_addr)
    2204:	15 96       	adiw	r26, 0x05	; 5
    2206:	2c 91       	ld	r18, X
    2208:	e2 2b       	or	r30, r18
    220a:	e0 54       	subi	r30, 0x40	; 64
    220c:	f1 40       	sbci	r31, 0x01	; 1
    220e:	e0 3c       	cpi	r30, 0xC0	; 192
    2210:	f1 05       	cpc	r31, r1
    2212:	08 f0       	brcs	.+2      	; 0x2216 <usart0_deal+0xa6>
    2214:	d5 c1       	rjmp	.+938    	; 0x25c0 <usart0_deal+0x450>
    2216:	e9 59       	subi	r30, 0x99	; 153
    2218:	ff 4f       	sbci	r31, 0xFF	; 255
    221a:	0c 94 55 13 	jmp	0x26aa	; 0x26aa <__tablejump2__>
		{
		case KEY_ADDR:
			key_action(variable);
    221e:	0e 94 6e 0c 	call	0x18dc	; 0x18dc <key_action>
			break; //如果变量地址为按键变量地址  执行按键动作
    2222:	ce c1       	rjmp	.+924    	; 0x25c0 <usart0_deal+0x450>
		case MASTER_SWITCH:
			switch_all_sensor(variable);
    2224:	0e 94 43 02 	call	0x486	; 0x486 <switch_all_sensor>
			break;
    2228:	cb c1       	rjmp	.+918    	; 0x25c0 <usart0_deal+0x450>
		case SINGLE_SET_FOLLOW:
			follow_sta_buff[set_num] = variable;
    222a:	e0 91 99 02 	lds	r30, 0x0299	; 0x800299 <set_num>
    222e:	f0 e0       	ldi	r31, 0x00	; 0
    2230:	ea 5e       	subi	r30, 0xEA	; 234
    2232:	fd 4f       	sbci	r31, 0xFD	; 253
    2234:	80 83       	st	Z, r24
			break;
    2236:	c4 c1       	rjmp	.+904    	; 0x25c0 <usart0_deal+0x450>
		case SINGLE_SET_SENSOR_TYPE:
			sensor_type_buff[set_num] = variable;
    2238:	e0 91 99 02 	lds	r30, 0x0299	; 0x800299 <set_num>
    223c:	f0 e0       	ldi	r31, 0x00	; 0
    223e:	ee 0f       	add	r30, r30
    2240:	ff 1f       	adc	r31, r31
    2242:	e1 55       	subi	r30, 0x51	; 81
    2244:	fd 4f       	sbci	r31, 0xFD	; 253
    2246:	91 83       	std	Z+1, r25	; 0x01
    2248:	80 83       	st	Z, r24
			send_variables(SINGLE_SENSORTYPE_ADDR,
    224a:	86 5b       	subi	r24, 0xB6	; 182
    224c:	9f 4f       	sbci	r25, 0xFF	; 255
    224e:	60 e0       	ldi	r22, 0x00	; 0
    2250:	78 2f       	mov	r23, r24
    2252:	80 e9       	ldi	r24, 0x90	; 144
    2254:	92 e0       	ldi	r25, 0x02	; 2
    2256:	0e 94 b4 03 	call	0x768	; 0x768 <send_variables>
						   TYPE_J + (sensor_type_buff[set_num] * TYPE_K));
			break;
    225a:	b2 c1       	rjmp	.+868    	; 0x25c0 <usart0_deal+0x450>
		case SINGLE_SET_SWITCH:
			switch_sensor_buff[set_num] = variable;
    225c:	e0 91 99 02 	lds	r30, 0x0299	; 0x800299 <set_num>
    2260:	f0 e0       	ldi	r31, 0x00	; 0
    2262:	ee 0f       	add	r30, r30
    2264:	ff 1f       	adc	r31, r31
    2266:	e9 53       	subi	r30, 0x39	; 57
    2268:	fd 4f       	sbci	r31, 0xFD	; 253
    226a:	91 83       	std	Z+1, r25	; 0x01
    226c:	80 83       	st	Z, r24
			break;
    226e:	a8 c1       	rjmp	.+848    	; 0x25c0 <usart0_deal+0x450>
		case SINGLE_SET_TEMP:
			set_temp_buff[set_num] = variable;
    2270:	e0 91 99 02 	lds	r30, 0x0299	; 0x800299 <set_num>
    2274:	f0 e0       	ldi	r31, 0x00	; 0
    2276:	ee 0f       	add	r30, r30
    2278:	ff 1f       	adc	r31, r31
    227a:	e3 52       	subi	r30, 0x23	; 35
    227c:	fe 4f       	sbci	r31, 0xFE	; 254
    227e:	91 83       	std	Z+1, r25	; 0x01
    2280:	80 83       	st	Z, r24
			break;
    2282:	9e c1       	rjmp	.+828    	; 0x25c0 <usart0_deal+0x450>
		case SINGLE_SET_NAME:
			get_set_name();
    2284:	0e 94 8c 02 	call	0x518	; 0x518 <get_set_name>
			break;
    2288:	9b c1       	rjmp	.+822    	; 0x25c0 <usart0_deal+0x450>
		case ALL_SET_TEMP:
			all_temp_buff = variable;
    228a:	90 93 f8 01 	sts	0x01F8, r25	; 0x8001f8 <all_temp_buff+0x1>
    228e:	80 93 f7 01 	sts	0x01F7, r24	; 0x8001f7 <all_temp_buff>
			break;
    2292:	96 c1       	rjmp	.+812    	; 0x25c0 <usart0_deal+0x450>
		case SET_PREHEAT_TIME:
			preheat_time_buff = variable;
    2294:	90 93 f6 01 	sts	0x01F6, r25	; 0x8001f6 <preheat_time_buff+0x1>
    2298:	80 93 f5 01 	sts	0x01F5, r24	; 0x8001f5 <preheat_time_buff>
			break;
    229c:	91 c1       	rjmp	.+802    	; 0x25c0 <usart0_deal+0x450>
		case ALL_SET_SENSOR_TYPE:
			all_sensor_type_buff = variable;
    229e:	90 93 e2 02 	sts	0x02E2, r25	; 0x8002e2 <all_sensor_type_buff+0x1>
    22a2:	80 93 e1 02 	sts	0x02E1, r24	; 0x8002e1 <all_sensor_type_buff>
			send_variables(ALL_SENSOR_TYPE_ADDR,
    22a6:	86 5b       	subi	r24, 0xB6	; 182
    22a8:	9f 4f       	sbci	r25, 0xFF	; 255
    22aa:	60 e0       	ldi	r22, 0x00	; 0
    22ac:	78 2f       	mov	r23, r24
    22ae:	84 e9       	ldi	r24, 0x94	; 148
    22b0:	92 e0       	ldi	r25, 0x02	; 2
    22b2:	0e 94 b4 03 	call	0x768	; 0x768 <send_variables>
						   TYPE_J + (all_sensor_type_buff * TYPE_K));
			break;
    22b6:	84 c1       	rjmp	.+776    	; 0x25c0 <usart0_deal+0x450>
		case SET_TEMP_UNIT:
			temp_unit_buff = variable;
    22b8:	90 93 e0 02 	sts	0x02E0, r25	; 0x8002e0 <temp_unit_buff+0x1>
    22bc:	80 93 df 02 	sts	0x02DF, r24	; 0x8002df <temp_unit_buff>
			send_variables(TEMP_UINT_ADDR,
    22c0:	20 e0       	ldi	r18, 0x00	; 0
    22c2:	33 e0       	ldi	r19, 0x03	; 3
    22c4:	82 9f       	mul	r24, r18
    22c6:	b0 01       	movw	r22, r0
    22c8:	83 9f       	mul	r24, r19
    22ca:	70 0d       	add	r23, r0
    22cc:	92 9f       	mul	r25, r18
    22ce:	70 0d       	add	r23, r0
    22d0:	11 24       	eor	r1, r1
    22d2:	7d 5b       	subi	r23, 0xBD	; 189
    22d4:	8c e3       	ldi	r24, 0x3C	; 60
    22d6:	92 e0       	ldi	r25, 0x02	; 2
    22d8:	0e 94 b4 03 	call	0x768	; 0x768 <send_variables>
						   (CELSIUS + temp_unit_buff * FAHRENHEIT));
			break;
    22dc:	71 c1       	rjmp	.+738    	; 0x25c0 <usart0_deal+0x450>
		case PID_CHANNEL:
			update_pid_page(variable);
    22de:	0e 94 71 04 	call	0x8e2	; 0x8e2 <update_pid_page>
			break;
    22e2:	6e c1       	rjmp	.+732    	; 0x25c0 <usart0_deal+0x450>
		case PID_P:
			p_value_buff = variable;
    22e4:	90 93 dc 01 	sts	0x01DC, r25	; 0x8001dc <p_value_buff+0x1>
    22e8:	80 93 db 01 	sts	0x01DB, r24	; 0x8001db <p_value_buff>
			break;
    22ec:	69 c1       	rjmp	.+722    	; 0x25c0 <usart0_deal+0x450>
		case PID_I:
			i_value_buff = variable;
    22ee:	90 93 da 01 	sts	0x01DA, r25	; 0x8001da <i_value_buff+0x1>
    22f2:	80 93 d9 01 	sts	0x01D9, r24	; 0x8001d9 <i_value_buff>
			break;
    22f6:	64 c1       	rjmp	.+712    	; 0x25c0 <usart0_deal+0x450>
		case PID_D:
			d_value_buff = variable;
    22f8:	90 93 d8 01 	sts	0x01D8, r25	; 0x8001d8 <d_value_buff+0x1>
    22fc:	80 93 d7 01 	sts	0x01D7, r24	; 0x8001d7 <d_value_buff>
			break;
    2300:	5f c1       	rjmp	.+702    	; 0x25c0 <usart0_deal+0x450>

		case IQR1_T1:
			time_ctrl_value_buff[module_num - 1][0][0] = variable;
    2302:	e0 91 40 01 	lds	r30, 0x0140	; 0x800140 <module_num>
    2306:	20 e4       	ldi	r18, 0x40	; 64
    2308:	e2 9f       	mul	r30, r18
    230a:	f0 01       	movw	r30, r0
    230c:	11 24       	eor	r1, r1
    230e:	ed 56       	subi	r30, 0x6D	; 109
    2310:	f8 4f       	sbci	r31, 0xF8	; 248
    2312:	91 83       	std	Z+1, r25	; 0x01
    2314:	80 83       	st	Z, r24
			break;
    2316:	54 c1       	rjmp	.+680    	; 0x25c0 <usart0_deal+0x450>
		case IQR1_T2:
			time_ctrl_value_buff[module_num - 1][0][1] = variable;
    2318:	e0 91 40 01 	lds	r30, 0x0140	; 0x800140 <module_num>
    231c:	20 e4       	ldi	r18, 0x40	; 64
    231e:	e2 9f       	mul	r30, r18
    2320:	f0 01       	movw	r30, r0
    2322:	11 24       	eor	r1, r1
    2324:	ed 56       	subi	r30, 0x6D	; 109
    2326:	f8 4f       	sbci	r31, 0xF8	; 248
    2328:	93 83       	std	Z+3, r25	; 0x03
    232a:	82 83       	std	Z+2, r24	; 0x02
			break;
    232c:	49 c1       	rjmp	.+658    	; 0x25c0 <usart0_deal+0x450>
		case IQR1_T3:
			time_ctrl_value_buff[module_num - 1][0][2] = variable;
    232e:	e0 91 40 01 	lds	r30, 0x0140	; 0x800140 <module_num>
    2332:	20 e4       	ldi	r18, 0x40	; 64
    2334:	e2 9f       	mul	r30, r18
    2336:	f0 01       	movw	r30, r0
    2338:	11 24       	eor	r1, r1
    233a:	ed 56       	subi	r30, 0x6D	; 109
    233c:	f8 4f       	sbci	r31, 0xF8	; 248
    233e:	95 83       	std	Z+5, r25	; 0x05
    2340:	84 83       	std	Z+4, r24	; 0x04
			break;
    2342:	3e c1       	rjmp	.+636    	; 0x25c0 <usart0_deal+0x450>
		case IQR1_T4:
			time_ctrl_value_buff[module_num - 1][0][3] = variable;
    2344:	e0 91 40 01 	lds	r30, 0x0140	; 0x800140 <module_num>
    2348:	20 e4       	ldi	r18, 0x40	; 64
    234a:	e2 9f       	mul	r30, r18
    234c:	f0 01       	movw	r30, r0
    234e:	11 24       	eor	r1, r1
    2350:	ed 56       	subi	r30, 0x6D	; 109
    2352:	f8 4f       	sbci	r31, 0xF8	; 248
    2354:	97 83       	std	Z+7, r25	; 0x07
    2356:	86 83       	std	Z+6, r24	; 0x06
			break;
    2358:	33 c1       	rjmp	.+614    	; 0x25c0 <usart0_deal+0x450>

		case IQR2_T1:
			time_ctrl_value_buff[module_num - 1][1][0] = variable;
    235a:	e0 91 40 01 	lds	r30, 0x0140	; 0x800140 <module_num>
    235e:	20 e4       	ldi	r18, 0x40	; 64
    2360:	e2 9f       	mul	r30, r18
    2362:	f0 01       	movw	r30, r0
    2364:	11 24       	eor	r1, r1
    2366:	ed 56       	subi	r30, 0x6D	; 109
    2368:	f8 4f       	sbci	r31, 0xF8	; 248
    236a:	91 87       	std	Z+9, r25	; 0x09
    236c:	80 87       	std	Z+8, r24	; 0x08
			break;
    236e:	28 c1       	rjmp	.+592    	; 0x25c0 <usart0_deal+0x450>
		case IQR2_T2:
			time_ctrl_value_buff[module_num - 1][1][1] = variable;
    2370:	e0 91 40 01 	lds	r30, 0x0140	; 0x800140 <module_num>
    2374:	20 e4       	ldi	r18, 0x40	; 64
    2376:	e2 9f       	mul	r30, r18
    2378:	f0 01       	movw	r30, r0
    237a:	11 24       	eor	r1, r1
    237c:	ed 56       	subi	r30, 0x6D	; 109
    237e:	f8 4f       	sbci	r31, 0xF8	; 248
    2380:	93 87       	std	Z+11, r25	; 0x0b
    2382:	82 87       	std	Z+10, r24	; 0x0a
			break;
    2384:	1d c1       	rjmp	.+570    	; 0x25c0 <usart0_deal+0x450>
		case IQR2_T3:
			time_ctrl_value_buff[module_num - 1][1][2] = variable;
    2386:	e0 91 40 01 	lds	r30, 0x0140	; 0x800140 <module_num>
    238a:	20 e4       	ldi	r18, 0x40	; 64
    238c:	e2 9f       	mul	r30, r18
    238e:	f0 01       	movw	r30, r0
    2390:	11 24       	eor	r1, r1
    2392:	ed 56       	subi	r30, 0x6D	; 109
    2394:	f8 4f       	sbci	r31, 0xF8	; 248
    2396:	95 87       	std	Z+13, r25	; 0x0d
    2398:	84 87       	std	Z+12, r24	; 0x0c
			break;
    239a:	12 c1       	rjmp	.+548    	; 0x25c0 <usart0_deal+0x450>
		case IQR2_T4:
			time_ctrl_value_buff[module_num - 1][1][3] = variable;
    239c:	e0 91 40 01 	lds	r30, 0x0140	; 0x800140 <module_num>
    23a0:	20 e4       	ldi	r18, 0x40	; 64
    23a2:	e2 9f       	mul	r30, r18
    23a4:	f0 01       	movw	r30, r0
    23a6:	11 24       	eor	r1, r1
    23a8:	ed 56       	subi	r30, 0x6D	; 109
    23aa:	f8 4f       	sbci	r31, 0xF8	; 248
    23ac:	97 87       	std	Z+15, r25	; 0x0f
    23ae:	86 87       	std	Z+14, r24	; 0x0e
			break;
    23b0:	07 c1       	rjmp	.+526    	; 0x25c0 <usart0_deal+0x450>

		case IQR3_T1:
			time_ctrl_value_buff[module_num - 1][2][0] = variable;
    23b2:	e0 91 40 01 	lds	r30, 0x0140	; 0x800140 <module_num>
    23b6:	20 e4       	ldi	r18, 0x40	; 64
    23b8:	e2 9f       	mul	r30, r18
    23ba:	f0 01       	movw	r30, r0
    23bc:	11 24       	eor	r1, r1
    23be:	ed 56       	subi	r30, 0x6D	; 109
    23c0:	f8 4f       	sbci	r31, 0xF8	; 248
    23c2:	91 8b       	std	Z+17, r25	; 0x11
    23c4:	80 8b       	std	Z+16, r24	; 0x10
			break;
    23c6:	fc c0       	rjmp	.+504    	; 0x25c0 <usart0_deal+0x450>
		case IQR3_T2:
			time_ctrl_value_buff[module_num - 1][2][1] = variable;
    23c8:	e0 91 40 01 	lds	r30, 0x0140	; 0x800140 <module_num>
    23cc:	20 e4       	ldi	r18, 0x40	; 64
    23ce:	e2 9f       	mul	r30, r18
    23d0:	f0 01       	movw	r30, r0
    23d2:	11 24       	eor	r1, r1
    23d4:	ed 56       	subi	r30, 0x6D	; 109
    23d6:	f8 4f       	sbci	r31, 0xF8	; 248
    23d8:	93 8b       	std	Z+19, r25	; 0x13
    23da:	82 8b       	std	Z+18, r24	; 0x12
			break;
    23dc:	f1 c0       	rjmp	.+482    	; 0x25c0 <usart0_deal+0x450>
		case IQR3_T3:
			time_ctrl_value_buff[module_num - 1][2][2] = variable;
    23de:	e0 91 40 01 	lds	r30, 0x0140	; 0x800140 <module_num>
    23e2:	20 e4       	ldi	r18, 0x40	; 64
    23e4:	e2 9f       	mul	r30, r18
    23e6:	f0 01       	movw	r30, r0
    23e8:	11 24       	eor	r1, r1
    23ea:	ed 56       	subi	r30, 0x6D	; 109
    23ec:	f8 4f       	sbci	r31, 0xF8	; 248
    23ee:	95 8b       	std	Z+21, r25	; 0x15
    23f0:	84 8b       	std	Z+20, r24	; 0x14
			break;
    23f2:	e6 c0       	rjmp	.+460    	; 0x25c0 <usart0_deal+0x450>
		case IQR3_T4:
			time_ctrl_value_buff[module_num - 1][2][3] = variable;
    23f4:	e0 91 40 01 	lds	r30, 0x0140	; 0x800140 <module_num>
    23f8:	20 e4       	ldi	r18, 0x40	; 64
    23fa:	e2 9f       	mul	r30, r18
    23fc:	f0 01       	movw	r30, r0
    23fe:	11 24       	eor	r1, r1
    2400:	ed 56       	subi	r30, 0x6D	; 109
    2402:	f8 4f       	sbci	r31, 0xF8	; 248
    2404:	97 8b       	std	Z+23, r25	; 0x17
    2406:	86 8b       	std	Z+22, r24	; 0x16
			break;
    2408:	db c0       	rjmp	.+438    	; 0x25c0 <usart0_deal+0x450>

		case IQR4_T1:
			time_ctrl_value_buff[module_num - 1][3][0] = variable;
    240a:	e0 91 40 01 	lds	r30, 0x0140	; 0x800140 <module_num>
    240e:	20 e4       	ldi	r18, 0x40	; 64
    2410:	e2 9f       	mul	r30, r18
    2412:	f0 01       	movw	r30, r0
    2414:	11 24       	eor	r1, r1
    2416:	ed 56       	subi	r30, 0x6D	; 109
    2418:	f8 4f       	sbci	r31, 0xF8	; 248
    241a:	91 8f       	std	Z+25, r25	; 0x19
    241c:	80 8f       	std	Z+24, r24	; 0x18
			break;
    241e:	d0 c0       	rjmp	.+416    	; 0x25c0 <usart0_deal+0x450>
		case IQR4_T2:
			time_ctrl_value_buff[module_num - 1][3][1] = variable;
    2420:	e0 91 40 01 	lds	r30, 0x0140	; 0x800140 <module_num>
    2424:	20 e4       	ldi	r18, 0x40	; 64
    2426:	e2 9f       	mul	r30, r18
    2428:	f0 01       	movw	r30, r0
    242a:	11 24       	eor	r1, r1
    242c:	ed 56       	subi	r30, 0x6D	; 109
    242e:	f8 4f       	sbci	r31, 0xF8	; 248
    2430:	93 8f       	std	Z+27, r25	; 0x1b
    2432:	82 8f       	std	Z+26, r24	; 0x1a
			break;
    2434:	c5 c0       	rjmp	.+394    	; 0x25c0 <usart0_deal+0x450>
		case IQR4_T3:
			time_ctrl_value_buff[module_num - 1][3][2] = variable;
    2436:	e0 91 40 01 	lds	r30, 0x0140	; 0x800140 <module_num>
    243a:	20 e4       	ldi	r18, 0x40	; 64
    243c:	e2 9f       	mul	r30, r18
    243e:	f0 01       	movw	r30, r0
    2440:	11 24       	eor	r1, r1
    2442:	ed 56       	subi	r30, 0x6D	; 109
    2444:	f8 4f       	sbci	r31, 0xF8	; 248
    2446:	95 8f       	std	Z+29, r25	; 0x1d
    2448:	84 8f       	std	Z+28, r24	; 0x1c
			break;
    244a:	ba c0       	rjmp	.+372    	; 0x25c0 <usart0_deal+0x450>
		case IQR4_T4:
			time_ctrl_value_buff[module_num - 1][3][3] = variable;
    244c:	e0 91 40 01 	lds	r30, 0x0140	; 0x800140 <module_num>
    2450:	20 e4       	ldi	r18, 0x40	; 64
    2452:	e2 9f       	mul	r30, r18
    2454:	f0 01       	movw	r30, r0
    2456:	11 24       	eor	r1, r1
    2458:	ed 56       	subi	r30, 0x6D	; 109
    245a:	f8 4f       	sbci	r31, 0xF8	; 248
    245c:	97 8f       	std	Z+31, r25	; 0x1f
    245e:	86 8f       	std	Z+30, r24	; 0x1e
			break;
    2460:	af c0       	rjmp	.+350    	; 0x25c0 <usart0_deal+0x450>

		case IQR5_T1:
			time_ctrl_value_buff[module_num - 1][4][0] = variable;
    2462:	e0 91 40 01 	lds	r30, 0x0140	; 0x800140 <module_num>
    2466:	20 e4       	ldi	r18, 0x40	; 64
    2468:	e2 9f       	mul	r30, r18
    246a:	f0 01       	movw	r30, r0
    246c:	11 24       	eor	r1, r1
    246e:	ed 56       	subi	r30, 0x6D	; 109
    2470:	f8 4f       	sbci	r31, 0xF8	; 248
    2472:	91 a3       	std	Z+33, r25	; 0x21
    2474:	80 a3       	std	Z+32, r24	; 0x20
			break;
    2476:	a4 c0       	rjmp	.+328    	; 0x25c0 <usart0_deal+0x450>
		case IQR5_T2:
			time_ctrl_value_buff[module_num - 1][4][1] = variable;
    2478:	e0 91 40 01 	lds	r30, 0x0140	; 0x800140 <module_num>
    247c:	20 e4       	ldi	r18, 0x40	; 64
    247e:	e2 9f       	mul	r30, r18
    2480:	f0 01       	movw	r30, r0
    2482:	11 24       	eor	r1, r1
    2484:	ed 56       	subi	r30, 0x6D	; 109
    2486:	f8 4f       	sbci	r31, 0xF8	; 248
    2488:	93 a3       	std	Z+35, r25	; 0x23
    248a:	82 a3       	std	Z+34, r24	; 0x22
			break;
    248c:	99 c0       	rjmp	.+306    	; 0x25c0 <usart0_deal+0x450>
		case IQR5_T3:
			time_ctrl_value_buff[module_num - 1][4][2] = variable;
    248e:	e0 91 40 01 	lds	r30, 0x0140	; 0x800140 <module_num>
    2492:	20 e4       	ldi	r18, 0x40	; 64
    2494:	e2 9f       	mul	r30, r18
    2496:	f0 01       	movw	r30, r0
    2498:	11 24       	eor	r1, r1
    249a:	ed 56       	subi	r30, 0x6D	; 109
    249c:	f8 4f       	sbci	r31, 0xF8	; 248
    249e:	95 a3       	std	Z+37, r25	; 0x25
    24a0:	84 a3       	std	Z+36, r24	; 0x24
			break;
    24a2:	8e c0       	rjmp	.+284    	; 0x25c0 <usart0_deal+0x450>
		case IQR5_T4:
			time_ctrl_value_buff[module_num - 1][4][3] = variable;
    24a4:	e0 91 40 01 	lds	r30, 0x0140	; 0x800140 <module_num>
    24a8:	20 e4       	ldi	r18, 0x40	; 64
    24aa:	e2 9f       	mul	r30, r18
    24ac:	f0 01       	movw	r30, r0
    24ae:	11 24       	eor	r1, r1
    24b0:	ed 56       	subi	r30, 0x6D	; 109
    24b2:	f8 4f       	sbci	r31, 0xF8	; 248
    24b4:	97 a3       	std	Z+39, r25	; 0x27
    24b6:	86 a3       	std	Z+38, r24	; 0x26
			break;
    24b8:	83 c0       	rjmp	.+262    	; 0x25c0 <usart0_deal+0x450>

		case IQR6_T1:
			time_ctrl_value_buff[module_num - 1][5][0] = variable;
    24ba:	e0 91 40 01 	lds	r30, 0x0140	; 0x800140 <module_num>
    24be:	20 e4       	ldi	r18, 0x40	; 64
    24c0:	e2 9f       	mul	r30, r18
    24c2:	f0 01       	movw	r30, r0
    24c4:	11 24       	eor	r1, r1
    24c6:	ed 56       	subi	r30, 0x6D	; 109
    24c8:	f8 4f       	sbci	r31, 0xF8	; 248
    24ca:	91 a7       	std	Z+41, r25	; 0x29
    24cc:	80 a7       	std	Z+40, r24	; 0x28
			break;
    24ce:	78 c0       	rjmp	.+240    	; 0x25c0 <usart0_deal+0x450>
		case IQR6_T2:
			time_ctrl_value_buff[module_num - 1][5][1] = variable;
    24d0:	e0 91 40 01 	lds	r30, 0x0140	; 0x800140 <module_num>
    24d4:	20 e4       	ldi	r18, 0x40	; 64
    24d6:	e2 9f       	mul	r30, r18
    24d8:	f0 01       	movw	r30, r0
    24da:	11 24       	eor	r1, r1
    24dc:	ed 56       	subi	r30, 0x6D	; 109
    24de:	f8 4f       	sbci	r31, 0xF8	; 248
    24e0:	93 a7       	std	Z+43, r25	; 0x2b
    24e2:	82 a7       	std	Z+42, r24	; 0x2a
			break;
    24e4:	6d c0       	rjmp	.+218    	; 0x25c0 <usart0_deal+0x450>
		case IQR6_T3:
			time_ctrl_value_buff[module_num - 1][5][2] = variable;
    24e6:	e0 91 40 01 	lds	r30, 0x0140	; 0x800140 <module_num>
    24ea:	20 e4       	ldi	r18, 0x40	; 64
    24ec:	e2 9f       	mul	r30, r18
    24ee:	f0 01       	movw	r30, r0
    24f0:	11 24       	eor	r1, r1
    24f2:	ed 56       	subi	r30, 0x6D	; 109
    24f4:	f8 4f       	sbci	r31, 0xF8	; 248
    24f6:	95 a7       	std	Z+45, r25	; 0x2d
    24f8:	84 a7       	std	Z+44, r24	; 0x2c
			break;
    24fa:	62 c0       	rjmp	.+196    	; 0x25c0 <usart0_deal+0x450>
		case IQR6_T4:
			time_ctrl_value_buff[module_num - 1][5][3] = variable;
    24fc:	e0 91 40 01 	lds	r30, 0x0140	; 0x800140 <module_num>
    2500:	20 e4       	ldi	r18, 0x40	; 64
    2502:	e2 9f       	mul	r30, r18
    2504:	f0 01       	movw	r30, r0
    2506:	11 24       	eor	r1, r1
    2508:	ed 56       	subi	r30, 0x6D	; 109
    250a:	f8 4f       	sbci	r31, 0xF8	; 248
    250c:	97 a7       	std	Z+47, r25	; 0x2f
    250e:	86 a7       	std	Z+46, r24	; 0x2e
			break;
    2510:	57 c0       	rjmp	.+174    	; 0x25c0 <usart0_deal+0x450>

		case IQR7_T1:
			time_ctrl_value_buff[module_num - 1][6][0] = variable;
    2512:	e0 91 40 01 	lds	r30, 0x0140	; 0x800140 <module_num>
    2516:	20 e4       	ldi	r18, 0x40	; 64
    2518:	e2 9f       	mul	r30, r18
    251a:	f0 01       	movw	r30, r0
    251c:	11 24       	eor	r1, r1
    251e:	ed 56       	subi	r30, 0x6D	; 109
    2520:	f8 4f       	sbci	r31, 0xF8	; 248
    2522:	91 ab       	std	Z+49, r25	; 0x31
    2524:	80 ab       	std	Z+48, r24	; 0x30
			break;
    2526:	4c c0       	rjmp	.+152    	; 0x25c0 <usart0_deal+0x450>
		case IQR7_T2:
			time_ctrl_value_buff[module_num - 1][6][1] = variable;
    2528:	e0 91 40 01 	lds	r30, 0x0140	; 0x800140 <module_num>
    252c:	20 e4       	ldi	r18, 0x40	; 64
    252e:	e2 9f       	mul	r30, r18
    2530:	f0 01       	movw	r30, r0
    2532:	11 24       	eor	r1, r1
    2534:	ed 56       	subi	r30, 0x6D	; 109
    2536:	f8 4f       	sbci	r31, 0xF8	; 248
    2538:	93 ab       	std	Z+51, r25	; 0x33
    253a:	82 ab       	std	Z+50, r24	; 0x32
			break;
    253c:	41 c0       	rjmp	.+130    	; 0x25c0 <usart0_deal+0x450>
		case IQR7_T3:
			time_ctrl_value_buff[module_num - 1][6][2] = variable;
    253e:	e0 91 40 01 	lds	r30, 0x0140	; 0x800140 <module_num>
    2542:	20 e4       	ldi	r18, 0x40	; 64
    2544:	e2 9f       	mul	r30, r18
    2546:	f0 01       	movw	r30, r0
    2548:	11 24       	eor	r1, r1
    254a:	ed 56       	subi	r30, 0x6D	; 109
    254c:	f8 4f       	sbci	r31, 0xF8	; 248
    254e:	95 ab       	std	Z+53, r25	; 0x35
    2550:	84 ab       	std	Z+52, r24	; 0x34
			break;
    2552:	36 c0       	rjmp	.+108    	; 0x25c0 <usart0_deal+0x450>
		case IQR7_T4:
			time_ctrl_value_buff[module_num - 1][6][3] = variable;
    2554:	e0 91 40 01 	lds	r30, 0x0140	; 0x800140 <module_num>
    2558:	20 e4       	ldi	r18, 0x40	; 64
    255a:	e2 9f       	mul	r30, r18
    255c:	f0 01       	movw	r30, r0
    255e:	11 24       	eor	r1, r1
    2560:	ed 56       	subi	r30, 0x6D	; 109
    2562:	f8 4f       	sbci	r31, 0xF8	; 248
    2564:	97 ab       	std	Z+55, r25	; 0x37
    2566:	86 ab       	std	Z+54, r24	; 0x36
			break;
    2568:	2b c0       	rjmp	.+86     	; 0x25c0 <usart0_deal+0x450>

		case IQR8_T1:
			time_ctrl_value_buff[module_num - 1][7][0] = variable;
    256a:	e0 91 40 01 	lds	r30, 0x0140	; 0x800140 <module_num>
    256e:	20 e4       	ldi	r18, 0x40	; 64
    2570:	e2 9f       	mul	r30, r18
    2572:	f0 01       	movw	r30, r0
    2574:	11 24       	eor	r1, r1
    2576:	ed 56       	subi	r30, 0x6D	; 109
    2578:	f8 4f       	sbci	r31, 0xF8	; 248
    257a:	91 af       	std	Z+57, r25	; 0x39
    257c:	80 af       	std	Z+56, r24	; 0x38
			break;
    257e:	20 c0       	rjmp	.+64     	; 0x25c0 <usart0_deal+0x450>
		case IQR8_T2:
			time_ctrl_value_buff[module_num - 1][7][1] = variable;
    2580:	e0 91 40 01 	lds	r30, 0x0140	; 0x800140 <module_num>
    2584:	20 e4       	ldi	r18, 0x40	; 64
    2586:	e2 9f       	mul	r30, r18
    2588:	f0 01       	movw	r30, r0
    258a:	11 24       	eor	r1, r1
    258c:	ed 56       	subi	r30, 0x6D	; 109
    258e:	f8 4f       	sbci	r31, 0xF8	; 248
    2590:	93 af       	std	Z+59, r25	; 0x3b
    2592:	82 af       	std	Z+58, r24	; 0x3a
			break;
    2594:	15 c0       	rjmp	.+42     	; 0x25c0 <usart0_deal+0x450>
		case IQR8_T3:
			time_ctrl_value_buff[module_num - 1][7][2] = variable;
    2596:	e0 91 40 01 	lds	r30, 0x0140	; 0x800140 <module_num>
    259a:	20 e4       	ldi	r18, 0x40	; 64
    259c:	e2 9f       	mul	r30, r18
    259e:	f0 01       	movw	r30, r0
    25a0:	11 24       	eor	r1, r1
    25a2:	ed 56       	subi	r30, 0x6D	; 109
    25a4:	f8 4f       	sbci	r31, 0xF8	; 248
    25a6:	95 af       	std	Z+61, r25	; 0x3d
    25a8:	84 af       	std	Z+60, r24	; 0x3c
			break;
    25aa:	0a c0       	rjmp	.+20     	; 0x25c0 <usart0_deal+0x450>
		case IQR8_T4:
			time_ctrl_value_buff[module_num - 1][7][3] = variable;
    25ac:	e0 91 40 01 	lds	r30, 0x0140	; 0x800140 <module_num>
    25b0:	20 e4       	ldi	r18, 0x40	; 64
    25b2:	e2 9f       	mul	r30, r18
    25b4:	f0 01       	movw	r30, r0
    25b6:	11 24       	eor	r1, r1
    25b8:	ed 56       	subi	r30, 0x6D	; 109
    25ba:	f8 4f       	sbci	r31, 0xF8	; 248
    25bc:	97 af       	std	Z+63, r25	; 0x3f
    25be:	86 af       	std	Z+62, r24	; 0x3e
			break;
		}
	}

	return 0;
}
    25c0:	80 e0       	ldi	r24, 0x00	; 0
    25c2:	90 e0       	ldi	r25, 0x00	; 0
    25c4:	df 91       	pop	r29
    25c6:	cf 91       	pop	r28
    25c8:	08 95       	ret

000025ca <usart0_init>:
	return crc;
}

void usart0_init(uint16_t ubrr0) //屏幕通讯使用
{
	USART0_TX_PIN_OUTPUT;
    25ca:	11 9a       	sbi	0x02, 1	; 2
	USART0_RX_PIN_INPUT; //配置引脚方向
    25cc:	10 98       	cbi	0x02, 0	; 2

	UBRR0H = (uint8_t)(ubrr0 >> 8);
    25ce:	90 93 90 00 	sts	0x0090, r25	; 0x800090 <__TEXT_REGION_LENGTH__+0x7e0090>
	UBRR0L = (uint8_t)ubrr0;
    25d2:	89 b9       	out	0x09, r24	; 9

	//	UBRR0H = 0;
	//	UBRR0L = 103;									//波特率9600，晶振16M
	UCSR0C |= (1 << UCSZ01) | (1 << UCSZ00);			   // Set frame format: 8data, 1stop bit 无校验,异步正常模式
    25d4:	e5 e9       	ldi	r30, 0x95	; 149
    25d6:	f0 e0       	ldi	r31, 0x00	; 0
    25d8:	80 81       	ld	r24, Z
    25da:	86 60       	ori	r24, 0x06	; 6
    25dc:	80 83       	st	Z, r24
	UCSR0B |= (1 << RXEN0) | (1 << TXEN0) | (1 << RXCIE0); //使能发送、接收；使能接收中断
    25de:	8a b1       	in	r24, 0x0a	; 10
    25e0:	88 69       	ori	r24, 0x98	; 152
    25e2:	8a b9       	out	0x0a, r24	; 10
    25e4:	08 95       	ret

000025e6 <usart1_init>:
}

void usart1_init(uint16_t ubrr1) //设备通讯使用
{
	USART1_TX_PIN_OUTPUT;
    25e6:	8b 9a       	sbi	0x11, 3	; 17
	USART1_RX_PIN_INPUT; //配置引脚方向
    25e8:	8a 98       	cbi	0x11, 2	; 17

	UBRR1H = (uint8_t)(ubrr1 >> 8);
    25ea:	90 93 98 00 	sts	0x0098, r25	; 0x800098 <__TEXT_REGION_LENGTH__+0x7e0098>
	UBRR1L = (uint8_t)ubrr1;
    25ee:	80 93 99 00 	sts	0x0099, r24	; 0x800099 <__TEXT_REGION_LENGTH__+0x7e0099>

	//	UBRR1H = 0;
	//	UBRR1L = 103;						//波特率9600，晶振16M
	UCSR1C = (1 << UCSZ11) | (1 << UCSZ10);				  // Set frame format: 8data, 1stop bit 无校验
    25f2:	86 e0       	ldi	r24, 0x06	; 6
    25f4:	80 93 9d 00 	sts	0x009D, r24	; 0x80009d <__TEXT_REGION_LENGTH__+0x7e009d>
	UCSR1B = (1 << RXEN1) | (1 << TXEN1) | (1 << RXCIE1); //使能接收,发送
    25f8:	88 e9       	ldi	r24, 0x98	; 152
    25fa:	80 93 9a 00 	sts	0x009A, r24	; 0x80009a <__TEXT_REGION_LENGTH__+0x7e009a>
    25fe:	08 95       	ret

00002600 <usart2_init>:

/*使用IO口+TIMER3模拟串口*/
void usart2_init(uint16_t baud)
{
	/*io口模拟uart相关IO初始化*/
	USART2_TX_PIN_OUTPUT; //TX脚配置为输出
    2600:	a7 9a       	sbi	0x14, 7	; 20
	USART2_RX_PIN_INPUT;
    2602:	a6 98       	cbi	0x14, 6	; 20
	USART2_RX_PIN_PULLUP; //RX配置为输入上拉
    2604:	ae 9a       	sbi	0x15, 6	; 21

	USART2_TX_PIN_SET; //TX脚输出高
    2606:	af 9a       	sbi	0x15, 7	; 21

	TCCR3B |= 0x08; //WGM32位置1
    2608:	ea e8       	ldi	r30, 0x8A	; 138
    260a:	f0 e0       	ldi	r31, 0x00	; 0
    260c:	20 81       	ld	r18, Z
    260e:	28 60       	ori	r18, 0x08	; 8
    2610:	20 83       	st	Z, r18
	TCCR3B &= 0xF8; //关闭定时器（清除时钟选择位 CS30 CS31 CS32）
    2612:	20 81       	ld	r18, Z
    2614:	28 7f       	andi	r18, 0xF8	; 248
    2616:	20 83       	st	Z, r18

	OCR3A = 16000000UL / baud; //定时时间为波特率的1/2（这里不启动定时器，启动时需要定时器时钟不分频 TCCR3B |= 0x01）
    2618:	9c 01       	movw	r18, r24
    261a:	40 e0       	ldi	r20, 0x00	; 0
    261c:	50 e0       	ldi	r21, 0x00	; 0
    261e:	60 e0       	ldi	r22, 0x00	; 0
    2620:	74 e2       	ldi	r23, 0x24	; 36
    2622:	84 ef       	ldi	r24, 0xF4	; 244
    2624:	90 e0       	ldi	r25, 0x00	; 0
    2626:	0e 94 33 13 	call	0x2666	; 0x2666 <__udivmodsi4>
    262a:	30 93 87 00 	sts	0x0087, r19	; 0x800087 <__TEXT_REGION_LENGTH__+0x7e0087>
    262e:	20 93 86 00 	sts	0x0086, r18	; 0x800086 <__TEXT_REGION_LENGTH__+0x7e0086>

	ETIMSK |= 0x10; //定时器3 A输出比较中断使能
    2632:	ed e7       	ldi	r30, 0x7D	; 125
    2634:	f0 e0       	ldi	r31, 0x00	; 0
    2636:	80 81       	ld	r24, Z
    2638:	80 61       	ori	r24, 0x10	; 16
    263a:	80 83       	st	Z, r24
    263c:	08 95       	ret

0000263e <__divmodhi4>:
    263e:	97 fb       	bst	r25, 7
    2640:	07 2e       	mov	r0, r23
    2642:	16 f4       	brtc	.+4      	; 0x2648 <__divmodhi4+0xa>
    2644:	00 94       	com	r0
    2646:	07 d0       	rcall	.+14     	; 0x2656 <__divmodhi4_neg1>
    2648:	77 fd       	sbrc	r23, 7
    264a:	09 d0       	rcall	.+18     	; 0x265e <__divmodhi4_neg2>
    264c:	0e 94 75 13 	call	0x26ea	; 0x26ea <__udivmodhi4>
    2650:	07 fc       	sbrc	r0, 7
    2652:	05 d0       	rcall	.+10     	; 0x265e <__divmodhi4_neg2>
    2654:	3e f4       	brtc	.+14     	; 0x2664 <__divmodhi4_exit>

00002656 <__divmodhi4_neg1>:
    2656:	90 95       	com	r25
    2658:	81 95       	neg	r24
    265a:	9f 4f       	sbci	r25, 0xFF	; 255
    265c:	08 95       	ret

0000265e <__divmodhi4_neg2>:
    265e:	70 95       	com	r23
    2660:	61 95       	neg	r22
    2662:	7f 4f       	sbci	r23, 0xFF	; 255

00002664 <__divmodhi4_exit>:
    2664:	08 95       	ret

00002666 <__udivmodsi4>:
    2666:	a1 e2       	ldi	r26, 0x21	; 33
    2668:	1a 2e       	mov	r1, r26
    266a:	aa 1b       	sub	r26, r26
    266c:	bb 1b       	sub	r27, r27
    266e:	fd 01       	movw	r30, r26
    2670:	0d c0       	rjmp	.+26     	; 0x268c <__udivmodsi4_ep>

00002672 <__udivmodsi4_loop>:
    2672:	aa 1f       	adc	r26, r26
    2674:	bb 1f       	adc	r27, r27
    2676:	ee 1f       	adc	r30, r30
    2678:	ff 1f       	adc	r31, r31
    267a:	a2 17       	cp	r26, r18
    267c:	b3 07       	cpc	r27, r19
    267e:	e4 07       	cpc	r30, r20
    2680:	f5 07       	cpc	r31, r21
    2682:	20 f0       	brcs	.+8      	; 0x268c <__udivmodsi4_ep>
    2684:	a2 1b       	sub	r26, r18
    2686:	b3 0b       	sbc	r27, r19
    2688:	e4 0b       	sbc	r30, r20
    268a:	f5 0b       	sbc	r31, r21

0000268c <__udivmodsi4_ep>:
    268c:	66 1f       	adc	r22, r22
    268e:	77 1f       	adc	r23, r23
    2690:	88 1f       	adc	r24, r24
    2692:	99 1f       	adc	r25, r25
    2694:	1a 94       	dec	r1
    2696:	69 f7       	brne	.-38     	; 0x2672 <__udivmodsi4_loop>
    2698:	60 95       	com	r22
    269a:	70 95       	com	r23
    269c:	80 95       	com	r24
    269e:	90 95       	com	r25
    26a0:	9b 01       	movw	r18, r22
    26a2:	ac 01       	movw	r20, r24
    26a4:	bd 01       	movw	r22, r26
    26a6:	cf 01       	movw	r24, r30
    26a8:	08 95       	ret

000026aa <__tablejump2__>:
    26aa:	ee 0f       	add	r30, r30
    26ac:	ff 1f       	adc	r31, r31
    26ae:	05 90       	lpm	r0, Z+
    26b0:	f4 91       	lpm	r31, Z
    26b2:	e0 2d       	mov	r30, r0
    26b4:	09 94       	ijmp

000026b6 <__umulhisi3>:
    26b6:	a2 9f       	mul	r26, r18
    26b8:	b0 01       	movw	r22, r0
    26ba:	b3 9f       	mul	r27, r19
    26bc:	c0 01       	movw	r24, r0
    26be:	a3 9f       	mul	r26, r19
    26c0:	70 0d       	add	r23, r0
    26c2:	81 1d       	adc	r24, r1
    26c4:	11 24       	eor	r1, r1
    26c6:	91 1d       	adc	r25, r1
    26c8:	b2 9f       	mul	r27, r18
    26ca:	70 0d       	add	r23, r0
    26cc:	81 1d       	adc	r24, r1
    26ce:	11 24       	eor	r1, r1
    26d0:	91 1d       	adc	r25, r1
    26d2:	08 95       	ret

000026d4 <__muluhisi3>:
    26d4:	0e 94 5b 13 	call	0x26b6	; 0x26b6 <__umulhisi3>
    26d8:	a5 9f       	mul	r26, r21
    26da:	90 0d       	add	r25, r0
    26dc:	b4 9f       	mul	r27, r20
    26de:	90 0d       	add	r25, r0
    26e0:	a4 9f       	mul	r26, r20
    26e2:	80 0d       	add	r24, r0
    26e4:	91 1d       	adc	r25, r1
    26e6:	11 24       	eor	r1, r1
    26e8:	08 95       	ret

000026ea <__udivmodhi4>:
    26ea:	aa 1b       	sub	r26, r26
    26ec:	bb 1b       	sub	r27, r27
    26ee:	51 e1       	ldi	r21, 0x11	; 17
    26f0:	07 c0       	rjmp	.+14     	; 0x2700 <__udivmodhi4_ep>

000026f2 <__udivmodhi4_loop>:
    26f2:	aa 1f       	adc	r26, r26
    26f4:	bb 1f       	adc	r27, r27
    26f6:	a6 17       	cp	r26, r22
    26f8:	b7 07       	cpc	r27, r23
    26fa:	10 f0       	brcs	.+4      	; 0x2700 <__udivmodhi4_ep>
    26fc:	a6 1b       	sub	r26, r22
    26fe:	b7 0b       	sbc	r27, r23

00002700 <__udivmodhi4_ep>:
    2700:	88 1f       	adc	r24, r24
    2702:	99 1f       	adc	r25, r25
    2704:	5a 95       	dec	r21
    2706:	a9 f7       	brne	.-22     	; 0x26f2 <__udivmodhi4_loop>
    2708:	80 95       	com	r24
    270a:	90 95       	com	r25
    270c:	bc 01       	movw	r22, r24
    270e:	cd 01       	movw	r24, r26
    2710:	08 95       	ret

00002712 <_exit>:
    2712:	f8 94       	cli

00002714 <__stop_program>:
    2714:	ff cf       	rjmp	.-2      	; 0x2714 <__stop_program>
