
tempctrlboxmonitor_v1r0.elf:     file format elf32-avr

Sections:
Idx Name          Size      VMA       LMA       File off  Algn
  0 .data         00000158  00800100  00002ab2  00002b46  2**0
                  CONTENTS, ALLOC, LOAD, DATA
  1 .text         00002ab2  00000000  00000000  00000094  2**1
                  CONTENTS, ALLOC, LOAD, READONLY, CODE
  2 .bss          00000418  00800258  00800258  00002c9e  2**0
                  ALLOC
  3 .comment      00000030  00000000  00000000  00002c9e  2**0
                  CONTENTS, READONLY
  4 .note.gnu.avr.deviceinfo 0000003c  00000000  00000000  00002cd0  2**2
                  CONTENTS, READONLY
  5 .debug_aranges 00000228  00000000  00000000  00002d0c  2**0
                  CONTENTS, READONLY, DEBUGGING
  6 .debug_info   000034bc  00000000  00000000  00002f34  2**0
                  CONTENTS, READONLY, DEBUGGING
  7 .debug_abbrev 00000e37  00000000  00000000  000063f0  2**0
                  CONTENTS, READONLY, DEBUGGING
  8 .debug_line   00001ced  00000000  00000000  00007227  2**0
                  CONTENTS, READONLY, DEBUGGING
  9 .debug_frame  000006fc  00000000  00000000  00008f14  2**2
                  CONTENTS, READONLY, DEBUGGING
 10 .debug_str    00000acb  00000000  00000000  00009610  2**0
                  CONTENTS, READONLY, DEBUGGING
 11 .debug_loc    00001b87  00000000  00000000  0000a0db  2**0
                  CONTENTS, READONLY, DEBUGGING
 12 .debug_ranges 000001c8  00000000  00000000  0000bc62  2**0
                  CONTENTS, READONLY, DEBUGGING

Disassembly of section .text:

00000000 <__vectors>:
       0:	0c 94 68 00 	jmp	0xd0	; 0xd0 <__ctors_end>
       4:	0c 94 85 00 	jmp	0x10a	; 0x10a <__bad_interrupt>
       8:	0c 94 85 00 	jmp	0x10a	; 0x10a <__bad_interrupt>
       c:	0c 94 85 00 	jmp	0x10a	; 0x10a <__bad_interrupt>
      10:	0c 94 85 00 	jmp	0x10a	; 0x10a <__bad_interrupt>
      14:	0c 94 85 00 	jmp	0x10a	; 0x10a <__bad_interrupt>
      18:	0c 94 85 00 	jmp	0x10a	; 0x10a <__bad_interrupt>
      1c:	0c 94 85 00 	jmp	0x10a	; 0x10a <__bad_interrupt>
      20:	0c 94 85 00 	jmp	0x10a	; 0x10a <__bad_interrupt>
      24:	0c 94 85 00 	jmp	0x10a	; 0x10a <__bad_interrupt>
      28:	0c 94 60 12 	jmp	0x24c0	; 0x24c0 <__vector_10>
      2c:	0c 94 85 00 	jmp	0x10a	; 0x10a <__bad_interrupt>
      30:	0c 94 1d 11 	jmp	0x223a	; 0x223a <__vector_12>
      34:	0c 94 85 00 	jmp	0x10a	; 0x10a <__bad_interrupt>
      38:	0c 94 85 00 	jmp	0x10a	; 0x10a <__bad_interrupt>
      3c:	0c 94 85 00 	jmp	0x10a	; 0x10a <__bad_interrupt>
      40:	0c 94 ed 0f 	jmp	0x1fda	; 0x1fda <__vector_16>
      44:	0c 94 85 00 	jmp	0x10a	; 0x10a <__bad_interrupt>
      48:	0c 94 d9 12 	jmp	0x25b2	; 0x25b2 <__vector_18>
      4c:	0c 94 85 00 	jmp	0x10a	; 0x10a <__bad_interrupt>
      50:	0c 94 85 00 	jmp	0x10a	; 0x10a <__bad_interrupt>
      54:	0c 94 85 00 	jmp	0x10a	; 0x10a <__bad_interrupt>
      58:	0c 94 85 00 	jmp	0x10a	; 0x10a <__bad_interrupt>
      5c:	0c 94 85 00 	jmp	0x10a	; 0x10a <__bad_interrupt>
      60:	0c 94 85 00 	jmp	0x10a	; 0x10a <__bad_interrupt>
      64:	0c 94 85 00 	jmp	0x10a	; 0x10a <__bad_interrupt>
      68:	0c 94 85 00 	jmp	0x10a	; 0x10a <__bad_interrupt>
      6c:	0c 94 85 00 	jmp	0x10a	; 0x10a <__bad_interrupt>
      70:	0c 94 85 00 	jmp	0x10a	; 0x10a <__bad_interrupt>
      74:	0c 94 85 00 	jmp	0x10a	; 0x10a <__bad_interrupt>
      78:	0c 94 fc 12 	jmp	0x25f8	; 0x25f8 <__vector_30>
      7c:	0c 94 85 00 	jmp	0x10a	; 0x10a <__bad_interrupt>
      80:	0c 94 85 00 	jmp	0x10a	; 0x10a <__bad_interrupt>
      84:	0c 94 85 00 	jmp	0x10a	; 0x10a <__bad_interrupt>
      88:	0c 94 85 00 	jmp	0x10a	; 0x10a <__bad_interrupt>
      8c:	20 0b       	sbc	r18, r16
      8e:	29 0b       	sbc	r18, r25
      90:	2b 0b       	sbc	r18, r27
      92:	2e 0b       	sbc	r18, r30
      94:	32 0b       	sbc	r19, r18
      96:	3d 0b       	sbc	r19, r29
      98:	49 0b       	sbc	r20, r25
      9a:	55 0b       	sbc	r21, r21
      9c:	61 0b       	sbc	r22, r17
      9e:	6d 0b       	sbc	r22, r29
      a0:	79 0b       	sbc	r23, r25
      a2:	7c 0b       	sbc	r23, r28
      a4:	80 0b       	sbc	r24, r16
      a6:	83 0b       	sbc	r24, r19
      a8:	8b 0b       	sbc	r24, r27
      aa:	93 0b       	sbc	r25, r19
      ac:	9b 0b       	sbc	r25, r27
      ae:	a3 0b       	sbc	r26, r19
      b0:	a7 0b       	sbc	r26, r23
      b2:	ab 0b       	sbc	r26, r27
      b4:	af 0b       	sbc	r26, r31
      b6:	b2 0b       	sbc	r27, r18
      b8:	b5 0b       	sbc	r27, r21
      ba:	b9 0b       	sbc	r27, r25
      bc:	bd 0b       	sbc	r27, r29
      be:	c0 0b       	sbc	r28, r16
      c0:	c6 0b       	sbc	r28, r22
      c2:	c9 0b       	sbc	r28, r25
      c4:	cf 0b       	sbc	r28, r31
      c6:	ea 0b       	sbc	r30, r26
      c8:	ea 0b       	sbc	r30, r26
      ca:	d2 0b       	sbc	r29, r18
      cc:	e0 0b       	sbc	r30, r16
      ce:	e8 0b       	sbc	r30, r24

000000d0 <__ctors_end>:
      d0:	11 24       	eor	r1, r1
      d2:	1f be       	out	0x3f, r1	; 63
      d4:	cf ef       	ldi	r28, 0xFF	; 255
      d6:	d0 e1       	ldi	r29, 0x10	; 16
      d8:	de bf       	out	0x3e, r29	; 62
      da:	cd bf       	out	0x3d, r28	; 61

000000dc <__do_copy_data>:
      dc:	12 e0       	ldi	r17, 0x02	; 2
      de:	a0 e0       	ldi	r26, 0x00	; 0
      e0:	b1 e0       	ldi	r27, 0x01	; 1
      e2:	e2 eb       	ldi	r30, 0xB2	; 178
      e4:	fa e2       	ldi	r31, 0x2A	; 42
      e6:	02 c0       	rjmp	.+4      	; 0xec <__do_copy_data+0x10>
      e8:	05 90       	lpm	r0, Z+
      ea:	0d 92       	st	X+, r0
      ec:	a8 35       	cpi	r26, 0x58	; 88
      ee:	b1 07       	cpc	r27, r17
      f0:	d9 f7       	brne	.-10     	; 0xe8 <__do_copy_data+0xc>

000000f2 <__do_clear_bss>:
      f2:	26 e0       	ldi	r18, 0x06	; 6
      f4:	a8 e5       	ldi	r26, 0x58	; 88
      f6:	b2 e0       	ldi	r27, 0x02	; 2
      f8:	01 c0       	rjmp	.+2      	; 0xfc <.do_clear_bss_start>

000000fa <.do_clear_bss_loop>:
      fa:	1d 92       	st	X+, r1

000000fc <.do_clear_bss_start>:
      fc:	a0 37       	cpi	r26, 0x70	; 112
      fe:	b2 07       	cpc	r27, r18
     100:	e1 f7       	brne	.-8      	; 0xfa <.do_clear_bss_loop>
     102:	0e 94 8e 0f 	call	0x1f1c	; 0x1f1c <main>
     106:	0c 94 57 15 	jmp	0x2aae	; 0x2aae <_exit>

0000010a <__bad_interrupt>:
     10a:	0c 94 00 00 	jmp	0	; 0x0 <__vectors>

0000010e <single_set_ok>:
		default: break;	
	}
}

void single_set_ok(void)
{
     10e:	0f 93       	push	r16
     110:	1f 93       	push	r17
	if(set_temp_buff[set_num] != set_temp[set_num])
     112:	80 91 e1 02 	lds	r24, 0x02E1	; 0x8002e1 <set_num>
     116:	90 e0       	ldi	r25, 0x00	; 0
     118:	9c 01       	movw	r18, r24
     11a:	22 0f       	add	r18, r18
     11c:	33 1f       	adc	r19, r19
     11e:	f9 01       	movw	r30, r18
     120:	e9 5d       	subi	r30, 0xD9	; 217
     122:	fd 4f       	sbci	r31, 0xFD	; 253
     124:	60 81       	ld	r22, Z
     126:	71 81       	ldd	r23, Z+1	; 0x01
     128:	f9 01       	movw	r30, r18
     12a:	e2 50       	subi	r30, 0x02	; 2
     12c:	fe 4f       	sbci	r31, 0xFE	; 254
     12e:	20 81       	ld	r18, Z
     130:	31 81       	ldd	r19, Z+1	; 0x01
     132:	62 17       	cp	r22, r18
     134:	73 07       	cpc	r23, r19
     136:	d9 f0       	breq	.+54     	; 0x16e <single_set_ok+0x60>
	{
		set_temp[set_num] = set_temp_buff[set_num];
     138:	88 0f       	add	r24, r24
     13a:	99 1f       	adc	r25, r25
     13c:	fc 01       	movw	r30, r24
     13e:	e2 50       	subi	r30, 0x02	; 2
     140:	fe 4f       	sbci	r31, 0xFE	; 254
     142:	71 83       	std	Z+1, r23	; 0x01
     144:	60 83       	st	Z, r22
		ctrl_command = TEMP;
     146:	23 e0       	ldi	r18, 0x03	; 3
     148:	20 93 18 02 	sts	0x0218, r18	; 0x800218 <ctrl_command>
		eeprom_write(SINGLE_SETTEMP_EEADDR+(set_num*2), set_temp[set_num]);
     14c:	05 96       	adiw	r24, 0x05	; 5
     14e:	0e 94 eb 0b 	call	0x17d6	; 0x17d6 <eeprom_write>
		eeprom_write(SINGLE_SETTEMP_EEADDR+(set_num*2)+1, set_temp[set_num]>>8);
     152:	80 91 e1 02 	lds	r24, 0x02E1	; 0x8002e1 <set_num>
     156:	90 e0       	ldi	r25, 0x00	; 0
     158:	fc 01       	movw	r30, r24
     15a:	ee 0f       	add	r30, r30
     15c:	ff 1f       	adc	r31, r31
     15e:	e2 50       	subi	r30, 0x02	; 2
     160:	fe 4f       	sbci	r31, 0xFE	; 254
     162:	61 81       	ldd	r22, Z+1	; 0x01
     164:	03 96       	adiw	r24, 0x03	; 3
     166:	88 0f       	add	r24, r24
     168:	99 1f       	adc	r25, r25
     16a:	0e 94 eb 0b 	call	0x17d6	; 0x17d6 <eeprom_write>
	}
	
	if(switch_sensor_buff[set_num] != switch_sensor[set_num])
     16e:	80 91 e1 02 	lds	r24, 0x02E1	; 0x8002e1 <set_num>
     172:	90 e0       	ldi	r25, 0x00	; 0
     174:	9c 01       	movw	r18, r24
     176:	22 0f       	add	r18, r18
     178:	33 1f       	adc	r19, r19
     17a:	f9 01       	movw	r30, r18
     17c:	e4 5d       	subi	r30, 0xD4	; 212
     17e:	fc 4f       	sbci	r31, 0xFC	; 252
     180:	40 81       	ld	r20, Z
     182:	51 81       	ldd	r21, Z+1	; 0x01
     184:	f9 01       	movw	r30, r18
     186:	e6 57       	subi	r30, 0x76	; 118
     188:	fd 4f       	sbci	r31, 0xFD	; 253
     18a:	20 81       	ld	r18, Z
     18c:	31 81       	ldd	r19, Z+1	; 0x01
     18e:	42 17       	cp	r20, r18
     190:	53 07       	cpc	r21, r19
     192:	69 f0       	breq	.+26     	; 0x1ae <single_set_ok+0xa0>
	{
		switch_sensor[set_num] = switch_sensor_buff[set_num];
     194:	fc 01       	movw	r30, r24
     196:	ee 0f       	add	r30, r30
     198:	ff 1f       	adc	r31, r31
     19a:	e6 57       	subi	r30, 0x76	; 118
     19c:	fd 4f       	sbci	r31, 0xFD	; 253
     19e:	51 83       	std	Z+1, r21	; 0x01
     1a0:	40 83       	st	Z, r20
		ctrl_command = SWITCH_SENSOR;
     1a2:	26 e0       	ldi	r18, 0x06	; 6
     1a4:	20 93 18 02 	sts	0x0218, r18	; 0x800218 <ctrl_command>
		global = SINGLE;
     1a8:	21 e0       	ldi	r18, 0x01	; 1
     1aa:	20 93 6f 06 	sts	0x066F, r18	; 0x80066f <global>
//		eeprom_write(SINGLE_SWSENSOR_EEADDR+set_num, switch_sensor[set_num]);
	}
	
	if(sensor_type_buff[set_num] != sensor_type[set_num])
     1ae:	9c 01       	movw	r18, r24
     1b0:	22 0f       	add	r18, r18
     1b2:	33 1f       	adc	r19, r19
     1b4:	f9 01       	movw	r30, r18
     1b6:	ec 5e       	subi	r30, 0xEC	; 236
     1b8:	fc 4f       	sbci	r31, 0xFC	; 252
     1ba:	60 81       	ld	r22, Z
     1bc:	71 81       	ldd	r23, Z+1	; 0x01
     1be:	f9 01       	movw	r30, r18
     1c0:	ee 58       	subi	r30, 0x8E	; 142
     1c2:	fd 4f       	sbci	r31, 0xFD	; 253
     1c4:	20 81       	ld	r18, Z
     1c6:	31 81       	ldd	r19, Z+1	; 0x01
     1c8:	62 17       	cp	r22, r18
     1ca:	73 07       	cpc	r23, r19
     1cc:	69 f0       	breq	.+26     	; 0x1e8 <single_set_ok+0xda>
	{
		sensor_type[set_num] = sensor_type_buff[set_num];
     1ce:	fc 01       	movw	r30, r24
     1d0:	ee 0f       	add	r30, r30
     1d2:	ff 1f       	adc	r31, r31
     1d4:	ee 58       	subi	r30, 0x8E	; 142
     1d6:	fd 4f       	sbci	r31, 0xFD	; 253
     1d8:	71 83       	std	Z+1, r23	; 0x01
     1da:	60 83       	st	Z, r22
		ctrl_command = SENSOR_TYPE;
     1dc:	25 e0       	ldi	r18, 0x05	; 5
     1de:	20 93 18 02 	sts	0x0218, r18	; 0x800218 <ctrl_command>
		eeprom_write(SINGLE_SENSORTYPE_EEADDR+set_num, sensor_type[set_num]);
     1e2:	4d 96       	adiw	r24, 0x1d	; 29
     1e4:	0e 94 eb 0b 	call	0x17d6	; 0x17d6 <eeprom_write>
	}
	
	if(set_name_buff != set_name[set_num])
     1e8:	80 91 e1 02 	lds	r24, 0x02E1	; 0x8002e1 <set_num>
     1ec:	90 e0       	ldi	r25, 0x00	; 0
     1ee:	40 91 6e 02 	lds	r20, 0x026E	; 0x80026e <set_name_buff>
     1f2:	50 91 6f 02 	lds	r21, 0x026F	; 0x80026f <set_name_buff+0x1>
     1f6:	60 91 70 02 	lds	r22, 0x0270	; 0x800270 <set_name_buff+0x2>
     1fa:	70 91 71 02 	lds	r23, 0x0271	; 0x800271 <set_name_buff+0x3>
     1fe:	fc 01       	movw	r30, r24
     200:	ee 0f       	add	r30, r30
     202:	ff 1f       	adc	r31, r31
     204:	ee 0f       	add	r30, r30
     206:	ff 1f       	adc	r31, r31
     208:	e2 53       	subi	r30, 0x32	; 50
     20a:	fe 4f       	sbci	r31, 0xFE	; 254
     20c:	00 81       	ld	r16, Z
     20e:	11 81       	ldd	r17, Z+1	; 0x01
     210:	22 81       	ldd	r18, Z+2	; 0x02
     212:	33 81       	ldd	r19, Z+3	; 0x03
     214:	04 17       	cp	r16, r20
     216:	15 07       	cpc	r17, r21
     218:	26 07       	cpc	r18, r22
     21a:	37 07       	cpc	r19, r23
     21c:	09 f4       	brne	.+2      	; 0x220 <single_set_ok+0x112>
     21e:	5a c0       	rjmp	.+180    	; 0x2d4 <single_set_ok+0x1c6>
	{
		set_name[set_num] = set_name_buff;
     220:	88 0f       	add	r24, r24
     222:	99 1f       	adc	r25, r25
     224:	88 0f       	add	r24, r24
     226:	99 1f       	adc	r25, r25
     228:	fc 01       	movw	r30, r24
     22a:	e2 53       	subi	r30, 0x32	; 50
     22c:	fe 4f       	sbci	r31, 0xFE	; 254
     22e:	40 83       	st	Z, r20
     230:	51 83       	std	Z+1, r21	; 0x01
     232:	62 83       	std	Z+2, r22	; 0x02
     234:	73 83       	std	Z+3, r23	; 0x03
		
		eeprom_write(SET_NAME_EEADDR+(set_num*4), set_name[set_num]);
     236:	64 2f       	mov	r22, r20
     238:	82 58       	subi	r24, 0x82	; 130
     23a:	9f 4f       	sbci	r25, 0xFF	; 255
     23c:	0e 94 eb 0b 	call	0x17d6	; 0x17d6 <eeprom_write>
		eeprom_write(SET_NAME_EEADDR+(set_num*4)+1, set_name[set_num]>>8);
     240:	80 91 e1 02 	lds	r24, 0x02E1	; 0x8002e1 <set_num>
     244:	90 e0       	ldi	r25, 0x00	; 0
     246:	9c 01       	movw	r18, r24
     248:	22 0f       	add	r18, r18
     24a:	33 1f       	adc	r19, r19
     24c:	22 0f       	add	r18, r18
     24e:	33 1f       	adc	r19, r19
     250:	f9 01       	movw	r30, r18
     252:	e2 53       	subi	r30, 0x32	; 50
     254:	fe 4f       	sbci	r31, 0xFE	; 254
     256:	40 81       	ld	r20, Z
     258:	51 81       	ldd	r21, Z+1	; 0x01
     25a:	62 81       	ldd	r22, Z+2	; 0x02
     25c:	73 81       	ldd	r23, Z+3	; 0x03
     25e:	99 27       	eor	r25, r25
     260:	87 2f       	mov	r24, r23
     262:	76 2f       	mov	r23, r22
     264:	65 2f       	mov	r22, r21
     266:	c9 01       	movw	r24, r18
     268:	81 58       	subi	r24, 0x81	; 129
     26a:	9f 4f       	sbci	r25, 0xFF	; 255
     26c:	0e 94 eb 0b 	call	0x17d6	; 0x17d6 <eeprom_write>
		eeprom_write(SET_NAME_EEADDR+(set_num*4)+2, set_name[set_num]>>16);
     270:	80 91 e1 02 	lds	r24, 0x02E1	; 0x8002e1 <set_num>
     274:	28 2f       	mov	r18, r24
     276:	30 e0       	ldi	r19, 0x00	; 0
     278:	f9 01       	movw	r30, r18
     27a:	ee 0f       	add	r30, r30
     27c:	ff 1f       	adc	r31, r31
     27e:	ee 0f       	add	r30, r30
     280:	ff 1f       	adc	r31, r31
     282:	e2 53       	subi	r30, 0x32	; 50
     284:	fe 4f       	sbci	r31, 0xFE	; 254
     286:	40 81       	ld	r20, Z
     288:	51 81       	ldd	r21, Z+1	; 0x01
     28a:	62 81       	ldd	r22, Z+2	; 0x02
     28c:	73 81       	ldd	r23, Z+3	; 0x03
     28e:	88 27       	eor	r24, r24
     290:	99 27       	eor	r25, r25
     292:	20 5e       	subi	r18, 0xE0	; 224
     294:	3f 4f       	sbci	r19, 0xFF	; 255
     296:	c9 01       	movw	r24, r18
     298:	88 0f       	add	r24, r24
     29a:	99 1f       	adc	r25, r25
     29c:	88 0f       	add	r24, r24
     29e:	99 1f       	adc	r25, r25
     2a0:	0e 94 eb 0b 	call	0x17d6	; 0x17d6 <eeprom_write>
		eeprom_write(SET_NAME_EEADDR+(set_num*4)+3, set_name[set_num]>>24);
     2a4:	80 91 e1 02 	lds	r24, 0x02E1	; 0x8002e1 <set_num>
     2a8:	90 e0       	ldi	r25, 0x00	; 0
     2aa:	9c 01       	movw	r18, r24
     2ac:	22 0f       	add	r18, r18
     2ae:	33 1f       	adc	r19, r19
     2b0:	22 0f       	add	r18, r18
     2b2:	33 1f       	adc	r19, r19
     2b4:	f9 01       	movw	r30, r18
     2b6:	e2 53       	subi	r30, 0x32	; 50
     2b8:	fe 4f       	sbci	r31, 0xFE	; 254
     2ba:	40 81       	ld	r20, Z
     2bc:	51 81       	ldd	r21, Z+1	; 0x01
     2be:	62 81       	ldd	r22, Z+2	; 0x02
     2c0:	73 81       	ldd	r23, Z+3	; 0x03
     2c2:	67 2f       	mov	r22, r23
     2c4:	77 27       	eor	r23, r23
     2c6:	88 27       	eor	r24, r24
     2c8:	99 27       	eor	r25, r25
     2ca:	c9 01       	movw	r24, r18
     2cc:	8f 57       	subi	r24, 0x7F	; 127
     2ce:	9f 4f       	sbci	r25, 0xFF	; 255
     2d0:	0e 94 eb 0b 	call	0x17d6	; 0x17d6 <eeprom_write>
	}
	
	in_main_page = 1;
     2d4:	81 e0       	ldi	r24, 0x01	; 1
     2d6:	80 93 16 02 	sts	0x0216, r24	; 0x800216 <in_main_page>
	update_run_temp_flag = 0;
     2da:	10 92 e6 02 	sts	0x02E6, r1	; 0x8002e6 <update_run_temp_flag>
}
     2de:	1f 91       	pop	r17
     2e0:	0f 91       	pop	r16
     2e2:	08 95       	ret

000002e4 <pid_set_ok>:
	
}

void pid_set_ok(void)
{
	p_value[set_pid_channel-1] = p_value_buff;
     2e4:	80 91 e0 02 	lds	r24, 0x02E0	; 0x8002e0 <set_pid_channel>
     2e8:	90 e0       	ldi	r25, 0x00	; 0
     2ea:	9c 01       	movw	r18, r24
     2ec:	21 50       	subi	r18, 0x01	; 1
     2ee:	31 09       	sbc	r19, r1
     2f0:	60 91 25 02 	lds	r22, 0x0225	; 0x800225 <p_value_buff>
     2f4:	40 91 26 02 	lds	r20, 0x0226	; 0x800226 <p_value_buff+0x1>
     2f8:	22 0f       	add	r18, r18
     2fa:	33 1f       	adc	r19, r19
     2fc:	f9 01       	movw	r30, r18
     2fe:	ea 54       	subi	r30, 0x4A	; 74
     300:	fe 4f       	sbci	r31, 0xFE	; 254
     302:	60 83       	st	Z, r22
     304:	41 83       	std	Z+1, r20	; 0x01
	i_value[set_pid_channel-1] = i_value_buff;
     306:	f9 01       	movw	r30, r18
     308:	e2 56       	subi	r30, 0x62	; 98
     30a:	fe 4f       	sbci	r31, 0xFE	; 254
     30c:	40 91 23 02 	lds	r20, 0x0223	; 0x800223 <i_value_buff>
     310:	50 91 24 02 	lds	r21, 0x0224	; 0x800224 <i_value_buff+0x1>
     314:	51 83       	std	Z+1, r21	; 0x01
     316:	40 83       	st	Z, r20
	d_value[set_pid_channel-1] = d_value_buff;
     318:	f9 01       	movw	r30, r18
     31a:	ea 57       	subi	r30, 0x7A	; 122
     31c:	fe 4f       	sbci	r31, 0xFE	; 254
     31e:	40 91 21 02 	lds	r20, 0x0221	; 0x800221 <d_value_buff>
     322:	50 91 22 02 	lds	r21, 0x0222	; 0x800222 <d_value_buff+0x1>
     326:	51 83       	std	Z+1, r21	; 0x01
     328:	40 83       	st	Z, r20
	
	ctrl_command = PID;
     32a:	22 e0       	ldi	r18, 0x02	; 2
     32c:	20 93 18 02 	sts	0x0218, r18	; 0x800218 <ctrl_command>
	
	eeprom_write(PID_P_EEADDR+((set_pid_channel-1)*2), p_value[set_pid_channel-1]);
     330:	44 96       	adiw	r24, 0x14	; 20
     332:	88 0f       	add	r24, r24
     334:	99 1f       	adc	r25, r25
     336:	0e 94 eb 0b 	call	0x17d6	; 0x17d6 <eeprom_write>
	eeprom_write(PID_P_EEADDR+((set_pid_channel-1)*2)+1, p_value[set_pid_channel-1]>>8);
     33a:	80 91 e0 02 	lds	r24, 0x02E0	; 0x8002e0 <set_pid_channel>
     33e:	90 e0       	ldi	r25, 0x00	; 0
     340:	fc 01       	movw	r30, r24
     342:	ee 0f       	add	r30, r30
     344:	ff 1f       	adc	r31, r31
     346:	ec 54       	subi	r30, 0x4C	; 76
     348:	fe 4f       	sbci	r31, 0xFE	; 254
     34a:	61 81       	ldd	r22, Z+1	; 0x01
     34c:	88 0f       	add	r24, r24
     34e:	99 1f       	adc	r25, r25
     350:	89 96       	adiw	r24, 0x29	; 41
     352:	0e 94 eb 0b 	call	0x17d6	; 0x17d6 <eeprom_write>
	
	eeprom_write(PID_I_EEADDR+((set_pid_channel-1)*2), i_value[set_pid_channel-1]);
     356:	80 91 e0 02 	lds	r24, 0x02E0	; 0x8002e0 <set_pid_channel>
     35a:	90 e0       	ldi	r25, 0x00	; 0
     35c:	fc 01       	movw	r30, r24
     35e:	ee 0f       	add	r30, r30
     360:	ff 1f       	adc	r31, r31
     362:	e4 56       	subi	r30, 0x64	; 100
     364:	fe 4f       	sbci	r31, 0xFE	; 254
     366:	80 96       	adiw	r24, 0x20	; 32
     368:	60 81       	ld	r22, Z
     36a:	88 0f       	add	r24, r24
     36c:	99 1f       	adc	r25, r25
     36e:	0e 94 eb 0b 	call	0x17d6	; 0x17d6 <eeprom_write>
	eeprom_write(PID_I_EEADDR+((set_pid_channel-1)*2)+1, i_value[set_pid_channel-1]>>8);
     372:	80 91 e0 02 	lds	r24, 0x02E0	; 0x8002e0 <set_pid_channel>
     376:	90 e0       	ldi	r25, 0x00	; 0
     378:	fc 01       	movw	r30, r24
     37a:	ee 0f       	add	r30, r30
     37c:	ff 1f       	adc	r31, r31
     37e:	e4 56       	subi	r30, 0x64	; 100
     380:	fe 4f       	sbci	r31, 0xFE	; 254
     382:	61 81       	ldd	r22, Z+1	; 0x01
     384:	88 0f       	add	r24, r24
     386:	99 1f       	adc	r25, r25
     388:	8f 5b       	subi	r24, 0xBF	; 191
     38a:	9f 4f       	sbci	r25, 0xFF	; 255
     38c:	0e 94 eb 0b 	call	0x17d6	; 0x17d6 <eeprom_write>

	eeprom_write(PID_D_EEADDR+((set_pid_channel-1)*2), d_value[set_pid_channel-1]);
     390:	80 91 e0 02 	lds	r24, 0x02E0	; 0x8002e0 <set_pid_channel>
     394:	90 e0       	ldi	r25, 0x00	; 0
     396:	fc 01       	movw	r30, r24
     398:	ee 0f       	add	r30, r30
     39a:	ff 1f       	adc	r31, r31
     39c:	ec 57       	subi	r30, 0x7C	; 124
     39e:	fe 4f       	sbci	r31, 0xFE	; 254
     3a0:	8c 96       	adiw	r24, 0x2c	; 44
     3a2:	60 81       	ld	r22, Z
     3a4:	88 0f       	add	r24, r24
     3a6:	99 1f       	adc	r25, r25
     3a8:	0e 94 eb 0b 	call	0x17d6	; 0x17d6 <eeprom_write>
	eeprom_write(PID_D_EEADDR+((set_pid_channel-1)*2)+1, d_value[set_pid_channel-1]>>8);
     3ac:	80 91 e0 02 	lds	r24, 0x02E0	; 0x8002e0 <set_pid_channel>
     3b0:	90 e0       	ldi	r25, 0x00	; 0
     3b2:	fc 01       	movw	r30, r24
     3b4:	ee 0f       	add	r30, r30
     3b6:	ff 1f       	adc	r31, r31
     3b8:	ec 57       	subi	r30, 0x7C	; 124
     3ba:	fe 4f       	sbci	r31, 0xFE	; 254
     3bc:	61 81       	ldd	r22, Z+1	; 0x01
     3be:	88 0f       	add	r24, r24
     3c0:	99 1f       	adc	r25, r25
     3c2:	87 5a       	subi	r24, 0xA7	; 167
     3c4:	9f 4f       	sbci	r25, 0xFF	; 255
     3c6:	0e 94 eb 0b 	call	0x17d6	; 0x17d6 <eeprom_write>
     3ca:	08 95       	ret

000003cc <set_pid>:

/*
**设置PID参数，通过串口1发送到控制办卡
*/
void set_pid(void)
{
     3cc:	cf 93       	push	r28
     3ce:	df 93       	push	r29
	uint16_t crc = 0;
	uint8_t addr = 0;
	
	/*计算地址，前四位代表示板卡号，后四位表示*/
	addr = (set_pid_channel-1)/4 + 1;
     3d0:	80 91 e0 02 	lds	r24, 0x02E0	; 0x8002e0 <set_pid_channel>
     3d4:	90 e0       	ldi	r25, 0x00	; 0
     3d6:	01 97       	sbiw	r24, 0x01	; 1
	addr = (addr<<4) + ((set_pid_channel-1)%4) + 1;
     3d8:	9c 01       	movw	r18, r24
     3da:	12 f4       	brpl	.+4      	; 0x3e0 <set_pid+0x14>
     3dc:	2d 5f       	subi	r18, 0xFD	; 253
     3de:	3f 4f       	sbci	r19, 0xFF	; 255
     3e0:	35 95       	asr	r19
     3e2:	27 95       	ror	r18
     3e4:	35 95       	asr	r19
     3e6:	27 95       	ror	r18
     3e8:	2f 5f       	subi	r18, 0xFF	; 255
     3ea:	22 95       	swap	r18
     3ec:	20 7f       	andi	r18, 0xF0	; 240
	
	usart1_tx_buff[0] = 0xA5;
     3ee:	ee ed       	ldi	r30, 0xDE	; 222
     3f0:	f4 e0       	ldi	r31, 0x04	; 4
     3f2:	35 ea       	ldi	r19, 0xA5	; 165
     3f4:	30 83       	st	Z, r19
	usart1_tx_buff[1] = 0x5A;
     3f6:	3a e5       	ldi	r19, 0x5A	; 90
     3f8:	31 83       	std	Z+1, r19	; 0x01
	usart1_tx_buff[2] = 0x08;
     3fa:	38 e0       	ldi	r19, 0x08	; 8
     3fc:	32 83       	std	Z+2, r19	; 0x02
	usart1_tx_buff[3] = PID;
     3fe:	32 e0       	ldi	r19, 0x02	; 2
     400:	33 83       	std	Z+3, r19	; 0x03
	usart1_tx_buff[4] = addr;
     402:	83 70       	andi	r24, 0x03	; 3
     404:	90 78       	andi	r25, 0x80	; 128
     406:	99 23       	and	r25, r25
     408:	24 f4       	brge	.+8      	; 0x412 <__LOCK_REGION_LENGTH__+0x12>
     40a:	01 97       	sbiw	r24, 0x01	; 1
     40c:	8c 6f       	ori	r24, 0xFC	; 252
     40e:	9f 6f       	ori	r25, 0xFF	; 255
     410:	01 96       	adiw	r24, 0x01	; 1
     412:	8f 5f       	subi	r24, 0xFF	; 255
     414:	82 0f       	add	r24, r18
     416:	80 93 e2 04 	sts	0x04E2, r24	; 0x8004e2 <usart1_tx_buff+0x4>
	
	usart1_tx_buff[5] =(uint8_t)(p_value_buff>>8);
     41a:	80 91 25 02 	lds	r24, 0x0225	; 0x800225 <p_value_buff>
     41e:	90 91 26 02 	lds	r25, 0x0226	; 0x800226 <p_value_buff+0x1>
     422:	ce ed       	ldi	r28, 0xDE	; 222
     424:	d4 e0       	ldi	r29, 0x04	; 4
     426:	9d 83       	std	Y+5, r25	; 0x05
	usart1_tx_buff[6] =(uint8_t)(p_value_buff);
     428:	8e 83       	std	Y+6, r24	; 0x06
	
	usart1_tx_buff[7] =(uint8_t)(i_value_buff>>8);
     42a:	80 91 23 02 	lds	r24, 0x0223	; 0x800223 <i_value_buff>
     42e:	90 91 24 02 	lds	r25, 0x0224	; 0x800224 <i_value_buff+0x1>
     432:	9f 83       	std	Y+7, r25	; 0x07
	usart1_tx_buff[8] =(uint8_t)(i_value_buff);
     434:	88 87       	std	Y+8, r24	; 0x08
	
	usart1_tx_buff[9] =(uint8_t)(d_value_buff>>8);
     436:	80 91 21 02 	lds	r24, 0x0221	; 0x800221 <d_value_buff>
     43a:	90 91 22 02 	lds	r25, 0x0222	; 0x800222 <d_value_buff+0x1>
     43e:	99 87       	std	Y+9, r25	; 0x09
	usart1_tx_buff[10] =(uint8_t)(d_value_buff);
     440:	8a 87       	std	Y+10, r24	; 0x0a
	
	crc = crc_check(usart1_tx_buff, 13);
     442:	6d e0       	ldi	r22, 0x0D	; 13
     444:	ce 01       	movw	r24, r28
     446:	0e 94 5e 13 	call	0x26bc	; 0x26bc <crc_check>

	usart1_tx_buff[11] = crc & 0x00FF;
     44a:	8b 87       	std	Y+11, r24	; 0x0b
	usart1_tx_buff[12] = crc >> 8;
     44c:	9c 87       	std	Y+12, r25	; 0x0c

	usart1_send_str(usart1_tx_buff, 13);
     44e:	6d e0       	ldi	r22, 0x0D	; 13
     450:	ce 01       	movw	r24, r28
     452:	0e 94 45 13 	call	0x268a	; 0x268a <usart1_send_str>
	
	ctrl_command = READ_DATA_ALL;
     456:	81 e0       	ldi	r24, 0x01	; 1
     458:	80 93 18 02 	sts	0x0218, r24	; 0x800218 <ctrl_command>
}
     45c:	df 91       	pop	r29
     45e:	cf 91       	pop	r28
     460:	08 95       	ret

00000462 <single_set_back>:


void single_set_back(void)
{
	if(set_temp_buff[set_num] != set_temp[set_num])
     462:	80 91 e1 02 	lds	r24, 0x02E1	; 0x8002e1 <set_num>
     466:	90 e0       	ldi	r25, 0x00	; 0
     468:	9c 01       	movw	r18, r24
     46a:	22 0f       	add	r18, r18
     46c:	33 1f       	adc	r19, r19
     46e:	f9 01       	movw	r30, r18
     470:	e2 50       	subi	r30, 0x02	; 2
     472:	fe 4f       	sbci	r31, 0xFE	; 254
     474:	40 81       	ld	r20, Z
     476:	51 81       	ldd	r21, Z+1	; 0x01
     478:	f9 01       	movw	r30, r18
     47a:	e9 5d       	subi	r30, 0xD9	; 217
     47c:	fd 4f       	sbci	r31, 0xFD	; 253
     47e:	20 81       	ld	r18, Z
     480:	31 81       	ldd	r19, Z+1	; 0x01
     482:	24 17       	cp	r18, r20
     484:	35 07       	cpc	r19, r21
     486:	39 f0       	breq	.+14     	; 0x496 <single_set_back+0x34>
	{
		set_temp_buff[set_num] = set_temp[set_num];
     488:	fc 01       	movw	r30, r24
     48a:	ee 0f       	add	r30, r30
     48c:	ff 1f       	adc	r31, r31
     48e:	e9 5d       	subi	r30, 0xD9	; 217
     490:	fd 4f       	sbci	r31, 0xFD	; 253
     492:	51 83       	std	Z+1, r21	; 0x01
     494:	40 83       	st	Z, r20
	}
	
	if(switch_sensor_buff[set_num] != switch_sensor[set_num])
     496:	9c 01       	movw	r18, r24
     498:	22 0f       	add	r18, r18
     49a:	33 1f       	adc	r19, r19
     49c:	f9 01       	movw	r30, r18
     49e:	e6 57       	subi	r30, 0x76	; 118
     4a0:	fd 4f       	sbci	r31, 0xFD	; 253
     4a2:	40 81       	ld	r20, Z
     4a4:	51 81       	ldd	r21, Z+1	; 0x01
     4a6:	f9 01       	movw	r30, r18
     4a8:	e4 5d       	subi	r30, 0xD4	; 212
     4aa:	fc 4f       	sbci	r31, 0xFC	; 252
     4ac:	20 81       	ld	r18, Z
     4ae:	31 81       	ldd	r19, Z+1	; 0x01
     4b0:	24 17       	cp	r18, r20
     4b2:	35 07       	cpc	r19, r21
     4b4:	39 f0       	breq	.+14     	; 0x4c4 <single_set_back+0x62>
	{
		switch_sensor_buff[set_num] = switch_sensor[set_num];
     4b6:	fc 01       	movw	r30, r24
     4b8:	ee 0f       	add	r30, r30
     4ba:	ff 1f       	adc	r31, r31
     4bc:	e4 5d       	subi	r30, 0xD4	; 212
     4be:	fc 4f       	sbci	r31, 0xFC	; 252
     4c0:	51 83       	std	Z+1, r21	; 0x01
     4c2:	40 83       	st	Z, r20
	}
	
	if(sensor_type_buff[set_num] != sensor_type[set_num])
     4c4:	9c 01       	movw	r18, r24
     4c6:	22 0f       	add	r18, r18
     4c8:	33 1f       	adc	r19, r19
     4ca:	f9 01       	movw	r30, r18
     4cc:	ee 58       	subi	r30, 0x8E	; 142
     4ce:	fd 4f       	sbci	r31, 0xFD	; 253
     4d0:	40 81       	ld	r20, Z
     4d2:	51 81       	ldd	r21, Z+1	; 0x01
     4d4:	f9 01       	movw	r30, r18
     4d6:	ec 5e       	subi	r30, 0xEC	; 236
     4d8:	fc 4f       	sbci	r31, 0xFC	; 252
     4da:	20 81       	ld	r18, Z
     4dc:	31 81       	ldd	r19, Z+1	; 0x01
     4de:	24 17       	cp	r18, r20
     4e0:	35 07       	cpc	r19, r21
     4e2:	39 f0       	breq	.+14     	; 0x4f2 <single_set_back+0x90>
	{
		sensor_type_buff[set_num] = sensor_type[set_num];
     4e4:	88 0f       	add	r24, r24
     4e6:	99 1f       	adc	r25, r25
     4e8:	fc 01       	movw	r30, r24
     4ea:	ec 5e       	subi	r30, 0xEC	; 236
     4ec:	fc 4f       	sbci	r31, 0xFC	; 252
     4ee:	51 83       	std	Z+1, r21	; 0x01
     4f0:	40 83       	st	Z, r20
	}
	
	in_main_page = 1;
     4f2:	81 e0       	ldi	r24, 0x01	; 1
     4f4:	80 93 16 02 	sts	0x0216, r24	; 0x800216 <in_main_page>
	update_run_temp_flag = 0;
     4f8:	10 92 e6 02 	sts	0x02E6, r1	; 0x8002e6 <update_run_temp_flag>
     4fc:	08 95       	ret

000004fe <switch_all_sensor>:
{
	uint8_t i = 0;
	uint16_t crc = 0;
	static uint8_t global_set_num = 1;
	
	usart1_tx_buff[4] = global_set_num << 4;
     4fe:	20 91 01 01 	lds	r18, 0x0101	; 0x800101 <global_set_num.1865>
     502:	32 2f       	mov	r19, r18
     504:	32 95       	swap	r19
     506:	30 7f       	andi	r19, 0xF0	; 240
     508:	30 93 e2 04 	sts	0x04E2, r19	; 0x8004e2 <usart1_tx_buff+0x4>
	
	if(global_set_num == 1)
     50c:	21 30       	cpi	r18, 0x01	; 1
     50e:	09 f5       	brne	.+66     	; 0x552 <switch_all_sensor+0x54>
	{
		usart1_tx_buff[0] = 0xA5;
     510:	ee ed       	ldi	r30, 0xDE	; 222
     512:	f4 e0       	ldi	r31, 0x04	; 4
     514:	25 ea       	ldi	r18, 0xA5	; 165
     516:	20 83       	st	Z, r18
		usart1_tx_buff[1] = 0x5A;
     518:	2a e5       	ldi	r18, 0x5A	; 90
     51a:	21 83       	std	Z+1, r18	; 0x01
		usart1_tx_buff[2] = 0x04;
     51c:	24 e0       	ldi	r18, 0x04	; 4
     51e:	22 83       	std	Z+2, r18	; 0x02
		usart1_tx_buff[3] = 0x06;
     520:	26 e0       	ldi	r18, 0x06	; 6
     522:	23 83       	std	Z+3, r18	; 0x03
		usart1_tx_buff[5] = 0x00;
     524:	15 82       	std	Z+5, r1	; 0x05
		usart1_tx_buff[6] = sta;
     526:	86 83       	std	Z+6, r24	; 0x06
		
		pre_system_sta = sta;
     528:	80 93 e2 02 	sts	0x02E2, r24	; 0x8002e2 <pre_system_sta>
     52c:	90 93 e3 02 	sts	0x02E3, r25	; 0x8002e3 <pre_system_sta+0x1>
     530:	ea e8       	ldi	r30, 0x8A	; 138
     532:	f2 e0       	ldi	r31, 0x02	; 2
     534:	ac e2       	ldi	r26, 0x2C	; 44
     536:	b3 e0       	ldi	r27, 0x03	; 3
     538:	22 ea       	ldi	r18, 0xA2	; 162
     53a:	32 e0       	ldi	r19, 0x02	; 2
		
		for(i=0; i<12; i++)
		{
			switch_sensor[i] = sta;
     53c:	80 83       	st	Z, r24
     53e:	91 83       	std	Z+1, r25	; 0x01
     540:	32 96       	adiw	r30, 0x02	; 2
			switch_sensor_buff[i] = sta;
     542:	8c 93       	st	X, r24
     544:	11 96       	adiw	r26, 0x01	; 1
     546:	9c 93       	st	X, r25
     548:	11 97       	sbiw	r26, 0x01	; 1
     54a:	12 96       	adiw	r26, 0x02	; 2
		usart1_tx_buff[5] = 0x00;
		usart1_tx_buff[6] = sta;
		
		pre_system_sta = sta;
		
		for(i=0; i<12; i++)
     54c:	e2 17       	cp	r30, r18
     54e:	f3 07       	cpc	r31, r19
     550:	a9 f7       	brne	.-22     	; 0x53c <switch_all_sensor+0x3e>
			switch_sensor_buff[i] = sta;
//			eeprom_write(SINGLE_SWSENSOR_EEADDR+i, switch_sensor[i]);
		}		
	}
	
	crc = crc_check(usart1_tx_buff, 9);
     552:	69 e0       	ldi	r22, 0x09	; 9
     554:	8e ed       	ldi	r24, 0xDE	; 222
     556:	94 e0       	ldi	r25, 0x04	; 4
     558:	0e 94 5e 13 	call	0x26bc	; 0x26bc <crc_check>
	
	usart1_tx_buff[7] = crc & 0x00FF;
     55c:	ee ed       	ldi	r30, 0xDE	; 222
     55e:	f4 e0       	ldi	r31, 0x04	; 4
     560:	87 83       	std	Z+7, r24	; 0x07
	usart1_tx_buff[8] = crc >> 8;
     562:	90 87       	std	Z+8, r25	; 0x08
	
	usart1_send_str(usart1_tx_buff, 9);
     564:	69 e0       	ldi	r22, 0x09	; 9
     566:	cf 01       	movw	r24, r30
     568:	0e 94 45 13 	call	0x268a	; 0x268a <usart1_send_str>
	
	global_set_num++;
     56c:	80 91 01 01 	lds	r24, 0x0101	; 0x800101 <global_set_num.1865>
     570:	8f 5f       	subi	r24, 0xFF	; 255
	
	if(global_set_num >= 4)
     572:	84 30       	cpi	r24, 0x04	; 4
     574:	18 f4       	brcc	.+6      	; 0x57c <switch_all_sensor+0x7e>
	usart1_tx_buff[7] = crc & 0x00FF;
	usart1_tx_buff[8] = crc >> 8;
	
	usart1_send_str(usart1_tx_buff, 9);
	
	global_set_num++;
     576:	80 93 01 01 	sts	0x0101, r24	; 0x800101 <global_set_num.1865>
     57a:	08 95       	ret
	
	if(global_set_num >= 4)
	{
		global_set_num = 1;
     57c:	81 e0       	ldi	r24, 0x01	; 1
     57e:	80 93 01 01 	sts	0x0101, r24	; 0x800101 <global_set_num.1865>
		ctrl_command = READ_DATA_ALL;
     582:	80 93 18 02 	sts	0x0218, r24	; 0x800218 <ctrl_command>
     586:	08 95       	ret

00000588 <get_set_name>:
	}
}

void get_set_name(void)
{
	set_name_buff = usart0_rx_buff[7];
     588:	e3 e1       	ldi	r30, 0x13	; 19
     58a:	f4 e0       	ldi	r31, 0x04	; 4
	set_name_buff = (set_name_buff<<8) | usart0_rx_buff[8];
	set_name_buff = (set_name_buff<<8) | usart0_rx_buff[9];
	set_name_buff = (set_name_buff<<8) | usart0_rx_buff[10];
     58c:	87 81       	ldd	r24, Z+7	; 0x07
     58e:	90 e0       	ldi	r25, 0x00	; 0
     590:	a0 e0       	ldi	r26, 0x00	; 0
     592:	b0 e0       	ldi	r27, 0x00	; 0
     594:	ba 2f       	mov	r27, r26
     596:	a9 2f       	mov	r26, r25
     598:	98 2f       	mov	r25, r24
     59a:	88 27       	eor	r24, r24
     59c:	20 85       	ldd	r18, Z+8	; 0x08
     59e:	82 2b       	or	r24, r18
     5a0:	ba 2f       	mov	r27, r26
     5a2:	a9 2f       	mov	r26, r25
     5a4:	98 2f       	mov	r25, r24
     5a6:	88 27       	eor	r24, r24
     5a8:	21 85       	ldd	r18, Z+9	; 0x09
     5aa:	82 2b       	or	r24, r18
     5ac:	ba 2f       	mov	r27, r26
     5ae:	a9 2f       	mov	r26, r25
     5b0:	98 2f       	mov	r25, r24
     5b2:	88 27       	eor	r24, r24
     5b4:	22 85       	ldd	r18, Z+10	; 0x0a
     5b6:	82 2b       	or	r24, r18
     5b8:	80 93 6e 02 	sts	0x026E, r24	; 0x80026e <set_name_buff>
     5bc:	90 93 6f 02 	sts	0x026F, r25	; 0x80026f <set_name_buff+0x1>
     5c0:	a0 93 70 02 	sts	0x0270, r26	; 0x800270 <set_name_buff+0x2>
     5c4:	b0 93 71 02 	sts	0x0271, r27	; 0x800271 <set_name_buff+0x3>
     5c8:	08 95       	ret

000005ca <single_set>:
}

void single_set(uint8_t command, uint16_t value)
{
     5ca:	cf 93       	push	r28
     5cc:	df 93       	push	r29
     5ce:	e8 2f       	mov	r30, r24
	uint16_t crc = 0;
	uint8_t addr = 0;
	
	if(temp_unit_buff  ==  1)
     5d0:	80 91 44 03 	lds	r24, 0x0344	; 0x800344 <temp_unit_buff>
     5d4:	90 91 45 03 	lds	r25, 0x0345	; 0x800345 <temp_unit_buff+0x1>
     5d8:	01 97       	sbiw	r24, 0x01	; 1
     5da:	c1 f4       	brne	.+48     	; 0x60c <single_set+0x42>
	{
		value = ((value - 32)*10/18);
     5dc:	9b 01       	movw	r18, r22
     5de:	22 0f       	add	r18, r18
     5e0:	33 1f       	adc	r19, r19
     5e2:	66 0f       	add	r22, r22
     5e4:	77 1f       	adc	r23, r23
     5e6:	66 0f       	add	r22, r22
     5e8:	77 1f       	adc	r23, r23
     5ea:	66 0f       	add	r22, r22
     5ec:	77 1f       	adc	r23, r23
     5ee:	26 0f       	add	r18, r22
     5f0:	37 1f       	adc	r19, r23
     5f2:	20 54       	subi	r18, 0x40	; 64
     5f4:	31 40       	sbci	r19, 0x01	; 1
     5f6:	af e8       	ldi	r26, 0x8F	; 143
     5f8:	b3 ee       	ldi	r27, 0xE3	; 227
     5fa:	0e 94 34 15 	call	0x2a68	; 0x2a68 <__umulhisi3>
     5fe:	bc 01       	movw	r22, r24
     600:	72 95       	swap	r23
     602:	62 95       	swap	r22
     604:	6f 70       	andi	r22, 0x0F	; 15
     606:	67 27       	eor	r22, r23
     608:	7f 70       	andi	r23, 0x0F	; 15
     60a:	67 27       	eor	r22, r23
	}
	
	addr = (set_num/4) + 1;
     60c:	30 91 e1 02 	lds	r19, 0x02E1	; 0x8002e1 <set_num>
	addr = (addr<<4) | ((set_num%4)+1);
     610:	93 2f       	mov	r25, r19
     612:	96 95       	lsr	r25
     614:	96 95       	lsr	r25
     616:	9f 5f       	subi	r25, 0xFF	; 255
     618:	80 e1       	ldi	r24, 0x10	; 16
     61a:	98 9f       	mul	r25, r24
     61c:	a0 01       	movw	r20, r0
     61e:	11 24       	eor	r1, r1
     620:	33 70       	andi	r19, 0x03	; 3
     622:	3f 5f       	subi	r19, 0xFF	; 255
     624:	43 2b       	or	r20, r19

	usart1_tx_buff[0] = 0xA5;
     626:	ce ed       	ldi	r28, 0xDE	; 222
     628:	d4 e0       	ldi	r29, 0x04	; 4
     62a:	85 ea       	ldi	r24, 0xA5	; 165
     62c:	88 83       	st	Y, r24
	usart1_tx_buff[1] = 0x5A;
     62e:	8a e5       	ldi	r24, 0x5A	; 90
     630:	89 83       	std	Y+1, r24	; 0x01
	usart1_tx_buff[2] = 0x04;
     632:	84 e0       	ldi	r24, 0x04	; 4
     634:	8a 83       	std	Y+2, r24	; 0x02
	usart1_tx_buff[3] = command;
     636:	eb 83       	std	Y+3, r30	; 0x03
	usart1_tx_buff[4] = addr;
     638:	4c 83       	std	Y+4, r20	; 0x04
	usart1_tx_buff[5] = (value>>8);
     63a:	7d 83       	std	Y+5, r23	; 0x05
	usart1_tx_buff[6] = value;
     63c:	6e 83       	std	Y+6, r22	; 0x06

	crc = crc_check(usart1_tx_buff, 9);
     63e:	69 e0       	ldi	r22, 0x09	; 9
     640:	ce 01       	movw	r24, r28
     642:	0e 94 5e 13 	call	0x26bc	; 0x26bc <crc_check>

	usart1_tx_buff[7] = crc & 0x00FF;
     646:	8f 83       	std	Y+7, r24	; 0x07
	usart1_tx_buff[8] = crc >> 8;
     648:	98 87       	std	Y+8, r25	; 0x08

	usart1_send_str(usart1_tx_buff, 9);	
     64a:	69 e0       	ldi	r22, 0x09	; 9
     64c:	ce 01       	movw	r24, r28
     64e:	0e 94 45 13 	call	0x268a	; 0x268a <usart1_send_str>
	
	ctrl_command = READ_DATA_ALL;
     652:	81 e0       	ldi	r24, 0x01	; 1
     654:	80 93 18 02 	sts	0x0218, r24	; 0x800218 <ctrl_command>
}
     658:	df 91       	pop	r29
     65a:	cf 91       	pop	r28
     65c:	08 95       	ret

0000065e <all_set>:

void all_set(uint8_t command, uint16_t value)
{
     65e:	cf 93       	push	r28
     660:	df 93       	push	r29
     662:	48 2f       	mov	r20, r24
	uint16_t crc = 0;
	static uint8_t slave_num = 1;
	
	if(temp_unit_buff  ==  1)
     664:	80 91 44 03 	lds	r24, 0x0344	; 0x800344 <temp_unit_buff>
     668:	90 91 45 03 	lds	r25, 0x0345	; 0x800345 <temp_unit_buff+0x1>
     66c:	01 97       	sbiw	r24, 0x01	; 1
     66e:	c1 f4       	brne	.+48     	; 0x6a0 <all_set+0x42>
	{
		value = ((value - 32)*10/18);
     670:	9b 01       	movw	r18, r22
     672:	22 0f       	add	r18, r18
     674:	33 1f       	adc	r19, r19
     676:	66 0f       	add	r22, r22
     678:	77 1f       	adc	r23, r23
     67a:	66 0f       	add	r22, r22
     67c:	77 1f       	adc	r23, r23
     67e:	66 0f       	add	r22, r22
     680:	77 1f       	adc	r23, r23
     682:	26 0f       	add	r18, r22
     684:	37 1f       	adc	r19, r23
     686:	20 54       	subi	r18, 0x40	; 64
     688:	31 40       	sbci	r19, 0x01	; 1
     68a:	af e8       	ldi	r26, 0x8F	; 143
     68c:	b3 ee       	ldi	r27, 0xE3	; 227
     68e:	0e 94 34 15 	call	0x2a68	; 0x2a68 <__umulhisi3>
     692:	bc 01       	movw	r22, r24
     694:	72 95       	swap	r23
     696:	62 95       	swap	r22
     698:	6f 70       	andi	r22, 0x0F	; 15
     69a:	67 27       	eor	r22, r23
     69c:	7f 70       	andi	r23, 0x0F	; 15
     69e:	67 27       	eor	r22, r23
	}
		
	usart1_tx_buff[0] = 0xA5;
     6a0:	ce ed       	ldi	r28, 0xDE	; 222
     6a2:	d4 e0       	ldi	r29, 0x04	; 4
     6a4:	85 ea       	ldi	r24, 0xA5	; 165
     6a6:	88 83       	st	Y, r24
	usart1_tx_buff[1] = 0x5A;
     6a8:	8a e5       	ldi	r24, 0x5A	; 90
     6aa:	89 83       	std	Y+1, r24	; 0x01
	usart1_tx_buff[2] = 0x04;
     6ac:	84 e0       	ldi	r24, 0x04	; 4
     6ae:	8a 83       	std	Y+2, r24	; 0x02
	usart1_tx_buff[3] = command;
     6b0:	4b 83       	std	Y+3, r20	; 0x03
	usart1_tx_buff[5] = (value>>8);
     6b2:	7d 83       	std	Y+5, r23	; 0x05
	usart1_tx_buff[6] = value;
     6b4:	6e 83       	std	Y+6, r22	; 0x06
	
	usart1_tx_buff[4] = slave_num<<4;
     6b6:	80 91 00 01 	lds	r24, 0x0100	; 0x800100 <__data_start>
     6ba:	82 95       	swap	r24
     6bc:	80 7f       	andi	r24, 0xF0	; 240
     6be:	8c 83       	std	Y+4, r24	; 0x04
	
	crc = crc_check(usart1_tx_buff, 9);
     6c0:	69 e0       	ldi	r22, 0x09	; 9
     6c2:	ce 01       	movw	r24, r28
     6c4:	0e 94 5e 13 	call	0x26bc	; 0x26bc <crc_check>
	
	usart1_tx_buff[7] = crc & 0x00FF;
     6c8:	8f 83       	std	Y+7, r24	; 0x07
	usart1_tx_buff[8] = crc >> 8;
     6ca:	98 87       	std	Y+8, r25	; 0x08
	
	usart1_send_str(usart1_tx_buff, 9);
     6cc:	69 e0       	ldi	r22, 0x09	; 9
     6ce:	ce 01       	movw	r24, r28
     6d0:	0e 94 45 13 	call	0x268a	; 0x268a <usart1_send_str>
	
	slave_num++;
     6d4:	80 91 00 01 	lds	r24, 0x0100	; 0x800100 <__data_start>
     6d8:	8f 5f       	subi	r24, 0xFF	; 255
	if(slave_num >= 4)
     6da:	84 30       	cpi	r24, 0x04	; 4
     6dc:	18 f4       	brcc	.+6      	; 0x6e4 <all_set+0x86>
	usart1_tx_buff[7] = crc & 0x00FF;
	usart1_tx_buff[8] = crc >> 8;
	
	usart1_send_str(usart1_tx_buff, 9);
	
	slave_num++;
     6de:	80 93 00 01 	sts	0x0100, r24	; 0x800100 <__data_start>
     6e2:	03 c0       	rjmp	.+6      	; 0x6ea <all_set+0x8c>
	if(slave_num >= 4)
	{
		slave_num = 1;
     6e4:	81 e0       	ldi	r24, 0x01	; 1
     6e6:	80 93 00 01 	sts	0x0100, r24	; 0x800100 <__data_start>
	}
}
     6ea:	df 91       	pop	r29
     6ec:	cf 91       	pop	r28
     6ee:	08 95       	ret

000006f0 <change_page>:
	
	eeprom_write(PRE_LANGUAGE_EEADDR, pre_language);
}

void change_page(uint8_t page_num)
{
     6f0:	cf 93       	push	r28
     6f2:	df 93       	push	r29
	uint16_t crc = 0;
	
	usart0_tx_buff[0] = 0xA5;
     6f4:	cb e4       	ldi	r28, 0x4B	; 75
     6f6:	d3 e0       	ldi	r29, 0x03	; 3
     6f8:	95 ea       	ldi	r25, 0xA5	; 165
     6fa:	98 83       	st	Y, r25
	usart0_tx_buff[1] = 0x5A;
     6fc:	9a e5       	ldi	r25, 0x5A	; 90
     6fe:	99 83       	std	Y+1, r25	; 0x01
	usart0_tx_buff[2] = 0x04;			//4.3寸屏为4  5寸屏为6
     700:	94 e0       	ldi	r25, 0x04	; 4
     702:	9a 83       	std	Y+2, r25	; 0x02
	usart0_tx_buff[3] = 0x80;
     704:	90 e8       	ldi	r25, 0x80	; 128
     706:	9b 83       	std	Y+3, r25	; 0x03
	usart0_tx_buff[4] = 0x03;
     708:	93 e0       	ldi	r25, 0x03	; 3
     70a:	9c 83       	std	Y+4, r25	; 0x04
	usart0_tx_buff[5] = 0x00;
     70c:	1d 82       	std	Y+5, r1	; 0x05
	usart0_tx_buff[6] = page_num;
     70e:	8e 83       	std	Y+6, r24	; 0x06

	crc = crc_check(usart0_tx_buff, 9);
     710:	69 e0       	ldi	r22, 0x09	; 9
     712:	ce 01       	movw	r24, r28
     714:	0e 94 5e 13 	call	0x26bc	; 0x26bc <crc_check>

	usart0_tx_buff[7] = crc & 0x00FF;
     718:	8f 83       	std	Y+7, r24	; 0x07
	usart0_tx_buff[8] = crc >> 8;
     71a:	98 87       	std	Y+8, r25	; 0x08

	usart0_send_str(usart0_tx_buff, 9);
     71c:	69 e0       	ldi	r22, 0x09	; 9
     71e:	ce 01       	movw	r24, r28
     720:	0e 94 24 13 	call	0x2648	; 0x2648 <usart0_send_str>
}
     724:	df 91       	pop	r29
     726:	cf 91       	pop	r28
     728:	08 95       	ret

0000072a <switch_language>:
	}
}

void switch_language(void)
{
	if(pre_language == 1)
     72a:	80 91 e5 02 	lds	r24, 0x02E5	; 0x8002e5 <pre_language>
     72e:	81 30       	cpi	r24, 0x01	; 1
     730:	21 f4       	brne	.+8      	; 0x73a <switch_language+0x10>
	{
		change_page(3);		//暂定英文页面为13
     732:	83 e0       	ldi	r24, 0x03	; 3
     734:	0e 94 78 03 	call	0x6f0	; 0x6f0 <change_page>
     738:	03 c0       	rjmp	.+6      	; 0x740 <switch_language+0x16>
	}
	else
	{
		change_page(1);
     73a:	81 e0       	ldi	r24, 0x01	; 1
     73c:	0e 94 78 03 	call	0x6f0	; 0x6f0 <change_page>
	}
	
	eeprom_write(PRE_LANGUAGE_EEADDR, pre_language);
     740:	60 91 e5 02 	lds	r22, 0x02E5	; 0x8002e5 <pre_language>
     744:	80 e0       	ldi	r24, 0x00	; 0
     746:	90 e0       	ldi	r25, 0x00	; 0
     748:	0e 94 eb 0b 	call	0x17d6	; 0x17d6 <eeprom_write>
     74c:	08 95       	ret

0000074e <send_variables>:
  * @brief  指定地址下发变量到dgus
  * @param  addr变量地址  data变量值
  * @retval None
  */
void send_variables(uint16_t addr, uint16_t data)
{
     74e:	cf 93       	push	r28
     750:	df 93       	push	r29
	uint16_t crc = 0;
	usart0_tx_buff[0] = 0xA5;
     752:	cb e4       	ldi	r28, 0x4B	; 75
     754:	d3 e0       	ldi	r29, 0x03	; 3
     756:	25 ea       	ldi	r18, 0xA5	; 165
     758:	28 83       	st	Y, r18
	usart0_tx_buff[1] = 0x5A;
     75a:	2a e5       	ldi	r18, 0x5A	; 90
     75c:	29 83       	std	Y+1, r18	; 0x01
	usart0_tx_buff[2] = 0x05;
     75e:	25 e0       	ldi	r18, 0x05	; 5
     760:	2a 83       	std	Y+2, r18	; 0x02
	usart0_tx_buff[3] = 0x82;
     762:	22 e8       	ldi	r18, 0x82	; 130
     764:	2b 83       	std	Y+3, r18	; 0x03
	usart0_tx_buff[4] = addr >> 8;
     766:	9c 83       	std	Y+4, r25	; 0x04
	usart0_tx_buff[5] = addr & 0x00FF;
     768:	8d 83       	std	Y+5, r24	; 0x05
	usart0_tx_buff[6] = data >> 8;
     76a:	7e 83       	std	Y+6, r23	; 0x06
	usart0_tx_buff[7] = data & 0x00FF;
     76c:	6f 83       	std	Y+7, r22	; 0x07

	crc = crc_check(usart0_tx_buff, 10);
     76e:	6a e0       	ldi	r22, 0x0A	; 10
     770:	ce 01       	movw	r24, r28
     772:	0e 94 5e 13 	call	0x26bc	; 0x26bc <crc_check>

	usart0_tx_buff[8] = crc & 0x00FF;
     776:	88 87       	std	Y+8, r24	; 0x08
	usart0_tx_buff[9] = crc >> 8;
     778:	99 87       	std	Y+9, r25	; 0x09

	usart0_send_str(usart0_tx_buff, 10);
     77a:	6a e0       	ldi	r22, 0x0A	; 10
     77c:	ce 01       	movw	r24, r28
     77e:	0e 94 24 13 	call	0x2648	; 0x2648 <usart0_send_str>
}
     782:	df 91       	pop	r29
     784:	cf 91       	pop	r28
     786:	08 95       	ret

00000788 <all_set_ok>:
	in_main_page = 1;
	update_run_temp_flag = 0;
}

void all_set_ok(void)
{
     788:	af 92       	push	r10
     78a:	bf 92       	push	r11
     78c:	cf 92       	push	r12
     78e:	df 92       	push	r13
     790:	ef 92       	push	r14
     792:	ff 92       	push	r15
     794:	0f 93       	push	r16
     796:	1f 93       	push	r17
     798:	cf 93       	push	r28
     79a:	df 93       	push	r29
	uint8_t i = 0;
	static uint8_t all_set_num = 0;
	
	if(all_set_num <= 2)
     79c:	80 91 58 02 	lds	r24, 0x0258	; 0x800258 <__data_end>
     7a0:	83 30       	cpi	r24, 0x03	; 3
     7a2:	08 f0       	brcs	.+2      	; 0x7a6 <all_set_ok+0x1e>
     7a4:	66 c0       	rjmp	.+204    	; 0x872 <all_set_ok+0xea>
	{
		all_temp = all_temp_buff;
     7a6:	60 91 41 02 	lds	r22, 0x0241	; 0x800241 <all_temp_buff>
     7aa:	70 91 42 02 	lds	r23, 0x0242	; 0x800242 <all_temp_buff+0x1>
     7ae:	70 93 43 01 	sts	0x0143, r23	; 0x800143 <all_temp+0x1>
     7b2:	60 93 42 01 	sts	0x0142, r22	; 0x800142 <all_temp>
		all_set(TEMP, all_temp);
     7b6:	83 e0       	ldi	r24, 0x03	; 3
     7b8:	0e 94 2f 03 	call	0x65e	; 0x65e <all_set>
		
		eeprom_write(ALL_SETTEMP_EEADDR, all_temp);
     7bc:	60 91 42 01 	lds	r22, 0x0142	; 0x800142 <all_temp>
     7c0:	83 e0       	ldi	r24, 0x03	; 3
     7c2:	90 e0       	ldi	r25, 0x00	; 0
     7c4:	0e 94 eb 0b 	call	0x17d6	; 0x17d6 <eeprom_write>
		eeprom_write(ALL_SETTEMP_EEADDR+1, all_temp>>8);
     7c8:	60 91 43 01 	lds	r22, 0x0143	; 0x800143 <all_temp+0x1>
     7cc:	84 e0       	ldi	r24, 0x04	; 4
     7ce:	90 e0       	ldi	r25, 0x00	; 0
     7d0:	0e 94 eb 0b 	call	0x17d6	; 0x17d6 <eeprom_write>
     7d4:	07 e2       	ldi	r16, 0x27	; 39
     7d6:	12 e0       	ldi	r17, 0x02	; 2
     7d8:	ce ef       	ldi	r28, 0xFE	; 254
     7da:	d1 e0       	ldi	r29, 0x01	; 1
     7dc:	0f 2e       	mov	r0, r31
     7de:	ff e3       	ldi	r31, 0x3F	; 63
     7e0:	af 2e       	mov	r10, r31
     7e2:	f2 e0       	ldi	r31, 0x02	; 2
     7e4:	bf 2e       	mov	r11, r31
     7e6:	f0 2d       	mov	r31, r0
     7e8:	0f 2e       	mov	r0, r31
     7ea:	f6 e0       	ldi	r31, 0x06	; 6
     7ec:	ef 2e       	mov	r14, r31
     7ee:	f1 2c       	mov	r15, r1
     7f0:	f0 2d       	mov	r31, r0
		
		for(i=0; i<12; i++)
		{
			set_temp[i] = all_temp;
     7f2:	60 91 42 01 	lds	r22, 0x0142	; 0x800142 <all_temp>
     7f6:	80 91 43 01 	lds	r24, 0x0143	; 0x800143 <all_temp+0x1>
     7fa:	68 83       	st	Y, r22
     7fc:	89 83       	std	Y+1, r24	; 0x01
			set_temp_buff[i] = all_temp;
     7fe:	f8 01       	movw	r30, r16
     800:	60 83       	st	Z, r22
     802:	81 83       	std	Z+1, r24	; 0x01
     804:	0e 5f       	subi	r16, 0xFE	; 254
     806:	1f 4f       	sbci	r17, 0xFF	; 255
			eeprom_write(SINGLE_SETTEMP_EEADDR+(i*2), set_temp[i]);
     808:	c7 01       	movw	r24, r14
     80a:	01 97       	sbiw	r24, 0x01	; 1
     80c:	0e 94 eb 0b 	call	0x17d6	; 0x17d6 <eeprom_write>
			eeprom_write(SINGLE_SETTEMP_EEADDR+(i*2)+1, set_temp[i]>>8);
     810:	69 81       	ldd	r22, Y+1	; 0x01
     812:	22 96       	adiw	r28, 0x02	; 2
     814:	c7 01       	movw	r24, r14
     816:	0e 94 eb 0b 	call	0x17d6	; 0x17d6 <eeprom_write>
     81a:	f2 e0       	ldi	r31, 0x02	; 2
     81c:	ef 0e       	add	r14, r31
     81e:	f1 1c       	adc	r15, r1
		all_set(TEMP, all_temp);
		
		eeprom_write(ALL_SETTEMP_EEADDR, all_temp);
		eeprom_write(ALL_SETTEMP_EEADDR+1, all_temp>>8);
		
		for(i=0; i<12; i++)
     820:	0a 15       	cp	r16, r10
     822:	1b 05       	cpc	r17, r11
     824:	31 f7       	brne	.-52     	; 0x7f2 <all_set_ok+0x6a>
			set_temp_buff[i] = all_temp;
			eeprom_write(SINGLE_SETTEMP_EEADDR+(i*2), set_temp[i]);
			eeprom_write(SINGLE_SETTEMP_EEADDR+(i*2)+1, set_temp[i]>>8);
		}
		
		if(temp_unit_buff != temp_unit)
     826:	80 91 44 03 	lds	r24, 0x0344	; 0x800344 <temp_unit_buff>
     82a:	90 91 45 03 	lds	r25, 0x0345	; 0x800345 <temp_unit_buff+0x1>
     82e:	20 91 5a 02 	lds	r18, 0x025A	; 0x80025a <temp_unit>
     832:	30 91 5b 02 	lds	r19, 0x025B	; 0x80025b <temp_unit+0x1>
     836:	82 17       	cp	r24, r18
     838:	93 07       	cpc	r25, r19
     83a:	c1 f0       	breq	.+48     	; 0x86c <all_set_ok+0xe4>
		{
			temp_unit = temp_unit_buff;
     83c:	90 93 5b 02 	sts	0x025B, r25	; 0x80025b <temp_unit+0x1>
     840:	80 93 5a 02 	sts	0x025A, r24	; 0x80025a <temp_unit>
			send_variables(TEMP_UINT_ADDR, (CELSIUS+temp_unit*FAHRENHEIT));
     844:	20 e0       	ldi	r18, 0x00	; 0
     846:	33 e0       	ldi	r19, 0x03	; 3
     848:	82 9f       	mul	r24, r18
     84a:	b0 01       	movw	r22, r0
     84c:	83 9f       	mul	r24, r19
     84e:	70 0d       	add	r23, r0
     850:	92 9f       	mul	r25, r18
     852:	70 0d       	add	r23, r0
     854:	11 24       	eor	r1, r1
     856:	7d 5b       	subi	r23, 0xBD	; 189
     858:	8c e3       	ldi	r24, 0x3C	; 60
     85a:	92 e0       	ldi	r25, 0x02	; 2
     85c:	0e 94 a7 03 	call	0x74e	; 0x74e <send_variables>
			eeprom_write(TEMP_UNIT_EEADDR, temp_unit);
     860:	60 91 5a 02 	lds	r22, 0x025A	; 0x80025a <temp_unit>
     864:	82 e0       	ldi	r24, 0x02	; 2
     866:	90 e0       	ldi	r25, 0x00	; 0
     868:	0e 94 eb 0b 	call	0x17d6	; 0x17d6 <eeprom_write>
		}
		
		in_main_page = 1;
     86c:	81 e0       	ldi	r24, 0x01	; 1
     86e:	80 93 16 02 	sts	0x0216, r24	; 0x800216 <in_main_page>
	}
	
	if(all_set_num <= 5)
     872:	80 91 58 02 	lds	r24, 0x0258	; 0x800258 <__data_end>
     876:	86 30       	cpi	r24, 0x06	; 6
     878:	c0 f4       	brcc	.+48     	; 0x8aa <all_set_ok+0x122>
	{
		if(preheat_time_buff != preheat_time)
     87a:	60 91 3f 02 	lds	r22, 0x023F	; 0x80023f <preheat_time_buff>
     87e:	70 91 40 02 	lds	r23, 0x0240	; 0x800240 <preheat_time_buff+0x1>
     882:	80 91 44 01 	lds	r24, 0x0144	; 0x800144 <preheat_time>
     886:	90 91 45 01 	lds	r25, 0x0145	; 0x800145 <preheat_time+0x1>
     88a:	68 17       	cp	r22, r24
     88c:	79 07       	cpc	r23, r25
     88e:	69 f0       	breq	.+26     	; 0x8aa <all_set_ok+0x122>
		{
			preheat_time = preheat_time_buff;
     890:	70 93 45 01 	sts	0x0145, r23	; 0x800145 <preheat_time+0x1>
     894:	60 93 44 01 	sts	0x0144, r22	; 0x800144 <preheat_time>
			
			all_set(PREHEAT_TIME, preheat_time);
     898:	84 e0       	ldi	r24, 0x04	; 4
     89a:	0e 94 2f 03 	call	0x65e	; 0x65e <all_set>
			
			eeprom_write(PREHEAT_TIME_EEADDR, preheat_time);
     89e:	60 91 44 01 	lds	r22, 0x0144	; 0x800144 <preheat_time>
     8a2:	8e ef       	ldi	r24, 0xFE	; 254
     8a4:	90 e0       	ldi	r25, 0x00	; 0
     8a6:	0e 94 eb 0b 	call	0x17d6	; 0x17d6 <eeprom_write>
		}
	}
	
	if(all_set_num <= 8)
     8aa:	80 91 58 02 	lds	r24, 0x0258	; 0x800258 <__data_end>
     8ae:	89 30       	cpi	r24, 0x09	; 9
     8b0:	08 f0       	brcs	.+2      	; 0x8b4 <all_set_ok+0x12c>
     8b2:	48 c0       	rjmp	.+144    	; 0x944 <all_set_ok+0x1bc>
	{
		if(all_sensor_type_buff != all_sensor_type)
     8b4:	60 91 46 03 	lds	r22, 0x0346	; 0x800346 <all_sensor_type_buff>
     8b8:	70 91 47 03 	lds	r23, 0x0347	; 0x800347 <all_sensor_type_buff+0x1>
     8bc:	80 91 5c 02 	lds	r24, 0x025C	; 0x80025c <all_sensor_type>
     8c0:	90 91 5d 02 	lds	r25, 0x025D	; 0x80025d <all_sensor_type+0x1>
     8c4:	68 17       	cp	r22, r24
     8c6:	79 07       	cpc	r23, r25
     8c8:	e9 f1       	breq	.+122    	; 0x944 <all_set_ok+0x1bc>
		{
			all_sensor_type = all_sensor_type_buff;
     8ca:	70 93 5d 02 	sts	0x025D, r23	; 0x80025d <all_sensor_type+0x1>
     8ce:	60 93 5c 02 	sts	0x025C, r22	; 0x80025c <all_sensor_type>
			
			all_set(SENSOR_TYPE, all_sensor_type);
     8d2:	85 e0       	ldi	r24, 0x05	; 5
     8d4:	0e 94 2f 03 	call	0x65e	; 0x65e <all_set>
			eeprom_write(ALL_SENSORTYPE_EEADDR, all_sensor_type);		
     8d8:	60 91 5c 02 	lds	r22, 0x025C	; 0x80025c <all_sensor_type>
     8dc:	81 e0       	ldi	r24, 0x01	; 1
     8de:	90 e0       	ldi	r25, 0x00	; 0
     8e0:	0e 94 eb 0b 	call	0x17d6	; 0x17d6 <eeprom_write>
     8e4:	c2 e7       	ldi	r28, 0x72	; 114
     8e6:	d2 e0       	ldi	r29, 0x02	; 2
     8e8:	04 e1       	ldi	r16, 0x14	; 20
     8ea:	13 e0       	ldi	r17, 0x03	; 3
     8ec:	0f 2e       	mov	r0, r31
     8ee:	fa e8       	ldi	r31, 0x8A	; 138
     8f0:	cf 2e       	mov	r12, r31
     8f2:	f2 e0       	ldi	r31, 0x02	; 2
     8f4:	df 2e       	mov	r13, r31
     8f6:	f0 2d       	mov	r31, r0
     8f8:	0f 2e       	mov	r0, r31
     8fa:	fd e1       	ldi	r31, 0x1D	; 29
     8fc:	ef 2e       	mov	r14, r31
     8fe:	f1 2c       	mov	r15, r1
     900:	f0 2d       	mov	r31, r0
				
			for(i=0; i<12; i++)
			{
				sensor_type[i] = all_sensor_type;
     902:	60 91 5c 02 	lds	r22, 0x025C	; 0x80025c <all_sensor_type>
     906:	80 91 5d 02 	lds	r24, 0x025D	; 0x80025d <all_sensor_type+0x1>
     90a:	68 83       	st	Y, r22
     90c:	89 83       	std	Y+1, r24	; 0x01
     90e:	22 96       	adiw	r28, 0x02	; 2
				sensor_type_buff[i] = all_sensor_type;
     910:	f8 01       	movw	r30, r16
     912:	60 83       	st	Z, r22
     914:	81 83       	std	Z+1, r24	; 0x01
     916:	0e 5f       	subi	r16, 0xFE	; 254
     918:	1f 4f       	sbci	r17, 0xFF	; 255
				eeprom_write(SINGLE_SENSORTYPE_EEADDR+i, sensor_type[i]);
     91a:	c7 01       	movw	r24, r14
     91c:	0e 94 eb 0b 	call	0x17d6	; 0x17d6 <eeprom_write>
     920:	ff ef       	ldi	r31, 0xFF	; 255
     922:	ef 1a       	sub	r14, r31
     924:	ff 0a       	sbc	r15, r31
			all_sensor_type = all_sensor_type_buff;
			
			all_set(SENSOR_TYPE, all_sensor_type);
			eeprom_write(ALL_SENSORTYPE_EEADDR, all_sensor_type);		
				
			for(i=0; i<12; i++)
     926:	cc 15       	cp	r28, r12
     928:	dd 05       	cpc	r29, r13
     92a:	59 f7       	brne	.-42     	; 0x902 <all_set_ok+0x17a>
			{
				sensor_type[i] = all_sensor_type;
				sensor_type_buff[i] = all_sensor_type;
				eeprom_write(SINGLE_SENSORTYPE_EEADDR+i, sensor_type[i]);
			}
			send_variables(ALL_SENSOR_TYPE_ADDR, TYPE_J+(all_sensor_type*TYPE_K));
     92c:	80 91 5c 02 	lds	r24, 0x025C	; 0x80025c <all_sensor_type>
     930:	90 91 5d 02 	lds	r25, 0x025D	; 0x80025d <all_sensor_type+0x1>
     934:	86 5b       	subi	r24, 0xB6	; 182
     936:	9f 4f       	sbci	r25, 0xFF	; 255
     938:	60 e0       	ldi	r22, 0x00	; 0
     93a:	78 2f       	mov	r23, r24
     93c:	84 e9       	ldi	r24, 0x94	; 148
     93e:	92 e0       	ldi	r25, 0x02	; 2
     940:	0e 94 a7 03 	call	0x74e	; 0x74e <send_variables>
		}
	}
	
	all_set_num++;
     944:	80 91 58 02 	lds	r24, 0x0258	; 0x800258 <__data_end>
     948:	8f 5f       	subi	r24, 0xFF	; 255
	if(all_set_num >= 9)
     94a:	89 30       	cpi	r24, 0x09	; 9
     94c:	18 f4       	brcc	.+6      	; 0x954 <all_set_ok+0x1cc>
			}
			send_variables(ALL_SENSOR_TYPE_ADDR, TYPE_J+(all_sensor_type*TYPE_K));
		}
	}
	
	all_set_num++;
     94e:	80 93 58 02 	sts	0x0258, r24	; 0x800258 <__data_end>
     952:	05 c0       	rjmp	.+10     	; 0x95e <all_set_ok+0x1d6>
	if(all_set_num >= 9)
	{
		all_set_num = 0;
     954:	10 92 58 02 	sts	0x0258, r1	; 0x800258 <__data_end>
		ctrl_command = READ_DATA_ALL;
     958:	81 e0       	ldi	r24, 0x01	; 1
     95a:	80 93 18 02 	sts	0x0218, r24	; 0x800218 <ctrl_command>
	}
	
}
     95e:	df 91       	pop	r29
     960:	cf 91       	pop	r28
     962:	1f 91       	pop	r17
     964:	0f 91       	pop	r16
     966:	ff 90       	pop	r15
     968:	ef 90       	pop	r14
     96a:	df 90       	pop	r13
     96c:	cf 90       	pop	r12
     96e:	bf 90       	pop	r11
     970:	af 90       	pop	r10
     972:	08 95       	ret

00000974 <all_set_back>:
	update_run_temp_flag = 0;
}

void all_set_back(void)
{
	if(all_temp_buff != all_temp)
     974:	60 91 42 01 	lds	r22, 0x0142	; 0x800142 <all_temp>
     978:	70 91 43 01 	lds	r23, 0x0143	; 0x800143 <all_temp+0x1>
     97c:	80 91 41 02 	lds	r24, 0x0241	; 0x800241 <all_temp_buff>
     980:	90 91 42 02 	lds	r25, 0x0242	; 0x800242 <all_temp_buff+0x1>
     984:	86 17       	cp	r24, r22
     986:	97 07       	cpc	r25, r23
     988:	41 f0       	breq	.+16     	; 0x99a <all_set_back+0x26>
	{
		all_temp_buff = all_temp;
     98a:	70 93 42 02 	sts	0x0242, r23	; 0x800242 <all_temp_buff+0x1>
     98e:	60 93 41 02 	sts	0x0241, r22	; 0x800241 <all_temp_buff>
		send_variables(ALL_SET_TEMP, all_temp);
     992:	88 e4       	ldi	r24, 0x48	; 72
     994:	91 e0       	ldi	r25, 0x01	; 1
     996:	0e 94 a7 03 	call	0x74e	; 0x74e <send_variables>
	}
	
	if(preheat_time_buff != preheat_time)
     99a:	60 91 44 01 	lds	r22, 0x0144	; 0x800144 <preheat_time>
     99e:	70 91 45 01 	lds	r23, 0x0145	; 0x800145 <preheat_time+0x1>
     9a2:	80 91 3f 02 	lds	r24, 0x023F	; 0x80023f <preheat_time_buff>
     9a6:	90 91 40 02 	lds	r25, 0x0240	; 0x800240 <preheat_time_buff+0x1>
     9aa:	86 17       	cp	r24, r22
     9ac:	97 07       	cpc	r25, r23
     9ae:	41 f0       	breq	.+16     	; 0x9c0 <all_set_back+0x4c>
	{
		preheat_time_buff = preheat_time;
     9b0:	70 93 40 02 	sts	0x0240, r23	; 0x800240 <preheat_time_buff+0x1>
     9b4:	60 93 3f 02 	sts	0x023F, r22	; 0x80023f <preheat_time_buff>
		send_variables(SET_PREHEAT_TIME, preheat_time);
     9b8:	8a e4       	ldi	r24, 0x4A	; 74
     9ba:	91 e0       	ldi	r25, 0x01	; 1
     9bc:	0e 94 a7 03 	call	0x74e	; 0x74e <send_variables>
	}
	
	if(all_sensor_type_buff != all_sensor_type)
     9c0:	80 91 5c 02 	lds	r24, 0x025C	; 0x80025c <all_sensor_type>
     9c4:	90 91 5d 02 	lds	r25, 0x025D	; 0x80025d <all_sensor_type+0x1>
     9c8:	20 91 46 03 	lds	r18, 0x0346	; 0x800346 <all_sensor_type_buff>
     9cc:	30 91 47 03 	lds	r19, 0x0347	; 0x800347 <all_sensor_type_buff+0x1>
     9d0:	28 17       	cp	r18, r24
     9d2:	39 07       	cpc	r19, r25
     9d4:	61 f0       	breq	.+24     	; 0x9ee <all_set_back+0x7a>
	{
		all_sensor_type_buff = all_sensor_type;
     9d6:	90 93 47 03 	sts	0x0347, r25	; 0x800347 <all_sensor_type_buff+0x1>
     9da:	80 93 46 03 	sts	0x0346, r24	; 0x800346 <all_sensor_type_buff>
		send_variables(ALL_SENSOR_TYPE_ADDR, TYPE_J+(all_sensor_type*TYPE_K));
     9de:	86 5b       	subi	r24, 0xB6	; 182
     9e0:	9f 4f       	sbci	r25, 0xFF	; 255
     9e2:	60 e0       	ldi	r22, 0x00	; 0
     9e4:	78 2f       	mov	r23, r24
     9e6:	84 e9       	ldi	r24, 0x94	; 148
     9e8:	92 e0       	ldi	r25, 0x02	; 2
     9ea:	0e 94 a7 03 	call	0x74e	; 0x74e <send_variables>
	}
	
	if(temp_unit_buff != temp_unit)
     9ee:	80 91 5a 02 	lds	r24, 0x025A	; 0x80025a <temp_unit>
     9f2:	90 91 5b 02 	lds	r25, 0x025B	; 0x80025b <temp_unit+0x1>
     9f6:	20 91 44 03 	lds	r18, 0x0344	; 0x800344 <temp_unit_buff>
     9fa:	30 91 45 03 	lds	r19, 0x0345	; 0x800345 <temp_unit_buff+0x1>
     9fe:	28 17       	cp	r18, r24
     a00:	39 07       	cpc	r19, r25
     a02:	91 f0       	breq	.+36     	; 0xa28 <all_set_back+0xb4>
	{
		temp_unit_buff = temp_unit;
     a04:	90 93 45 03 	sts	0x0345, r25	; 0x800345 <temp_unit_buff+0x1>
     a08:	80 93 44 03 	sts	0x0344, r24	; 0x800344 <temp_unit_buff>
		send_variables(TEMP_UINT_ADDR, (CELSIUS+temp_unit*FAHRENHEIT));
     a0c:	20 e0       	ldi	r18, 0x00	; 0
     a0e:	33 e0       	ldi	r19, 0x03	; 3
     a10:	82 9f       	mul	r24, r18
     a12:	b0 01       	movw	r22, r0
     a14:	83 9f       	mul	r24, r19
     a16:	70 0d       	add	r23, r0
     a18:	92 9f       	mul	r25, r18
     a1a:	70 0d       	add	r23, r0
     a1c:	11 24       	eor	r1, r1
     a1e:	7d 5b       	subi	r23, 0xBD	; 189
     a20:	8c e3       	ldi	r24, 0x3C	; 60
     a22:	92 e0       	ldi	r25, 0x02	; 2
     a24:	0e 94 a7 03 	call	0x74e	; 0x74e <send_variables>
	}
	
	in_main_page = 1;
     a28:	81 e0       	ldi	r24, 0x01	; 1
     a2a:	80 93 16 02 	sts	0x0216, r24	; 0x800216 <in_main_page>
     a2e:	08 95       	ret

00000a30 <update_pid_page>:
	
	set_name_buff = set_name[set_num];
}

void update_pid_page(uint8_t channel)
{
     a30:	ef 92       	push	r14
     a32:	ff 92       	push	r15
     a34:	0f 93       	push	r16
     a36:	1f 93       	push	r17
     a38:	cf 93       	push	r28
     a3a:	df 93       	push	r29
     a3c:	c8 2f       	mov	r28, r24
	set_pid_channel = channel;
     a3e:	80 93 e0 02 	sts	0x02E0, r24	; 0x8002e0 <set_pid_channel>
	
	if(channel == 1)
     a42:	81 30       	cpi	r24, 0x01	; 1
     a44:	31 f4       	brne	.+12     	; 0xa52 <update_pid_page+0x22>
	{
		send_variables(PID_CHANNEL, 1);
     a46:	61 e0       	ldi	r22, 0x01	; 1
     a48:	70 e0       	ldi	r23, 0x00	; 0
     a4a:	80 e5       	ldi	r24, 0x50	; 80
     a4c:	91 e0       	ldi	r25, 0x01	; 1
     a4e:	0e 94 a7 03 	call	0x74e	; 0x74e <send_variables>
	}
	
	send_variables(PID_P_ADDR, p_value[channel-1]);
     a52:	d0 e0       	ldi	r29, 0x00	; 0
     a54:	21 97       	sbiw	r28, 0x01	; 1
     a56:	cc 0f       	add	r28, r28
     a58:	dd 1f       	adc	r29, r29
     a5a:	ce 01       	movw	r24, r28
     a5c:	8a 54       	subi	r24, 0x4A	; 74
     a5e:	9e 4f       	sbci	r25, 0xFE	; 254
     a60:	7c 01       	movw	r14, r24
     a62:	fc 01       	movw	r30, r24
     a64:	60 81       	ld	r22, Z
     a66:	71 81       	ldd	r23, Z+1	; 0x01
     a68:	86 e3       	ldi	r24, 0x36	; 54
     a6a:	90 e0       	ldi	r25, 0x00	; 0
     a6c:	0e 94 a7 03 	call	0x74e	; 0x74e <send_variables>
	send_variables(PID_I_ADDR, i_value[channel-1]);
     a70:	8e 01       	movw	r16, r28
     a72:	02 56       	subi	r16, 0x62	; 98
     a74:	1e 4f       	sbci	r17, 0xFE	; 254
     a76:	f8 01       	movw	r30, r16
     a78:	60 81       	ld	r22, Z
     a7a:	71 81       	ldd	r23, Z+1	; 0x01
     a7c:	88 e3       	ldi	r24, 0x38	; 56
     a7e:	90 e0       	ldi	r25, 0x00	; 0
     a80:	0e 94 a7 03 	call	0x74e	; 0x74e <send_variables>
	send_variables(PID_D_ADDR, d_value[channel-1]);
     a84:	ca 57       	subi	r28, 0x7A	; 122
     a86:	de 4f       	sbci	r29, 0xFE	; 254
     a88:	68 81       	ld	r22, Y
     a8a:	79 81       	ldd	r23, Y+1	; 0x01
     a8c:	8a e3       	ldi	r24, 0x3A	; 58
     a8e:	90 e0       	ldi	r25, 0x00	; 0
     a90:	0e 94 a7 03 	call	0x74e	; 0x74e <send_variables>
	
	send_variables(PID_P, p_value[channel-1]);
     a94:	f7 01       	movw	r30, r14
     a96:	60 81       	ld	r22, Z
     a98:	71 81       	ldd	r23, Z+1	; 0x01
     a9a:	82 e5       	ldi	r24, 0x52	; 82
     a9c:	91 e0       	ldi	r25, 0x01	; 1
     a9e:	0e 94 a7 03 	call	0x74e	; 0x74e <send_variables>
	send_variables(PID_I, i_value[channel-1]);
     aa2:	f8 01       	movw	r30, r16
     aa4:	60 81       	ld	r22, Z
     aa6:	71 81       	ldd	r23, Z+1	; 0x01
     aa8:	84 e5       	ldi	r24, 0x54	; 84
     aaa:	91 e0       	ldi	r25, 0x01	; 1
     aac:	0e 94 a7 03 	call	0x74e	; 0x74e <send_variables>
	send_variables(PID_D, d_value[channel-1]);	
     ab0:	68 81       	ld	r22, Y
     ab2:	79 81       	ldd	r23, Y+1	; 0x01
     ab4:	86 e5       	ldi	r24, 0x56	; 86
     ab6:	91 e0       	ldi	r25, 0x01	; 1
     ab8:	0e 94 a7 03 	call	0x74e	; 0x74e <send_variables>
	
	p_value_buff = p_value[channel-1];
     abc:	f7 01       	movw	r30, r14
     abe:	80 81       	ld	r24, Z
     ac0:	91 81       	ldd	r25, Z+1	; 0x01
     ac2:	90 93 26 02 	sts	0x0226, r25	; 0x800226 <p_value_buff+0x1>
     ac6:	80 93 25 02 	sts	0x0225, r24	; 0x800225 <p_value_buff>
	i_value_buff = i_value[channel-1];
     aca:	f8 01       	movw	r30, r16
     acc:	80 81       	ld	r24, Z
     ace:	91 81       	ldd	r25, Z+1	; 0x01
     ad0:	90 93 24 02 	sts	0x0224, r25	; 0x800224 <i_value_buff+0x1>
     ad4:	80 93 23 02 	sts	0x0223, r24	; 0x800223 <i_value_buff>
	d_value_buff = d_value[channel-1];
     ad8:	88 81       	ld	r24, Y
     ada:	99 81       	ldd	r25, Y+1	; 0x01
     adc:	90 93 22 02 	sts	0x0222, r25	; 0x800222 <d_value_buff+0x1>
     ae0:	80 93 21 02 	sts	0x0221, r24	; 0x800221 <d_value_buff>
}
     ae4:	df 91       	pop	r29
     ae6:	cf 91       	pop	r28
     ae8:	1f 91       	pop	r17
     aea:	0f 91       	pop	r16
     aec:	ff 90       	pop	r15
     aee:	ef 90       	pop	r14
     af0:	08 95       	ret

00000af2 <get_time_ctrl_value>:
	OPEN_CURVE(count);
}

void get_time_ctrl_value(void)
{
	t1[pre_iqr] = t1_buff;
     af2:	80 91 e8 02 	lds	r24, 0x02E8	; 0x8002e8 <pre_iqr>
     af6:	90 91 e9 02 	lds	r25, 0x02E9	; 0x8002e9 <pre_iqr+0x1>
     afa:	60 91 1f 02 	lds	r22, 0x021F	; 0x80021f <t1_buff>
     afe:	40 91 20 02 	lds	r20, 0x0220	; 0x800220 <t1_buff+0x1>
     b02:	9c 01       	movw	r18, r24
     b04:	22 0f       	add	r18, r18
     b06:	33 1f       	adc	r19, r19
     b08:	f9 01       	movw	r30, r18
     b0a:	ea 58       	subi	r30, 0x8A	; 138
     b0c:	fe 4f       	sbci	r31, 0xFE	; 254
     b0e:	60 83       	st	Z, r22
     b10:	41 83       	std	Z+1, r20	; 0x01
	t2[pre_iqr] = t2_buff;
     b12:	f9 01       	movw	r30, r18
     b14:	ea 59       	subi	r30, 0x9A	; 154
     b16:	fe 4f       	sbci	r31, 0xFE	; 254
     b18:	40 91 1d 02 	lds	r20, 0x021D	; 0x80021d <t2_buff>
     b1c:	50 91 1e 02 	lds	r21, 0x021E	; 0x80021e <t2_buff+0x1>
     b20:	51 83       	std	Z+1, r21	; 0x01
     b22:	40 83       	st	Z, r20
	t3[pre_iqr] = t3_buff;
     b24:	f9 01       	movw	r30, r18
     b26:	ea 5a       	subi	r30, 0xAA	; 170
     b28:	fe 4f       	sbci	r31, 0xFE	; 254
     b2a:	40 91 1b 02 	lds	r20, 0x021B	; 0x80021b <t3_buff>
     b2e:	50 91 1c 02 	lds	r21, 0x021C	; 0x80021c <t3_buff+0x1>
     b32:	51 83       	std	Z+1, r21	; 0x01
     b34:	40 83       	st	Z, r20
	t4[pre_iqr] = t4_buff;
     b36:	f9 01       	movw	r30, r18
     b38:	ea 5b       	subi	r30, 0xBA	; 186
     b3a:	fe 4f       	sbci	r31, 0xFE	; 254
     b3c:	40 91 19 02 	lds	r20, 0x0219	; 0x800219 <t4_buff>
     b40:	50 91 1a 02 	lds	r21, 0x021A	; 0x80021a <t4_buff+0x1>
     b44:	51 83       	std	Z+1, r21	; 0x01
     b46:	40 83       	st	Z, r20
	
	eeprom_write(TIME_CTRL_T1_EEADDR+(pre_iqr*2), t1[pre_iqr]);
     b48:	89 5a       	subi	r24, 0xA9	; 169
     b4a:	9f 4f       	sbci	r25, 0xFF	; 255
     b4c:	88 0f       	add	r24, r24
     b4e:	99 1f       	adc	r25, r25
     b50:	0e 94 eb 0b 	call	0x17d6	; 0x17d6 <eeprom_write>
	eeprom_write(TIME_CTRL_T1_EEADDR+(pre_iqr*2)+1, t1[pre_iqr]>>8);
     b54:	80 91 e8 02 	lds	r24, 0x02E8	; 0x8002e8 <pre_iqr>
     b58:	90 91 e9 02 	lds	r25, 0x02E9	; 0x8002e9 <pre_iqr+0x1>
     b5c:	fc 01       	movw	r30, r24
     b5e:	ee 0f       	add	r30, r30
     b60:	ff 1f       	adc	r31, r31
     b62:	ea 58       	subi	r30, 0x8A	; 138
     b64:	fe 4f       	sbci	r31, 0xFE	; 254
     b66:	61 81       	ldd	r22, Z+1	; 0x01
     b68:	88 0f       	add	r24, r24
     b6a:	99 1f       	adc	r25, r25
     b6c:	81 55       	subi	r24, 0x51	; 81
     b6e:	9f 4f       	sbci	r25, 0xFF	; 255
     b70:	0e 94 eb 0b 	call	0x17d6	; 0x17d6 <eeprom_write>
		
	eeprom_write(TIME_CTRL_T2_EEADDR+(pre_iqr*2), t2[pre_iqr]);
     b74:	80 91 e8 02 	lds	r24, 0x02E8	; 0x8002e8 <pre_iqr>
     b78:	90 91 e9 02 	lds	r25, 0x02E9	; 0x8002e9 <pre_iqr+0x1>
     b7c:	fc 01       	movw	r30, r24
     b7e:	ee 0f       	add	r30, r30
     b80:	ff 1f       	adc	r31, r31
     b82:	ea 59       	subi	r30, 0x9A	; 154
     b84:	fe 4f       	sbci	r31, 0xFE	; 254
     b86:	81 5a       	subi	r24, 0xA1	; 161
     b88:	9f 4f       	sbci	r25, 0xFF	; 255
     b8a:	60 81       	ld	r22, Z
     b8c:	88 0f       	add	r24, r24
     b8e:	99 1f       	adc	r25, r25
     b90:	0e 94 eb 0b 	call	0x17d6	; 0x17d6 <eeprom_write>
	eeprom_write(TIME_CTRL_T2_EEADDR+(pre_iqr*2)+1, t2[pre_iqr]>>8);
     b94:	80 91 e8 02 	lds	r24, 0x02E8	; 0x8002e8 <pre_iqr>
     b98:	90 91 e9 02 	lds	r25, 0x02E9	; 0x8002e9 <pre_iqr+0x1>
     b9c:	fc 01       	movw	r30, r24
     b9e:	ee 0f       	add	r30, r30
     ba0:	ff 1f       	adc	r31, r31
     ba2:	ea 59       	subi	r30, 0x9A	; 154
     ba4:	fe 4f       	sbci	r31, 0xFE	; 254
     ba6:	61 81       	ldd	r22, Z+1	; 0x01
     ba8:	88 0f       	add	r24, r24
     baa:	99 1f       	adc	r25, r25
     bac:	81 54       	subi	r24, 0x41	; 65
     bae:	9f 4f       	sbci	r25, 0xFF	; 255
     bb0:	0e 94 eb 0b 	call	0x17d6	; 0x17d6 <eeprom_write>
			
	eeprom_write(TIME_CTRL_T3_EEADDR+(pre_iqr*2), t3[pre_iqr]);
     bb4:	80 91 e8 02 	lds	r24, 0x02E8	; 0x8002e8 <pre_iqr>
     bb8:	90 91 e9 02 	lds	r25, 0x02E9	; 0x8002e9 <pre_iqr+0x1>
     bbc:	fc 01       	movw	r30, r24
     bbe:	ee 0f       	add	r30, r30
     bc0:	ff 1f       	adc	r31, r31
     bc2:	ea 5a       	subi	r30, 0xAA	; 170
     bc4:	fe 4f       	sbci	r31, 0xFE	; 254
     bc6:	89 59       	subi	r24, 0x99	; 153
     bc8:	9f 4f       	sbci	r25, 0xFF	; 255
     bca:	60 81       	ld	r22, Z
     bcc:	88 0f       	add	r24, r24
     bce:	99 1f       	adc	r25, r25
     bd0:	0e 94 eb 0b 	call	0x17d6	; 0x17d6 <eeprom_write>
	eeprom_write(TIME_CTRL_T3_EEADDR+(pre_iqr*2)+1, t3[pre_iqr]>>8);
     bd4:	80 91 e8 02 	lds	r24, 0x02E8	; 0x8002e8 <pre_iqr>
     bd8:	90 91 e9 02 	lds	r25, 0x02E9	; 0x8002e9 <pre_iqr+0x1>
     bdc:	fc 01       	movw	r30, r24
     bde:	ee 0f       	add	r30, r30
     be0:	ff 1f       	adc	r31, r31
     be2:	ea 5a       	subi	r30, 0xAA	; 170
     be4:	fe 4f       	sbci	r31, 0xFE	; 254
     be6:	61 81       	ldd	r22, Z+1	; 0x01
     be8:	88 0f       	add	r24, r24
     bea:	99 1f       	adc	r25, r25
     bec:	81 53       	subi	r24, 0x31	; 49
     bee:	9f 4f       	sbci	r25, 0xFF	; 255
     bf0:	0e 94 eb 0b 	call	0x17d6	; 0x17d6 <eeprom_write>
			
	eeprom_write(TIME_CTRL_T4_EEADDR+(pre_iqr*2), t4[pre_iqr]);
     bf4:	80 91 e8 02 	lds	r24, 0x02E8	; 0x8002e8 <pre_iqr>
     bf8:	90 91 e9 02 	lds	r25, 0x02E9	; 0x8002e9 <pre_iqr+0x1>
     bfc:	fc 01       	movw	r30, r24
     bfe:	ee 0f       	add	r30, r30
     c00:	ff 1f       	adc	r31, r31
     c02:	ea 5b       	subi	r30, 0xBA	; 186
     c04:	fe 4f       	sbci	r31, 0xFE	; 254
     c06:	81 59       	subi	r24, 0x91	; 145
     c08:	9f 4f       	sbci	r25, 0xFF	; 255
     c0a:	60 81       	ld	r22, Z
     c0c:	88 0f       	add	r24, r24
     c0e:	99 1f       	adc	r25, r25
     c10:	0e 94 eb 0b 	call	0x17d6	; 0x17d6 <eeprom_write>
	eeprom_write(TIME_CTRL_T4_EEADDR+(pre_iqr*2)+1, t4[pre_iqr]>>8);
     c14:	80 91 e8 02 	lds	r24, 0x02E8	; 0x8002e8 <pre_iqr>
     c18:	90 91 e9 02 	lds	r25, 0x02E9	; 0x8002e9 <pre_iqr+0x1>
     c1c:	fc 01       	movw	r30, r24
     c1e:	ee 0f       	add	r30, r30
     c20:	ff 1f       	adc	r31, r31
     c22:	ea 5b       	subi	r30, 0xBA	; 186
     c24:	fe 4f       	sbci	r31, 0xFE	; 254
     c26:	61 81       	ldd	r22, Z+1	; 0x01
     c28:	88 0f       	add	r24, r24
     c2a:	99 1f       	adc	r25, r25
     c2c:	81 52       	subi	r24, 0x21	; 33
     c2e:	9f 4f       	sbci	r25, 0xFF	; 255
     c30:	0e 94 eb 0b 	call	0x17d6	; 0x17d6 <eeprom_write>
	
	send_variables(TIME_CTRL_T1_ADDR, t1[pre_iqr]);
     c34:	e0 91 e8 02 	lds	r30, 0x02E8	; 0x8002e8 <pre_iqr>
     c38:	f0 91 e9 02 	lds	r31, 0x02E9	; 0x8002e9 <pre_iqr+0x1>
     c3c:	ee 0f       	add	r30, r30
     c3e:	ff 1f       	adc	r31, r31
     c40:	ea 58       	subi	r30, 0x8A	; 138
     c42:	fe 4f       	sbci	r31, 0xFE	; 254
     c44:	60 81       	ld	r22, Z
     c46:	71 81       	ldd	r23, Z+1	; 0x01
     c48:	80 e7       	ldi	r24, 0x70	; 112
     c4a:	90 e0       	ldi	r25, 0x00	; 0
     c4c:	0e 94 a7 03 	call	0x74e	; 0x74e <send_variables>
	send_variables(TIME_CTRL_T2_ADDR, t2[pre_iqr]);
     c50:	e0 91 e8 02 	lds	r30, 0x02E8	; 0x8002e8 <pre_iqr>
     c54:	f0 91 e9 02 	lds	r31, 0x02E9	; 0x8002e9 <pre_iqr+0x1>
     c58:	ee 0f       	add	r30, r30
     c5a:	ff 1f       	adc	r31, r31
     c5c:	ea 59       	subi	r30, 0x9A	; 154
     c5e:	fe 4f       	sbci	r31, 0xFE	; 254
     c60:	60 81       	ld	r22, Z
     c62:	71 81       	ldd	r23, Z+1	; 0x01
     c64:	82 e7       	ldi	r24, 0x72	; 114
     c66:	90 e0       	ldi	r25, 0x00	; 0
     c68:	0e 94 a7 03 	call	0x74e	; 0x74e <send_variables>
	send_variables(TIME_CTRL_T3_ADDR, t3[pre_iqr]);
     c6c:	e0 91 e8 02 	lds	r30, 0x02E8	; 0x8002e8 <pre_iqr>
     c70:	f0 91 e9 02 	lds	r31, 0x02E9	; 0x8002e9 <pre_iqr+0x1>
     c74:	ee 0f       	add	r30, r30
     c76:	ff 1f       	adc	r31, r31
     c78:	ea 5a       	subi	r30, 0xAA	; 170
     c7a:	fe 4f       	sbci	r31, 0xFE	; 254
     c7c:	60 81       	ld	r22, Z
     c7e:	71 81       	ldd	r23, Z+1	; 0x01
     c80:	84 e7       	ldi	r24, 0x74	; 116
     c82:	90 e0       	ldi	r25, 0x00	; 0
     c84:	0e 94 a7 03 	call	0x74e	; 0x74e <send_variables>
	send_variables(TIME_CTRL_T4_ADDR, t4[pre_iqr]);
     c88:	e0 91 e8 02 	lds	r30, 0x02E8	; 0x8002e8 <pre_iqr>
     c8c:	f0 91 e9 02 	lds	r31, 0x02E9	; 0x8002e9 <pre_iqr+0x1>
     c90:	ee 0f       	add	r30, r30
     c92:	ff 1f       	adc	r31, r31
     c94:	ea 5b       	subi	r30, 0xBA	; 186
     c96:	fe 4f       	sbci	r31, 0xFE	; 254
     c98:	60 81       	ld	r22, Z
     c9a:	71 81       	ldd	r23, Z+1	; 0x01
     c9c:	86 e7       	ldi	r24, 0x76	; 118
     c9e:	90 e0       	ldi	r25, 0x00	; 0
     ca0:	0e 94 a7 03 	call	0x74e	; 0x74e <send_variables>
     ca4:	08 95       	ret

00000ca6 <send_name>:

	usart0_send_str(usart0_tx_buff, 10);
}

void send_name(uint16_t addr, uint32_t name)
{
     ca6:	cf 93       	push	r28
     ca8:	df 93       	push	r29
	uint16_t crc = 0;
	
	usart0_tx_buff[0] = 0xA5;
     caa:	cb e4       	ldi	r28, 0x4B	; 75
     cac:	d3 e0       	ldi	r29, 0x03	; 3
     cae:	25 ea       	ldi	r18, 0xA5	; 165
     cb0:	28 83       	st	Y, r18
	usart0_tx_buff[1] = 0x5A;
     cb2:	2a e5       	ldi	r18, 0x5A	; 90
     cb4:	29 83       	std	Y+1, r18	; 0x01
	usart0_tx_buff[2] = 0x07;
     cb6:	27 e0       	ldi	r18, 0x07	; 7
     cb8:	2a 83       	std	Y+2, r18	; 0x02
	usart0_tx_buff[3] = 0x82;
     cba:	22 e8       	ldi	r18, 0x82	; 130
     cbc:	2b 83       	std	Y+3, r18	; 0x03
	usart0_tx_buff[4] = addr >> 8;
     cbe:	9c 83       	std	Y+4, r25	; 0x04
	usart0_tx_buff[5] = addr & 0x00FF;
     cc0:	8d 83       	std	Y+5, r24	; 0x05
	usart0_tx_buff[6] = name >> 24;
     cc2:	7e 83       	std	Y+6, r23	; 0x06
	usart0_tx_buff[7] = name >> 16;
     cc4:	6f 83       	std	Y+7, r22	; 0x07
	usart0_tx_buff[8] = name >>8;
     cc6:	58 87       	std	Y+8, r21	; 0x08
	usart0_tx_buff[9] = name;
     cc8:	49 87       	std	Y+9, r20	; 0x09

	crc = crc_check(usart0_tx_buff, 12);
     cca:	6c e0       	ldi	r22, 0x0C	; 12
     ccc:	ce 01       	movw	r24, r28
     cce:	0e 94 5e 13 	call	0x26bc	; 0x26bc <crc_check>

	usart0_tx_buff[10] = crc & 0x00FF;
     cd2:	8a 87       	std	Y+10, r24	; 0x0a
	usart0_tx_buff[11] = crc >> 8;
     cd4:	9b 87       	std	Y+11, r25	; 0x0b

	usart0_send_str(usart0_tx_buff, 12);
     cd6:	6c e0       	ldi	r22, 0x0C	; 12
     cd8:	ce 01       	movw	r24, r28
     cda:	0e 94 24 13 	call	0x2648	; 0x2648 <usart0_send_str>
}
     cde:	df 91       	pop	r29
     ce0:	cf 91       	pop	r28
     ce2:	08 95       	ret

00000ce4 <update_main_page>:
						   {0xB8, 0xD0, 0xCE, 0xC2, 0xCF, 0xDF, 0xBD, 0xD3, 0xB7, 0xB4},		//感温线接反
						   {0xB3, 0xAC, 0xCE, 0xC2, 0xB1, 0xA8, 0xBE, 0xAF},					//超温报警
						   {0xC9, 0xFD, 0xCE, 0xC2, 0xB5, 0xBD, 0xB4, 0xEF, 0xC9, 0xE8, 0xB6, 0xA8, 0xCE, 0xC2, 0xB6, 0xC8}}; //升温到达设定温度

void update_main_page(void)
{
     ce4:	cf 92       	push	r12
     ce6:	df 92       	push	r13
     ce8:	ef 92       	push	r14
     cea:	ff 92       	push	r15
     cec:	0f 93       	push	r16
     cee:	1f 93       	push	r17
     cf0:	cf 93       	push	r28
     cf2:	df 93       	push	r29
     cf4:	e1 2c       	mov	r14, r1
     cf6:	68 94       	set
     cf8:	ff 24       	eor	r15, r15
     cfa:	f1 f8       	bld	r15, 1
     cfc:	0c e0       	ldi	r16, 0x0C	; 12
     cfe:	10 e0       	ldi	r17, 0x00	; 0
     d00:	c0 e0       	ldi	r28, 0x00	; 0
     d02:	d0 e0       	ldi	r29, 0x00	; 0

	for (i=0; i<6;i++)
	{
		send_variables(MAINPAGE_NUM1_ADDR+(i*2), (i+(pre_main_page*6)+1));								//主页面传感器序号显示
		send_variables(MAIN_OUTRATE1_ADDR+(i*2), output_rate[i+(pre_main_page*6)]);						//传感器输出比例
		send_variables(MAIN_RUNTEMP1_ADDR+(i*2), run_temp[i+(pre_main_page*6)] + 
     d04:	0f 2e       	mov	r0, r31
     d06:	fa e0       	ldi	r31, 0x0A	; 10
     d08:	cf 2e       	mov	r12, r31
     d0a:	d1 2c       	mov	r13, r1
     d0c:	f0 2d       	mov	r31, r0
{
	uint8_t i = 0;

	for (i=0; i<6;i++)
	{
		send_variables(MAINPAGE_NUM1_ADDR+(i*2), (i+(pre_main_page*6)+1));								//主页面传感器序号显示
     d0e:	80 91 e4 02 	lds	r24, 0x02E4	; 0x8002e4 <pre_main_page>
     d12:	90 e0       	ldi	r25, 0x00	; 0
     d14:	bc 01       	movw	r22, r24
     d16:	66 0f       	add	r22, r22
     d18:	77 1f       	adc	r23, r23
     d1a:	68 0f       	add	r22, r24
     d1c:	79 1f       	adc	r23, r25
     d1e:	66 0f       	add	r22, r22
     d20:	77 1f       	adc	r23, r23
     d22:	6c 0f       	add	r22, r28
     d24:	7d 1f       	adc	r23, r29
     d26:	6f 5f       	subi	r22, 0xFF	; 255
     d28:	7f 4f       	sbci	r23, 0xFF	; 255
     d2a:	ce 01       	movw	r24, r28
     d2c:	88 0f       	add	r24, r24
     d2e:	99 1f       	adc	r25, r25
     d30:	0e 94 a7 03 	call	0x74e	; 0x74e <send_variables>
		send_variables(MAIN_OUTRATE1_ADDR+(i*2), output_rate[i+(pre_main_page*6)]);						//传感器输出比例
     d34:	80 91 e4 02 	lds	r24, 0x02E4	; 0x8002e4 <pre_main_page>
     d38:	90 e0       	ldi	r25, 0x00	; 0
     d3a:	fc 01       	movw	r30, r24
     d3c:	ee 0f       	add	r30, r30
     d3e:	ff 1f       	adc	r31, r31
     d40:	e8 0f       	add	r30, r24
     d42:	f9 1f       	adc	r31, r25
     d44:	ee 0f       	add	r30, r30
     d46:	ff 1f       	adc	r31, r31
     d48:	ee 52       	subi	r30, 0x2E	; 46
     d4a:	fd 4f       	sbci	r31, 0xFD	; 253
     d4c:	ec 0f       	add	r30, r28
     d4e:	fd 1f       	adc	r31, r29
     d50:	60 81       	ld	r22, Z
     d52:	70 e0       	ldi	r23, 0x00	; 0
     d54:	c8 01       	movw	r24, r16
     d56:	0e 94 a7 03 	call	0x74e	; 0x74e <send_variables>
		send_variables(MAIN_RUNTEMP1_ADDR+(i*2), run_temp[i+(pre_main_page*6)] + 
     d5a:	80 91 e4 02 	lds	r24, 0x02E4	; 0x8002e4 <pre_main_page>
     d5e:	90 e0       	ldi	r25, 0x00	; 0
     d60:	fc 01       	movw	r30, r24
     d62:	ee 0f       	add	r30, r30
     d64:	ff 1f       	adc	r31, r31
     d66:	e8 0f       	add	r30, r24
     d68:	f9 1f       	adc	r31, r25
     d6a:	ee 0f       	add	r30, r30
     d6c:	ff 1f       	adc	r31, r31
     d6e:	ec 0f       	add	r30, r28
     d70:	fd 1f       	adc	r31, r29
     d72:	ee 0f       	add	r30, r30
     d74:	ff 1f       	adc	r31, r31
     d76:	e2 55       	subi	r30, 0x52	; 82
     d78:	fd 4f       	sbci	r31, 0xFD	; 253
     d7a:	20 81       	ld	r18, Z
     d7c:	31 81       	ldd	r19, Z+1	; 0x01
     d7e:	c9 01       	movw	r24, r18
     d80:	88 0f       	add	r24, r24
     d82:	99 1f       	adc	r25, r25
     d84:	88 0f       	add	r24, r24
     d86:	99 1f       	adc	r25, r25
     d88:	88 0f       	add	r24, r24
     d8a:	99 1f       	adc	r25, r25
     d8c:	b6 01       	movw	r22, r12
     d8e:	0e 94 1a 15 	call	0x2a34	; 0x2a34 <__divmodhi4>
     d92:	cb 01       	movw	r24, r22
     d94:	80 96       	adiw	r24, 0x20	; 32
     d96:	40 91 5a 02 	lds	r20, 0x025A	; 0x80025a <temp_unit>
     d9a:	50 91 5b 02 	lds	r21, 0x025B	; 0x80025b <temp_unit+0x1>
     d9e:	84 9f       	mul	r24, r20
     da0:	b0 01       	movw	r22, r0
     da2:	85 9f       	mul	r24, r21
     da4:	70 0d       	add	r23, r0
     da6:	94 9f       	mul	r25, r20
     da8:	70 0d       	add	r23, r0
     daa:	11 24       	eor	r1, r1
     dac:	62 0f       	add	r22, r18
     dae:	73 1f       	adc	r23, r19
     db0:	c8 01       	movw	r24, r16
     db2:	0c 96       	adiw	r24, 0x0c	; 12
     db4:	0e 94 a7 03 	call	0x74e	; 0x74e <send_variables>
												 temp_unit*(run_temp[i+(pre_main_page*6)]*8/10 + 32));	//运行温度
		send_variables(MAIN_SETTEMP1_ADDR+(i*2), set_temp[i+(pre_main_page*6)]);						//设定温度	
     db8:	80 91 e4 02 	lds	r24, 0x02E4	; 0x8002e4 <pre_main_page>
     dbc:	90 e0       	ldi	r25, 0x00	; 0
     dbe:	fc 01       	movw	r30, r24
     dc0:	ee 0f       	add	r30, r30
     dc2:	ff 1f       	adc	r31, r31
     dc4:	e8 0f       	add	r30, r24
     dc6:	f9 1f       	adc	r31, r25
     dc8:	ee 0f       	add	r30, r30
     dca:	ff 1f       	adc	r31, r31
     dcc:	ec 0f       	add	r30, r28
     dce:	fd 1f       	adc	r31, r29
     dd0:	ee 0f       	add	r30, r30
     dd2:	ff 1f       	adc	r31, r31
     dd4:	e2 50       	subi	r30, 0x02	; 2
     dd6:	fe 4f       	sbci	r31, 0xFE	; 254
     dd8:	60 81       	ld	r22, Z
     dda:	71 81       	ldd	r23, Z+1	; 0x01
     ddc:	c8 01       	movw	r24, r16
     dde:	48 96       	adiw	r24, 0x18	; 24
     de0:	0e 94 a7 03 	call	0x74e	; 0x74e <send_variables>
		send_variables(MAIN_SENSOR1_TYPE_ADDR+(i*2), TYPE_J+(sensor_type[i+(pre_main_page*6)])*TYPE_K);
     de4:	80 91 e4 02 	lds	r24, 0x02E4	; 0x8002e4 <pre_main_page>
     de8:	90 e0       	ldi	r25, 0x00	; 0
     dea:	fc 01       	movw	r30, r24
     dec:	ee 0f       	add	r30, r30
     dee:	ff 1f       	adc	r31, r31
     df0:	e8 0f       	add	r30, r24
     df2:	f9 1f       	adc	r31, r25
     df4:	ee 0f       	add	r30, r30
     df6:	ff 1f       	adc	r31, r31
     df8:	ec 0f       	add	r30, r28
     dfa:	fd 1f       	adc	r31, r29
     dfc:	ee 0f       	add	r30, r30
     dfe:	ff 1f       	adc	r31, r31
     e00:	ee 58       	subi	r30, 0x8E	; 142
     e02:	fd 4f       	sbci	r31, 0xFD	; 253
     e04:	80 81       	ld	r24, Z
     e06:	91 81       	ldd	r25, Z+1	; 0x01
     e08:	86 5b       	subi	r24, 0xB6	; 182
     e0a:	9f 4f       	sbci	r25, 0xFF	; 255
     e0c:	60 e0       	ldi	r22, 0x00	; 0
     e0e:	78 2f       	mov	r23, r24
     e10:	c8 01       	movw	r24, r16
     e12:	8c 5d       	subi	r24, 0xDC	; 220
     e14:	9d 4f       	sbci	r25, 0xFD	; 253
     e16:	0e 94 a7 03 	call	0x74e	; 0x74e <send_variables>
		
		send_name(MAIN_NAME1_ADDR+(i*8), set_name[i+(pre_main_page*6)]);
     e1a:	80 91 e4 02 	lds	r24, 0x02E4	; 0x8002e4 <pre_main_page>
     e1e:	90 e0       	ldi	r25, 0x00	; 0
     e20:	fc 01       	movw	r30, r24
     e22:	ee 0f       	add	r30, r30
     e24:	ff 1f       	adc	r31, r31
     e26:	e8 0f       	add	r30, r24
     e28:	f9 1f       	adc	r31, r25
     e2a:	ee 0f       	add	r30, r30
     e2c:	ff 1f       	adc	r31, r31
     e2e:	ec 0f       	add	r30, r28
     e30:	fd 1f       	adc	r31, r29
     e32:	ee 0f       	add	r30, r30
     e34:	ff 1f       	adc	r31, r31
     e36:	ee 0f       	add	r30, r30
     e38:	ff 1f       	adc	r31, r31
     e3a:	e2 53       	subi	r30, 0x32	; 50
     e3c:	fe 4f       	sbci	r31, 0xFE	; 254
     e3e:	40 81       	ld	r20, Z
     e40:	51 81       	ldd	r21, Z+1	; 0x01
     e42:	62 81       	ldd	r22, Z+2	; 0x02
     e44:	73 81       	ldd	r23, Z+3	; 0x03
     e46:	c7 01       	movw	r24, r14
     e48:	0e 94 53 06 	call	0xca6	; 0xca6 <send_name>
     e4c:	21 96       	adiw	r28, 0x01	; 1
     e4e:	0e 5f       	subi	r16, 0xFE	; 254
     e50:	1f 4f       	sbci	r17, 0xFF	; 255
     e52:	88 e0       	ldi	r24, 0x08	; 8
     e54:	e8 0e       	add	r14, r24
     e56:	f1 1c       	adc	r15, r1

void update_main_page(void)
{
	uint8_t i = 0;

	for (i=0; i<6;i++)
     e58:	c6 30       	cpi	r28, 0x06	; 6
     e5a:	d1 05       	cpc	r29, r1
     e5c:	09 f0       	breq	.+2      	; 0xe60 <update_main_page+0x17c>
     e5e:	57 cf       	rjmp	.-338    	; 0xd0e <update_main_page+0x2a>
		send_variables(MAIN_SETTEMP1_ADDR+(i*2), set_temp[i+(pre_main_page*6)]);						//设定温度	
		send_variables(MAIN_SENSOR1_TYPE_ADDR+(i*2), TYPE_J+(sensor_type[i+(pre_main_page*6)])*TYPE_K);
		
		send_name(MAIN_NAME1_ADDR+(i*8), set_name[i+(pre_main_page*6)]);
	}
}
     e60:	df 91       	pop	r29
     e62:	cf 91       	pop	r28
     e64:	1f 91       	pop	r17
     e66:	0f 91       	pop	r16
     e68:	ff 90       	pop	r15
     e6a:	ef 90       	pop	r14
     e6c:	df 90       	pop	r13
     e6e:	cf 90       	pop	r12
     e70:	08 95       	ret

00000e72 <update_single_set_page>:
	}
}

void update_single_set_page(void)
{
	in_main_page = 0;
     e72:	10 92 16 02 	sts	0x0216, r1	; 0x800216 <in_main_page>
	
	update_run_temp_flag = 1;
     e76:	81 e0       	ldi	r24, 0x01	; 1
     e78:	80 93 e6 02 	sts	0x02E6, r24	; 0x8002e6 <update_run_temp_flag>
	run_temp_page = 1;
     e7c:	80 93 e7 02 	sts	0x02E7, r24	; 0x8002e7 <run_temp_page>
	
	send_variables(SINGLE_NUM_ADDR, set_num+1);						//序号显示
     e80:	60 91 e1 02 	lds	r22, 0x02E1	; 0x8002e1 <set_num>
     e84:	70 e0       	ldi	r23, 0x00	; 0
     e86:	6f 5f       	subi	r22, 0xFF	; 255
     e88:	7f 4f       	sbci	r23, 0xFF	; 255
     e8a:	80 e3       	ldi	r24, 0x30	; 48
     e8c:	90 e0       	ldi	r25, 0x00	; 0
     e8e:	0e 94 a7 03 	call	0x74e	; 0x74e <send_variables>
	send_variables(SINGLE_RUNTEMP_ADDR, run_temp[set_num]+temp_unit*((run_temp[set_num]*8/10)+32));			//运行温度显示
     e92:	e0 91 e1 02 	lds	r30, 0x02E1	; 0x8002e1 <set_num>
     e96:	f0 e0       	ldi	r31, 0x00	; 0
     e98:	ee 0f       	add	r30, r30
     e9a:	ff 1f       	adc	r31, r31
     e9c:	e2 55       	subi	r30, 0x52	; 82
     e9e:	fd 4f       	sbci	r31, 0xFD	; 253
     ea0:	20 81       	ld	r18, Z
     ea2:	31 81       	ldd	r19, Z+1	; 0x01
     ea4:	c9 01       	movw	r24, r18
     ea6:	88 0f       	add	r24, r24
     ea8:	99 1f       	adc	r25, r25
     eaa:	88 0f       	add	r24, r24
     eac:	99 1f       	adc	r25, r25
     eae:	88 0f       	add	r24, r24
     eb0:	99 1f       	adc	r25, r25
     eb2:	6a e0       	ldi	r22, 0x0A	; 10
     eb4:	70 e0       	ldi	r23, 0x00	; 0
     eb6:	0e 94 1a 15 	call	0x2a34	; 0x2a34 <__divmodhi4>
     eba:	cb 01       	movw	r24, r22
     ebc:	80 96       	adiw	r24, 0x20	; 32
     ebe:	40 91 5a 02 	lds	r20, 0x025A	; 0x80025a <temp_unit>
     ec2:	50 91 5b 02 	lds	r21, 0x025B	; 0x80025b <temp_unit+0x1>
     ec6:	84 9f       	mul	r24, r20
     ec8:	b0 01       	movw	r22, r0
     eca:	85 9f       	mul	r24, r21
     ecc:	70 0d       	add	r23, r0
     ece:	94 9f       	mul	r25, r20
     ed0:	70 0d       	add	r23, r0
     ed2:	11 24       	eor	r1, r1
     ed4:	62 0f       	add	r22, r18
     ed6:	73 1f       	adc	r23, r19
     ed8:	82 e3       	ldi	r24, 0x32	; 50
     eda:	90 e0       	ldi	r25, 0x00	; 0
     edc:	0e 94 a7 03 	call	0x74e	; 0x74e <send_variables>
	send_variables(SINGLE_SETTEMP_ADDR, set_temp[set_num]);			//设定温度显示
     ee0:	e0 91 e1 02 	lds	r30, 0x02E1	; 0x8002e1 <set_num>
     ee4:	f0 e0       	ldi	r31, 0x00	; 0
     ee6:	ee 0f       	add	r30, r30
     ee8:	ff 1f       	adc	r31, r31
     eea:	e2 50       	subi	r30, 0x02	; 2
     eec:	fe 4f       	sbci	r31, 0xFE	; 254
     eee:	60 81       	ld	r22, Z
     ef0:	71 81       	ldd	r23, Z+1	; 0x01
     ef2:	84 e3       	ldi	r24, 0x34	; 52
     ef4:	90 e0       	ldi	r25, 0x00	; 0
     ef6:	0e 94 a7 03 	call	0x74e	; 0x74e <send_variables>
	send_variables(SINGLE_SET_TEMP, set_temp[set_num]);				//温度设定输入框显示
     efa:	e0 91 e1 02 	lds	r30, 0x02E1	; 0x8002e1 <set_num>
     efe:	f0 e0       	ldi	r31, 0x00	; 0
     f00:	ee 0f       	add	r30, r30
     f02:	ff 1f       	adc	r31, r31
     f04:	e2 50       	subi	r30, 0x02	; 2
     f06:	fe 4f       	sbci	r31, 0xFE	; 254
     f08:	60 81       	ld	r22, Z
     f0a:	71 81       	ldd	r23, Z+1	; 0x01
     f0c:	86 e4       	ldi	r24, 0x46	; 70
     f0e:	91 e0       	ldi	r25, 0x01	; 1
     f10:	0e 94 a7 03 	call	0x74e	; 0x74e <send_variables>
	send_variables(SINGLE_SET_SWITCH, switch_sensor[set_num]);		//传感器开启/关闭状态
     f14:	e0 91 e1 02 	lds	r30, 0x02E1	; 0x8002e1 <set_num>
     f18:	f0 e0       	ldi	r31, 0x00	; 0
     f1a:	ee 0f       	add	r30, r30
     f1c:	ff 1f       	adc	r31, r31
     f1e:	e6 57       	subi	r30, 0x76	; 118
     f20:	fd 4f       	sbci	r31, 0xFD	; 253
     f22:	60 81       	ld	r22, Z
     f24:	71 81       	ldd	r23, Z+1	; 0x01
     f26:	84 e4       	ldi	r24, 0x44	; 68
     f28:	91 e0       	ldi	r25, 0x01	; 1
     f2a:	0e 94 a7 03 	call	0x74e	; 0x74e <send_variables>
	send_variables(SINGLE_SENSORTYPE_ADDR, TYPE_J + (sensor_type[set_num]*TYPE_K));	//DANDUPAGE传感器类型选择显示
     f2e:	e0 91 e1 02 	lds	r30, 0x02E1	; 0x8002e1 <set_num>
     f32:	f0 e0       	ldi	r31, 0x00	; 0
     f34:	ee 0f       	add	r30, r30
     f36:	ff 1f       	adc	r31, r31
     f38:	ee 58       	subi	r30, 0x8E	; 142
     f3a:	fd 4f       	sbci	r31, 0xFD	; 253
     f3c:	80 81       	ld	r24, Z
     f3e:	91 81       	ldd	r25, Z+1	; 0x01
     f40:	86 5b       	subi	r24, 0xB6	; 182
     f42:	9f 4f       	sbci	r25, 0xFF	; 255
     f44:	60 e0       	ldi	r22, 0x00	; 0
     f46:	78 2f       	mov	r23, r24
     f48:	80 e9       	ldi	r24, 0x90	; 144
     f4a:	92 e0       	ldi	r25, 0x02	; 2
     f4c:	0e 94 a7 03 	call	0x74e	; 0x74e <send_variables>
	
	send_name(SINGLE_NAME_ADDR, set_name[set_num]);
     f50:	e0 91 e1 02 	lds	r30, 0x02E1	; 0x8002e1 <set_num>
     f54:	f0 e0       	ldi	r31, 0x00	; 0
     f56:	ee 0f       	add	r30, r30
     f58:	ff 1f       	adc	r31, r31
     f5a:	ee 0f       	add	r30, r30
     f5c:	ff 1f       	adc	r31, r31
     f5e:	e2 53       	subi	r30, 0x32	; 50
     f60:	fe 4f       	sbci	r31, 0xFE	; 254
     f62:	40 81       	ld	r20, Z
     f64:	51 81       	ldd	r21, Z+1	; 0x01
     f66:	62 81       	ldd	r22, Z+2	; 0x02
     f68:	73 81       	ldd	r23, Z+3	; 0x03
     f6a:	88 e8       	ldi	r24, 0x88	; 136
     f6c:	92 e0       	ldi	r25, 0x02	; 2
     f6e:	0e 94 53 06 	call	0xca6	; 0xca6 <send_name>
	
	send_name(SINGLE_SET_NAME, set_name[set_num]);
     f72:	e0 91 e1 02 	lds	r30, 0x02E1	; 0x8002e1 <set_num>
     f76:	f0 e0       	ldi	r31, 0x00	; 0
     f78:	ee 0f       	add	r30, r30
     f7a:	ff 1f       	adc	r31, r31
     f7c:	ee 0f       	add	r30, r30
     f7e:	ff 1f       	adc	r31, r31
     f80:	e2 53       	subi	r30, 0x32	; 50
     f82:	fe 4f       	sbci	r31, 0xFE	; 254
     f84:	40 81       	ld	r20, Z
     f86:	51 81       	ldd	r21, Z+1	; 0x01
     f88:	62 81       	ldd	r22, Z+2	; 0x02
     f8a:	73 81       	ldd	r23, Z+3	; 0x03
     f8c:	88 e5       	ldi	r24, 0x58	; 88
     f8e:	91 e0       	ldi	r25, 0x01	; 1
     f90:	0e 94 53 06 	call	0xca6	; 0xca6 <send_name>
	
	set_name_buff = set_name[set_num];
     f94:	e0 91 e1 02 	lds	r30, 0x02E1	; 0x8002e1 <set_num>
     f98:	f0 e0       	ldi	r31, 0x00	; 0
     f9a:	ee 0f       	add	r30, r30
     f9c:	ff 1f       	adc	r31, r31
     f9e:	ee 0f       	add	r30, r30
     fa0:	ff 1f       	adc	r31, r31
     fa2:	e2 53       	subi	r30, 0x32	; 50
     fa4:	fe 4f       	sbci	r31, 0xFE	; 254
     fa6:	80 81       	ld	r24, Z
     fa8:	91 81       	ldd	r25, Z+1	; 0x01
     faa:	a2 81       	ldd	r26, Z+2	; 0x02
     fac:	b3 81       	ldd	r27, Z+3	; 0x03
     fae:	80 93 6e 02 	sts	0x026E, r24	; 0x80026e <set_name_buff>
     fb2:	90 93 6f 02 	sts	0x026F, r25	; 0x80026f <set_name_buff+0x1>
     fb6:	a0 93 70 02 	sts	0x0270, r26	; 0x800270 <set_name_buff+0x2>
     fba:	b0 93 71 02 	sts	0x0271, r27	; 0x800271 <set_name_buff+0x3>
     fbe:	08 95       	ret

00000fc0 <send_to_channel>:
	usart0_send_str(usart0_tx_buff, 12);
}


void send_to_channel(uint8_t ch, uint16_t value)
{
     fc0:	cf 93       	push	r28
     fc2:	df 93       	push	r29
	uint16_t crc = 0;
	
	usart0_tx_buff[0] = 0xA5;
     fc4:	cb e4       	ldi	r28, 0x4B	; 75
     fc6:	d3 e0       	ldi	r29, 0x03	; 3
     fc8:	95 ea       	ldi	r25, 0xA5	; 165
     fca:	98 83       	st	Y, r25
	usart0_tx_buff[1] = 0x5A;
     fcc:	9a e5       	ldi	r25, 0x5A	; 90
     fce:	99 83       	std	Y+1, r25	; 0x01
	usart0_tx_buff[2] = 0x04;
     fd0:	94 e0       	ldi	r25, 0x04	; 4
     fd2:	9a 83       	std	Y+2, r25	; 0x02
	usart0_tx_buff[3] = 0x84;
     fd4:	94 e8       	ldi	r25, 0x84	; 132
     fd6:	9b 83       	std	Y+3, r25	; 0x03
	usart0_tx_buff[4] = ch;
     fd8:	8c 83       	std	Y+4, r24	; 0x04
	usart0_tx_buff[5] = value>>8;
     fda:	7d 83       	std	Y+5, r23	; 0x05
	usart0_tx_buff[6] = value;
     fdc:	6e 83       	std	Y+6, r22	; 0x06

	crc = crc_check(usart0_tx_buff, 9);
     fde:	69 e0       	ldi	r22, 0x09	; 9
     fe0:	ce 01       	movw	r24, r28
     fe2:	0e 94 5e 13 	call	0x26bc	; 0x26bc <crc_check>

	usart0_tx_buff[7] = crc & 0x00FF;
     fe6:	8f 83       	std	Y+7, r24	; 0x07
	usart0_tx_buff[8] = crc >> 8;
     fe8:	98 87       	std	Y+8, r25	; 0x08

	usart0_send_str(usart0_tx_buff, 9);
     fea:	69 e0       	ldi	r22, 0x09	; 9
     fec:	ce 01       	movw	r24, r28
     fee:	0e 94 24 13 	call	0x2648	; 0x2648 <usart0_send_str>
}
     ff2:	df 91       	pop	r29
     ff4:	cf 91       	pop	r28
     ff6:	08 95       	ret

00000ff8 <send_alarm_msg>:

void send_alarm_msg(uint8_t type, uint8_t msg_num, uint16_t sen_num)
{
     ff8:	0f 93       	push	r16
     ffa:	1f 93       	push	r17
     ffc:	cf 93       	push	r28
     ffe:	df 93       	push	r29
    1000:	8a 01       	movw	r16, r20
	uint8_t i = 0;
	uint16_t crc = 0;
	uint16_t sensor_num = 0;
	
	usart0_tx_buff[0] = 0xA5;
    1002:	eb e4       	ldi	r30, 0x4B	; 75
    1004:	f3 e0       	ldi	r31, 0x03	; 3
    1006:	95 ea       	ldi	r25, 0xA5	; 165
    1008:	90 83       	st	Z, r25
	usart0_tx_buff[1] = 0x5A;
    100a:	9a e5       	ldi	r25, 0x5A	; 90
    100c:	91 83       	std	Z+1, r25	; 0x01
	usart0_tx_buff[2] = 0x13;
    100e:	93 e1       	ldi	r25, 0x13	; 19
    1010:	92 83       	std	Z+2, r25	; 0x02
	usart0_tx_buff[3] = 0x82;
    1012:	92 e8       	ldi	r25, 0x82	; 130
    1014:	93 83       	std	Z+3, r25	; 0x03
	usart0_tx_buff[4] = (ALAEM_MSG1_ADDR+(msg_num*16))>>8;
    1016:	c6 2f       	mov	r28, r22
    1018:	d0 e0       	ldi	r29, 0x00	; 0
    101a:	9e 01       	movw	r18, r28
    101c:	25 5d       	subi	r18, 0xD5	; 213
    101e:	3f 4f       	sbci	r19, 0xFF	; 255
    1020:	a9 01       	movw	r20, r18
    1022:	42 95       	swap	r20
    1024:	52 95       	swap	r21
    1026:	50 7f       	andi	r21, 0xF0	; 240
    1028:	54 27       	eor	r21, r20
    102a:	40 7f       	andi	r20, 0xF0	; 240
    102c:	54 27       	eor	r21, r20
    102e:	54 83       	std	Z+4, r21	; 0x04
	usart0_tx_buff[5] = (ALAEM_MSG1_ADDR+(msg_num*16)) & 0x00FF;
    1030:	22 95       	swap	r18
    1032:	20 7f       	andi	r18, 0xF0	; 240
    1034:	25 83       	std	Z+5, r18	; 0x05
    1036:	20 e1       	ldi	r18, 0x10	; 16
    1038:	82 9f       	mul	r24, r18
    103a:	c0 01       	movw	r24, r0
    103c:	11 24       	eor	r1, r1
    103e:	dc 01       	movw	r26, r24
    1040:	ae 50       	subi	r26, 0x0E	; 14
    1042:	bf 4f       	sbci	r27, 0xFF	; 255
    1044:	e1 e5       	ldi	r30, 0x51	; 81
    1046:	f3 e0       	ldi	r31, 0x03	; 3
    1048:	21 e6       	ldi	r18, 0x61	; 97
    104a:	33 e0       	ldi	r19, 0x03	; 3
	
	for(i=0; i<16; i++)
	{
		usart0_tx_buff[i+6] = alarm_msg[type-1][i];
    104c:	9d 91       	ld	r25, X+
    104e:	91 93       	st	Z+, r25
	usart0_tx_buff[2] = 0x13;
	usart0_tx_buff[3] = 0x82;
	usart0_tx_buff[4] = (ALAEM_MSG1_ADDR+(msg_num*16))>>8;
	usart0_tx_buff[5] = (ALAEM_MSG1_ADDR+(msg_num*16)) & 0x00FF;
	
	for(i=0; i<16; i++)
    1050:	e2 17       	cp	r30, r18
    1052:	f3 07       	cpc	r31, r19
    1054:	d9 f7       	brne	.-10     	; 0x104c <send_alarm_msg+0x54>
	{
		usart0_tx_buff[i+6] = alarm_msg[type-1][i];
	}
	
	crc = crc_check(usart0_tx_buff, 24);
    1056:	68 e1       	ldi	r22, 0x18	; 24
    1058:	8b e4       	ldi	r24, 0x4B	; 75
    105a:	93 e0       	ldi	r25, 0x03	; 3
    105c:	0e 94 5e 13 	call	0x26bc	; 0x26bc <crc_check>
	
	usart0_tx_buff[22] = crc & 0x00FF;
    1060:	eb e4       	ldi	r30, 0x4B	; 75
    1062:	f3 e0       	ldi	r31, 0x03	; 3
    1064:	86 8b       	std	Z+22, r24	; 0x16
	usart0_tx_buff[23] = crc >> 8;
    1066:	97 8b       	std	Z+23, r25	; 0x17
	
	usart0_send_str(usart0_tx_buff, 24);
    1068:	68 e1       	ldi	r22, 0x18	; 24
    106a:	cf 01       	movw	r24, r30
    106c:	0e 94 24 13 	call	0x2648	; 0x2648 <usart0_send_str>
	
	if(sen_num <= 8)
    1070:	09 30       	cpi	r16, 0x09	; 9
    1072:	11 05       	cpc	r17, r1
    1074:	28 f4       	brcc	.+10     	; 0x1080 <send_alarm_msg+0x88>
	{
		sensor_num = 0x2300 | (sen_num+49);
    1076:	0f 5c       	subi	r16, 0xCF	; 207
    1078:	1f 4f       	sbci	r17, 0xFF	; 255
    107a:	b8 01       	movw	r22, r16
    107c:	73 62       	ori	r23, 0x23	; 35
    107e:	04 c0       	rjmp	.+8      	; 0x1088 <send_alarm_msg+0x90>
	}
	else
	{
		sensor_num = 0x2300 | (sen_num+56);	
    1080:	08 5c       	subi	r16, 0xC8	; 200
    1082:	1f 4f       	sbci	r17, 0xFF	; 255
    1084:	b8 01       	movw	r22, r16
    1086:	73 62       	ori	r23, 0x23	; 35
	}
	
	send_variables(ALARM_DEVICE_NUM1_ADDR+(msg_num*2), sensor_num);
    1088:	ce 01       	movw	r24, r28
    108a:	cc 96       	adiw	r24, 0x3c	; 60
    108c:	88 0f       	add	r24, r24
    108e:	99 1f       	adc	r25, r25
    1090:	0e 94 a7 03 	call	0x74e	; 0x74e <send_variables>
}
    1094:	df 91       	pop	r29
    1096:	cf 91       	pop	r28
    1098:	1f 91       	pop	r17
    109a:	0f 91       	pop	r16
    109c:	08 95       	ret

0000109e <send_request_all>:

void send_request_all(uint8_t addr)
{
    109e:	cf 93       	push	r28
    10a0:	df 93       	push	r29
	uint16_t crc = 0;
	
	usart1_tx_buff[0] = 0xA5;
    10a2:	ce ed       	ldi	r28, 0xDE	; 222
    10a4:	d4 e0       	ldi	r29, 0x04	; 4
    10a6:	95 ea       	ldi	r25, 0xA5	; 165
    10a8:	98 83       	st	Y, r25
	usart1_tx_buff[1] = 0x5A;
    10aa:	9a e5       	ldi	r25, 0x5A	; 90
    10ac:	99 83       	std	Y+1, r25	; 0x01
	usart1_tx_buff[2] = 0x02;
    10ae:	92 e0       	ldi	r25, 0x02	; 2
    10b0:	9a 83       	std	Y+2, r25	; 0x02
	usart1_tx_buff[3] = 0x01;
    10b2:	91 e0       	ldi	r25, 0x01	; 1
    10b4:	9b 83       	std	Y+3, r25	; 0x03
	usart1_tx_buff[4] = (addr<<4);
    10b6:	82 95       	swap	r24
    10b8:	80 7f       	andi	r24, 0xF0	; 240
    10ba:	8c 83       	std	Y+4, r24	; 0x04
	
	crc = crc_check(usart1_tx_buff, 7);
    10bc:	67 e0       	ldi	r22, 0x07	; 7
    10be:	ce 01       	movw	r24, r28
    10c0:	0e 94 5e 13 	call	0x26bc	; 0x26bc <crc_check>
	
	usart1_tx_buff[5] = crc & 0x00FF;
    10c4:	8d 83       	std	Y+5, r24	; 0x05
	usart1_tx_buff[6] = crc >> 8;
    10c6:	9e 83       	std	Y+6, r25	; 0x06
	 
	usart1_send_str(usart1_tx_buff, 7);
    10c8:	67 e0       	ldi	r22, 0x07	; 7
    10ca:	ce 01       	movw	r24, r28
    10cc:	0e 94 45 13 	call	0x268a	; 0x268a <usart1_send_str>
}
    10d0:	df 91       	pop	r29
    10d2:	cf 91       	pop	r28
    10d4:	08 95       	ret

000010d6 <get_data_all>:

void get_data_all()
{
    10d6:	1f 93       	push	r17
    10d8:	cf 93       	push	r28
    10da:	df 93       	push	r29
	uint8_t slave_num = 0;
	
	slave_num = (usart1_rx_buff[4]>>4);
    10dc:	e6 ea       	ldi	r30, 0xA6	; 166
    10de:	f5 e0       	ldi	r31, 0x05	; 5
	
	output_rate[0+((slave_num-1)*4)] = usart1_rx_buff[5];
    10e0:	84 81       	ldd	r24, Z+4	; 0x04
    10e2:	82 95       	swap	r24
    10e4:	8f 70       	andi	r24, 0x0F	; 15
    10e6:	90 e0       	ldi	r25, 0x00	; 0
    10e8:	01 97       	sbiw	r24, 0x01	; 1
    10ea:	88 0f       	add	r24, r24
    10ec:	99 1f       	adc	r25, r25
    10ee:	88 0f       	add	r24, r24
    10f0:	99 1f       	adc	r25, r25
    10f2:	dc 01       	movw	r26, r24
    10f4:	ae 52       	subi	r26, 0x2E	; 46
    10f6:	bd 4f       	sbci	r27, 0xFD	; 253
    10f8:	25 81       	ldd	r18, Z+5	; 0x05
    10fa:	2c 93       	st	X, r18
	output_rate[1+((slave_num-1)*4)] = usart1_rx_buff[6];
    10fc:	dc 01       	movw	r26, r24
    10fe:	11 96       	adiw	r26, 0x01	; 1
    1100:	ed 01       	movw	r28, r26
    1102:	ce 52       	subi	r28, 0x2E	; 46
    1104:	dd 4f       	sbci	r29, 0xFD	; 253
    1106:	26 81       	ldd	r18, Z+6	; 0x06
    1108:	28 83       	st	Y, r18
	output_rate[2+((slave_num-1)*4)] = usart1_rx_buff[7];
    110a:	bc 01       	movw	r22, r24
    110c:	6e 5f       	subi	r22, 0xFE	; 254
    110e:	7f 4f       	sbci	r23, 0xFF	; 255
    1110:	eb 01       	movw	r28, r22
    1112:	ce 52       	subi	r28, 0x2E	; 46
    1114:	dd 4f       	sbci	r29, 0xFD	; 253
    1116:	27 81       	ldd	r18, Z+7	; 0x07
    1118:	28 83       	st	Y, r18
	output_rate[3+((slave_num-1)*4)] = usart1_rx_buff[8];
    111a:	ac 01       	movw	r20, r24
    111c:	4d 5f       	subi	r20, 0xFD	; 253
    111e:	5f 4f       	sbci	r21, 0xFF	; 255
    1120:	ea 01       	movw	r28, r20
    1122:	ce 52       	subi	r28, 0x2E	; 46
    1124:	dd 4f       	sbci	r29, 0xFD	; 253
    1126:	20 85       	ldd	r18, Z+8	; 0x08
    1128:	28 83       	st	Y, r18
	
	sensor_sta[0+((slave_num-1)*4)] = usart1_rx_buff[9];
    112a:	ec 01       	movw	r28, r24
    112c:	ca 53       	subi	r28, 0x3A	; 58
    112e:	dd 4f       	sbci	r29, 0xFD	; 253
    1130:	21 85       	ldd	r18, Z+9	; 0x09
    1132:	28 83       	st	Y, r18
	sensor_sta[1+((slave_num-1)*4)] = usart1_rx_buff[10];
    1134:	ed 01       	movw	r28, r26
    1136:	ca 53       	subi	r28, 0x3A	; 58
    1138:	dd 4f       	sbci	r29, 0xFD	; 253
    113a:	22 85       	ldd	r18, Z+10	; 0x0a
    113c:	28 83       	st	Y, r18
	sensor_sta[2+((slave_num-1)*4)] = usart1_rx_buff[11];
    113e:	eb 01       	movw	r28, r22
    1140:	ca 53       	subi	r28, 0x3A	; 58
    1142:	dd 4f       	sbci	r29, 0xFD	; 253
    1144:	23 85       	ldd	r18, Z+11	; 0x0b
    1146:	28 83       	st	Y, r18
	sensor_sta[3+((slave_num-1)*4)] = usart1_rx_buff[12];
    1148:	ea 01       	movw	r28, r20
    114a:	ca 53       	subi	r28, 0x3A	; 58
    114c:	dd 4f       	sbci	r29, 0xFD	; 253
    114e:	24 85       	ldd	r18, Z+12	; 0x0c
    1150:	28 83       	st	Y, r18
	
	run_temp[0+((slave_num-1)*4)] = usart1_rx_buff[13];
	run_temp[0+((slave_num-1)*4)] = (run_temp[0+((slave_num-1)*4)]<<8) | usart1_rx_buff[14];
    1152:	ec 01       	movw	r28, r24
    1154:	cc 0f       	add	r28, r28
    1156:	dd 1f       	adc	r29, r29
    1158:	c2 55       	subi	r28, 0x52	; 82
    115a:	dd 4f       	sbci	r29, 0xFD	; 253
    115c:	25 85       	ldd	r18, Z+13	; 0x0d
    115e:	30 e0       	ldi	r19, 0x00	; 0
    1160:	32 2f       	mov	r19, r18
    1162:	22 27       	eor	r18, r18
    1164:	16 85       	ldd	r17, Z+14	; 0x0e
    1166:	21 2b       	or	r18, r17
    1168:	39 83       	std	Y+1, r19	; 0x01
    116a:	28 83       	st	Y, r18
	run_temp[1+((slave_num-1)*4)] = usart1_rx_buff[15];
	run_temp[1+((slave_num-1)*4)] = (run_temp[1+((slave_num-1)*4)]<<8) | usart1_rx_buff[16];
    116c:	ed 01       	movw	r28, r26
    116e:	cc 0f       	add	r28, r28
    1170:	dd 1f       	adc	r29, r29
    1172:	c2 55       	subi	r28, 0x52	; 82
    1174:	dd 4f       	sbci	r29, 0xFD	; 253
    1176:	27 85       	ldd	r18, Z+15	; 0x0f
    1178:	30 e0       	ldi	r19, 0x00	; 0
    117a:	32 2f       	mov	r19, r18
    117c:	22 27       	eor	r18, r18
    117e:	10 89       	ldd	r17, Z+16	; 0x10
    1180:	21 2b       	or	r18, r17
    1182:	39 83       	std	Y+1, r19	; 0x01
    1184:	28 83       	st	Y, r18
	run_temp[2+((slave_num-1)*4)] = usart1_rx_buff[17];
	run_temp[2+((slave_num-1)*4)] = (run_temp[2+((slave_num-1)*4)]<<8) | usart1_rx_buff[18];
    1186:	eb 01       	movw	r28, r22
    1188:	cc 0f       	add	r28, r28
    118a:	dd 1f       	adc	r29, r29
    118c:	c2 55       	subi	r28, 0x52	; 82
    118e:	dd 4f       	sbci	r29, 0xFD	; 253
    1190:	21 89       	ldd	r18, Z+17	; 0x11
    1192:	30 e0       	ldi	r19, 0x00	; 0
    1194:	32 2f       	mov	r19, r18
    1196:	22 27       	eor	r18, r18
    1198:	12 89       	ldd	r17, Z+18	; 0x12
    119a:	21 2b       	or	r18, r17
    119c:	39 83       	std	Y+1, r19	; 0x01
    119e:	28 83       	st	Y, r18
	run_temp[3+((slave_num-1)*4)] = usart1_rx_buff[19];
	run_temp[3+((slave_num-1)*4)] = (run_temp[3+((slave_num-1)*4)]<<8) | usart1_rx_buff[20];
    11a0:	ea 01       	movw	r28, r20
    11a2:	cc 0f       	add	r28, r28
    11a4:	dd 1f       	adc	r29, r29
    11a6:	c2 55       	subi	r28, 0x52	; 82
    11a8:	dd 4f       	sbci	r29, 0xFD	; 253
    11aa:	23 89       	ldd	r18, Z+19	; 0x13
    11ac:	30 e0       	ldi	r19, 0x00	; 0
    11ae:	32 2f       	mov	r19, r18
    11b0:	22 27       	eor	r18, r18
    11b2:	14 89       	ldd	r17, Z+20	; 0x14
    11b4:	21 2b       	or	r18, r17
    11b6:	39 83       	std	Y+1, r19	; 0x01
    11b8:	28 83       	st	Y, r18
	
	alarm_type[0+((slave_num-1)*4)] = usart1_rx_buff[21];
    11ba:	ec 01       	movw	r28, r24
    11bc:	ce 55       	subi	r28, 0x5E	; 94
    11be:	dd 4f       	sbci	r29, 0xFD	; 253
    11c0:	25 89       	ldd	r18, Z+21	; 0x15
    11c2:	28 83       	st	Y, r18
	alarm_type[1+((slave_num-1)*4)] = usart1_rx_buff[22];
    11c4:	ae 55       	subi	r26, 0x5E	; 94
    11c6:	bd 4f       	sbci	r27, 0xFD	; 253
    11c8:	86 89       	ldd	r24, Z+22	; 0x16
    11ca:	8c 93       	st	X, r24
	alarm_type[2+((slave_num-1)*4)] = usart1_rx_buff[23];
    11cc:	db 01       	movw	r26, r22
    11ce:	ae 55       	subi	r26, 0x5E	; 94
    11d0:	bd 4f       	sbci	r27, 0xFD	; 253
    11d2:	87 89       	ldd	r24, Z+23	; 0x17
    11d4:	8c 93       	st	X, r24
	alarm_type[3+((slave_num-1)*4)] = usart1_rx_buff[24];
    11d6:	da 01       	movw	r26, r20
    11d8:	ae 55       	subi	r26, 0x5E	; 94
    11da:	bd 4f       	sbci	r27, 0xFD	; 253
    11dc:	80 8d       	ldd	r24, Z+24	; 0x18
    11de:	8c 93       	st	X, r24
}
    11e0:	df 91       	pop	r29
    11e2:	cf 91       	pop	r28
    11e4:	1f 91       	pop	r17
    11e6:	08 95       	ret

000011e8 <clear_alarm_msg>:


void clear_alarm_msg(uint8_t msg_num)
{
    11e8:	cf 93       	push	r28
    11ea:	df 93       	push	r29
	uint8_t i = 0;
	uint16_t crc = 0;
	
	usart0_tx_buff[0] = 0xA5;
    11ec:	eb e4       	ldi	r30, 0x4B	; 75
    11ee:	f3 e0       	ldi	r31, 0x03	; 3
    11f0:	95 ea       	ldi	r25, 0xA5	; 165
    11f2:	90 83       	st	Z, r25
	usart0_tx_buff[1] = 0x5A;
    11f4:	9a e5       	ldi	r25, 0x5A	; 90
    11f6:	91 83       	std	Z+1, r25	; 0x01
	usart0_tx_buff[2] = 0x13;
    11f8:	93 e1       	ldi	r25, 0x13	; 19
    11fa:	92 83       	std	Z+2, r25	; 0x02
	usart0_tx_buff[3] = 0x82;
    11fc:	92 e8       	ldi	r25, 0x82	; 130
    11fe:	93 83       	std	Z+3, r25	; 0x03
	usart0_tx_buff[4] = (ALAEM_MSG1_ADDR+(msg_num*16)) >> 8;
    1200:	c8 2f       	mov	r28, r24
    1202:	d0 e0       	ldi	r29, 0x00	; 0
    1204:	ce 01       	movw	r24, r28
    1206:	8b 96       	adiw	r24, 0x2b	; 43
    1208:	9c 01       	movw	r18, r24
    120a:	22 95       	swap	r18
    120c:	32 95       	swap	r19
    120e:	30 7f       	andi	r19, 0xF0	; 240
    1210:	32 27       	eor	r19, r18
    1212:	20 7f       	andi	r18, 0xF0	; 240
    1214:	32 27       	eor	r19, r18
    1216:	34 83       	std	Z+4, r19	; 0x04
	usart0_tx_buff[5] = (ALAEM_MSG1_ADDR+(msg_num*16)) & 0x00FF;
    1218:	82 95       	swap	r24
    121a:	80 7f       	andi	r24, 0xF0	; 240
    121c:	85 83       	std	Z+5, r24	; 0x05
    121e:	e1 e5       	ldi	r30, 0x51	; 81
    1220:	f3 e0       	ldi	r31, 0x03	; 3
    1222:	21 e6       	ldi	r18, 0x61	; 97
    1224:	33 e0       	ldi	r19, 0x03	; 3
	
	for(i=0; i<16; i++)
	{
		usart0_tx_buff[i+6] = 0x00;
    1226:	11 92       	st	Z+, r1
	usart0_tx_buff[2] = 0x13;
	usart0_tx_buff[3] = 0x82;
	usart0_tx_buff[4] = (ALAEM_MSG1_ADDR+(msg_num*16)) >> 8;
	usart0_tx_buff[5] = (ALAEM_MSG1_ADDR+(msg_num*16)) & 0x00FF;
	
	for(i=0; i<16; i++)
    1228:	e2 17       	cp	r30, r18
    122a:	f3 07       	cpc	r31, r19
    122c:	e1 f7       	brne	.-8      	; 0x1226 <clear_alarm_msg+0x3e>
	{
		usart0_tx_buff[i+6] = 0x00;
	}
	
	crc = crc_check(usart0_tx_buff, 24);
    122e:	68 e1       	ldi	r22, 0x18	; 24
    1230:	8b e4       	ldi	r24, 0x4B	; 75
    1232:	93 e0       	ldi	r25, 0x03	; 3
    1234:	0e 94 5e 13 	call	0x26bc	; 0x26bc <crc_check>
	
	usart0_tx_buff[22] = crc & 0x00FF;
    1238:	eb e4       	ldi	r30, 0x4B	; 75
    123a:	f3 e0       	ldi	r31, 0x03	; 3
    123c:	86 8b       	std	Z+22, r24	; 0x16
	usart0_tx_buff[23] = crc >> 8;
    123e:	97 8b       	std	Z+23, r25	; 0x17
	
	usart0_send_str(usart0_tx_buff, 24);
    1240:	68 e1       	ldi	r22, 0x18	; 24
    1242:	cf 01       	movw	r24, r30
    1244:	0e 94 24 13 	call	0x2648	; 0x2648 <usart0_send_str>
	
	send_variables(ALARM_DEVICE_NUM1_ADDR+(msg_num*2), 0x0000);
    1248:	ce 01       	movw	r24, r28
    124a:	cc 96       	adiw	r24, 0x3c	; 60
    124c:	60 e0       	ldi	r22, 0x00	; 0
    124e:	70 e0       	ldi	r23, 0x00	; 0
    1250:	88 0f       	add	r24, r24
    1252:	99 1f       	adc	r25, r25
    1254:	0e 94 a7 03 	call	0x74e	; 0x74e <send_variables>
}
    1258:	df 91       	pop	r29
    125a:	cf 91       	pop	r28
    125c:	08 95       	ret

0000125e <update_alarm_page>:
	send_variables(TIME_CTRL_T3_ADDR, t3[pre_iqr]);
	send_variables(TIME_CTRL_T4_ADDR, t4[pre_iqr]);
}

void update_alarm_page(uint8_t page_num)
{
    125e:	cf 92       	push	r12
    1260:	df 92       	push	r13
    1262:	ef 92       	push	r14
    1264:	ff 92       	push	r15
    1266:	0f 93       	push	r16
    1268:	1f 93       	push	r17
    126a:	cf 93       	push	r28
    126c:	df 93       	push	r29
    126e:	90 e0       	ldi	r25, 0x00	; 0
    1270:	01 97       	sbiw	r24, 0x01	; 1
    1272:	ec 01       	movw	r28, r24
    1274:	cc 0f       	add	r28, r28
    1276:	dd 1f       	adc	r29, r29
    1278:	cc 0f       	add	r28, r28
    127a:	dd 1f       	adc	r29, r29
    127c:	cc 0f       	add	r28, r28
    127e:	dd 1f       	adc	r29, r29
    1280:	c8 1b       	sub	r28, r24
    1282:	d9 0b       	sbc	r29, r25
    1284:	21 96       	adiw	r28, 0x01	; 1
	uint8_t alarm_msg_num = 0;
	uint16_t sensor_num = 0;
	
	for(i=0; i<7; i++)
	{
		send_variables(ALARM_PAGE_NUM1_ADDR+(i*2), i+((page_num-1)*7)+1);
    1286:	04 e4       	ldi	r16, 0x44	; 68
    1288:	10 e0       	ldi	r17, 0x00	; 0
    128a:	be 01       	movw	r22, r28
    128c:	c8 01       	movw	r24, r16
    128e:	0e 94 a7 03 	call	0x74e	; 0x74e <send_variables>
    1292:	0e 5f       	subi	r16, 0xFE	; 254
    1294:	1f 4f       	sbci	r17, 0xFF	; 255
    1296:	21 96       	adiw	r28, 0x01	; 1
{
	uint8_t i = 0;
	uint8_t alarm_msg_num = 0;
	uint16_t sensor_num = 0;
	
	for(i=0; i<7; i++)
    1298:	02 35       	cpi	r16, 0x52	; 82
    129a:	11 05       	cpc	r17, r1
    129c:	b1 f7       	brne	.-20     	; 0x128a <update_alarm_page+0x2c>
    129e:	0f 2e       	mov	r0, r31
    12a0:	fe ea       	ldi	r31, 0xAE	; 174
    12a2:	ef 2e       	mov	r14, r31
    12a4:	f2 e0       	ldi	r31, 0x02	; 2
    12a6:	ff 2e       	mov	r15, r31
    12a8:	f0 2d       	mov	r31, r0
    12aa:	02 ea       	ldi	r16, 0xA2	; 162
    12ac:	12 e0       	ldi	r17, 0x02	; 2
    12ae:	c0 e0       	ldi	r28, 0x00	; 0
	for(i=0; i<12; i++)
	{
		if(alarm_type[i] != 0)
		{
			sensor_num = i;
			send_alarm_msg(alarm_type[i], alarm_msg_num, sensor_num);
    12b0:	68 01       	movw	r12, r16
    12b2:	c0 94       	com	r12
    12b4:	d0 94       	com	r13
		send_variables(ALARM_PAGE_NUM1_ADDR+(i*2), i+((page_num-1)*7)+1);
	}
	
	for(i=0; i<12; i++)
	{
		if(alarm_type[i] != 0)
    12b6:	f8 01       	movw	r30, r16
    12b8:	81 91       	ld	r24, Z+
    12ba:	8f 01       	movw	r16, r30
    12bc:	88 23       	and	r24, r24
    12be:	39 f0       	breq	.+14     	; 0x12ce <update_alarm_page+0x70>
		{
			sensor_num = i;
			send_alarm_msg(alarm_type[i], alarm_msg_num, sensor_num);
    12c0:	a6 01       	movw	r20, r12
    12c2:	4e 0f       	add	r20, r30
    12c4:	5f 1f       	adc	r21, r31
    12c6:	6c 2f       	mov	r22, r28
    12c8:	0e 94 fc 07 	call	0xff8	; 0xff8 <send_alarm_msg>
			alarm_msg_num++;
    12cc:	cf 5f       	subi	r28, 0xFF	; 255
	for(i=0; i<7; i++)
	{
		send_variables(ALARM_PAGE_NUM1_ADDR+(i*2), i+((page_num-1)*7)+1);
	}
	
	for(i=0; i<12; i++)
    12ce:	e0 16       	cp	r14, r16
    12d0:	f1 06       	cpc	r15, r17
    12d2:	89 f7       	brne	.-30     	; 0x12b6 <update_alarm_page+0x58>
			send_alarm_msg(alarm_type[i], alarm_msg_num, sensor_num);
			alarm_msg_num++;
		}
	}
	
	for(; alarm_msg_num<7; alarm_msg_num++)
    12d4:	c7 30       	cpi	r28, 0x07	; 7
    12d6:	30 f4       	brcc	.+12     	; 0x12e4 <update_alarm_page+0x86>
	{
		clear_alarm_msg(alarm_msg_num);	
    12d8:	8c 2f       	mov	r24, r28
    12da:	0e 94 f4 08 	call	0x11e8	; 0x11e8 <clear_alarm_msg>
			send_alarm_msg(alarm_type[i], alarm_msg_num, sensor_num);
			alarm_msg_num++;
		}
	}
	
	for(; alarm_msg_num<7; alarm_msg_num++)
    12de:	cf 5f       	subi	r28, 0xFF	; 255
    12e0:	c7 30       	cpi	r28, 0x07	; 7
    12e2:	d1 f7       	brne	.-12     	; 0x12d8 <update_alarm_page+0x7a>
	{
		clear_alarm_msg(alarm_msg_num);	
	}
}
    12e4:	df 91       	pop	r29
    12e6:	cf 91       	pop	r28
    12e8:	1f 91       	pop	r17
    12ea:	0f 91       	pop	r16
    12ec:	ff 90       	pop	r15
    12ee:	ef 90       	pop	r14
    12f0:	df 90       	pop	r13
    12f2:	cf 90       	pop	r12
    12f4:	08 95       	ret

000012f6 <clear_curve_buff>:
	
	send_variables(ALARM_DEVICE_NUM1_ADDR+(msg_num*2), 0x0000);
}

void clear_curve_buff(uint8_t channel)
{
    12f6:	cf 93       	push	r28
    12f8:	df 93       	push	r29
	uint16_t crc = 0;
	
	usart0_tx_buff[0] = 0xA5;
    12fa:	cb e4       	ldi	r28, 0x4B	; 75
    12fc:	d3 e0       	ldi	r29, 0x03	; 3
    12fe:	95 ea       	ldi	r25, 0xA5	; 165
    1300:	98 83       	st	Y, r25
	usart0_tx_buff[1] = 0x5A;
    1302:	9a e5       	ldi	r25, 0x5A	; 90
    1304:	99 83       	std	Y+1, r25	; 0x01
	usart0_tx_buff[2] = 0x03;
    1306:	93 e0       	ldi	r25, 0x03	; 3
    1308:	9a 83       	std	Y+2, r25	; 0x02
	usart0_tx_buff[3] = 0x80;
    130a:	90 e8       	ldi	r25, 0x80	; 128
    130c:	9b 83       	std	Y+3, r25	; 0x03
	usart0_tx_buff[4] = 0xEB;
    130e:	9b ee       	ldi	r25, 0xEB	; 235
    1310:	9c 83       	std	Y+4, r25	; 0x04
	usart0_tx_buff[5] = channel;
    1312:	8d 83       	std	Y+5, r24	; 0x05

	crc = crc_check(usart0_tx_buff, 8);
    1314:	68 e0       	ldi	r22, 0x08	; 8
    1316:	ce 01       	movw	r24, r28
    1318:	0e 94 5e 13 	call	0x26bc	; 0x26bc <crc_check>

	usart0_tx_buff[6] = crc & 0x00FF;
    131c:	8e 83       	std	Y+6, r24	; 0x06
	usart0_tx_buff[7] = crc >> 8;
    131e:	9f 83       	std	Y+7, r25	; 0x07

	usart0_send_str(usart0_tx_buff, 8);
    1320:	68 e0       	ldi	r22, 0x08	; 8
    1322:	ce 01       	movw	r24, r28
    1324:	0e 94 24 13 	call	0x2648	; 0x2648 <usart0_send_str>
}
    1328:	df 91       	pop	r29
    132a:	cf 91       	pop	r28
    132c:	08 95       	ret

0000132e <update_curve_page>:
	i_value_buff = i_value[channel-1];
	d_value_buff = d_value[channel-1];
}

void update_curve_page(void)
{
    132e:	bf 92       	push	r11
    1330:	cf 92       	push	r12
    1332:	df 92       	push	r13
    1334:	ef 92       	push	r14
    1336:	ff 92       	push	r15
    1338:	0f 93       	push	r16
    133a:	1f 93       	push	r17
    133c:	cf 93       	push	r28
    133e:	df 93       	push	r29
    1340:	cd b7       	in	r28, 0x3d	; 61
    1342:	de b7       	in	r29, 0x3e	; 62
    1344:	64 97       	sbiw	r28, 0x14	; 20
    1346:	0f b6       	in	r0, 0x3f	; 63
    1348:	f8 94       	cli
    134a:	de bf       	out	0x3e, r29	; 62
    134c:	0f be       	out	0x3f, r0	; 63
    134e:	cd bf       	out	0x3d, r28	; 61
	uint8_t i = 0;
	uint8_t count = 0;
	uint16_t time_line[10] = {2, 4, 6, 8, 10, 12, 14, 16, 18, 20};
    1350:	84 e1       	ldi	r24, 0x14	; 20
    1352:	e3 e4       	ldi	r30, 0x43	; 67
    1354:	f2 e0       	ldi	r31, 0x02	; 2
    1356:	de 01       	movw	r26, r28
    1358:	11 96       	adiw	r26, 0x01	; 1
    135a:	01 90       	ld	r0, Z+
    135c:	0d 92       	st	X+, r0
    135e:	8a 95       	dec	r24
    1360:	e1 f7       	brne	.-8      	; 0x135a <update_curve_page+0x2c>
	
	update_run_temp_flag = 1;
    1362:	81 e0       	ldi	r24, 0x01	; 1
    1364:	80 93 e6 02 	sts	0x02E6, r24	; 0x8002e6 <update_run_temp_flag>
	run_temp_page = 0;
    1368:	10 92 e7 02 	sts	0x02E7, r1	; 0x8002e7 <run_temp_page>
	
	if(curve_time_level >= 4)
    136c:	80 91 de 02 	lds	r24, 0x02DE	; 0x8002de <curve_time_level>
    1370:	84 30       	cpi	r24, 0x04	; 4
    1372:	24 f0       	brlt	.+8      	; 0x137c <update_curve_page+0x4e>
	{
		curve_time_level = 3;
    1374:	83 e0       	ldi	r24, 0x03	; 3
    1376:	80 93 de 02 	sts	0x02DE, r24	; 0x8002de <curve_time_level>
    137a:	04 c0       	rjmp	.+8      	; 0x1384 <update_curve_page+0x56>
	}
	else if(curve_time_level < 0)
    137c:	88 23       	and	r24, r24
    137e:	14 f4       	brge	.+4      	; 0x1384 <update_curve_page+0x56>
	{
		curve_time_level = 0;
    1380:	10 92 de 02 	sts	0x02DE, r1	; 0x8002de <curve_time_level>
	}
	
	if(curve_page_num >= 12)
    1384:	80 91 df 02 	lds	r24, 0x02DF	; 0x8002df <curve_page_num>
    1388:	8c 30       	cpi	r24, 0x0C	; 12
    138a:	1c f0       	brlt	.+6      	; 0x1392 <update_curve_page+0x64>
	{
		curve_page_num = 0;
    138c:	10 92 df 02 	sts	0x02DF, r1	; 0x8002df <curve_page_num>
    1390:	05 c0       	rjmp	.+10     	; 0x139c <update_curve_page+0x6e>
	}
	else if(curve_page_num < 0)
    1392:	88 23       	and	r24, r24
    1394:	1c f4       	brge	.+6      	; 0x139c <update_curve_page+0x6e>
	{
		curve_page_num = 11;
    1396:	8b e0       	ldi	r24, 0x0B	; 11
    1398:	80 93 df 02 	sts	0x02DF, r24	; 0x8002df <curve_page_num>
	}
	
	count = 10*(curve_time_level+1);
    139c:	80 91 de 02 	lds	r24, 0x02DE	; 0x8002de <curve_time_level>
    13a0:	88 0f       	add	r24, r24
    13a2:	8e 5f       	subi	r24, 0xFE	; 254
    13a4:	b8 2e       	mov	r11, r24
    13a6:	bb 0c       	add	r11, r11
    13a8:	bb 0c       	add	r11, r11
    13aa:	b8 0e       	add	r11, r24
		
	CLOSE_CURVE;	
    13ac:	85 b5       	in	r24, 0x25	; 37
    13ae:	88 7f       	andi	r24, 0xF8	; 248
    13b0:	85 bd       	out	0x25, r24	; 37
	clear_curve_buff(CHANNEL0_BUFF);
    13b2:	8a e5       	ldi	r24, 0x5A	; 90
    13b4:	0e 94 7b 09 	call	0x12f6	; 0x12f6 <clear_curve_buff>
    13b8:	ce 01       	movw	r24, r28
    13ba:	01 96       	adiw	r24, 0x01	; 1
    13bc:	7e 01       	movw	r14, r28
    13be:	25 e1       	ldi	r18, 0x15	; 21
    13c0:	e2 0e       	add	r14, r18
    13c2:	f1 1c       	adc	r15, r1
    13c4:	6c 01       	movw	r12, r24
	
	for(i=0; i<10; i++)
	{
		time_line[i] *=  (curve_time_level+1);
		send_variables(CURVE_TIMELINE_ADDR+(i*2), time_line[i]);
    13c6:	00 e5       	ldi	r16, 0x50	; 80
    13c8:	10 e0       	ldi	r17, 0x00	; 0
    13ca:	08 1b       	sub	r16, r24
    13cc:	19 0b       	sbc	r17, r25
	CLOSE_CURVE;	
	clear_curve_buff(CHANNEL0_BUFF);
	
	for(i=0; i<10; i++)
	{
		time_line[i] *=  (curve_time_level+1);
    13ce:	80 91 de 02 	lds	r24, 0x02DE	; 0x8002de <curve_time_level>
    13d2:	08 2e       	mov	r0, r24
    13d4:	00 0c       	add	r0, r0
    13d6:	99 0b       	sbc	r25, r25
    13d8:	01 96       	adiw	r24, 0x01	; 1
    13da:	f6 01       	movw	r30, r12
    13dc:	20 81       	ld	r18, Z
    13de:	31 81       	ldd	r19, Z+1	; 0x01
    13e0:	82 9f       	mul	r24, r18
    13e2:	b0 01       	movw	r22, r0
    13e4:	83 9f       	mul	r24, r19
    13e6:	70 0d       	add	r23, r0
    13e8:	92 9f       	mul	r25, r18
    13ea:	70 0d       	add	r23, r0
    13ec:	11 24       	eor	r1, r1
    13ee:	61 93       	st	Z+, r22
    13f0:	71 93       	st	Z+, r23
    13f2:	6f 01       	movw	r12, r30
		send_variables(CURVE_TIMELINE_ADDR+(i*2), time_line[i]);
    13f4:	c8 01       	movw	r24, r16
    13f6:	8e 0f       	add	r24, r30
    13f8:	9f 1f       	adc	r25, r31
    13fa:	0e 94 a7 03 	call	0x74e	; 0x74e <send_variables>
	count = 10*(curve_time_level+1);
		
	CLOSE_CURVE;	
	clear_curve_buff(CHANNEL0_BUFF);
	
	for(i=0; i<10; i++)
    13fe:	ce 14       	cp	r12, r14
    1400:	df 04       	cpc	r13, r15
    1402:	29 f7       	brne	.-54     	; 0x13ce <update_curve_page+0xa0>
	{
		time_line[i] *=  (curve_time_level+1);
		send_variables(CURVE_TIMELINE_ADDR+(i*2), time_line[i]);
	}
	
	send_variables(CURVE_PAGE_NUM_ADDR, curve_page_num+1);
    1404:	60 91 df 02 	lds	r22, 0x02DF	; 0x8002df <curve_page_num>
    1408:	06 2e       	mov	r0, r22
    140a:	00 0c       	add	r0, r0
    140c:	77 0b       	sbc	r23, r23
    140e:	6f 5f       	subi	r22, 0xFF	; 255
    1410:	7f 4f       	sbci	r23, 0xFF	; 255
    1412:	8c e3       	ldi	r24, 0x3C	; 60
    1414:	90 e0       	ldi	r25, 0x00	; 0
    1416:	0e 94 a7 03 	call	0x74e	; 0x74e <send_variables>
	send_variables(CURVE_PAGE_RUNTEMP_ADDR, run_temp[curve_page_num] +
    141a:	e0 91 df 02 	lds	r30, 0x02DF	; 0x8002df <curve_page_num>
    141e:	ee 0f       	add	r30, r30
    1420:	ff 0b       	sbc	r31, r31
    1422:	e2 55       	subi	r30, 0x52	; 82
    1424:	fd 4f       	sbci	r31, 0xFD	; 253
    1426:	20 81       	ld	r18, Z
    1428:	31 81       	ldd	r19, Z+1	; 0x01
    142a:	c9 01       	movw	r24, r18
    142c:	88 0f       	add	r24, r24
    142e:	99 1f       	adc	r25, r25
    1430:	88 0f       	add	r24, r24
    1432:	99 1f       	adc	r25, r25
    1434:	88 0f       	add	r24, r24
    1436:	99 1f       	adc	r25, r25
    1438:	6a e0       	ldi	r22, 0x0A	; 10
    143a:	70 e0       	ldi	r23, 0x00	; 0
    143c:	0e 94 1a 15 	call	0x2a34	; 0x2a34 <__divmodhi4>
    1440:	cb 01       	movw	r24, r22
    1442:	80 96       	adiw	r24, 0x20	; 32
    1444:	40 91 5a 02 	lds	r20, 0x025A	; 0x80025a <temp_unit>
    1448:	50 91 5b 02 	lds	r21, 0x025B	; 0x80025b <temp_unit+0x1>
    144c:	84 9f       	mul	r24, r20
    144e:	b0 01       	movw	r22, r0
    1450:	85 9f       	mul	r24, r21
    1452:	70 0d       	add	r23, r0
    1454:	94 9f       	mul	r25, r20
    1456:	70 0d       	add	r23, r0
    1458:	11 24       	eor	r1, r1
    145a:	62 0f       	add	r22, r18
    145c:	73 1f       	adc	r23, r19
    145e:	8e e3       	ldi	r24, 0x3E	; 62
    1460:	90 e0       	ldi	r25, 0x00	; 0
    1462:	0e 94 a7 03 	call	0x74e	; 0x74e <send_variables>
											temp_unit*(run_temp[curve_page_num]*8/10 + 32));	//运行温度
	send_variables(CURVE_PAGE_SETTEMP_ADDR, set_temp[curve_page_num]);							//设定温度
    1466:	e0 91 df 02 	lds	r30, 0x02DF	; 0x8002df <curve_page_num>
    146a:	ee 0f       	add	r30, r30
    146c:	ff 0b       	sbc	r31, r31
    146e:	e2 50       	subi	r30, 0x02	; 2
    1470:	fe 4f       	sbci	r31, 0xFE	; 254
    1472:	60 81       	ld	r22, Z
    1474:	71 81       	ldd	r23, Z+1	; 0x01
    1476:	80 e4       	ldi	r24, 0x40	; 64
    1478:	90 e0       	ldi	r25, 0x00	; 0
    147a:	0e 94 a7 03 	call	0x74e	; 0x74e <send_variables>
	send_variables(CURVE_PAGE_OUTRATE_ADDR, output_rate[curve_page_num]);
    147e:	e0 91 df 02 	lds	r30, 0x02DF	; 0x8002df <curve_page_num>
    1482:	0e 2e       	mov	r0, r30
    1484:	00 0c       	add	r0, r0
    1486:	ff 0b       	sbc	r31, r31
    1488:	ee 52       	subi	r30, 0x2E	; 46
    148a:	fd 4f       	sbci	r31, 0xFD	; 253
    148c:	60 81       	ld	r22, Z
    148e:	70 e0       	ldi	r23, 0x00	; 0
    1490:	82 e4       	ldi	r24, 0x42	; 66
    1492:	90 e0       	ldi	r25, 0x00	; 0
    1494:	0e 94 a7 03 	call	0x74e	; 0x74e <send_variables>
	send_variables(CURVE_PAGE_SENSORTYPE_ADDR, TYPE_J+(sensor_type[curve_page_num]*TYPE_K));
    1498:	e0 91 df 02 	lds	r30, 0x02DF	; 0x8002df <curve_page_num>
    149c:	ee 0f       	add	r30, r30
    149e:	ff 0b       	sbc	r31, r31
    14a0:	ee 58       	subi	r30, 0x8E	; 142
    14a2:	fd 4f       	sbci	r31, 0xFD	; 253
    14a4:	80 81       	ld	r24, Z
    14a6:	91 81       	ldd	r25, Z+1	; 0x01
    14a8:	86 5b       	subi	r24, 0xB6	; 182
    14aa:	9f 4f       	sbci	r25, 0xFF	; 255
    14ac:	60 e0       	ldi	r22, 0x00	; 0
    14ae:	78 2f       	mov	r23, r24
    14b0:	80 ea       	ldi	r24, 0xA0	; 160
    14b2:	92 e0       	ldi	r25, 0x02	; 2
    14b4:	0e 94 a7 03 	call	0x74e	; 0x74e <send_variables>
	send_name(CURVE_PAGE_NAME_ADDR, set_name[curve_page_num]);
    14b8:	e0 91 df 02 	lds	r30, 0x02DF	; 0x8002df <curve_page_num>
    14bc:	24 e0       	ldi	r18, 0x04	; 4
    14be:	e2 02       	muls	r30, r18
    14c0:	f0 01       	movw	r30, r0
    14c2:	11 24       	eor	r1, r1
    14c4:	e2 53       	subi	r30, 0x32	; 50
    14c6:	fe 4f       	sbci	r31, 0xFE	; 254
    14c8:	40 81       	ld	r20, Z
    14ca:	51 81       	ldd	r21, Z+1	; 0x01
    14cc:	62 81       	ldd	r22, Z+2	; 0x02
    14ce:	73 81       	ldd	r23, Z+3	; 0x03
    14d0:	88 e9       	ldi	r24, 0x98	; 152
    14d2:	92 e0       	ldi	r25, 0x02	; 2
    14d4:	0e 94 53 06 	call	0xca6	; 0xca6 <send_name>
	
	OPEN_CURVE(count);
    14d8:	b0 92 13 03 	sts	0x0313, r11	; 0x800313 <timer2_ovf>
    14dc:	82 eb       	ldi	r24, 0xB2	; 178
    14de:	84 bd       	out	0x24, r24	; 36
    14e0:	85 b5       	in	r24, 0x25	; 37
    14e2:	85 60       	ori	r24, 0x05	; 5
    14e4:	85 bd       	out	0x25, r24	; 37
}
    14e6:	64 96       	adiw	r28, 0x14	; 20
    14e8:	0f b6       	in	r0, 0x3f	; 63
    14ea:	f8 94       	cli
    14ec:	de bf       	out	0x3e, r29	; 62
    14ee:	0f be       	out	0x3f, r0	; 63
    14f0:	cd bf       	out	0x3d, r28	; 61
    14f2:	df 91       	pop	r29
    14f4:	cf 91       	pop	r28
    14f6:	1f 91       	pop	r17
    14f8:	0f 91       	pop	r16
    14fa:	ff 90       	pop	r15
    14fc:	ef 90       	pop	r14
    14fe:	df 90       	pop	r13
    1500:	cf 90       	pop	r12
    1502:	bf 90       	pop	r11
    1504:	08 95       	ret

00001506 <update_time_ctrl_page>:
}

void update_time_ctrl_page(void)
{
	
	clear_curve_buff(CHANNEL0_BUFF);
    1506:	8a e5       	ldi	r24, 0x5A	; 90
    1508:	0e 94 7b 09 	call	0x12f6	; 0x12f6 <clear_curve_buff>
	
	t1_buff = t1[pre_iqr];
    150c:	80 91 e8 02 	lds	r24, 0x02E8	; 0x8002e8 <pre_iqr>
    1510:	90 91 e9 02 	lds	r25, 0x02E9	; 0x8002e9 <pre_iqr+0x1>
    1514:	88 0f       	add	r24, r24
    1516:	99 1f       	adc	r25, r25
    1518:	fc 01       	movw	r30, r24
    151a:	ea 58       	subi	r30, 0x8A	; 138
    151c:	fe 4f       	sbci	r31, 0xFE	; 254
    151e:	60 81       	ld	r22, Z
    1520:	71 81       	ldd	r23, Z+1	; 0x01
    1522:	70 93 20 02 	sts	0x0220, r23	; 0x800220 <t1_buff+0x1>
    1526:	60 93 1f 02 	sts	0x021F, r22	; 0x80021f <t1_buff>
	t2_buff = t2[pre_iqr];
    152a:	fc 01       	movw	r30, r24
    152c:	ea 59       	subi	r30, 0x9A	; 154
    152e:	fe 4f       	sbci	r31, 0xFE	; 254
    1530:	20 81       	ld	r18, Z
    1532:	31 81       	ldd	r19, Z+1	; 0x01
    1534:	30 93 1e 02 	sts	0x021E, r19	; 0x80021e <t2_buff+0x1>
    1538:	20 93 1d 02 	sts	0x021D, r18	; 0x80021d <t2_buff>
	t3_buff = t3[pre_iqr];
    153c:	fc 01       	movw	r30, r24
    153e:	ea 5a       	subi	r30, 0xAA	; 170
    1540:	fe 4f       	sbci	r31, 0xFE	; 254
    1542:	20 81       	ld	r18, Z
    1544:	31 81       	ldd	r19, Z+1	; 0x01
    1546:	30 93 1c 02 	sts	0x021C, r19	; 0x80021c <t3_buff+0x1>
    154a:	20 93 1b 02 	sts	0x021B, r18	; 0x80021b <t3_buff>
	t4_buff = t4[pre_iqr];
    154e:	fc 01       	movw	r30, r24
    1550:	ea 5b       	subi	r30, 0xBA	; 186
    1552:	fe 4f       	sbci	r31, 0xFE	; 254
    1554:	80 81       	ld	r24, Z
    1556:	91 81       	ldd	r25, Z+1	; 0x01
    1558:	90 93 1a 02 	sts	0x021A, r25	; 0x80021a <t4_buff+0x1>
    155c:	80 93 19 02 	sts	0x0219, r24	; 0x800219 <t4_buff>
	
	send_variables(TIME_CTRL_T1, t1[pre_iqr]);
    1560:	80 e6       	ldi	r24, 0x60	; 96
    1562:	91 e0       	ldi	r25, 0x01	; 1
    1564:	0e 94 a7 03 	call	0x74e	; 0x74e <send_variables>
	send_variables(TIME_CTRL_T2, t2[pre_iqr]);
    1568:	e0 91 e8 02 	lds	r30, 0x02E8	; 0x8002e8 <pre_iqr>
    156c:	f0 91 e9 02 	lds	r31, 0x02E9	; 0x8002e9 <pre_iqr+0x1>
    1570:	ee 0f       	add	r30, r30
    1572:	ff 1f       	adc	r31, r31
    1574:	ea 59       	subi	r30, 0x9A	; 154
    1576:	fe 4f       	sbci	r31, 0xFE	; 254
    1578:	60 81       	ld	r22, Z
    157a:	71 81       	ldd	r23, Z+1	; 0x01
    157c:	82 e6       	ldi	r24, 0x62	; 98
    157e:	91 e0       	ldi	r25, 0x01	; 1
    1580:	0e 94 a7 03 	call	0x74e	; 0x74e <send_variables>
	send_variables(TIME_CTRL_T3, t3[pre_iqr]);
    1584:	e0 91 e8 02 	lds	r30, 0x02E8	; 0x8002e8 <pre_iqr>
    1588:	f0 91 e9 02 	lds	r31, 0x02E9	; 0x8002e9 <pre_iqr+0x1>
    158c:	ee 0f       	add	r30, r30
    158e:	ff 1f       	adc	r31, r31
    1590:	ea 5a       	subi	r30, 0xAA	; 170
    1592:	fe 4f       	sbci	r31, 0xFE	; 254
    1594:	60 81       	ld	r22, Z
    1596:	71 81       	ldd	r23, Z+1	; 0x01
    1598:	84 e6       	ldi	r24, 0x64	; 100
    159a:	91 e0       	ldi	r25, 0x01	; 1
    159c:	0e 94 a7 03 	call	0x74e	; 0x74e <send_variables>
	send_variables(TIME_CTRL_T4, t4[pre_iqr]);
    15a0:	e0 91 e8 02 	lds	r30, 0x02E8	; 0x8002e8 <pre_iqr>
    15a4:	f0 91 e9 02 	lds	r31, 0x02E9	; 0x8002e9 <pre_iqr+0x1>
    15a8:	ee 0f       	add	r30, r30
    15aa:	ff 1f       	adc	r31, r31
    15ac:	ea 5b       	subi	r30, 0xBA	; 186
    15ae:	fe 4f       	sbci	r31, 0xFE	; 254
    15b0:	60 81       	ld	r22, Z
    15b2:	71 81       	ldd	r23, Z+1	; 0x01
    15b4:	86 e6       	ldi	r24, 0x66	; 102
    15b6:	91 e0       	ldi	r25, 0x01	; 1
    15b8:	0e 94 a7 03 	call	0x74e	; 0x74e <send_variables>
	send_variables(TIME_CTRL_T1_ADDR, t1[pre_iqr]);
    15bc:	e0 91 e8 02 	lds	r30, 0x02E8	; 0x8002e8 <pre_iqr>
    15c0:	f0 91 e9 02 	lds	r31, 0x02E9	; 0x8002e9 <pre_iqr+0x1>
    15c4:	ee 0f       	add	r30, r30
    15c6:	ff 1f       	adc	r31, r31
    15c8:	ea 58       	subi	r30, 0x8A	; 138
    15ca:	fe 4f       	sbci	r31, 0xFE	; 254
    15cc:	60 81       	ld	r22, Z
    15ce:	71 81       	ldd	r23, Z+1	; 0x01
    15d0:	80 e7       	ldi	r24, 0x70	; 112
    15d2:	90 e0       	ldi	r25, 0x00	; 0
    15d4:	0e 94 a7 03 	call	0x74e	; 0x74e <send_variables>
	send_variables(TIME_CTRL_T2_ADDR, t2[pre_iqr]);
    15d8:	e0 91 e8 02 	lds	r30, 0x02E8	; 0x8002e8 <pre_iqr>
    15dc:	f0 91 e9 02 	lds	r31, 0x02E9	; 0x8002e9 <pre_iqr+0x1>
    15e0:	ee 0f       	add	r30, r30
    15e2:	ff 1f       	adc	r31, r31
    15e4:	ea 59       	subi	r30, 0x9A	; 154
    15e6:	fe 4f       	sbci	r31, 0xFE	; 254
    15e8:	60 81       	ld	r22, Z
    15ea:	71 81       	ldd	r23, Z+1	; 0x01
    15ec:	82 e7       	ldi	r24, 0x72	; 114
    15ee:	90 e0       	ldi	r25, 0x00	; 0
    15f0:	0e 94 a7 03 	call	0x74e	; 0x74e <send_variables>
	send_variables(TIME_CTRL_T3_ADDR, t3[pre_iqr]);
    15f4:	e0 91 e8 02 	lds	r30, 0x02E8	; 0x8002e8 <pre_iqr>
    15f8:	f0 91 e9 02 	lds	r31, 0x02E9	; 0x8002e9 <pre_iqr+0x1>
    15fc:	ee 0f       	add	r30, r30
    15fe:	ff 1f       	adc	r31, r31
    1600:	ea 5a       	subi	r30, 0xAA	; 170
    1602:	fe 4f       	sbci	r31, 0xFE	; 254
    1604:	60 81       	ld	r22, Z
    1606:	71 81       	ldd	r23, Z+1	; 0x01
    1608:	84 e7       	ldi	r24, 0x74	; 116
    160a:	90 e0       	ldi	r25, 0x00	; 0
    160c:	0e 94 a7 03 	call	0x74e	; 0x74e <send_variables>
	send_variables(TIME_CTRL_T4_ADDR, t4[pre_iqr]);
    1610:	e0 91 e8 02 	lds	r30, 0x02E8	; 0x8002e8 <pre_iqr>
    1614:	f0 91 e9 02 	lds	r31, 0x02E9	; 0x8002e9 <pre_iqr+0x1>
    1618:	ee 0f       	add	r30, r30
    161a:	ff 1f       	adc	r31, r31
    161c:	ea 5b       	subi	r30, 0xBA	; 186
    161e:	fe 4f       	sbci	r31, 0xFE	; 254
    1620:	60 81       	ld	r22, Z
    1622:	71 81       	ldd	r23, Z+1	; 0x01
    1624:	86 e7       	ldi	r24, 0x76	; 118
    1626:	90 e0       	ldi	r25, 0x00	; 0
    1628:	0e 94 a7 03 	call	0x74e	; 0x74e <send_variables>
    162c:	08 95       	ret

0000162e <key_action>:
	}
}

void key_action(uint16_t key_code)
{
	switch(key_code)
    162e:	82 32       	cpi	r24, 0x22	; 34
    1630:	91 05       	cpc	r25, r1
    1632:	08 f0       	brcs	.+2      	; 0x1636 <key_action+0x8>
    1634:	cf c0       	rjmp	.+414    	; 0x17d4 <key_action+0x1a6>
    1636:	fc 01       	movw	r30, r24
    1638:	ea 5b       	subi	r30, 0xBA	; 186
    163a:	ff 4f       	sbci	r31, 0xFF	; 255
    163c:	0c 94 2e 15 	jmp	0x2a5c	; 0x2a5c <__tablejump2__>
	{
		case SWITCH_LANGUAGE:		pre_language ^= 0x01; switch_language();					break;
    1640:	90 91 e5 02 	lds	r25, 0x02E5	; 0x8002e5 <pre_language>
    1644:	81 e0       	ldi	r24, 0x01	; 1
    1646:	89 27       	eor	r24, r25
    1648:	80 93 e5 02 	sts	0x02E5, r24	; 0x8002e5 <pre_language>
    164c:	0e 94 95 03 	call	0x72a	; 0x72a <switch_language>
    1650:	08 95       	ret
		case CLEAR_ALARM_SOUND:		ALARM_OFF;													break;
    1652:	94 98       	cbi	0x12, 4	; 18
    1654:	08 95       	ret
		case MAIN_PAGE_UP:			pre_main_page = 0;											break;
    1656:	10 92 e4 02 	sts	0x02E4, r1	; 0x8002e4 <pre_main_page>
    165a:	08 95       	ret
		case MAIN_PAGE_DOWN:		pre_main_page = 1;											break;
    165c:	81 e0       	ldi	r24, 0x01	; 1
    165e:	80 93 e4 02 	sts	0x02E4, r24	; 0x8002e4 <pre_main_page>
    1662:	08 95       	ret
		case MAIN_SENSOR1_SET:		set_num = 0 + (pre_main_page*6); update_single_set_page();	break;
    1664:	80 91 e4 02 	lds	r24, 0x02E4	; 0x8002e4 <pre_main_page>
    1668:	98 2f       	mov	r25, r24
    166a:	99 0f       	add	r25, r25
    166c:	89 0f       	add	r24, r25
    166e:	88 0f       	add	r24, r24
    1670:	80 93 e1 02 	sts	0x02E1, r24	; 0x8002e1 <set_num>
    1674:	0e 94 39 07 	call	0xe72	; 0xe72 <update_single_set_page>
    1678:	08 95       	ret
		case MAIN_SENSOR2_SET:		set_num = 1 + (pre_main_page*6); update_single_set_page();	break;
    167a:	80 91 e4 02 	lds	r24, 0x02E4	; 0x8002e4 <pre_main_page>
    167e:	98 2f       	mov	r25, r24
    1680:	99 0f       	add	r25, r25
    1682:	89 0f       	add	r24, r25
    1684:	88 0f       	add	r24, r24
    1686:	8f 5f       	subi	r24, 0xFF	; 255
    1688:	80 93 e1 02 	sts	0x02E1, r24	; 0x8002e1 <set_num>
    168c:	0e 94 39 07 	call	0xe72	; 0xe72 <update_single_set_page>
    1690:	08 95       	ret
		case MAIN_SENSOR3_SET:		set_num = 2 + (pre_main_page*6); update_single_set_page();	break;
    1692:	80 91 e4 02 	lds	r24, 0x02E4	; 0x8002e4 <pre_main_page>
    1696:	98 2f       	mov	r25, r24
    1698:	99 0f       	add	r25, r25
    169a:	89 0f       	add	r24, r25
    169c:	88 0f       	add	r24, r24
    169e:	8e 5f       	subi	r24, 0xFE	; 254
    16a0:	80 93 e1 02 	sts	0x02E1, r24	; 0x8002e1 <set_num>
    16a4:	0e 94 39 07 	call	0xe72	; 0xe72 <update_single_set_page>
    16a8:	08 95       	ret
		case MAIN_SENSOR4_SET:		set_num = 3 + (pre_main_page*6); update_single_set_page();	break;
    16aa:	80 91 e4 02 	lds	r24, 0x02E4	; 0x8002e4 <pre_main_page>
    16ae:	98 2f       	mov	r25, r24
    16b0:	99 0f       	add	r25, r25
    16b2:	89 0f       	add	r24, r25
    16b4:	88 0f       	add	r24, r24
    16b6:	8d 5f       	subi	r24, 0xFD	; 253
    16b8:	80 93 e1 02 	sts	0x02E1, r24	; 0x8002e1 <set_num>
    16bc:	0e 94 39 07 	call	0xe72	; 0xe72 <update_single_set_page>
    16c0:	08 95       	ret
		case MAIN_SENSOR5_SET:		set_num = 4 + (pre_main_page*6); update_single_set_page();	break;
    16c2:	80 91 e4 02 	lds	r24, 0x02E4	; 0x8002e4 <pre_main_page>
    16c6:	98 2f       	mov	r25, r24
    16c8:	99 0f       	add	r25, r25
    16ca:	89 0f       	add	r24, r25
    16cc:	88 0f       	add	r24, r24
    16ce:	8c 5f       	subi	r24, 0xFC	; 252
    16d0:	80 93 e1 02 	sts	0x02E1, r24	; 0x8002e1 <set_num>
    16d4:	0e 94 39 07 	call	0xe72	; 0xe72 <update_single_set_page>
    16d8:	08 95       	ret
		case MAIN_SENSOR6_SET:		set_num = 5 + (pre_main_page*6); update_single_set_page();	break;
    16da:	80 91 e4 02 	lds	r24, 0x02E4	; 0x8002e4 <pre_main_page>
    16de:	98 2f       	mov	r25, r24
    16e0:	99 0f       	add	r25, r25
    16e2:	89 0f       	add	r24, r25
    16e4:	88 0f       	add	r24, r24
    16e6:	8b 5f       	subi	r24, 0xFB	; 251
    16e8:	80 93 e1 02 	sts	0x02E1, r24	; 0x8002e1 <set_num>
    16ec:	0e 94 39 07 	call	0xe72	; 0xe72 <update_single_set_page>
    16f0:	08 95       	ret
		case SINGLE_SET_OK:			single_set_ok();											break;
    16f2:	0e 94 87 00 	call	0x10e	; 0x10e <single_set_ok>
    16f6:	08 95       	ret
		case ALL_SET_OK:			ctrl_command = ALL_SET_CMD;								    break;
    16f8:	87 e0       	ldi	r24, 0x07	; 7
    16fa:	80 93 18 02 	sts	0x0218, r24	; 0x800218 <ctrl_command>
    16fe:	08 95       	ret
		case PID_SET_OK:			pid_set_ok();												break;
    1700:	0e 94 72 01 	call	0x2e4	; 0x2e4 <pid_set_ok>
    1704:	08 95       	ret
		case CURVE_ZOOM_OUT:		curve_time_level--; update_curve_page();					break;
    1706:	80 91 de 02 	lds	r24, 0x02DE	; 0x8002de <curve_time_level>
    170a:	81 50       	subi	r24, 0x01	; 1
    170c:	80 93 de 02 	sts	0x02DE, r24	; 0x8002de <curve_time_level>
    1710:	0e 94 97 09 	call	0x132e	; 0x132e <update_curve_page>
    1714:	08 95       	ret
		case CURVE_ZOOM_IN:			curve_time_level++;	update_curve_page();					break;
    1716:	80 91 de 02 	lds	r24, 0x02DE	; 0x8002de <curve_time_level>
    171a:	8f 5f       	subi	r24, 0xFF	; 255
    171c:	80 93 de 02 	sts	0x02DE, r24	; 0x8002de <curve_time_level>
    1720:	0e 94 97 09 	call	0x132e	; 0x132e <update_curve_page>
    1724:	08 95       	ret
		case CURVE_PAGE_UP:			curve_page_num--;	update_curve_page();					break;
    1726:	80 91 df 02 	lds	r24, 0x02DF	; 0x8002df <curve_page_num>
    172a:	81 50       	subi	r24, 0x01	; 1
    172c:	80 93 df 02 	sts	0x02DF, r24	; 0x8002df <curve_page_num>
    1730:	0e 94 97 09 	call	0x132e	; 0x132e <update_curve_page>
    1734:	08 95       	ret
		case CURVE_PAGE_DOWN:		curve_page_num++;	update_curve_page();					break;
    1736:	80 91 df 02 	lds	r24, 0x02DF	; 0x8002df <curve_page_num>
    173a:	8f 5f       	subi	r24, 0xFF	; 255
    173c:	80 93 df 02 	sts	0x02DF, r24	; 0x8002df <curve_page_num>
    1740:	0e 94 97 09 	call	0x132e	; 0x132e <update_curve_page>
    1744:	08 95       	ret
		case CLEAR_ALARM_MSG:		clear_alarm_msg(15);										break;
    1746:	8f e0       	ldi	r24, 0x0F	; 15
    1748:	0e 94 f4 08 	call	0x11e8	; 0x11e8 <clear_alarm_msg>
    174c:	08 95       	ret
		case ALARM_PAGE_UP:			update_alarm_page(1);										break;
    174e:	81 e0       	ldi	r24, 0x01	; 1
    1750:	0e 94 2f 09 	call	0x125e	; 0x125e <update_alarm_page>
    1754:	08 95       	ret
		case ALARM_PAGE_DOWN:		update_alarm_page(2);										break;
    1756:	82 e0       	ldi	r24, 0x02	; 2
    1758:	0e 94 2f 09 	call	0x125e	; 0x125e <update_alarm_page>
    175c:	08 95       	ret
		case SINGLE_SET_BACK:		single_set_back();											break;
    175e:	0e 94 31 02 	call	0x462	; 0x462 <single_set_back>
    1762:	08 95       	ret
		case ALL_SET_BACK:			all_set_back();												break;
    1764:	0e 94 ba 04 	call	0x974	; 0x974 <all_set_back>
    1768:	08 95       	ret
		case PID_PAGE_ENTER:		update_pid_page(1);											break;
    176a:	81 e0       	ldi	r24, 0x01	; 1
    176c:	0e 94 18 05 	call	0xa30	; 0xa30 <update_pid_page>
    1770:	08 95       	ret
		case ALARM_PAGE_ENTER:		update_alarm_page(1);										break;
    1772:	81 e0       	ldi	r24, 0x01	; 1
    1774:	0e 94 2f 09 	call	0x125e	; 0x125e <update_alarm_page>
    1778:	08 95       	ret
		case CURVE_PAGE_ENTER:		update_curve_page();										break;
    177a:	0e 94 97 09 	call	0x132e	; 0x132e <update_curve_page>
    177e:	08 95       	ret
		case CURVE_PAGE_BACK:		CLOSE_CURVE; update_run_temp_flag = 0;						break;
    1780:	85 b5       	in	r24, 0x25	; 37
    1782:	88 7f       	andi	r24, 0xF8	; 248
    1784:	85 bd       	out	0x25, r24	; 37
    1786:	10 92 e6 02 	sts	0x02E6, r1	; 0x8002e6 <update_run_temp_flag>
    178a:	08 95       	ret
		case MENU_PAGE_ENTER:		in_main_page = 0; 											break;
    178c:	10 92 16 02 	sts	0x0216, r1	; 0x800216 <in_main_page>
    1790:	08 95       	ret
		case TIME_CTRL_ENTER:		in_time_ctrl_page = 1; update_time_ctrl_page();				break;
    1792:	81 e0       	ldi	r24, 0x01	; 1
    1794:	80 93 59 02 	sts	0x0259, r24	; 0x800259 <in_time_ctrl_page>
    1798:	0e 94 83 0a 	call	0x1506	; 0x1506 <update_time_ctrl_page>
    179c:	08 95       	ret
		case TIME_CTRL_BACK:		in_time_ctrl_page = 0; 										break;
    179e:	10 92 59 02 	sts	0x0259, r1	; 0x800259 <in_time_ctrl_page>
    17a2:	08 95       	ret
		case AUTO_CTRL_TIME:		first_start_iqr[pre_iqr] = 1; start_iqr[pre_iqr] = 1;		break;
    17a4:	80 91 e8 02 	lds	r24, 0x02E8	; 0x8002e8 <pre_iqr>
    17a8:	90 91 e9 02 	lds	r25, 0x02E9	; 0x8002e9 <pre_iqr+0x1>
    17ac:	fc 01       	movw	r30, r24
    17ae:	ea 59       	subi	r30, 0x9A	; 154
    17b0:	fd 4f       	sbci	r31, 0xFD	; 253
    17b2:	21 e0       	ldi	r18, 0x01	; 1
    17b4:	20 83       	st	Z, r18
    17b6:	fc 01       	movw	r30, r24
    17b8:	e2 5a       	subi	r30, 0xA2	; 162
    17ba:	fd 4f       	sbci	r31, 0xFD	; 253
    17bc:	20 83       	st	Z, r18
    17be:	08 95       	ret
		case STOP_CTRL_TIME:		start_iqr[pre_iqr] = 0;										break;
    17c0:	e0 91 e8 02 	lds	r30, 0x02E8	; 0x8002e8 <pre_iqr>
    17c4:	f0 91 e9 02 	lds	r31, 0x02E9	; 0x8002e9 <pre_iqr+0x1>
    17c8:	e2 5a       	subi	r30, 0xA2	; 162
    17ca:	fd 4f       	sbci	r31, 0xFD	; 253
    17cc:	10 82       	st	Z, r1
    17ce:	08 95       	ret
		case TIME_CTRL_OK:			get_time_ctrl_value();										break;
    17d0:	0e 94 79 05 	call	0xaf2	; 0xaf2 <get_time_ctrl_value>
    17d4:	08 95       	ret

000017d6 <eeprom_write>:
	
}

void eeprom_write(uint16_t addr, uint8_t data)
{
	while(EECR & (1<<EEWE));
    17d6:	e1 99       	sbic	0x1c, 1	; 28
    17d8:	fe cf       	rjmp	.-4      	; 0x17d6 <eeprom_write>
	EEAR = addr;
    17da:	9f bb       	out	0x1f, r25	; 31
    17dc:	8e bb       	out	0x1e, r24	; 30
	EEDR = data;
    17de:	6d bb       	out	0x1d, r22	; 29
	
	SREG &= 0x7F;		//关中断
    17e0:	8f b7       	in	r24, 0x3f	; 63
    17e2:	8f 77       	andi	r24, 0x7F	; 127
    17e4:	8f bf       	out	0x3f, r24	; 63
	EECR |= (1<<EEMWE);
    17e6:	e2 9a       	sbi	0x1c, 2	; 28
	EECR |= (1<<EEWE);
    17e8:	e1 9a       	sbi	0x1c, 1	; 28
	SREG |= 0x80;		//开中断
    17ea:	8f b7       	in	r24, 0x3f	; 63
    17ec:	80 68       	ori	r24, 0x80	; 128
    17ee:	8f bf       	out	0x3f, r24	; 63
    17f0:	08 95       	ret

000017f2 <eeprom_read>:
}

uint8_t eeprom_read(uint16_t addr)
{
	while(EECR & (1<<EEWE));
    17f2:	e1 99       	sbic	0x1c, 1	; 28
    17f4:	fe cf       	rjmp	.-4      	; 0x17f2 <eeprom_read>
	
	EEAR = addr;
    17f6:	9f bb       	out	0x1f, r25	; 31
    17f8:	8e bb       	out	0x1e, r24	; 30
	EECR |= (1<<EERE);
    17fa:	e0 9a       	sbi	0x1c, 0	; 28
	return EEDR;
    17fc:	8d b3       	in	r24, 0x1d	; 29
}
    17fe:	08 95       	ret

00001800 <read_eeprom_data>:
 */ 

#include "eeprom.h"

void read_eeprom_data(void)
{
    1800:	2f 92       	push	r2
    1802:	3f 92       	push	r3
    1804:	4f 92       	push	r4
    1806:	5f 92       	push	r5
    1808:	6f 92       	push	r6
    180a:	7f 92       	push	r7
    180c:	8f 92       	push	r8
    180e:	9f 92       	push	r9
    1810:	af 92       	push	r10
    1812:	bf 92       	push	r11
    1814:	cf 92       	push	r12
    1816:	df 92       	push	r13
    1818:	ef 92       	push	r14
    181a:	ff 92       	push	r15
    181c:	0f 93       	push	r16
    181e:	1f 93       	push	r17
    1820:	cf 93       	push	r28
    1822:	df 93       	push	r29
    1824:	cd b7       	in	r28, 0x3d	; 61
    1826:	de b7       	in	r29, 0x3e	; 62
    1828:	2a 97       	sbiw	r28, 0x0a	; 10
    182a:	0f b6       	in	r0, 0x3f	; 63
    182c:	f8 94       	cli
    182e:	de bf       	out	0x3e, r29	; 62
    1830:	0f be       	out	0x3f, r0	; 63
    1832:	cd bf       	out	0x3d, r28	; 61
	uint8_t i = 0;
	
	if(eeprom_read(FIRST_START_ADDR) != 'y')
    1834:	8c ef       	ldi	r24, 0xFC	; 252
    1836:	90 e0       	ldi	r25, 0x00	; 0
    1838:	0e 94 f9 0b 	call	0x17f2	; 0x17f2 <eeprom_read>
    183c:	89 37       	cpi	r24, 0x79	; 121
    183e:	09 f4       	brne	.+2      	; 0x1842 <read_eeprom_data+0x42>
    1840:	57 c1       	rjmp	.+686    	; 0x1af0 <read_eeprom_data+0x2f0>
	{
		eeprom_write(FIRST_START_ADDR, 'y');
    1842:	69 e7       	ldi	r22, 0x79	; 121
    1844:	8c ef       	ldi	r24, 0xFC	; 252
    1846:	90 e0       	ldi	r25, 0x00	; 0
    1848:	0e 94 eb 0b 	call	0x17d6	; 0x17d6 <eeprom_write>
    184c:	0f 2e       	mov	r0, r31
    184e:	fe ef       	ldi	r31, 0xFE	; 254
    1850:	6f 2e       	mov	r6, r31
    1852:	f1 e0       	ldi	r31, 0x01	; 1
    1854:	7f 2e       	mov	r7, r31
    1856:	f0 2d       	mov	r31, r0
    1858:	0f 2e       	mov	r0, r31
    185a:	f2 e7       	ldi	r31, 0x72	; 114
    185c:	4f 2e       	mov	r4, r31
    185e:	f2 e0       	ldi	r31, 0x02	; 2
    1860:	5f 2e       	mov	r5, r31
    1862:	f0 2d       	mov	r31, r0
    1864:	0f 2e       	mov	r0, r31
    1866:	f6 eb       	ldi	r31, 0xB6	; 182
    1868:	af 2e       	mov	r10, r31
    186a:	f1 e0       	ldi	r31, 0x01	; 1
    186c:	bf 2e       	mov	r11, r31
    186e:	f0 2d       	mov	r31, r0
    1870:	0f 2e       	mov	r0, r31
    1872:	fe e9       	ldi	r31, 0x9E	; 158
    1874:	cf 2e       	mov	r12, r31
    1876:	f1 e0       	ldi	r31, 0x01	; 1
    1878:	df 2e       	mov	r13, r31
    187a:	f0 2d       	mov	r31, r0
    187c:	0f 2e       	mov	r0, r31
    187e:	f6 e8       	ldi	r31, 0x86	; 134
    1880:	8f 2e       	mov	r8, r31
    1882:	f1 e0       	ldi	r31, 0x01	; 1
    1884:	9f 2e       	mov	r9, r31
    1886:	f0 2d       	mov	r31, r0
    1888:	0f 2e       	mov	r0, r31
    188a:	fe ec       	ldi	r31, 0xCE	; 206
    188c:	ef 2e       	mov	r14, r31
    188e:	f1 e0       	ldi	r31, 0x01	; 1
    1890:	ff 2e       	mov	r15, r31
    1892:	f0 2d       	mov	r31, r0
    1894:	13 01       	movw	r2, r6
    1896:	00 e0       	ldi	r16, 0x00	; 0
    1898:	10 e0       	ldi	r17, 0x00	; 0
    189a:	2d e1       	ldi	r18, 0x1D	; 29
    189c:	30 e0       	ldi	r19, 0x00	; 0
    189e:	3a 83       	std	Y+2, r19	; 0x02
    18a0:	29 83       	std	Y+1, r18	; 0x01
    18a2:	1c 82       	std	Y+4, r1	; 0x04
    18a4:	1b 82       	std	Y+3, r1	; 0x03
		
		for(i=0; i<12; i++)
		{
			eeprom_write(SINGLE_SETTEMP_EEADDR+(i*2), set_temp[i]);
    18a6:	f1 01       	movw	r30, r2
    18a8:	60 81       	ld	r22, Z
    18aa:	f2 e0       	ldi	r31, 0x02	; 2
    18ac:	2f 0e       	add	r2, r31
    18ae:	31 1c       	adc	r3, r1
    18b0:	8b 81       	ldd	r24, Y+3	; 0x03
    18b2:	9c 81       	ldd	r25, Y+4	; 0x04
    18b4:	05 96       	adiw	r24, 0x05	; 5
    18b6:	0e 94 eb 0b 	call	0x17d6	; 0x17d6 <eeprom_write>
			eeprom_write(SINGLE_SETTEMP_EEADDR+(i*2)+1, set_temp[i]>>8);
    18ba:	f3 01       	movw	r30, r6
    18bc:	61 81       	ldd	r22, Z+1	; 0x01
    18be:	f2 e0       	ldi	r31, 0x02	; 2
    18c0:	6f 0e       	add	r6, r31
    18c2:	71 1c       	adc	r7, r1
    18c4:	8b 81       	ldd	r24, Y+3	; 0x03
    18c6:	9c 81       	ldd	r25, Y+4	; 0x04
    18c8:	06 96       	adiw	r24, 0x06	; 6
    18ca:	0e 94 eb 0b 	call	0x17d6	; 0x17d6 <eeprom_write>
			
			eeprom_write(SINGLE_SENSORTYPE_EEADDR+i, sensor_type[i]);
    18ce:	f2 01       	movw	r30, r4
    18d0:	60 81       	ld	r22, Z
    18d2:	f2 e0       	ldi	r31, 0x02	; 2
    18d4:	4f 0e       	add	r4, r31
    18d6:	51 1c       	adc	r5, r1
    18d8:	89 81       	ldd	r24, Y+1	; 0x01
    18da:	9a 81       	ldd	r25, Y+2	; 0x02
    18dc:	0e 94 eb 0b 	call	0x17d6	; 0x17d6 <eeprom_write>
//			eeprom_write(SINGLE_SWSENSOR_EEADDR+i, switch_sensor[i]);
			
			eeprom_write(PID_P_EEADDR+(i*2), p_value[i]);
    18e0:	f5 01       	movw	r30, r10
    18e2:	60 81       	ld	r22, Z
    18e4:	8b 81       	ldd	r24, Y+3	; 0x03
    18e6:	9c 81       	ldd	r25, Y+4	; 0x04
    18e8:	8a 96       	adiw	r24, 0x2a	; 42
    18ea:	0e 94 eb 0b 	call	0x17d6	; 0x17d6 <eeprom_write>
			eeprom_write(PID_P_EEADDR+(i*2)+1, p_value[i]>>8);
    18ee:	f5 01       	movw	r30, r10
    18f0:	61 81       	ldd	r22, Z+1	; 0x01
    18f2:	8b 81       	ldd	r24, Y+3	; 0x03
    18f4:	9c 81       	ldd	r25, Y+4	; 0x04
    18f6:	8b 96       	adiw	r24, 0x2b	; 43
    18f8:	0e 94 eb 0b 	call	0x17d6	; 0x17d6 <eeprom_write>
			
			eeprom_write(PID_I_EEADDR+(i*2), i_value[i]);
    18fc:	f6 01       	movw	r30, r12
    18fe:	60 81       	ld	r22, Z
    1900:	8b 81       	ldd	r24, Y+3	; 0x03
    1902:	9c 81       	ldd	r25, Y+4	; 0x04
    1904:	8e 5b       	subi	r24, 0xBE	; 190
    1906:	9f 4f       	sbci	r25, 0xFF	; 255
    1908:	0e 94 eb 0b 	call	0x17d6	; 0x17d6 <eeprom_write>
			eeprom_write(PID_I_EEADDR+(i*2)+1, i_value[i]>>8);
    190c:	f6 01       	movw	r30, r12
    190e:	61 81       	ldd	r22, Z+1	; 0x01
    1910:	8b 81       	ldd	r24, Y+3	; 0x03
    1912:	9c 81       	ldd	r25, Y+4	; 0x04
    1914:	8d 5b       	subi	r24, 0xBD	; 189
    1916:	9f 4f       	sbci	r25, 0xFF	; 255
    1918:	0e 94 eb 0b 	call	0x17d6	; 0x17d6 <eeprom_write>
			
			eeprom_write(PID_D_EEADDR+(i*2), d_value[i]);
    191c:	f4 01       	movw	r30, r8
    191e:	60 81       	ld	r22, Z
    1920:	8b 81       	ldd	r24, Y+3	; 0x03
    1922:	9c 81       	ldd	r25, Y+4	; 0x04
    1924:	86 5a       	subi	r24, 0xA6	; 166
    1926:	9f 4f       	sbci	r25, 0xFF	; 255
    1928:	0e 94 eb 0b 	call	0x17d6	; 0x17d6 <eeprom_write>
			eeprom_write(PID_D_EEADDR+(i*2)+1, d_value[i]>>8);
    192c:	f4 01       	movw	r30, r8
    192e:	61 81       	ldd	r22, Z+1	; 0x01
    1930:	8b 81       	ldd	r24, Y+3	; 0x03
    1932:	9c 81       	ldd	r25, Y+4	; 0x04
    1934:	85 5a       	subi	r24, 0xA5	; 165
    1936:	9f 4f       	sbci	r25, 0xFF	; 255
    1938:	0e 94 eb 0b 	call	0x17d6	; 0x17d6 <eeprom_write>
			
			eeprom_write(SET_NAME_EEADDR+(i*4), set_name[i]);
    193c:	f7 01       	movw	r30, r14
    193e:	60 81       	ld	r22, Z
    1940:	c8 01       	movw	r24, r16
    1942:	82 58       	subi	r24, 0x82	; 130
    1944:	9f 4f       	sbci	r25, 0xFF	; 255
    1946:	0e 94 eb 0b 	call	0x17d6	; 0x17d6 <eeprom_write>
			eeprom_write(SET_NAME_EEADDR+(i*4)+1, set_name[i]>>8);
    194a:	f7 01       	movw	r30, r14
    194c:	80 81       	ld	r24, Z
    194e:	91 81       	ldd	r25, Z+1	; 0x01
    1950:	a2 81       	ldd	r26, Z+2	; 0x02
    1952:	b3 81       	ldd	r27, Z+3	; 0x03
    1954:	69 2f       	mov	r22, r25
    1956:	7a 2f       	mov	r23, r26
    1958:	8b 2f       	mov	r24, r27
    195a:	99 27       	eor	r25, r25
    195c:	c8 01       	movw	r24, r16
    195e:	81 58       	subi	r24, 0x81	; 129
    1960:	9f 4f       	sbci	r25, 0xFF	; 255
    1962:	0e 94 eb 0b 	call	0x17d6	; 0x17d6 <eeprom_write>
			eeprom_write(SET_NAME_EEADDR+(i*4)+2, set_name[i]>>16);
    1966:	f7 01       	movw	r30, r14
    1968:	80 81       	ld	r24, Z
    196a:	91 81       	ldd	r25, Z+1	; 0x01
    196c:	a2 81       	ldd	r26, Z+2	; 0x02
    196e:	b3 81       	ldd	r27, Z+3	; 0x03
    1970:	bd 01       	movw	r22, r26
    1972:	88 27       	eor	r24, r24
    1974:	99 27       	eor	r25, r25
    1976:	c8 01       	movw	r24, r16
    1978:	80 58       	subi	r24, 0x80	; 128
    197a:	9f 4f       	sbci	r25, 0xFF	; 255
    197c:	0e 94 eb 0b 	call	0x17d6	; 0x17d6 <eeprom_write>
			eeprom_write(SET_NAME_EEADDR+(i*4)+3, set_name[i]>>24);
    1980:	f7 01       	movw	r30, r14
    1982:	81 91       	ld	r24, Z+
    1984:	91 91       	ld	r25, Z+
    1986:	a1 91       	ld	r26, Z+
    1988:	b1 91       	ld	r27, Z+
    198a:	7f 01       	movw	r14, r30
    198c:	6b 2f       	mov	r22, r27
    198e:	77 27       	eor	r23, r23
    1990:	88 27       	eor	r24, r24
    1992:	99 27       	eor	r25, r25
    1994:	c8 01       	movw	r24, r16
    1996:	8f 57       	subi	r24, 0x7F	; 127
    1998:	9f 4f       	sbci	r25, 0xFF	; 255
    199a:	0e 94 eb 0b 	call	0x17d6	; 0x17d6 <eeprom_write>
    199e:	2b 81       	ldd	r18, Y+3	; 0x03
    19a0:	3c 81       	ldd	r19, Y+4	; 0x04
    19a2:	2e 5f       	subi	r18, 0xFE	; 254
    19a4:	3f 4f       	sbci	r19, 0xFF	; 255
    19a6:	3c 83       	std	Y+4, r19	; 0x04
    19a8:	2b 83       	std	Y+3, r18	; 0x03
    19aa:	89 81       	ldd	r24, Y+1	; 0x01
    19ac:	9a 81       	ldd	r25, Y+2	; 0x02
    19ae:	01 96       	adiw	r24, 0x01	; 1
    19b0:	9a 83       	std	Y+2, r25	; 0x02
    19b2:	89 83       	std	Y+1, r24	; 0x01
    19b4:	92 e0       	ldi	r25, 0x02	; 2
    19b6:	a9 0e       	add	r10, r25
    19b8:	b1 1c       	adc	r11, r1
    19ba:	e2 e0       	ldi	r30, 0x02	; 2
    19bc:	ce 0e       	add	r12, r30
    19be:	d1 1c       	adc	r13, r1
    19c0:	f2 e0       	ldi	r31, 0x02	; 2
    19c2:	8f 0e       	add	r8, r31
    19c4:	91 1c       	adc	r9, r1
    19c6:	0c 5f       	subi	r16, 0xFC	; 252
    19c8:	1f 4f       	sbci	r17, 0xFF	; 255
	
	if(eeprom_read(FIRST_START_ADDR) != 'y')
	{
		eeprom_write(FIRST_START_ADDR, 'y');
		
		for(i=0; i<12; i++)
    19ca:	28 31       	cpi	r18, 0x18	; 24
    19cc:	31 05       	cpc	r19, r1
    19ce:	09 f0       	breq	.+2      	; 0x19d2 <read_eeprom_data+0x1d2>
    19d0:	6a cf       	rjmp	.-300    	; 0x18a6 <read_eeprom_data+0xa6>
    19d2:	0f 2e       	mov	r0, r31
    19d4:	f6 e7       	ldi	r31, 0x76	; 118
    19d6:	8f 2e       	mov	r8, r31
    19d8:	f1 e0       	ldi	r31, 0x01	; 1
    19da:	9f 2e       	mov	r9, r31
    19dc:	f0 2d       	mov	r31, r0
    19de:	0f 2e       	mov	r0, r31
    19e0:	f6 e6       	ldi	r31, 0x66	; 102
    19e2:	cf 2e       	mov	r12, r31
    19e4:	f1 e0       	ldi	r31, 0x01	; 1
    19e6:	df 2e       	mov	r13, r31
    19e8:	f0 2d       	mov	r31, r0
    19ea:	0f 2e       	mov	r0, r31
    19ec:	f6 e5       	ldi	r31, 0x56	; 86
    19ee:	ef 2e       	mov	r14, r31
    19f0:	f1 e0       	ldi	r31, 0x01	; 1
    19f2:	ff 2e       	mov	r15, r31
    19f4:	f0 2d       	mov	r31, r0
    19f6:	06 e4       	ldi	r16, 0x46	; 70
    19f8:	11 e0       	ldi	r17, 0x01	; 1
    19fa:	54 01       	movw	r10, r8
    19fc:	1a 82       	std	Y+2, r1	; 0x02
    19fe:	19 82       	std	Y+1, r1	; 0x01
			eeprom_write(SET_NAME_EEADDR+(i*4)+3, set_name[i]>>24);
		}
		
		for(i=0; i<8; i++)
		{
			eeprom_write(TIME_CTRL_T1_EEADDR+(i*2), t1[i]);
    1a00:	f4 01       	movw	r30, r8
    1a02:	60 81       	ld	r22, Z
    1a04:	f2 e0       	ldi	r31, 0x02	; 2
    1a06:	8f 0e       	add	r8, r31
    1a08:	91 1c       	adc	r9, r1
    1a0a:	89 81       	ldd	r24, Y+1	; 0x01
    1a0c:	9a 81       	ldd	r25, Y+2	; 0x02
    1a0e:	82 55       	subi	r24, 0x52	; 82
    1a10:	9f 4f       	sbci	r25, 0xFF	; 255
    1a12:	0e 94 eb 0b 	call	0x17d6	; 0x17d6 <eeprom_write>
			eeprom_write(TIME_CTRL_T1_EEADDR+(i*2)+1, t1[i]>>8);
    1a16:	f5 01       	movw	r30, r10
    1a18:	61 81       	ldd	r22, Z+1	; 0x01
    1a1a:	f2 e0       	ldi	r31, 0x02	; 2
    1a1c:	af 0e       	add	r10, r31
    1a1e:	b1 1c       	adc	r11, r1
    1a20:	89 81       	ldd	r24, Y+1	; 0x01
    1a22:	9a 81       	ldd	r25, Y+2	; 0x02
    1a24:	81 55       	subi	r24, 0x51	; 81
    1a26:	9f 4f       	sbci	r25, 0xFF	; 255
    1a28:	0e 94 eb 0b 	call	0x17d6	; 0x17d6 <eeprom_write>
			
			eeprom_write(TIME_CTRL_T2_EEADDR+(i*2), t2[i]);
    1a2c:	f6 01       	movw	r30, r12
    1a2e:	60 81       	ld	r22, Z
    1a30:	89 81       	ldd	r24, Y+1	; 0x01
    1a32:	9a 81       	ldd	r25, Y+2	; 0x02
    1a34:	82 54       	subi	r24, 0x42	; 66
    1a36:	9f 4f       	sbci	r25, 0xFF	; 255
    1a38:	0e 94 eb 0b 	call	0x17d6	; 0x17d6 <eeprom_write>
			eeprom_write(TIME_CTRL_T2_EEADDR+(i*2)+1, t2[i]>>8);
    1a3c:	f6 01       	movw	r30, r12
    1a3e:	61 81       	ldd	r22, Z+1	; 0x01
    1a40:	89 81       	ldd	r24, Y+1	; 0x01
    1a42:	9a 81       	ldd	r25, Y+2	; 0x02
    1a44:	81 54       	subi	r24, 0x41	; 65
    1a46:	9f 4f       	sbci	r25, 0xFF	; 255
    1a48:	0e 94 eb 0b 	call	0x17d6	; 0x17d6 <eeprom_write>
			
			eeprom_write(TIME_CTRL_T3_EEADDR+(i*2), t3[i]);
    1a4c:	f7 01       	movw	r30, r14
    1a4e:	60 81       	ld	r22, Z
    1a50:	89 81       	ldd	r24, Y+1	; 0x01
    1a52:	9a 81       	ldd	r25, Y+2	; 0x02
    1a54:	82 53       	subi	r24, 0x32	; 50
    1a56:	9f 4f       	sbci	r25, 0xFF	; 255
    1a58:	0e 94 eb 0b 	call	0x17d6	; 0x17d6 <eeprom_write>
			eeprom_write(TIME_CTRL_T3_EEADDR+(i*2)+1, t3[i]>>8);
    1a5c:	f7 01       	movw	r30, r14
    1a5e:	61 81       	ldd	r22, Z+1	; 0x01
    1a60:	89 81       	ldd	r24, Y+1	; 0x01
    1a62:	9a 81       	ldd	r25, Y+2	; 0x02
    1a64:	81 53       	subi	r24, 0x31	; 49
    1a66:	9f 4f       	sbci	r25, 0xFF	; 255
    1a68:	0e 94 eb 0b 	call	0x17d6	; 0x17d6 <eeprom_write>
			
			eeprom_write(TIME_CTRL_T4_EEADDR+(i*2), t4[i]);
    1a6c:	f8 01       	movw	r30, r16
    1a6e:	60 81       	ld	r22, Z
    1a70:	89 81       	ldd	r24, Y+1	; 0x01
    1a72:	9a 81       	ldd	r25, Y+2	; 0x02
    1a74:	82 52       	subi	r24, 0x22	; 34
    1a76:	9f 4f       	sbci	r25, 0xFF	; 255
    1a78:	0e 94 eb 0b 	call	0x17d6	; 0x17d6 <eeprom_write>
			eeprom_write(TIME_CTRL_T4_EEADDR+(i*2)+1, t4[i]>>8);
    1a7c:	f8 01       	movw	r30, r16
    1a7e:	61 81       	ldd	r22, Z+1	; 0x01
    1a80:	89 81       	ldd	r24, Y+1	; 0x01
    1a82:	9a 81       	ldd	r25, Y+2	; 0x02
    1a84:	81 52       	subi	r24, 0x21	; 33
    1a86:	9f 4f       	sbci	r25, 0xFF	; 255
    1a88:	0e 94 eb 0b 	call	0x17d6	; 0x17d6 <eeprom_write>
    1a8c:	29 81       	ldd	r18, Y+1	; 0x01
    1a8e:	3a 81       	ldd	r19, Y+2	; 0x02
    1a90:	2e 5f       	subi	r18, 0xFE	; 254
    1a92:	3f 4f       	sbci	r19, 0xFF	; 255
    1a94:	3a 83       	std	Y+2, r19	; 0x02
    1a96:	29 83       	std	Y+1, r18	; 0x01
    1a98:	32 e0       	ldi	r19, 0x02	; 2
    1a9a:	c3 0e       	add	r12, r19
    1a9c:	d1 1c       	adc	r13, r1
    1a9e:	82 e0       	ldi	r24, 0x02	; 2
    1aa0:	e8 0e       	add	r14, r24
    1aa2:	f1 1c       	adc	r15, r1
    1aa4:	0e 5f       	subi	r16, 0xFE	; 254
    1aa6:	1f 4f       	sbci	r17, 0xFF	; 255
			eeprom_write(SET_NAME_EEADDR+(i*4)+1, set_name[i]>>8);
			eeprom_write(SET_NAME_EEADDR+(i*4)+2, set_name[i]>>16);
			eeprom_write(SET_NAME_EEADDR+(i*4)+3, set_name[i]>>24);
		}
		
		for(i=0; i<8; i++)
    1aa8:	e9 81       	ldd	r30, Y+1	; 0x01
    1aaa:	fa 81       	ldd	r31, Y+2	; 0x02
    1aac:	70 97       	sbiw	r30, 0x10	; 16
    1aae:	09 f0       	breq	.+2      	; 0x1ab2 <read_eeprom_data+0x2b2>
    1ab0:	a7 cf       	rjmp	.-178    	; 0x1a00 <read_eeprom_data+0x200>
			
			eeprom_write(TIME_CTRL_T4_EEADDR+(i*2), t4[i]);
			eeprom_write(TIME_CTRL_T4_EEADDR+(i*2)+1, t4[i]>>8);
		}
		
		eeprom_write(PRE_LANGUAGE_EEADDR, 0);
    1ab2:	60 e0       	ldi	r22, 0x00	; 0
    1ab4:	80 e0       	ldi	r24, 0x00	; 0
    1ab6:	90 e0       	ldi	r25, 0x00	; 0
    1ab8:	0e 94 eb 0b 	call	0x17d6	; 0x17d6 <eeprom_write>
		eeprom_write(ALL_SENSORTYPE_EEADDR, 0);
    1abc:	60 e0       	ldi	r22, 0x00	; 0
    1abe:	81 e0       	ldi	r24, 0x01	; 1
    1ac0:	90 e0       	ldi	r25, 0x00	; 0
    1ac2:	0e 94 eb 0b 	call	0x17d6	; 0x17d6 <eeprom_write>
		eeprom_write(TEMP_UNIT_EEADDR, 0);
    1ac6:	60 e0       	ldi	r22, 0x00	; 0
    1ac8:	82 e0       	ldi	r24, 0x02	; 2
    1aca:	90 e0       	ldi	r25, 0x00	; 0
    1acc:	0e 94 eb 0b 	call	0x17d6	; 0x17d6 <eeprom_write>
		
		eeprom_write(ALL_SETTEMP_EEADDR, 100);
    1ad0:	64 e6       	ldi	r22, 0x64	; 100
    1ad2:	83 e0       	ldi	r24, 0x03	; 3
    1ad4:	90 e0       	ldi	r25, 0x00	; 0
    1ad6:	0e 94 eb 0b 	call	0x17d6	; 0x17d6 <eeprom_write>
		eeprom_write(ALL_SETTEMP_EEADDR+1, 0);
    1ada:	60 e0       	ldi	r22, 0x00	; 0
    1adc:	84 e0       	ldi	r24, 0x04	; 4
    1ade:	90 e0       	ldi	r25, 0x00	; 0
    1ae0:	0e 94 eb 0b 	call	0x17d6	; 0x17d6 <eeprom_write>
		
		eeprom_write(PREHEAT_TIME_EEADDR, 3);
    1ae4:	63 e0       	ldi	r22, 0x03	; 3
    1ae6:	8e ef       	ldi	r24, 0xFE	; 254
    1ae8:	90 e0       	ldi	r25, 0x00	; 0
    1aea:	0e 94 eb 0b 	call	0x17d6	; 0x17d6 <eeprom_write>
    1aee:	c9 c1       	rjmp	.+914    	; 0x1e82 <read_eeprom_data+0x682>
    1af0:	0f 2e       	mov	r0, r31
    1af2:	fe ef       	ldi	r31, 0xFE	; 254
    1af4:	af 2e       	mov	r10, r31
    1af6:	f1 e0       	ldi	r31, 0x01	; 1
    1af8:	bf 2e       	mov	r11, r31
    1afa:	f0 2d       	mov	r31, r0
    1afc:	27 e2       	ldi	r18, 0x27	; 39
    1afe:	32 e0       	ldi	r19, 0x02	; 2
    1b00:	3e 83       	std	Y+6, r19	; 0x06
    1b02:	2d 83       	std	Y+5, r18	; 0x05
    1b04:	82 e7       	ldi	r24, 0x72	; 114
    1b06:	92 e0       	ldi	r25, 0x02	; 2
    1b08:	9c 83       	std	Y+4, r25	; 0x04
    1b0a:	8b 83       	std	Y+3, r24	; 0x03
    1b0c:	e4 e1       	ldi	r30, 0x14	; 20
    1b0e:	f3 e0       	ldi	r31, 0x03	; 3
    1b10:	f8 87       	std	Y+8, r31	; 0x08
    1b12:	ef 83       	std	Y+7, r30	; 0x07
    1b14:	26 eb       	ldi	r18, 0xB6	; 182
    1b16:	31 e0       	ldi	r19, 0x01	; 1
    1b18:	3a 83       	std	Y+2, r19	; 0x02
    1b1a:	29 83       	std	Y+1, r18	; 0x01
    1b1c:	0f 2e       	mov	r0, r31
    1b1e:	fe e9       	ldi	r31, 0x9E	; 158
    1b20:	8f 2e       	mov	r8, r31
    1b22:	f1 e0       	ldi	r31, 0x01	; 1
    1b24:	9f 2e       	mov	r9, r31
    1b26:	f0 2d       	mov	r31, r0
    1b28:	0f 2e       	mov	r0, r31
    1b2a:	f6 e8       	ldi	r31, 0x86	; 134
    1b2c:	2f 2e       	mov	r2, r31
    1b2e:	f1 e0       	ldi	r31, 0x01	; 1
    1b30:	3f 2e       	mov	r3, r31
    1b32:	f0 2d       	mov	r31, r0
    1b34:	0f 2e       	mov	r0, r31
    1b36:	fe ec       	ldi	r31, 0xCE	; 206
    1b38:	ef 2e       	mov	r14, r31
    1b3a:	f1 e0       	ldi	r31, 0x01	; 1
    1b3c:	ff 2e       	mov	r15, r31
    1b3e:	f0 2d       	mov	r31, r0

void read_eeprom_data(void)
{
	uint8_t i = 0;
	
	if(eeprom_read(FIRST_START_ADDR) != 'y')
    1b40:	00 e0       	ldi	r16, 0x00	; 0
    1b42:	10 e0       	ldi	r17, 0x00	; 0
    1b44:	0f 2e       	mov	r0, r31
    1b46:	fd e1       	ldi	r31, 0x1D	; 29
    1b48:	cf 2e       	mov	r12, r31
    1b4a:	d1 2c       	mov	r13, r1
    1b4c:	f0 2d       	mov	r31, r0
    1b4e:	1a 86       	std	Y+10, r1	; 0x0a
    1b50:	19 86       	std	Y+9, r1	; 0x09
	}
	else
	{
		for(i=0; i<12; i++)
		{
			set_temp[i] = eeprom_read(SINGLE_SETTEMP_EEADDR+(i*2)+1);
    1b52:	89 85       	ldd	r24, Y+9	; 0x09
    1b54:	9a 85       	ldd	r25, Y+10	; 0x0a
    1b56:	06 96       	adiw	r24, 0x06	; 6
    1b58:	0e 94 f9 0b 	call	0x17f2	; 0x17f2 <eeprom_read>
    1b5c:	68 2e       	mov	r6, r24
    1b5e:	71 2c       	mov	r7, r1
    1b60:	f5 01       	movw	r30, r10
    1b62:	71 82       	std	Z+1, r7	; 0x01
    1b64:	60 82       	st	Z, r6
			set_temp[i] = (set_temp[i]<<8) | 
						   eeprom_read(SINGLE_SETTEMP_EEADDR+(i*2));
    1b66:	89 85       	ldd	r24, Y+9	; 0x09
    1b68:	9a 85       	ldd	r25, Y+10	; 0x0a
    1b6a:	05 96       	adiw	r24, 0x05	; 5
    1b6c:	0e 94 f9 0b 	call	0x17f2	; 0x17f2 <eeprom_read>
	else
	{
		for(i=0; i<12; i++)
		{
			set_temp[i] = eeprom_read(SINGLE_SETTEMP_EEADDR+(i*2)+1);
			set_temp[i] = (set_temp[i]<<8) | 
    1b70:	76 2d       	mov	r23, r6
    1b72:	66 27       	eor	r22, r22
    1b74:	68 2b       	or	r22, r24
    1b76:	f5 01       	movw	r30, r10
    1b78:	61 93       	st	Z+, r22
    1b7a:	71 93       	st	Z+, r23
    1b7c:	5f 01       	movw	r10, r30
						   eeprom_read(SINGLE_SETTEMP_EEADDR+(i*2));
			set_temp_buff[i] = set_temp[i];
    1b7e:	ed 81       	ldd	r30, Y+5	; 0x05
    1b80:	fe 81       	ldd	r31, Y+6	; 0x06
    1b82:	61 93       	st	Z+, r22
    1b84:	71 93       	st	Z+, r23
    1b86:	fe 83       	std	Y+6, r31	; 0x06
    1b88:	ed 83       	std	Y+5, r30	; 0x05
			single_set(TEMP, set_temp[i]);
    1b8a:	83 e0       	ldi	r24, 0x03	; 3
    1b8c:	0e 94 e5 02 	call	0x5ca	; 0x5ca <single_set>
			
			sensor_type[i] = eeprom_read(SINGLE_SENSORTYPE_EEADDR+i);
    1b90:	c6 01       	movw	r24, r12
    1b92:	0e 94 f9 0b 	call	0x17f2	; 0x17f2 <eeprom_read>
    1b96:	68 2f       	mov	r22, r24
    1b98:	70 e0       	ldi	r23, 0x00	; 0
    1b9a:	eb 81       	ldd	r30, Y+3	; 0x03
    1b9c:	fc 81       	ldd	r31, Y+4	; 0x04
    1b9e:	61 93       	st	Z+, r22
    1ba0:	71 93       	st	Z+, r23
    1ba2:	fc 83       	std	Y+4, r31	; 0x04
    1ba4:	eb 83       	std	Y+3, r30	; 0x03
			sensor_type_buff[i] = sensor_type[i];
    1ba6:	ef 81       	ldd	r30, Y+7	; 0x07
    1ba8:	f8 85       	ldd	r31, Y+8	; 0x08
    1baa:	61 93       	st	Z+, r22
    1bac:	71 93       	st	Z+, r23
    1bae:	f8 87       	std	Y+8, r31	; 0x08
    1bb0:	ef 83       	std	Y+7, r30	; 0x07
			single_set(SENSOR_TYPE, sensor_type[i]);
    1bb2:	85 e0       	ldi	r24, 0x05	; 5
    1bb4:	0e 94 e5 02 	call	0x5ca	; 0x5ca <single_set>
			
//			switch_sensor[i] = eeprom_read(SINGLE_SWSENSOR_EEADDR+i);
//			switch_sensor_buff[i] = switch_sensor[i];
//			single_set(SWITCH_SENSOR, switch_sensor[i]);
			
			p_value[i] = eeprom_read(PID_P_EEADDR+(i*2)+1);
    1bb8:	89 85       	ldd	r24, Y+9	; 0x09
    1bba:	9a 85       	ldd	r25, Y+10	; 0x0a
    1bbc:	8b 96       	adiw	r24, 0x2b	; 43
    1bbe:	0e 94 f9 0b 	call	0x17f2	; 0x17f2 <eeprom_read>
    1bc2:	68 2e       	mov	r6, r24
    1bc4:	71 2c       	mov	r7, r1
    1bc6:	e9 81       	ldd	r30, Y+1	; 0x01
    1bc8:	fa 81       	ldd	r31, Y+2	; 0x02
    1bca:	71 82       	std	Z+1, r7	; 0x01
    1bcc:	60 82       	st	Z, r6
			p_value[i] = (p_value[i]<<8) | eeprom_read(PID_P_EEADDR+(i*2));
    1bce:	89 85       	ldd	r24, Y+9	; 0x09
    1bd0:	9a 85       	ldd	r25, Y+10	; 0x0a
    1bd2:	8a 96       	adiw	r24, 0x2a	; 42
    1bd4:	0e 94 f9 0b 	call	0x17f2	; 0x17f2 <eeprom_read>
    1bd8:	76 2c       	mov	r7, r6
    1bda:	66 24       	eor	r6, r6
    1bdc:	68 2a       	or	r6, r24
    1bde:	e9 81       	ldd	r30, Y+1	; 0x01
    1be0:	fa 81       	ldd	r31, Y+2	; 0x02
    1be2:	61 92       	st	Z+, r6
    1be4:	71 92       	st	Z+, r7
    1be6:	fa 83       	std	Y+2, r31	; 0x02
    1be8:	e9 83       	std	Y+1, r30	; 0x01
			
			i_value[i] = eeprom_read(PID_I_EEADDR+(i*2)+1);
    1bea:	89 85       	ldd	r24, Y+9	; 0x09
    1bec:	9a 85       	ldd	r25, Y+10	; 0x0a
    1bee:	8d 5b       	subi	r24, 0xBD	; 189
    1bf0:	9f 4f       	sbci	r25, 0xFF	; 255
    1bf2:	0e 94 f9 0b 	call	0x17f2	; 0x17f2 <eeprom_read>
    1bf6:	68 2e       	mov	r6, r24
    1bf8:	71 2c       	mov	r7, r1
    1bfa:	f4 01       	movw	r30, r8
    1bfc:	71 82       	std	Z+1, r7	; 0x01
    1bfe:	60 82       	st	Z, r6
			i_value[i] = (i_value[i]<<8) | eeprom_read(PID_I_EEADDR+(i*2));
    1c00:	89 85       	ldd	r24, Y+9	; 0x09
    1c02:	9a 85       	ldd	r25, Y+10	; 0x0a
    1c04:	8e 5b       	subi	r24, 0xBE	; 190
    1c06:	9f 4f       	sbci	r25, 0xFF	; 255
    1c08:	0e 94 f9 0b 	call	0x17f2	; 0x17f2 <eeprom_read>
    1c0c:	76 2c       	mov	r7, r6
    1c0e:	66 24       	eor	r6, r6
    1c10:	68 2a       	or	r6, r24
    1c12:	f4 01       	movw	r30, r8
    1c14:	61 92       	st	Z+, r6
    1c16:	71 92       	st	Z+, r7
    1c18:	4f 01       	movw	r8, r30
			
			d_value[i] = eeprom_read(PID_D_EEADDR+(i*2)+1);
    1c1a:	89 85       	ldd	r24, Y+9	; 0x09
    1c1c:	9a 85       	ldd	r25, Y+10	; 0x0a
    1c1e:	85 5a       	subi	r24, 0xA5	; 165
    1c20:	9f 4f       	sbci	r25, 0xFF	; 255
    1c22:	0e 94 f9 0b 	call	0x17f2	; 0x17f2 <eeprom_read>
    1c26:	68 2e       	mov	r6, r24
    1c28:	71 2c       	mov	r7, r1
    1c2a:	f1 01       	movw	r30, r2
    1c2c:	71 82       	std	Z+1, r7	; 0x01
    1c2e:	60 82       	st	Z, r6
			d_value[i] = (d_value[i]<<8) | eeprom_read(PID_D_EEADDR+(i*2));
    1c30:	89 85       	ldd	r24, Y+9	; 0x09
    1c32:	9a 85       	ldd	r25, Y+10	; 0x0a
    1c34:	86 5a       	subi	r24, 0xA6	; 166
    1c36:	9f 4f       	sbci	r25, 0xFF	; 255
    1c38:	0e 94 f9 0b 	call	0x17f2	; 0x17f2 <eeprom_read>
    1c3c:	76 2c       	mov	r7, r6
    1c3e:	66 24       	eor	r6, r6
    1c40:	68 2a       	or	r6, r24
    1c42:	f1 01       	movw	r30, r2
    1c44:	61 92       	st	Z+, r6
    1c46:	71 92       	st	Z+, r7
    1c48:	1f 01       	movw	r2, r30
			
			set_name[i] = eeprom_read(SET_NAME_EEADDR+(i*4)+3);
    1c4a:	c8 01       	movw	r24, r16
    1c4c:	8f 57       	subi	r24, 0x7F	; 127
    1c4e:	9f 4f       	sbci	r25, 0xFF	; 255
    1c50:	0e 94 f9 0b 	call	0x17f2	; 0x17f2 <eeprom_read>
    1c54:	48 2e       	mov	r4, r24
    1c56:	51 2c       	mov	r5, r1
    1c58:	61 2c       	mov	r6, r1
    1c5a:	71 2c       	mov	r7, r1
    1c5c:	f7 01       	movw	r30, r14
    1c5e:	40 82       	st	Z, r4
    1c60:	51 82       	std	Z+1, r5	; 0x01
    1c62:	62 82       	std	Z+2, r6	; 0x02
    1c64:	73 82       	std	Z+3, r7	; 0x03
			set_name[i] = (set_name[i]<<8) | eeprom_read(SET_NAME_EEADDR+(i*4)+2);
    1c66:	c8 01       	movw	r24, r16
    1c68:	80 58       	subi	r24, 0x80	; 128
    1c6a:	9f 4f       	sbci	r25, 0xFF	; 255
    1c6c:	0e 94 f9 0b 	call	0x17f2	; 0x17f2 <eeprom_read>
    1c70:	76 2c       	mov	r7, r6
    1c72:	65 2c       	mov	r6, r5
    1c74:	54 2c       	mov	r5, r4
    1c76:	44 24       	eor	r4, r4
    1c78:	48 2a       	or	r4, r24
    1c7a:	f7 01       	movw	r30, r14
    1c7c:	40 82       	st	Z, r4
    1c7e:	51 82       	std	Z+1, r5	; 0x01
    1c80:	62 82       	std	Z+2, r6	; 0x02
    1c82:	73 82       	std	Z+3, r7	; 0x03
			set_name[i] = (set_name[i]<<8) | eeprom_read(SET_NAME_EEADDR+(i*4)+1);
    1c84:	c8 01       	movw	r24, r16
    1c86:	81 58       	subi	r24, 0x81	; 129
    1c88:	9f 4f       	sbci	r25, 0xFF	; 255
    1c8a:	0e 94 f9 0b 	call	0x17f2	; 0x17f2 <eeprom_read>
    1c8e:	76 2c       	mov	r7, r6
    1c90:	65 2c       	mov	r6, r5
    1c92:	54 2c       	mov	r5, r4
    1c94:	44 24       	eor	r4, r4
    1c96:	48 2a       	or	r4, r24
    1c98:	f7 01       	movw	r30, r14
    1c9a:	40 82       	st	Z, r4
    1c9c:	51 82       	std	Z+1, r5	; 0x01
    1c9e:	62 82       	std	Z+2, r6	; 0x02
    1ca0:	73 82       	std	Z+3, r7	; 0x03
			set_name[i] = (set_name[i]<<8) | eeprom_read(SET_NAME_EEADDR+(i*4));
    1ca2:	c8 01       	movw	r24, r16
    1ca4:	82 58       	subi	r24, 0x82	; 130
    1ca6:	9f 4f       	sbci	r25, 0xFF	; 255
    1ca8:	0e 94 f9 0b 	call	0x17f2	; 0x17f2 <eeprom_read>
    1cac:	76 2c       	mov	r7, r6
    1cae:	65 2c       	mov	r6, r5
    1cb0:	54 2c       	mov	r5, r4
    1cb2:	44 24       	eor	r4, r4
    1cb4:	48 2a       	or	r4, r24
    1cb6:	f7 01       	movw	r30, r14
    1cb8:	41 92       	st	Z+, r4
    1cba:	51 92       	st	Z+, r5
    1cbc:	61 92       	st	Z+, r6
    1cbe:	71 92       	st	Z+, r7
    1cc0:	7f 01       	movw	r14, r30
    1cc2:	29 85       	ldd	r18, Y+9	; 0x09
    1cc4:	3a 85       	ldd	r19, Y+10	; 0x0a
    1cc6:	2e 5f       	subi	r18, 0xFE	; 254
    1cc8:	3f 4f       	sbci	r19, 0xFF	; 255
    1cca:	3a 87       	std	Y+10, r19	; 0x0a
    1ccc:	29 87       	std	Y+9, r18	; 0x09
    1cce:	3f ef       	ldi	r19, 0xFF	; 255
    1cd0:	c3 1a       	sub	r12, r19
    1cd2:	d3 0a       	sbc	r13, r19
    1cd4:	0c 5f       	subi	r16, 0xFC	; 252
    1cd6:	1f 4f       	sbci	r17, 0xFF	; 255
		
		eeprom_write(PREHEAT_TIME_EEADDR, 3);
	}
	else
	{
		for(i=0; i<12; i++)
    1cd8:	89 85       	ldd	r24, Y+9	; 0x09
    1cda:	9a 85       	ldd	r25, Y+10	; 0x0a
    1cdc:	48 97       	sbiw	r24, 0x18	; 24
    1cde:	09 f0       	breq	.+2      	; 0x1ce2 <read_eeprom_data+0x4e2>
    1ce0:	38 cf       	rjmp	.-400    	; 0x1b52 <read_eeprom_data+0x352>
    1ce2:	0f 2e       	mov	r0, r31
    1ce4:	f6 e7       	ldi	r31, 0x76	; 118
    1ce6:	af 2e       	mov	r10, r31
    1ce8:	f1 e0       	ldi	r31, 0x01	; 1
    1cea:	bf 2e       	mov	r11, r31
    1cec:	f0 2d       	mov	r31, r0
    1cee:	0f 2e       	mov	r0, r31
    1cf0:	f6 e6       	ldi	r31, 0x66	; 102
    1cf2:	cf 2e       	mov	r12, r31
    1cf4:	f1 e0       	ldi	r31, 0x01	; 1
    1cf6:	df 2e       	mov	r13, r31
    1cf8:	f0 2d       	mov	r31, r0
    1cfa:	0f 2e       	mov	r0, r31
    1cfc:	f6 e5       	ldi	r31, 0x56	; 86
    1cfe:	ef 2e       	mov	r14, r31
    1d00:	f1 e0       	ldi	r31, 0x01	; 1
    1d02:	ff 2e       	mov	r15, r31
    1d04:	f0 2d       	mov	r31, r0
    1d06:	06 e4       	ldi	r16, 0x46	; 70
    1d08:	11 e0       	ldi	r17, 0x01	; 1
    1d0a:	45 01       	movw	r8, r10
    1d0c:	1a 82       	std	Y+2, r1	; 0x02
    1d0e:	19 82       	std	Y+1, r1	; 0x01
			set_name[i] = (set_name[i]<<8) | eeprom_read(SET_NAME_EEADDR+(i*4));
		}
		
		for(i=0; i<8; i++)
		{
			t1[i] = eeprom_read(TIME_CTRL_T1_EEADDR+(i*2)+1);
    1d10:	89 81       	ldd	r24, Y+1	; 0x01
    1d12:	9a 81       	ldd	r25, Y+2	; 0x02
    1d14:	81 55       	subi	r24, 0x51	; 81
    1d16:	9f 4f       	sbci	r25, 0xFF	; 255
    1d18:	0e 94 f9 0b 	call	0x17f2	; 0x17f2 <eeprom_read>
    1d1c:	68 2e       	mov	r6, r24
    1d1e:	71 2c       	mov	r7, r1
    1d20:	f5 01       	movw	r30, r10
    1d22:	61 92       	st	Z+, r6
    1d24:	71 92       	st	Z+, r7
    1d26:	5f 01       	movw	r10, r30
			t1[i] = (t1[i]<<8) | eeprom_read(TIME_CTRL_T1_EEADDR+(i*2));
    1d28:	89 81       	ldd	r24, Y+1	; 0x01
    1d2a:	9a 81       	ldd	r25, Y+2	; 0x02
    1d2c:	82 55       	subi	r24, 0x52	; 82
    1d2e:	9f 4f       	sbci	r25, 0xFF	; 255
    1d30:	0e 94 f9 0b 	call	0x17f2	; 0x17f2 <eeprom_read>
    1d34:	76 2c       	mov	r7, r6
    1d36:	66 24       	eor	r6, r6
    1d38:	68 2a       	or	r6, r24
    1d3a:	f4 01       	movw	r30, r8
    1d3c:	61 92       	st	Z+, r6
    1d3e:	71 92       	st	Z+, r7
    1d40:	4f 01       	movw	r8, r30
			
			t2[i] = eeprom_read(TIME_CTRL_T2_EEADDR+(i*2)+1);
    1d42:	89 81       	ldd	r24, Y+1	; 0x01
    1d44:	9a 81       	ldd	r25, Y+2	; 0x02
    1d46:	81 54       	subi	r24, 0x41	; 65
    1d48:	9f 4f       	sbci	r25, 0xFF	; 255
    1d4a:	0e 94 f9 0b 	call	0x17f2	; 0x17f2 <eeprom_read>
    1d4e:	68 2e       	mov	r6, r24
    1d50:	71 2c       	mov	r7, r1
    1d52:	f6 01       	movw	r30, r12
    1d54:	71 82       	std	Z+1, r7	; 0x01
    1d56:	60 82       	st	Z, r6
			t2[i] = (t2[i]<<8) | eeprom_read(TIME_CTRL_T2_EEADDR+(i*2));
    1d58:	89 81       	ldd	r24, Y+1	; 0x01
    1d5a:	9a 81       	ldd	r25, Y+2	; 0x02
    1d5c:	82 54       	subi	r24, 0x42	; 66
    1d5e:	9f 4f       	sbci	r25, 0xFF	; 255
    1d60:	0e 94 f9 0b 	call	0x17f2	; 0x17f2 <eeprom_read>
    1d64:	76 2c       	mov	r7, r6
    1d66:	66 24       	eor	r6, r6
    1d68:	68 2a       	or	r6, r24
    1d6a:	f6 01       	movw	r30, r12
    1d6c:	61 92       	st	Z+, r6
    1d6e:	71 92       	st	Z+, r7
    1d70:	6f 01       	movw	r12, r30
			
			t3[i] = eeprom_read(TIME_CTRL_T3_EEADDR+(i*2)+1);
    1d72:	89 81       	ldd	r24, Y+1	; 0x01
    1d74:	9a 81       	ldd	r25, Y+2	; 0x02
    1d76:	81 53       	subi	r24, 0x31	; 49
    1d78:	9f 4f       	sbci	r25, 0xFF	; 255
    1d7a:	0e 94 f9 0b 	call	0x17f2	; 0x17f2 <eeprom_read>
    1d7e:	68 2e       	mov	r6, r24
    1d80:	71 2c       	mov	r7, r1
    1d82:	f7 01       	movw	r30, r14
    1d84:	71 82       	std	Z+1, r7	; 0x01
    1d86:	60 82       	st	Z, r6
			t3[i] = (t3[i]<<8) | eeprom_read(TIME_CTRL_T3_EEADDR+(i*2));
    1d88:	89 81       	ldd	r24, Y+1	; 0x01
    1d8a:	9a 81       	ldd	r25, Y+2	; 0x02
    1d8c:	82 53       	subi	r24, 0x32	; 50
    1d8e:	9f 4f       	sbci	r25, 0xFF	; 255
    1d90:	0e 94 f9 0b 	call	0x17f2	; 0x17f2 <eeprom_read>
    1d94:	76 2c       	mov	r7, r6
    1d96:	66 24       	eor	r6, r6
    1d98:	68 2a       	or	r6, r24
    1d9a:	f7 01       	movw	r30, r14
    1d9c:	61 92       	st	Z+, r6
    1d9e:	71 92       	st	Z+, r7
    1da0:	7f 01       	movw	r14, r30
			
			t4[i] = eeprom_read(TIME_CTRL_T4_EEADDR+(i*2)+1);
    1da2:	89 81       	ldd	r24, Y+1	; 0x01
    1da4:	9a 81       	ldd	r25, Y+2	; 0x02
    1da6:	81 52       	subi	r24, 0x21	; 33
    1da8:	9f 4f       	sbci	r25, 0xFF	; 255
    1daa:	0e 94 f9 0b 	call	0x17f2	; 0x17f2 <eeprom_read>
    1dae:	68 2e       	mov	r6, r24
    1db0:	71 2c       	mov	r7, r1
    1db2:	f8 01       	movw	r30, r16
    1db4:	71 82       	std	Z+1, r7	; 0x01
    1db6:	60 82       	st	Z, r6
			t4[i] = (t4[i]<<8) | eeprom_read(TIME_CTRL_T4_EEADDR+(i*2));
    1db8:	89 81       	ldd	r24, Y+1	; 0x01
    1dba:	9a 81       	ldd	r25, Y+2	; 0x02
    1dbc:	82 52       	subi	r24, 0x22	; 34
    1dbe:	9f 4f       	sbci	r25, 0xFF	; 255
    1dc0:	0e 94 f9 0b 	call	0x17f2	; 0x17f2 <eeprom_read>
    1dc4:	76 2c       	mov	r7, r6
    1dc6:	66 24       	eor	r6, r6
    1dc8:	68 2a       	or	r6, r24
    1dca:	f8 01       	movw	r30, r16
    1dcc:	61 92       	st	Z+, r6
    1dce:	71 92       	st	Z+, r7
    1dd0:	8f 01       	movw	r16, r30
    1dd2:	29 81       	ldd	r18, Y+1	; 0x01
    1dd4:	3a 81       	ldd	r19, Y+2	; 0x02
    1dd6:	2e 5f       	subi	r18, 0xFE	; 254
    1dd8:	3f 4f       	sbci	r19, 0xFF	; 255
    1dda:	3a 83       	std	Y+2, r19	; 0x02
    1ddc:	29 83       	std	Y+1, r18	; 0x01
			set_name[i] = (set_name[i]<<8) | eeprom_read(SET_NAME_EEADDR+(i*4)+2);
			set_name[i] = (set_name[i]<<8) | eeprom_read(SET_NAME_EEADDR+(i*4)+1);
			set_name[i] = (set_name[i]<<8) | eeprom_read(SET_NAME_EEADDR+(i*4));
		}
		
		for(i=0; i<8; i++)
    1dde:	20 31       	cpi	r18, 0x10	; 16
    1de0:	31 05       	cpc	r19, r1
    1de2:	09 f0       	breq	.+2      	; 0x1de6 <read_eeprom_data+0x5e6>
    1de4:	95 cf       	rjmp	.-214    	; 0x1d10 <read_eeprom_data+0x510>
			
			t4[i] = eeprom_read(TIME_CTRL_T4_EEADDR+(i*2)+1);
			t4[i] = (t4[i]<<8) | eeprom_read(TIME_CTRL_T4_EEADDR+(i*2));
		}
		
		pre_language = eeprom_read(PRE_LANGUAGE_EEADDR);
    1de6:	80 e0       	ldi	r24, 0x00	; 0
    1de8:	90 e0       	ldi	r25, 0x00	; 0
    1dea:	0e 94 f9 0b 	call	0x17f2	; 0x17f2 <eeprom_read>
    1dee:	80 93 e5 02 	sts	0x02E5, r24	; 0x8002e5 <pre_language>
		
		all_sensor_type = eeprom_read(ALL_SENSORTYPE_EEADDR);
    1df2:	81 e0       	ldi	r24, 0x01	; 1
    1df4:	90 e0       	ldi	r25, 0x00	; 0
    1df6:	0e 94 f9 0b 	call	0x17f2	; 0x17f2 <eeprom_read>
    1dfa:	90 e0       	ldi	r25, 0x00	; 0
    1dfc:	90 93 5d 02 	sts	0x025D, r25	; 0x80025d <all_sensor_type+0x1>
    1e00:	80 93 5c 02 	sts	0x025C, r24	; 0x80025c <all_sensor_type>
		all_sensor_type_buff = all_sensor_type;
    1e04:	90 93 47 03 	sts	0x0347, r25	; 0x800347 <all_sensor_type_buff+0x1>
    1e08:	80 93 46 03 	sts	0x0346, r24	; 0x800346 <all_sensor_type_buff>
		
		temp_unit = eeprom_read(TEMP_UNIT_EEADDR);
    1e0c:	82 e0       	ldi	r24, 0x02	; 2
    1e0e:	90 e0       	ldi	r25, 0x00	; 0
    1e10:	0e 94 f9 0b 	call	0x17f2	; 0x17f2 <eeprom_read>
    1e14:	90 e0       	ldi	r25, 0x00	; 0
    1e16:	90 93 5b 02 	sts	0x025B, r25	; 0x80025b <temp_unit+0x1>
    1e1a:	80 93 5a 02 	sts	0x025A, r24	; 0x80025a <temp_unit>
		temp_unit_buff = temp_unit;
    1e1e:	90 93 45 03 	sts	0x0345, r25	; 0x800345 <temp_unit_buff+0x1>
    1e22:	80 93 44 03 	sts	0x0344, r24	; 0x800344 <temp_unit_buff>
		
		all_temp = eeprom_read(ALL_SETTEMP_EEADDR+1);
    1e26:	84 e0       	ldi	r24, 0x04	; 4
    1e28:	90 e0       	ldi	r25, 0x00	; 0
    1e2a:	0e 94 f9 0b 	call	0x17f2	; 0x17f2 <eeprom_read>
    1e2e:	e8 2f       	mov	r30, r24
    1e30:	f0 e0       	ldi	r31, 0x00	; 0
    1e32:	fa 83       	std	Y+2, r31	; 0x02
    1e34:	e9 83       	std	Y+1, r30	; 0x01
    1e36:	f0 93 43 01 	sts	0x0143, r31	; 0x800143 <all_temp+0x1>
    1e3a:	e0 93 42 01 	sts	0x0142, r30	; 0x800142 <all_temp>
		all_temp = (all_temp<<8) | eeprom_read(ALL_SETTEMP_EEADDR);
    1e3e:	83 e0       	ldi	r24, 0x03	; 3
    1e40:	90 e0       	ldi	r25, 0x00	; 0
    1e42:	0e 94 f9 0b 	call	0x17f2	; 0x17f2 <eeprom_read>
    1e46:	29 81       	ldd	r18, Y+1	; 0x01
    1e48:	3a 81       	ldd	r19, Y+2	; 0x02
    1e4a:	32 2f       	mov	r19, r18
    1e4c:	22 27       	eor	r18, r18
    1e4e:	28 2b       	or	r18, r24
    1e50:	30 93 42 02 	sts	0x0242, r19	; 0x800242 <all_temp_buff+0x1>
    1e54:	20 93 41 02 	sts	0x0241, r18	; 0x800241 <all_temp_buff>
    1e58:	30 93 43 01 	sts	0x0143, r19	; 0x800143 <all_temp+0x1>
    1e5c:	20 93 42 01 	sts	0x0142, r18	; 0x800142 <all_temp>
		all_temp_buff = all_temp;
		
		preheat_time = eeprom_read(PREHEAT_TIME_EEADDR);
    1e60:	8e ef       	ldi	r24, 0xFE	; 254
    1e62:	90 e0       	ldi	r25, 0x00	; 0
    1e64:	0e 94 f9 0b 	call	0x17f2	; 0x17f2 <eeprom_read>
    1e68:	68 2f       	mov	r22, r24
    1e6a:	70 e0       	ldi	r23, 0x00	; 0
    1e6c:	70 93 45 01 	sts	0x0145, r23	; 0x800145 <preheat_time+0x1>
    1e70:	60 93 44 01 	sts	0x0144, r22	; 0x800144 <preheat_time>
		preheat_time_buff = preheat_time;
    1e74:	70 93 40 02 	sts	0x0240, r23	; 0x800240 <preheat_time_buff+0x1>
    1e78:	60 93 3f 02 	sts	0x023F, r22	; 0x80023f <preheat_time_buff>
		all_set(PREHEAT_TIME, preheat_time);
    1e7c:	84 e0       	ldi	r24, 0x04	; 4
    1e7e:	0e 94 2f 03 	call	0x65e	; 0x65e <all_set>
	}
	
}
    1e82:	2a 96       	adiw	r28, 0x0a	; 10
    1e84:	0f b6       	in	r0, 0x3f	; 63
    1e86:	f8 94       	cli
    1e88:	de bf       	out	0x3e, r29	; 62
    1e8a:	0f be       	out	0x3f, r0	; 63
    1e8c:	cd bf       	out	0x3d, r28	; 61
    1e8e:	df 91       	pop	r29
    1e90:	cf 91       	pop	r28
    1e92:	1f 91       	pop	r17
    1e94:	0f 91       	pop	r16
    1e96:	ff 90       	pop	r15
    1e98:	ef 90       	pop	r14
    1e9a:	df 90       	pop	r13
    1e9c:	cf 90       	pop	r12
    1e9e:	bf 90       	pop	r11
    1ea0:	af 90       	pop	r10
    1ea2:	9f 90       	pop	r9
    1ea4:	8f 90       	pop	r8
    1ea6:	7f 90       	pop	r7
    1ea8:	6f 90       	pop	r6
    1eaa:	5f 90       	pop	r5
    1eac:	4f 90       	pop	r4
    1eae:	3f 90       	pop	r3
    1eb0:	2f 90       	pop	r2
    1eb2:	08 95       	ret

00001eb4 <gpio_init>:
/*
 *初始化gpio 
 */ 
void gpio_init()
{
	LED1_PIN_OUTPUT;
    1eb4:	d6 9a       	sbi	0x1a, 6	; 26
	LED2_PIN_OUTPUT;
    1eb6:	d5 9a       	sbi	0x1a, 5	; 26
	LED3_PIN_OUTPUT;
    1eb8:	d4 9a       	sbi	0x1a, 4	; 26
	LED4_PIN_OUTPUT;
    1eba:	d3 9a       	sbi	0x1a, 3	; 26
	LED5_PIN_OUTPUT;
    1ebc:	d2 9a       	sbi	0x1a, 2	; 26
	LED6_PIN_OUTPUT;
    1ebe:	d1 9a       	sbi	0x1a, 1	; 26
	LED7_PIN_OUTPUT;
    1ec0:	d0 9a       	sbi	0x1a, 0	; 26
	
	LED1_OFF;
    1ec2:	de 9a       	sbi	0x1b, 6	; 27
	LED2_OFF;
    1ec4:	dd 9a       	sbi	0x1b, 5	; 27
	LED3_OFF;
    1ec6:	dc 9a       	sbi	0x1b, 4	; 27
	LED4_OFF;
    1ec8:	db 9a       	sbi	0x1b, 3	; 27
	LED5_ON;
    1eca:	da 98       	cbi	0x1b, 2	; 27
	LED6_OFF;
    1ecc:	d9 9a       	sbi	0x1b, 1	; 27
	LED7_ON;
    1ece:	d8 98       	cbi	0x1b, 0	; 27
	
	IQR0_PIN_OUTPUT;
    1ed0:	a0 9a       	sbi	0x14, 0	; 20
	IQR1_PIN_OUTPUT;
    1ed2:	a1 9a       	sbi	0x14, 1	; 20
	IQR2_PIN_OUTPUT;
    1ed4:	a4 9a       	sbi	0x14, 4	; 20
	IQR3_PIN_OUTPUT;
    1ed6:	a5 9a       	sbi	0x14, 5	; 20
	IQR4_PIN_OUTPUT;
    1ed8:	a2 9a       	sbi	0x14, 2	; 20
	IQR5_PIN_OUTPUT;
    1eda:	a3 9a       	sbi	0x14, 3	; 20
	IQR6_PIN_OUTPUT;
    1edc:	a6 9a       	sbi	0x14, 6	; 20
	IQR7_PIN_OUTPUT;
    1ede:	a7 9a       	sbi	0x14, 7	; 20
	
	IQR0_CLOSE;
    1ee0:	a8 9a       	sbi	0x15, 0	; 21
	IQR1_CLOSE;
    1ee2:	a9 9a       	sbi	0x15, 1	; 21
	IQR2_CLOSE;
    1ee4:	ac 9a       	sbi	0x15, 4	; 21
	IQR3_CLOSE;
    1ee6:	ad 9a       	sbi	0x15, 5	; 21
	IQR4_CLOSE;
    1ee8:	aa 9a       	sbi	0x15, 2	; 21
	IQR5_CLOSE;
    1eea:	ab 9a       	sbi	0x15, 3	; 21
	IQR6_CLOSE;
    1eec:	ae 9a       	sbi	0x15, 6	; 21
	IQR7_CLOSE;
    1eee:	af 9a       	sbi	0x15, 7	; 21

	ALARM_PIN_OUTPUT;
    1ef0:	8c 9a       	sbi	0x11, 4	; 17
	ACCON_PIN_OUTPUT;
    1ef2:	8d 9a       	sbi	0x11, 5	; 17
	
	ALARM_OFF;
    1ef4:	94 98       	cbi	0x12, 4	; 18
	ACCON_ON;
    1ef6:	95 9a       	sbi	0x12, 5	; 18
    1ef8:	08 95       	ret

00001efa <system_init>:
	return 0;
}

void system_init()
{
	gpio_init();
    1efa:	0e 94 5a 0f 	call	0x1eb4	; 0x1eb4 <gpio_init>
	usart0_init(MYUBRR(9600));
    1efe:	87 e6       	ldi	r24, 0x67	; 103
    1f00:	90 e0       	ldi	r25, 0x00	; 0
    1f02:	0e 94 ff 14 	call	0x29fe	; 0x29fe <usart0_init>
	usart1_init(MYUBRR(8928));
    1f06:	8f e6       	ldi	r24, 0x6F	; 111
    1f08:	90 e0       	ldi	r25, 0x00	; 0
    1f0a:	0e 94 0d 15 	call	0x2a1a	; 0x2a1a <usart1_init>
	timer0_init();
    1f0e:	0e 94 a7 12 	call	0x254e	; 0x254e <timer0_init>
	timer2_init();
    1f12:	0e 94 c7 12 	call	0x258e	; 0x258e <timer2_init>
	timer1_init();
    1f16:	0e 94 b6 12 	call	0x256c	; 0x256c <timer1_init>
    1f1a:	08 95       	ret

00001f1c <main>:

void system_init(void);

int main(void)
{
	system_init();
    1f1c:	0e 94 7d 0f 	call	0x1efa	; 0x1efa <system_init>
	EN_INTERRUPT;
    1f20:	8f b7       	in	r24, 0x3f	; 63
    1f22:	80 68       	ori	r24, 0x80	; 128
    1f24:	8f bf       	out	0x3f, r24	; 63
	read_eeprom_data();
    1f26:	0e 94 00 0c 	call	0x1800	; 0x1800 <read_eeprom_data>
	#else
		//round up by default
		__ticks_dc = (uint32_t)(ceil(fabs(__tmp)));
	#endif

	__builtin_avr_delay_cycles(__ticks_dc);
    1f2a:	2f ef       	ldi	r18, 0xFF	; 255
    1f2c:	87 ea       	ldi	r24, 0xA7	; 167
    1f2e:	91 e6       	ldi	r25, 0x61	; 97
    1f30:	21 50       	subi	r18, 0x01	; 1
    1f32:	80 40       	sbci	r24, 0x00	; 0
    1f34:	90 40       	sbci	r25, 0x00	; 0
    1f36:	e1 f7       	brne	.-8      	; 0x1f30 <main+0x14>
    1f38:	00 c0       	rjmp	.+0      	; 0x1f3a <main+0x1e>
    1f3a:	00 00       	nop

	_delay_ms(2000);
	
	send_variables(MASTER_SWITCH, pre_system_sta);	//默认系统为关闭状态 调节屏幕状态图标为开启
    1f3c:	60 91 e2 02 	lds	r22, 0x02E2	; 0x8002e2 <pre_system_sta>
    1f40:	70 91 e3 02 	lds	r23, 0x02E3	; 0x8002e3 <pre_system_sta+0x1>
    1f44:	80 e4       	ldi	r24, 0x40	; 64
    1f46:	91 e0       	ldi	r25, 0x01	; 1
    1f48:	0e 94 a7 03 	call	0x74e	; 0x74e <send_variables>
	send_variables(ALL_SET_TEMP, all_temp);
    1f4c:	60 91 42 01 	lds	r22, 0x0142	; 0x800142 <all_temp>
    1f50:	70 91 43 01 	lds	r23, 0x0143	; 0x800143 <all_temp+0x1>
    1f54:	88 e4       	ldi	r24, 0x48	; 72
    1f56:	91 e0       	ldi	r25, 0x01	; 1
    1f58:	0e 94 a7 03 	call	0x74e	; 0x74e <send_variables>
	send_variables(SET_PREHEAT_TIME, preheat_time);
    1f5c:	60 91 44 01 	lds	r22, 0x0144	; 0x800144 <preheat_time>
    1f60:	70 91 45 01 	lds	r23, 0x0145	; 0x800145 <preheat_time+0x1>
    1f64:	8a e4       	ldi	r24, 0x4A	; 74
    1f66:	91 e0       	ldi	r25, 0x01	; 1
    1f68:	0e 94 a7 03 	call	0x74e	; 0x74e <send_variables>
	send_variables(TEMP_UINT_ADDR, (CELSIUS+temp_unit*FAHRENHEIT));
    1f6c:	20 91 5a 02 	lds	r18, 0x025A	; 0x80025a <temp_unit>
    1f70:	30 91 5b 02 	lds	r19, 0x025B	; 0x80025b <temp_unit+0x1>
    1f74:	80 e0       	ldi	r24, 0x00	; 0
    1f76:	93 e0       	ldi	r25, 0x03	; 3
    1f78:	28 9f       	mul	r18, r24
    1f7a:	b0 01       	movw	r22, r0
    1f7c:	29 9f       	mul	r18, r25
    1f7e:	70 0d       	add	r23, r0
    1f80:	38 9f       	mul	r19, r24
    1f82:	70 0d       	add	r23, r0
    1f84:	11 24       	eor	r1, r1
    1f86:	7d 5b       	subi	r23, 0xBD	; 189
    1f88:	8c e3       	ldi	r24, 0x3C	; 60
    1f8a:	92 e0       	ldi	r25, 0x02	; 2
    1f8c:	0e 94 a7 03 	call	0x74e	; 0x74e <send_variables>
	send_variables(ALL_SENSOR_TYPE_ADDR, TYPE_J+(all_sensor_type*TYPE_K));
    1f90:	80 91 5c 02 	lds	r24, 0x025C	; 0x80025c <all_sensor_type>
    1f94:	90 91 5d 02 	lds	r25, 0x025D	; 0x80025d <all_sensor_type+0x1>
    1f98:	86 5b       	subi	r24, 0xB6	; 182
    1f9a:	9f 4f       	sbci	r25, 0xFF	; 255
    1f9c:	60 e0       	ldi	r22, 0x00	; 0
    1f9e:	78 2f       	mov	r23, r24
    1fa0:	84 e9       	ldi	r24, 0x94	; 148
    1fa2:	92 e0       	ldi	r25, 0x02	; 2
    1fa4:	0e 94 a7 03 	call	0x74e	; 0x74e <send_variables>
	
	switch_language();
    1fa8:	0e 94 95 03 	call	0x72a	; 0x72a <switch_language>
	
    /* Replace with your application code */
    while (1) 
    {
		if(usart0_rx_end)//屏相关数据接收完成
    1fac:	80 91 4a 03 	lds	r24, 0x034A	; 0x80034a <usart0_rx_end>
    1fb0:	88 23       	and	r24, r24
    1fb2:	21 f0       	breq	.+8      	; 0x1fbc <main+0xa0>
		{
			usart0_deal();
    1fb4:	0e 94 85 13 	call	0x270a	; 0x270a <usart0_deal>
			usart0_rx_end = 0;
    1fb8:	10 92 4a 03 	sts	0x034A, r1	; 0x80034a <usart0_rx_end>
		}
		
		if(usart1_rx_end)//控制卡数据接收完成
    1fbc:	80 91 dd 04 	lds	r24, 0x04DD	; 0x8004dd <usart1_rx_end>
    1fc0:	88 23       	and	r24, r24
    1fc2:	21 f0       	breq	.+8      	; 0x1fcc <main+0xb0>
		{
			usart1_deal();
    1fc4:	0e 94 c3 14 	call	0x2986	; 0x2986 <usart1_deal>
			usart1_rx_end = 0;
    1fc8:	10 92 dd 04 	sts	0x04DD, r1	; 0x8004dd <usart1_rx_end>
		}
		
		if(in_main_page)//
    1fcc:	80 91 16 02 	lds	r24, 0x0216	; 0x800216 <in_main_page>
    1fd0:	88 23       	and	r24, r24
    1fd2:	61 f3       	breq	.-40     	; 0x1fac <main+0x90>
		{
			update_main_page();
    1fd4:	0e 94 72 06 	call	0xce4	; 0xce4 <update_main_page>
    1fd8:	e9 cf       	rjmp	.-46     	; 0x1fac <main+0x90>

00001fda <__vector_16>:
uint8_t ctrl_command = READ_DATA_ALL;		//命令
uint8_t global;								//是否为全局设定
uint8_t all_senser_sta;

ISR (TIMER0_OVF_vect)
{
    1fda:	1f 92       	push	r1
    1fdc:	0f 92       	push	r0
    1fde:	0f b6       	in	r0, 0x3f	; 63
    1fe0:	0f 92       	push	r0
    1fe2:	11 24       	eor	r1, r1
    1fe4:	2f 93       	push	r18
    1fe6:	3f 93       	push	r19
    1fe8:	4f 93       	push	r20
    1fea:	5f 93       	push	r21
    1fec:	6f 93       	push	r22
    1fee:	7f 93       	push	r23
    1ff0:	8f 93       	push	r24
    1ff2:	9f 93       	push	r25
    1ff4:	af 93       	push	r26
    1ff6:	bf 93       	push	r27
    1ff8:	ef 93       	push	r30
    1ffa:	ff 93       	push	r31
	
	static uint8_t time_cnt = 0;						//时间计数
	static uint8_t slave_num = 1;						//控制板号码
	static uint16_t update_run_temp_cnt = 0;
	
	EN_INTERRUPT;
    1ffc:	8f b7       	in	r24, 0x3f	; 63
    1ffe:	80 68       	ori	r24, 0x80	; 128
    2000:	8f bf       	out	0x3f, r24	; 63
	TCNT0 = 0xB2;
    2002:	82 eb       	ldi	r24, 0xB2	; 178
    2004:	82 bf       	out	0x32, r24	; 50
	
	time_cnt++;
    2006:	80 91 12 03 	lds	r24, 0x0312	; 0x800312 <time_cnt.1766>
    200a:	8f 5f       	subi	r24, 0xFF	; 255
	
	if(time_cnt >= 100)
    200c:	84 36       	cpi	r24, 0x64	; 100
    200e:	18 f4       	brcc	.+6      	; 0x2016 <__vector_16+0x3c>
	static uint16_t update_run_temp_cnt = 0;
	
	EN_INTERRUPT;
	TCNT0 = 0xB2;
	
	time_cnt++;
    2010:	80 93 12 03 	sts	0x0312, r24	; 0x800312 <time_cnt.1766>
    2014:	5b c0       	rjmp	.+182    	; 0x20cc <__vector_16+0xf2>
	
	if(time_cnt >= 100)
	{
		time_cnt = 0;
    2016:	10 92 12 03 	sts	0x0312, r1	; 0x800312 <time_cnt.1766>
		
		switch(ctrl_command)
    201a:	80 91 18 02 	lds	r24, 0x0218	; 0x800218 <ctrl_command>
    201e:	83 30       	cpi	r24, 0x03	; 3
    2020:	11 f1       	breq	.+68     	; 0x2066 <__vector_16+0x8c>
    2022:	28 f4       	brcc	.+10     	; 0x202e <__vector_16+0x54>
    2024:	81 30       	cpi	r24, 0x01	; 1
    2026:	61 f0       	breq	.+24     	; 0x2040 <__vector_16+0x66>
    2028:	82 30       	cpi	r24, 0x02	; 2
    202a:	d1 f0       	breq	.+52     	; 0x2060 <__vector_16+0x86>
    202c:	4f c0       	rjmp	.+158    	; 0x20cc <__vector_16+0xf2>
    202e:	86 30       	cpi	r24, 0x06	; 6
    2030:	a1 f1       	breq	.+104    	; 0x209a <__vector_16+0xc0>
    2032:	87 30       	cpi	r24, 0x07	; 7
    2034:	09 f4       	brne	.+2      	; 0x2038 <__vector_16+0x5e>
    2036:	48 c0       	rjmp	.+144    	; 0x20c8 <__vector_16+0xee>
    2038:	85 30       	cpi	r24, 0x05	; 5
    203a:	09 f0       	breq	.+2      	; 0x203e <__vector_16+0x64>
    203c:	47 c0       	rjmp	.+142    	; 0x20cc <__vector_16+0xf2>
    203e:	20 c0       	rjmp	.+64     	; 0x2080 <__vector_16+0xa6>
		{
			case READ_DATA_ALL: send_request_all(slave_num++); if(slave_num >= 4) slave_num = 1; break;
    2040:	80 91 17 02 	lds	r24, 0x0217	; 0x800217 <slave_num.1767>
    2044:	91 e0       	ldi	r25, 0x01	; 1
    2046:	98 0f       	add	r25, r24
    2048:	90 93 17 02 	sts	0x0217, r25	; 0x800217 <slave_num.1767>
    204c:	0e 94 4f 08 	call	0x109e	; 0x109e <send_request_all>
    2050:	80 91 17 02 	lds	r24, 0x0217	; 0x800217 <slave_num.1767>
    2054:	84 30       	cpi	r24, 0x04	; 4
    2056:	d0 f1       	brcs	.+116    	; 0x20cc <__vector_16+0xf2>
    2058:	81 e0       	ldi	r24, 0x01	; 1
    205a:	80 93 17 02 	sts	0x0217, r24	; 0x800217 <slave_num.1767>
    205e:	36 c0       	rjmp	.+108    	; 0x20cc <__vector_16+0xf2>
			
			case PID:			set_pid(); break;
    2060:	0e 94 e6 01 	call	0x3cc	; 0x3cc <set_pid>
    2064:	33 c0       	rjmp	.+102    	; 0x20cc <__vector_16+0xf2>
			
			case TEMP:			single_set(TEMP, set_temp[set_num]); break;
    2066:	e0 91 e1 02 	lds	r30, 0x02E1	; 0x8002e1 <set_num>
    206a:	f0 e0       	ldi	r31, 0x00	; 0
    206c:	ee 0f       	add	r30, r30
    206e:	ff 1f       	adc	r31, r31
    2070:	e2 50       	subi	r30, 0x02	; 2
    2072:	fe 4f       	sbci	r31, 0xFE	; 254
    2074:	60 81       	ld	r22, Z
    2076:	71 81       	ldd	r23, Z+1	; 0x01
    2078:	83 e0       	ldi	r24, 0x03	; 3
    207a:	0e 94 e5 02 	call	0x5ca	; 0x5ca <single_set>
    207e:	26 c0       	rjmp	.+76     	; 0x20cc <__vector_16+0xf2>
			
			case SENSOR_TYPE:   single_set(SENSOR_TYPE, sensor_type[set_num]); break;
    2080:	e0 91 e1 02 	lds	r30, 0x02E1	; 0x8002e1 <set_num>
    2084:	f0 e0       	ldi	r31, 0x00	; 0
    2086:	ee 0f       	add	r30, r30
    2088:	ff 1f       	adc	r31, r31
    208a:	ee 58       	subi	r30, 0x8E	; 142
    208c:	fd 4f       	sbci	r31, 0xFD	; 253
    208e:	60 81       	ld	r22, Z
    2090:	71 81       	ldd	r23, Z+1	; 0x01
    2092:	85 e0       	ldi	r24, 0x05	; 5
    2094:	0e 94 e5 02 	call	0x5ca	; 0x5ca <single_set>
    2098:	19 c0       	rjmp	.+50     	; 0x20cc <__vector_16+0xf2>
								
			case SWITCH_SENSOR: if(global == SINGLE)
    209a:	80 91 6f 06 	lds	r24, 0x066F	; 0x80066f <global>
    209e:	81 30       	cpi	r24, 0x01	; 1
    20a0:	69 f4       	brne	.+26     	; 0x20bc <__vector_16+0xe2>
								{
									single_set(SWITCH_SENSOR, switch_sensor[set_num]);
    20a2:	e0 91 e1 02 	lds	r30, 0x02E1	; 0x8002e1 <set_num>
    20a6:	f0 e0       	ldi	r31, 0x00	; 0
    20a8:	ee 0f       	add	r30, r30
    20aa:	ff 1f       	adc	r31, r31
    20ac:	e6 57       	subi	r30, 0x76	; 118
    20ae:	fd 4f       	sbci	r31, 0xFD	; 253
    20b0:	60 81       	ld	r22, Z
    20b2:	71 81       	ldd	r23, Z+1	; 0x01
    20b4:	86 e0       	ldi	r24, 0x06	; 6
    20b6:	0e 94 e5 02 	call	0x5ca	; 0x5ca <single_set>
    20ba:	08 c0       	rjmp	.+16     	; 0x20cc <__vector_16+0xf2>
								}
								else
								{
									 switch_all_sensor(all_senser_sta);
    20bc:	80 91 6e 06 	lds	r24, 0x066E	; 0x80066e <all_senser_sta>
    20c0:	90 e0       	ldi	r25, 0x00	; 0
    20c2:	0e 94 7f 02 	call	0x4fe	; 0x4fe <switch_all_sensor>
    20c6:	02 c0       	rjmp	.+4      	; 0x20cc <__vector_16+0xf2>
								}
								break;
								
			case ALL_SET_CMD:	all_set_ok(); break;
    20c8:	0e 94 c4 03 	call	0x788	; 0x788 <all_set_ok>
			default: break;
		}

	}													//每一百毫秒请求一个主控板发送所有采集数据  300毫秒完成3个主控板采集数据的发送

	if(update_run_temp_flag)							//如果在单独设定界面，1s更新一次运行温度
    20cc:	80 91 e6 02 	lds	r24, 0x02E6	; 0x8002e6 <update_run_temp_flag>
    20d0:	88 23       	and	r24, r24
    20d2:	09 f4       	brne	.+2      	; 0x20d6 <__vector_16+0xfc>
    20d4:	63 c0       	rjmp	.+198    	; 0x219c <__vector_16+0x1c2>
	{
		update_run_temp_cnt++;
    20d6:	80 91 10 03 	lds	r24, 0x0310	; 0x800310 <update_run_temp_cnt.1768>
    20da:	90 91 11 03 	lds	r25, 0x0311	; 0x800311 <update_run_temp_cnt.1768+0x1>
    20de:	01 96       	adiw	r24, 0x01	; 1
		
		if(update_run_temp_cnt >= 200)
    20e0:	88 3c       	cpi	r24, 0xC8	; 200
    20e2:	91 05       	cpc	r25, r1
    20e4:	28 f4       	brcc	.+10     	; 0x20f0 <__vector_16+0x116>

	}													//每一百毫秒请求一个主控板发送所有采集数据  300毫秒完成3个主控板采集数据的发送

	if(update_run_temp_flag)							//如果在单独设定界面，1s更新一次运行温度
	{
		update_run_temp_cnt++;
    20e6:	90 93 11 03 	sts	0x0311, r25	; 0x800311 <update_run_temp_cnt.1768+0x1>
    20ea:	80 93 10 03 	sts	0x0310, r24	; 0x800310 <update_run_temp_cnt.1768>
    20ee:	56 c0       	rjmp	.+172    	; 0x219c <__vector_16+0x1c2>
		
		if(update_run_temp_cnt >= 200)
		{
			update_run_temp_cnt = 0;
    20f0:	10 92 11 03 	sts	0x0311, r1	; 0x800311 <update_run_temp_cnt.1768+0x1>
    20f4:	10 92 10 03 	sts	0x0310, r1	; 0x800310 <update_run_temp_cnt.1768>
			
			if(run_temp_page)
    20f8:	80 91 e7 02 	lds	r24, 0x02E7	; 0x8002e7 <run_temp_page>
    20fc:	88 23       	and	r24, r24
    20fe:	41 f1       	breq	.+80     	; 0x2150 <__vector_16+0x176>
			{
				send_variables(SINGLE_RUNTEMP_ADDR, run_temp[set_num]+temp_unit*((run_temp[set_num]*8/10)+32));
    2100:	e0 91 e1 02 	lds	r30, 0x02E1	; 0x8002e1 <set_num>
    2104:	f0 e0       	ldi	r31, 0x00	; 0
    2106:	ee 0f       	add	r30, r30
    2108:	ff 1f       	adc	r31, r31
    210a:	e2 55       	subi	r30, 0x52	; 82
    210c:	fd 4f       	sbci	r31, 0xFD	; 253
    210e:	20 81       	ld	r18, Z
    2110:	31 81       	ldd	r19, Z+1	; 0x01
    2112:	c9 01       	movw	r24, r18
    2114:	88 0f       	add	r24, r24
    2116:	99 1f       	adc	r25, r25
    2118:	88 0f       	add	r24, r24
    211a:	99 1f       	adc	r25, r25
    211c:	88 0f       	add	r24, r24
    211e:	99 1f       	adc	r25, r25
    2120:	6a e0       	ldi	r22, 0x0A	; 10
    2122:	70 e0       	ldi	r23, 0x00	; 0
    2124:	0e 94 1a 15 	call	0x2a34	; 0x2a34 <__divmodhi4>
    2128:	cb 01       	movw	r24, r22
    212a:	80 96       	adiw	r24, 0x20	; 32
    212c:	40 91 5a 02 	lds	r20, 0x025A	; 0x80025a <temp_unit>
    2130:	50 91 5b 02 	lds	r21, 0x025B	; 0x80025b <temp_unit+0x1>
    2134:	84 9f       	mul	r24, r20
    2136:	b0 01       	movw	r22, r0
    2138:	85 9f       	mul	r24, r21
    213a:	70 0d       	add	r23, r0
    213c:	94 9f       	mul	r25, r20
    213e:	70 0d       	add	r23, r0
    2140:	11 24       	eor	r1, r1
    2142:	62 0f       	add	r22, r18
    2144:	73 1f       	adc	r23, r19
    2146:	82 e3       	ldi	r24, 0x32	; 50
    2148:	90 e0       	ldi	r25, 0x00	; 0
    214a:	0e 94 a7 03 	call	0x74e	; 0x74e <send_variables>
    214e:	26 c0       	rjmp	.+76     	; 0x219c <__vector_16+0x1c2>
			}
			else
			{
				send_variables(CURVE_PAGE_RUNTEMP_ADDR, run_temp[curve_page_num] +
    2150:	e0 91 df 02 	lds	r30, 0x02DF	; 0x8002df <curve_page_num>
    2154:	ee 0f       	add	r30, r30
    2156:	ff 0b       	sbc	r31, r31
    2158:	e2 55       	subi	r30, 0x52	; 82
    215a:	fd 4f       	sbci	r31, 0xFD	; 253
    215c:	20 81       	ld	r18, Z
    215e:	31 81       	ldd	r19, Z+1	; 0x01
    2160:	c9 01       	movw	r24, r18
    2162:	88 0f       	add	r24, r24
    2164:	99 1f       	adc	r25, r25
    2166:	88 0f       	add	r24, r24
    2168:	99 1f       	adc	r25, r25
    216a:	88 0f       	add	r24, r24
    216c:	99 1f       	adc	r25, r25
    216e:	6a e0       	ldi	r22, 0x0A	; 10
    2170:	70 e0       	ldi	r23, 0x00	; 0
    2172:	0e 94 1a 15 	call	0x2a34	; 0x2a34 <__divmodhi4>
    2176:	cb 01       	movw	r24, r22
    2178:	80 96       	adiw	r24, 0x20	; 32
    217a:	40 91 5a 02 	lds	r20, 0x025A	; 0x80025a <temp_unit>
    217e:	50 91 5b 02 	lds	r21, 0x025B	; 0x80025b <temp_unit+0x1>
    2182:	84 9f       	mul	r24, r20
    2184:	b0 01       	movw	r22, r0
    2186:	85 9f       	mul	r24, r21
    2188:	70 0d       	add	r23, r0
    218a:	94 9f       	mul	r25, r20
    218c:	70 0d       	add	r23, r0
    218e:	11 24       	eor	r1, r1
    2190:	62 0f       	add	r22, r18
    2192:	73 1f       	adc	r23, r19
    2194:	8e e3       	ldi	r24, 0x3E	; 62
    2196:	90 e0       	ldi	r25, 0x00	; 0
    2198:	0e 94 a7 03 	call	0x74e	; 0x74e <send_variables>
			}
		}
	}
	
	
	if(usart1_rx_cnt != pre_usart1_rx_cnt)
    219c:	80 91 db 04 	lds	r24, 0x04DB	; 0x8004db <usart1_rx_cnt>
    21a0:	90 91 0f 03 	lds	r25, 0x030F	; 0x80030f <pre_usart1_rx_cnt.1763>
    21a4:	89 17       	cp	r24, r25
    21a6:	29 f0       	breq	.+10     	; 0x21b2 <__vector_16+0x1d8>
	{
		pre_usart1_rx_cnt = usart1_rx_cnt;
    21a8:	80 93 0f 03 	sts	0x030F, r24	; 0x80030f <pre_usart1_rx_cnt.1763>
		usart1_cnt = 0;
    21ac:	10 92 0e 03 	sts	0x030E, r1	; 0x80030e <usart1_cnt.1762>
    21b0:	14 c0       	rjmp	.+40     	; 0x21da <__vector_16+0x200>
	}													//如果usart1当前接收计数与上次计数不一样 表示有数据接收  清除时间计数
	else												
	{		
		if(usart1_rx_cnt != 0)							//如果usart1接收计数为0 认为没有开始接收数据  则不进行超时计数
    21b2:	88 23       	and	r24, r24
    21b4:	91 f0       	breq	.+36     	; 0x21da <__vector_16+0x200>
		{
			usart1_cnt++;
    21b6:	90 91 0e 03 	lds	r25, 0x030E	; 0x80030e <usart1_cnt.1762>
    21ba:	9f 5f       	subi	r25, 0xFF	; 255
    21bc:	90 93 0e 03 	sts	0x030E, r25	; 0x80030e <usart1_cnt.1762>
			
			if(usart1_cnt >= 4)
    21c0:	94 30       	cpi	r25, 0x04	; 4
    21c2:	58 f0       	brcs	.+22     	; 0x21da <__vector_16+0x200>
			{
				usart1_rx_lenth = usart1_rx_cnt;
    21c4:	80 93 dc 04 	sts	0x04DC, r24	; 0x8004dc <usart1_rx_lenth>
				usart1_rx_end = 1;
    21c8:	81 e0       	ldi	r24, 0x01	; 1
    21ca:	80 93 dd 04 	sts	0x04DD, r24	; 0x8004dd <usart1_rx_end>
				
				usart1_rx_cnt = 0;
    21ce:	10 92 db 04 	sts	0x04DB, r1	; 0x8004db <usart1_rx_cnt>
				pre_usart1_rx_cnt = 0;
    21d2:	10 92 0f 03 	sts	0x030F, r1	; 0x80030f <pre_usart1_rx_cnt.1763>
				
				usart1_cnt = 0;		
    21d6:	10 92 0e 03 	sts	0x030E, r1	; 0x80030e <usart1_cnt.1762>
			}
		}
	}													//如果大于21毫秒没有数据接收  认为完成一次数据的接收      清除时间计数
	
	if(usart0_rx_cnt != pre_usart0_rx_cnt)
    21da:	80 91 48 03 	lds	r24, 0x0348	; 0x800348 <usart0_rx_cnt>
    21de:	90 91 0d 03 	lds	r25, 0x030D	; 0x80030d <pre_usart0_rx_cnt.1765>
    21e2:	89 17       	cp	r24, r25
    21e4:	29 f0       	breq	.+10     	; 0x21f0 <__vector_16+0x216>
	{
		pre_usart0_rx_cnt = usart0_rx_cnt;
    21e6:	80 93 0d 03 	sts	0x030D, r24	; 0x80030d <pre_usart0_rx_cnt.1765>
		usart0_cnt = 0;
    21ea:	10 92 0c 03 	sts	0x030C, r1	; 0x80030c <usart0_cnt.1764>
    21ee:	14 c0       	rjmp	.+40     	; 0x2218 <__vector_16+0x23e>
	}													//如果usart0当前接收计数与上次计数不一样 表示有数据接收  清除时间计数
	else
	{
		if(usart0_rx_cnt != 0)							//如果usart0接收计数为0   认为没有开始接收数据  则不进行超时计数
    21f0:	88 23       	and	r24, r24
    21f2:	91 f0       	breq	.+36     	; 0x2218 <__vector_16+0x23e>
		{
			usart0_cnt++;
    21f4:	90 91 0c 03 	lds	r25, 0x030C	; 0x80030c <usart0_cnt.1764>
    21f8:	9f 5f       	subi	r25, 0xFF	; 255
    21fa:	90 93 0c 03 	sts	0x030C, r25	; 0x80030c <usart0_cnt.1764>
			
			if(usart0_cnt >= 4)
    21fe:	94 30       	cpi	r25, 0x04	; 4
    2200:	58 f0       	brcs	.+22     	; 0x2218 <__vector_16+0x23e>
			{
				usart0_rx_lenth = usart0_rx_cnt;
    2202:	80 93 49 03 	sts	0x0349, r24	; 0x800349 <usart0_rx_lenth>
				usart0_rx_end = 1;
    2206:	81 e0       	ldi	r24, 0x01	; 1
    2208:	80 93 4a 03 	sts	0x034A, r24	; 0x80034a <usart0_rx_end>
				
				usart0_rx_cnt = 0;
    220c:	10 92 48 03 	sts	0x0348, r1	; 0x800348 <usart0_rx_cnt>
				pre_usart0_rx_cnt = 0;
    2210:	10 92 0d 03 	sts	0x030D, r1	; 0x80030d <pre_usart0_rx_cnt.1765>
				
				usart0_cnt = 0;
    2214:	10 92 0c 03 	sts	0x030C, r1	; 0x80030c <usart0_cnt.1764>
			}
		}
	}													//如果大于21毫秒没有数据接收  认为完成一次数据的接收      清除时间计数

}
    2218:	ff 91       	pop	r31
    221a:	ef 91       	pop	r30
    221c:	bf 91       	pop	r27
    221e:	af 91       	pop	r26
    2220:	9f 91       	pop	r25
    2222:	8f 91       	pop	r24
    2224:	7f 91       	pop	r23
    2226:	6f 91       	pop	r22
    2228:	5f 91       	pop	r21
    222a:	4f 91       	pop	r20
    222c:	3f 91       	pop	r19
    222e:	2f 91       	pop	r18
    2230:	0f 90       	pop	r0
    2232:	0f be       	out	0x3f, r0	; 63
    2234:	0f 90       	pop	r0
    2236:	1f 90       	pop	r1
    2238:	18 95       	reti

0000223a <__vector_12>:

ISR(TIMER1_COMPA_vect)
{
    223a:	1f 92       	push	r1
    223c:	0f 92       	push	r0
    223e:	0f b6       	in	r0, 0x3f	; 63
    2240:	0f 92       	push	r0
    2242:	11 24       	eor	r1, r1
    2244:	ef 92       	push	r14
    2246:	ff 92       	push	r15
    2248:	0f 93       	push	r16
    224a:	1f 93       	push	r17
    224c:	2f 93       	push	r18
    224e:	3f 93       	push	r19
    2250:	4f 93       	push	r20
    2252:	5f 93       	push	r21
    2254:	6f 93       	push	r22
    2256:	7f 93       	push	r23
    2258:	8f 93       	push	r24
    225a:	9f 93       	push	r25
    225c:	af 93       	push	r26
    225e:	bf 93       	push	r27
    2260:	cf 93       	push	r28
    2262:	df 93       	push	r29
    2264:	ef 93       	push	r30
    2266:	ff 93       	push	r31
	static uint16_t time_cnt[8] = {0};
	static uint8_t sta[8] = {0};
	static uint8_t pre_sta[8] = {0};
	static uint8_t curve_cnt = 0;
	
	EN_INTERRUPT;
    2268:	8f b7       	in	r24, 0x3f	; 63
    226a:	80 68       	ori	r24, 0x80	; 128
    226c:	8f bf       	out	0x3f, r24	; 63
    226e:	01 e0       	ldi	r16, 0x01	; 1
				case 3: LED1_ON; break;
			}
		}
		else if(start_iqr[i] == 0)
		{
			PORTC |= (1<<i);
    2270:	ee 24       	eor	r14, r14
    2272:	e3 94       	inc	r14
    2274:	f1 2c       	mov	r15, r1
    2276:	01 c0       	rjmp	.+2      	; 0x227a <__vector_12+0x40>
    2278:	0f 5f       	subi	r16, 0xFF	; 255
    227a:	1f ef       	ldi	r17, 0xFF	; 255
    227c:	10 0f       	add	r17, r16
	
	EN_INTERRUPT;

	for(i=0; i<8; i++)
	{
		if(first_start_iqr[i] == 1)
    227e:	c1 2f       	mov	r28, r17
    2280:	d0 e0       	ldi	r29, 0x00	; 0
    2282:	fe 01       	movw	r30, r28
    2284:	ea 59       	subi	r30, 0x9A	; 154
    2286:	fd 4f       	sbci	r31, 0xFD	; 253
    2288:	80 81       	ld	r24, Z
    228a:	81 30       	cpi	r24, 0x01	; 1
    228c:	e9 f4       	brne	.+58     	; 0x22c8 <__vector_12+0x8e>
		{
			first_start_iqr[i] = 0;
    228e:	fe 01       	movw	r30, r28
    2290:	ea 59       	subi	r30, 0x9A	; 154
    2292:	fd 4f       	sbci	r31, 0xFD	; 253
    2294:	10 82       	st	Z, r1
			time_cnt[i] = t1[i];
    2296:	ce 01       	movw	r24, r28
    2298:	88 0f       	add	r24, r24
    229a:	99 1f       	adc	r25, r25
    229c:	fc 01       	movw	r30, r24
    229e:	e4 50       	subi	r30, 0x04	; 4
    22a0:	fd 4f       	sbci	r31, 0xFD	; 253
    22a2:	dc 01       	movw	r26, r24
    22a4:	aa 58       	subi	r26, 0x8A	; 138
    22a6:	be 4f       	sbci	r27, 0xFE	; 254
    22a8:	8d 91       	ld	r24, X+
    22aa:	9c 91       	ld	r25, X
    22ac:	91 83       	std	Z+1, r25	; 0x01
    22ae:	80 83       	st	Z, r24
			
			sta[i] = 0;
    22b0:	fe 01       	movw	r30, r28
    22b2:	ec 50       	subi	r30, 0x0C	; 12
    22b4:	fd 4f       	sbci	r31, 0xFD	; 253
    22b6:	10 82       	st	Z, r1
			pre_sta[i] = 0;
    22b8:	fe 01       	movw	r30, r28
    22ba:	e4 51       	subi	r30, 0x14	; 20
    22bc:	fd 4f       	sbci	r31, 0xFD	; 253
    22be:	10 82       	st	Z, r1
			clear_curve_buff(CHANNEL0_BUFF);
    22c0:	8a e5       	ldi	r24, 0x5A	; 90
    22c2:	0e 94 7b 09 	call	0x12f6	; 0x12f6 <clear_curve_buff>
    22c6:	4e c0       	rjmp	.+156    	; 0x2364 <__vector_12+0x12a>
		}
		else if(pre_sta[i] != sta[i])
    22c8:	fe 01       	movw	r30, r28
    22ca:	ec 50       	subi	r30, 0x0C	; 12
    22cc:	fd 4f       	sbci	r31, 0xFD	; 253
    22ce:	80 81       	ld	r24, Z
    22d0:	fe 01       	movw	r30, r28
    22d2:	e4 51       	subi	r30, 0x14	; 20
    22d4:	fd 4f       	sbci	r31, 0xFD	; 253
    22d6:	90 81       	ld	r25, Z
    22d8:	98 17       	cp	r25, r24
    22da:	09 f4       	brne	.+2      	; 0x22de <__vector_12+0xa4>
    22dc:	43 c0       	rjmp	.+134    	; 0x2364 <__vector_12+0x12a>
		{
			switch(sta[i])
    22de:	81 30       	cpi	r24, 0x01	; 1
    22e0:	a1 f0       	breq	.+40     	; 0x230a <__vector_12+0xd0>
    22e2:	28 f0       	brcs	.+10     	; 0x22ee <__vector_12+0xb4>
    22e4:	82 30       	cpi	r24, 0x02	; 2
    22e6:	f9 f0       	breq	.+62     	; 0x2326 <__vector_12+0xec>
    22e8:	83 30       	cpi	r24, 0x03	; 3
    22ea:	59 f1       	breq	.+86     	; 0x2342 <__vector_12+0x108>
    22ec:	37 c0       	rjmp	.+110    	; 0x235c <__vector_12+0x122>
			{
				case 0: time_cnt[i] = t1[i]; break;
    22ee:	9e 01       	movw	r18, r28
    22f0:	22 0f       	add	r18, r18
    22f2:	33 1f       	adc	r19, r19
    22f4:	f9 01       	movw	r30, r18
    22f6:	e4 50       	subi	r30, 0x04	; 4
    22f8:	fd 4f       	sbci	r31, 0xFD	; 253
    22fa:	d9 01       	movw	r26, r18
    22fc:	aa 58       	subi	r26, 0x8A	; 138
    22fe:	be 4f       	sbci	r27, 0xFE	; 254
    2300:	2d 91       	ld	r18, X+
    2302:	3c 91       	ld	r19, X
    2304:	31 83       	std	Z+1, r19	; 0x01
    2306:	20 83       	st	Z, r18
    2308:	29 c0       	rjmp	.+82     	; 0x235c <__vector_12+0x122>
				case 1:	time_cnt[i] = t2[i]; break;
    230a:	9e 01       	movw	r18, r28
    230c:	22 0f       	add	r18, r18
    230e:	33 1f       	adc	r19, r19
    2310:	f9 01       	movw	r30, r18
    2312:	e4 50       	subi	r30, 0x04	; 4
    2314:	fd 4f       	sbci	r31, 0xFD	; 253
    2316:	d9 01       	movw	r26, r18
    2318:	aa 59       	subi	r26, 0x9A	; 154
    231a:	be 4f       	sbci	r27, 0xFE	; 254
    231c:	2d 91       	ld	r18, X+
    231e:	3c 91       	ld	r19, X
    2320:	31 83       	std	Z+1, r19	; 0x01
    2322:	20 83       	st	Z, r18
    2324:	1b c0       	rjmp	.+54     	; 0x235c <__vector_12+0x122>
				case 2: time_cnt[i] = t3[i]; break;
    2326:	9e 01       	movw	r18, r28
    2328:	22 0f       	add	r18, r18
    232a:	33 1f       	adc	r19, r19
    232c:	f9 01       	movw	r30, r18
    232e:	e4 50       	subi	r30, 0x04	; 4
    2330:	fd 4f       	sbci	r31, 0xFD	; 253
    2332:	d9 01       	movw	r26, r18
    2334:	aa 5a       	subi	r26, 0xAA	; 170
    2336:	be 4f       	sbci	r27, 0xFE	; 254
    2338:	2d 91       	ld	r18, X+
    233a:	3c 91       	ld	r19, X
    233c:	31 83       	std	Z+1, r19	; 0x01
    233e:	20 83       	st	Z, r18
    2340:	0d c0       	rjmp	.+26     	; 0x235c <__vector_12+0x122>
				case 3: time_cnt[i] = t4[i]; break;
    2342:	9e 01       	movw	r18, r28
    2344:	22 0f       	add	r18, r18
    2346:	33 1f       	adc	r19, r19
    2348:	f9 01       	movw	r30, r18
    234a:	e4 50       	subi	r30, 0x04	; 4
    234c:	fd 4f       	sbci	r31, 0xFD	; 253
    234e:	d9 01       	movw	r26, r18
    2350:	aa 5b       	subi	r26, 0xBA	; 186
    2352:	be 4f       	sbci	r27, 0xFE	; 254
    2354:	2d 91       	ld	r18, X+
    2356:	3c 91       	ld	r19, X
    2358:	31 83       	std	Z+1, r19	; 0x01
    235a:	20 83       	st	Z, r18
				default: break;
			}
			
			pre_sta[i] = sta[i];
    235c:	fe 01       	movw	r30, r28
    235e:	e4 51       	subi	r30, 0x14	; 20
    2360:	fd 4f       	sbci	r31, 0xFD	; 253
    2362:	80 83       	st	Z, r24
		}
		
		if(start_iqr[i] == 1)
    2364:	fe 01       	movw	r30, r28
    2366:	e2 5a       	subi	r30, 0xA2	; 162
    2368:	fd 4f       	sbci	r31, 0xFD	; 253
    236a:	80 81       	ld	r24, Z
    236c:	81 30       	cpi	r24, 0x01	; 1
    236e:	09 f0       	breq	.+2      	; 0x2372 <__vector_12+0x138>
    2370:	47 c0       	rjmp	.+142    	; 0x2400 <__vector_12+0x1c6>
		{
			time_cnt[i]--;
    2372:	fe 01       	movw	r30, r28
    2374:	ee 0f       	add	r30, r30
    2376:	ff 1f       	adc	r31, r31
    2378:	e4 50       	subi	r30, 0x04	; 4
    237a:	fd 4f       	sbci	r31, 0xFD	; 253
    237c:	80 81       	ld	r24, Z
    237e:	91 81       	ldd	r25, Z+1	; 0x01
    2380:	01 97       	sbiw	r24, 0x01	; 1
    2382:	91 83       	std	Z+1, r25	; 0x01
    2384:	80 83       	st	Z, r24
			if(time_cnt[i] <= 0)
    2386:	89 2b       	or	r24, r25
    2388:	59 f5       	brne	.+86     	; 0x23e0 <__vector_12+0x1a6>
			{
				if((sta[i] == 0) || (sta[i] == 2))
    238a:	fe 01       	movw	r30, r28
    238c:	ec 50       	subi	r30, 0x0C	; 12
    238e:	fd 4f       	sbci	r31, 0xFD	; 253
    2390:	80 81       	ld	r24, Z
    2392:	8d 7f       	andi	r24, 0xFD	; 253
    2394:	69 f4       	brne	.+26     	; 0x23b0 <__vector_12+0x176>
				{
					PORTC &= ~(1<<i);	//开启通道
    2396:	95 b3       	in	r25, 0x15	; 21
    2398:	97 01       	movw	r18, r14
    239a:	01 2e       	mov	r0, r17
    239c:	02 c0       	rjmp	.+4      	; 0x23a2 <__vector_12+0x168>
    239e:	22 0f       	add	r18, r18
    23a0:	33 1f       	adc	r19, r19
    23a2:	0a 94       	dec	r0
    23a4:	e2 f7       	brpl	.-8      	; 0x239e <__vector_12+0x164>
    23a6:	82 2f       	mov	r24, r18
    23a8:	80 95       	com	r24
    23aa:	89 23       	and	r24, r25
    23ac:	85 bb       	out	0x15, r24	; 21
    23ae:	0c c0       	rjmp	.+24     	; 0x23c8 <__vector_12+0x18e>
				}
				else if((sta[i] == 1) || (sta[i] == 3))
    23b0:	81 30       	cpi	r24, 0x01	; 1
    23b2:	51 f4       	brne	.+20     	; 0x23c8 <__vector_12+0x18e>
				{
					PORTC |= (1<<i);	//关闭通道
    23b4:	25 b3       	in	r18, 0x15	; 21
    23b6:	c7 01       	movw	r24, r14
    23b8:	01 2e       	mov	r0, r17
    23ba:	02 c0       	rjmp	.+4      	; 0x23c0 <__vector_12+0x186>
    23bc:	88 0f       	add	r24, r24
    23be:	99 1f       	adc	r25, r25
    23c0:	0a 94       	dec	r0
    23c2:	e2 f7       	brpl	.-8      	; 0x23bc <__vector_12+0x182>
    23c4:	82 2b       	or	r24, r18
    23c6:	85 bb       	out	0x15, r24	; 21
				}
				
				sta[i] = sta[i] + 1;
    23c8:	fe 01       	movw	r30, r28
    23ca:	ec 50       	subi	r30, 0x0C	; 12
    23cc:	fd 4f       	sbci	r31, 0xFD	; 253
    23ce:	80 81       	ld	r24, Z
    23d0:	8f 5f       	subi	r24, 0xFF	; 255
				if(sta[i] >= 4)
    23d2:	84 30       	cpi	r24, 0x04	; 4
    23d4:	10 f4       	brcc	.+4      	; 0x23da <__vector_12+0x1a0>
				else if((sta[i] == 1) || (sta[i] == 3))
				{
					PORTC |= (1<<i);	//关闭通道
				}
				
				sta[i] = sta[i] + 1;
    23d6:	80 83       	st	Z, r24
    23d8:	03 c0       	rjmp	.+6      	; 0x23e0 <__vector_12+0x1a6>
				if(sta[i] >= 4)
				{
					sta[i] = 0;
    23da:	cc 50       	subi	r28, 0x0C	; 12
    23dc:	dd 4f       	sbci	r29, 0xFD	; 253
    23de:	18 82       	st	Y, r1
				}
			}
			
			switch(i)
    23e0:	11 30       	cpi	r17, 0x01	; 1
    23e2:	41 f0       	breq	.+16     	; 0x23f4 <__vector_12+0x1ba>
    23e4:	28 f0       	brcs	.+10     	; 0x23f0 <__vector_12+0x1b6>
    23e6:	12 30       	cpi	r17, 0x02	; 2
    23e8:	39 f0       	breq	.+14     	; 0x23f8 <__vector_12+0x1be>
    23ea:	13 30       	cpi	r17, 0x03	; 3
    23ec:	39 f0       	breq	.+14     	; 0x23fc <__vector_12+0x1c2>
    23ee:	24 c0       	rjmp	.+72     	; 0x2438 <__vector_12+0x1fe>
			{
				case 0: LED4_ON; break;
    23f0:	db 98       	cbi	0x1b, 3	; 27
    23f2:	42 cf       	rjmp	.-380    	; 0x2278 <__vector_12+0x3e>
				case 1: LED3_ON; break;
    23f4:	dc 98       	cbi	0x1b, 4	; 27
    23f6:	40 cf       	rjmp	.-384    	; 0x2278 <__vector_12+0x3e>
				case 2: LED2_ON; break;
    23f8:	dd 98       	cbi	0x1b, 5	; 27
    23fa:	3e cf       	rjmp	.-388    	; 0x2278 <__vector_12+0x3e>
				case 3: LED1_ON; break;
    23fc:	de 98       	cbi	0x1b, 6	; 27
    23fe:	3c cf       	rjmp	.-392    	; 0x2278 <__vector_12+0x3e>
			}
		}
		else if(start_iqr[i] == 0)
    2400:	81 11       	cpse	r24, r1
    2402:	1a c0       	rjmp	.+52     	; 0x2438 <__vector_12+0x1fe>
		{
			PORTC |= (1<<i);
    2404:	25 b3       	in	r18, 0x15	; 21
    2406:	c7 01       	movw	r24, r14
    2408:	01 2e       	mov	r0, r17
    240a:	02 c0       	rjmp	.+4      	; 0x2410 <__vector_12+0x1d6>
    240c:	88 0f       	add	r24, r24
    240e:	99 1f       	adc	r25, r25
    2410:	0a 94       	dec	r0
    2412:	e2 f7       	brpl	.-8      	; 0x240c <__vector_12+0x1d2>
    2414:	82 2b       	or	r24, r18
    2416:	85 bb       	out	0x15, r24	; 21
			
			switch(i)
    2418:	11 30       	cpi	r17, 0x01	; 1
    241a:	41 f0       	breq	.+16     	; 0x242c <__vector_12+0x1f2>
    241c:	28 f0       	brcs	.+10     	; 0x2428 <__vector_12+0x1ee>
    241e:	12 30       	cpi	r17, 0x02	; 2
    2420:	39 f0       	breq	.+14     	; 0x2430 <__vector_12+0x1f6>
    2422:	13 30       	cpi	r17, 0x03	; 3
    2424:	39 f0       	breq	.+14     	; 0x2434 <__vector_12+0x1fa>
    2426:	08 c0       	rjmp	.+16     	; 0x2438 <__vector_12+0x1fe>
			{
				case 0: LED4_OFF; break;
    2428:	db 9a       	sbi	0x1b, 3	; 27
    242a:	26 cf       	rjmp	.-436    	; 0x2278 <__vector_12+0x3e>
				case 1: LED3_OFF; break;
    242c:	dc 9a       	sbi	0x1b, 4	; 27
    242e:	24 cf       	rjmp	.-440    	; 0x2278 <__vector_12+0x3e>
				case 2: LED2_OFF; break;
    2430:	dd 9a       	sbi	0x1b, 5	; 27
    2432:	22 cf       	rjmp	.-444    	; 0x2278 <__vector_12+0x3e>
				case 3: LED1_OFF; break;
    2434:	de 9a       	sbi	0x1b, 6	; 27
    2436:	20 cf       	rjmp	.-448    	; 0x2278 <__vector_12+0x3e>
	static uint8_t pre_sta[8] = {0};
	static uint8_t curve_cnt = 0;
	
	EN_INTERRUPT;

	for(i=0; i<8; i++)
    2438:	08 30       	cpi	r16, 0x08	; 8
    243a:	08 f4       	brcc	.+2      	; 0x243e <__vector_12+0x204>
    243c:	1d cf       	rjmp	.-454    	; 0x2278 <__vector_12+0x3e>
			}

		}
	}
	
	curve_cnt++;
    243e:	80 91 eb 02 	lds	r24, 0x02EB	; 0x8002eb <curve_cnt.1786>
    2442:	8f 5f       	subi	r24, 0xFF	; 255
	if(curve_cnt >= 25)
    2444:	89 31       	cpi	r24, 0x19	; 25
    2446:	18 f4       	brcc	.+6      	; 0x244e <__vector_12+0x214>
			}

		}
	}
	
	curve_cnt++;
    2448:	80 93 eb 02 	sts	0x02EB, r24	; 0x8002eb <curve_cnt.1786>
    244c:	22 c0       	rjmp	.+68     	; 0x2492 <__vector_12+0x258>
	if(curve_cnt >= 25)
	{
		curve_cnt = 0;
    244e:	10 92 eb 02 	sts	0x02EB, r1	; 0x8002eb <curve_cnt.1786>
		
		if(in_time_ctrl_page == 1)
    2452:	80 91 59 02 	lds	r24, 0x0259	; 0x800259 <in_time_ctrl_page>
    2456:	81 30       	cpi	r24, 0x01	; 1
    2458:	e1 f4       	brne	.+56     	; 0x2492 <__vector_12+0x258>
		{
			if(start_iqr[pre_iqr] == 1)
    245a:	80 91 e8 02 	lds	r24, 0x02E8	; 0x8002e8 <pre_iqr>
    245e:	90 91 e9 02 	lds	r25, 0x02E9	; 0x8002e9 <pre_iqr+0x1>
    2462:	fc 01       	movw	r30, r24
    2464:	e2 5a       	subi	r30, 0xA2	; 162
    2466:	fd 4f       	sbci	r31, 0xFD	; 253
    2468:	20 81       	ld	r18, Z
    246a:	21 30       	cpi	r18, 0x01	; 1
    246c:	91 f4       	brne	.+36     	; 0x2492 <__vector_12+0x258>
			{
				if((sta[pre_iqr] == 0) || (sta[pre_iqr] == 2))
    246e:	fc 01       	movw	r30, r24
    2470:	ec 50       	subi	r30, 0x0C	; 12
    2472:	fd 4f       	sbci	r31, 0xFD	; 253
    2474:	80 81       	ld	r24, Z
    2476:	8d 7f       	andi	r24, 0xFD	; 253
    2478:	31 f4       	brne	.+12     	; 0x2486 <__vector_12+0x24c>
				{
					send_to_channel(CHANNEL0, 0x11);
    247a:	61 e1       	ldi	r22, 0x11	; 17
    247c:	70 e0       	ldi	r23, 0x00	; 0
    247e:	81 e0       	ldi	r24, 0x01	; 1
    2480:	0e 94 e0 07 	call	0xfc0	; 0xfc0 <send_to_channel>
    2484:	06 c0       	rjmp	.+12     	; 0x2492 <__vector_12+0x258>
				}
				else if((sta[pre_iqr] == 1) || (sta[pre_iqr] == 3))
    2486:	81 30       	cpi	r24, 0x01	; 1
    2488:	21 f4       	brne	.+8      	; 0x2492 <__vector_12+0x258>
				{
					send_to_channel(CHANNEL0, 0x33);
    248a:	63 e3       	ldi	r22, 0x33	; 51
    248c:	70 e0       	ldi	r23, 0x00	; 0
    248e:	0e 94 e0 07 	call	0xfc0	; 0xfc0 <send_to_channel>
				}
			}
		}
	}
	
}
    2492:	ff 91       	pop	r31
    2494:	ef 91       	pop	r30
    2496:	df 91       	pop	r29
    2498:	cf 91       	pop	r28
    249a:	bf 91       	pop	r27
    249c:	af 91       	pop	r26
    249e:	9f 91       	pop	r25
    24a0:	8f 91       	pop	r24
    24a2:	7f 91       	pop	r23
    24a4:	6f 91       	pop	r22
    24a6:	5f 91       	pop	r21
    24a8:	4f 91       	pop	r20
    24aa:	3f 91       	pop	r19
    24ac:	2f 91       	pop	r18
    24ae:	1f 91       	pop	r17
    24b0:	0f 91       	pop	r16
    24b2:	ff 90       	pop	r15
    24b4:	ef 90       	pop	r14
    24b6:	0f 90       	pop	r0
    24b8:	0f be       	out	0x3f, r0	; 63
    24ba:	0f 90       	pop	r0
    24bc:	1f 90       	pop	r1
    24be:	18 95       	reti

000024c0 <__vector_10>:

ISR(TIMER2_OVF_vect)
{
    24c0:	1f 92       	push	r1
    24c2:	0f 92       	push	r0
    24c4:	0f b6       	in	r0, 0x3f	; 63
    24c6:	0f 92       	push	r0
    24c8:	11 24       	eor	r1, r1
    24ca:	2f 93       	push	r18
    24cc:	3f 93       	push	r19
    24ce:	4f 93       	push	r20
    24d0:	5f 93       	push	r21
    24d2:	6f 93       	push	r22
    24d4:	7f 93       	push	r23
    24d6:	8f 93       	push	r24
    24d8:	9f 93       	push	r25
    24da:	af 93       	push	r26
    24dc:	bf 93       	push	r27
    24de:	ef 93       	push	r30
    24e0:	ff 93       	push	r31
	static uint8_t time_cnt = 0;
	int16_t temp_differ = 0;
	
	EN_INTERRUPT;
    24e2:	8f b7       	in	r24, 0x3f	; 63
    24e4:	80 68       	ori	r24, 0x80	; 128
    24e6:	8f bf       	out	0x3f, r24	; 63
	TCNT2 = 0xB2;
    24e8:	82 eb       	ldi	r24, 0xB2	; 178
    24ea:	84 bd       	out	0x24, r24	; 36
	
	temp_differ = (run_temp[curve_page_num] - set_temp[curve_page_num])+100;
    24ec:	80 91 df 02 	lds	r24, 0x02DF	; 0x8002df <curve_page_num>
    24f0:	88 0f       	add	r24, r24
    24f2:	99 0b       	sbc	r25, r25
    24f4:	fc 01       	movw	r30, r24
    24f6:	e2 55       	subi	r30, 0x52	; 82
    24f8:	fd 4f       	sbci	r31, 0xFD	; 253
    24fa:	60 81       	ld	r22, Z
    24fc:	71 81       	ldd	r23, Z+1	; 0x01
    24fe:	fc 01       	movw	r30, r24
    2500:	e2 50       	subi	r30, 0x02	; 2
    2502:	fe 4f       	sbci	r31, 0xFE	; 254
    2504:	20 81       	ld	r18, Z
    2506:	31 81       	ldd	r19, Z+1	; 0x01
	
	time_cnt++;
    2508:	80 91 ea 02 	lds	r24, 0x02EA	; 0x8002ea <time_cnt.1811>
    250c:	8f 5f       	subi	r24, 0xFF	; 255
    250e:	80 93 ea 02 	sts	0x02EA, r24	; 0x8002ea <time_cnt.1811>
	if(time_cnt >= timer2_ovf)
    2512:	90 91 13 03 	lds	r25, 0x0313	; 0x800313 <timer2_ovf>
    2516:	89 17       	cp	r24, r25
    2518:	48 f0       	brcs	.+18     	; 0x252c <__vector_10+0x6c>
	{
		time_cnt = 0;
    251a:	10 92 ea 02 	sts	0x02EA, r1	; 0x8002ea <time_cnt.1811>
		send_to_channel(CHANNEL0, temp_differ);
    251e:	62 1b       	sub	r22, r18
    2520:	73 0b       	sbc	r23, r19
    2522:	6c 59       	subi	r22, 0x9C	; 156
    2524:	7f 4f       	sbci	r23, 0xFF	; 255
    2526:	81 e0       	ldi	r24, 0x01	; 1
    2528:	0e 94 e0 07 	call	0xfc0	; 0xfc0 <send_to_channel>
	}
	
}
    252c:	ff 91       	pop	r31
    252e:	ef 91       	pop	r30
    2530:	bf 91       	pop	r27
    2532:	af 91       	pop	r26
    2534:	9f 91       	pop	r25
    2536:	8f 91       	pop	r24
    2538:	7f 91       	pop	r23
    253a:	6f 91       	pop	r22
    253c:	5f 91       	pop	r21
    253e:	4f 91       	pop	r20
    2540:	3f 91       	pop	r19
    2542:	2f 91       	pop	r18
    2544:	0f 90       	pop	r0
    2546:	0f be       	out	0x3f, r0	; 63
    2548:	0f 90       	pop	r0
    254a:	1f 90       	pop	r1
    254c:	18 95       	reti

0000254e <timer0_init>:

void timer0_init()
{
		TCCR0 &= 0xF8;		//关闭定时器0
    254e:	83 b7       	in	r24, 0x33	; 51
    2550:	88 7f       	andi	r24, 0xF8	; 248
    2552:	83 bf       	out	0x33, r24	; 51
		
		TCNT0 = 0xB2;		//定时5ms
    2554:	82 eb       	ldi	r24, 0xB2	; 178
    2556:	82 bf       	out	0x32, r24	; 50
		
		TIMSK &= 0xFC;
    2558:	87 b7       	in	r24, 0x37	; 55
    255a:	8c 7f       	andi	r24, 0xFC	; 252
    255c:	87 bf       	out	0x37, r24	; 55
		TIMSK |= 0x01;		//使能定时器0溢出中断
    255e:	87 b7       	in	r24, 0x37	; 55
    2560:	81 60       	ori	r24, 0x01	; 1
    2562:	87 bf       	out	0x37, r24	; 55
		
		TCCR0 |= 0x07;		//开启定时器0 正常模式TOP:0xFF, OC0不输出信号, clk/1024
    2564:	83 b7       	in	r24, 0x33	; 51
    2566:	87 60       	ori	r24, 0x07	; 7
    2568:	83 bf       	out	0x33, r24	; 51
    256a:	08 95       	ret

0000256c <timer1_init>:
}

void timer1_init()
{
	TCCR1B |= 0x08;			//WGM12位置1			
    256c:	8e b5       	in	r24, 0x2e	; 46
    256e:	88 60       	ori	r24, 0x08	; 8
    2570:	8e bd       	out	0x2e, r24	; 46
	TCCR1B &= 0xF8;			//关闭定时器（清除时钟选择位 CS10 CS11 CS12）
    2572:	8e b5       	in	r24, 0x2e	; 46
    2574:	88 7f       	andi	r24, 0xF8	; 248
    2576:	8e bd       	out	0x2e, r24	; 46
	
	OCR1AH = 0x09;			//定时10ms
    2578:	89 e0       	ldi	r24, 0x09	; 9
    257a:	8b bd       	out	0x2b, r24	; 43
	OCR1AL = 0xC4;
    257c:	84 ec       	ldi	r24, 0xC4	; 196
    257e:	8a bd       	out	0x2a, r24	; 42
	
	TIMSK |= 0x10;			//定时器1 A输出比较中断使能
    2580:	87 b7       	in	r24, 0x37	; 55
    2582:	80 61       	ori	r24, 0x10	; 16
    2584:	87 bf       	out	0x37, r24	; 55
	
	TCCR1B |= 0x03;			//开启定时器1 CTC模式 top:OCR1A, OC1A OC1B OC1C DISCONNECT,CLK/64
    2586:	8e b5       	in	r24, 0x2e	; 46
    2588:	83 60       	ori	r24, 0x03	; 3
    258a:	8e bd       	out	0x2e, r24	; 46
    258c:	08 95       	ret

0000258e <timer2_init>:
}

void timer2_init()
{
	TCCR2 &= 0xF8;			//关闭定时器
    258e:	85 b5       	in	r24, 0x25	; 37
    2590:	88 7f       	andi	r24, 0xF8	; 248
    2592:	85 bd       	out	0x25, r24	; 37
	
	TCNT2 = 0xB2;			//定时5ms
    2594:	82 eb       	ldi	r24, 0xB2	; 178
    2596:	84 bd       	out	0x24, r24	; 36
	
	TIMSK &= 0x3F;			
    2598:	87 b7       	in	r24, 0x37	; 55
    259a:	8f 73       	andi	r24, 0x3F	; 63
    259c:	87 bf       	out	0x37, r24	; 55
	TIMSK |= 0x40;			//使能定时器2溢出中断
    259e:	87 b7       	in	r24, 0x37	; 55
    25a0:	80 64       	ori	r24, 0x40	; 64
    25a2:	87 bf       	out	0x37, r24	; 55
	
	TCCR2 |= 0x05;			//开启定时器2 正常模式TOP:0xFF, OC0不输出信号, clk/1024
    25a4:	85 b5       	in	r24, 0x25	; 37
    25a6:	85 60       	ori	r24, 0x05	; 5
    25a8:	85 bd       	out	0x25, r24	; 37
	TCCR2 &= 0xF8;
    25aa:	85 b5       	in	r24, 0x25	; 37
    25ac:	88 7f       	andi	r24, 0xF8	; 248
    25ae:	85 bd       	out	0x25, r24	; 37
    25b0:	08 95       	ret

000025b2 <__vector_18>:
uint16_t t2_buff = 500;
uint16_t t3_buff = 500;
uint16_t t4_buff = 500;

ISR(USART0_RX_vect)
{
    25b2:	1f 92       	push	r1
    25b4:	0f 92       	push	r0
    25b6:	0f b6       	in	r0, 0x3f	; 63
    25b8:	0f 92       	push	r0
    25ba:	11 24       	eor	r1, r1
    25bc:	8f 93       	push	r24
    25be:	9f 93       	push	r25
    25c0:	ef 93       	push	r30
    25c2:	ff 93       	push	r31
	usart0_rx_buff[usart0_rx_cnt++] = UDR0;
    25c4:	e0 91 48 03 	lds	r30, 0x0348	; 0x800348 <usart0_rx_cnt>
    25c8:	81 e0       	ldi	r24, 0x01	; 1
    25ca:	8e 0f       	add	r24, r30
    25cc:	80 93 48 03 	sts	0x0348, r24	; 0x800348 <usart0_rx_cnt>
    25d0:	9c b1       	in	r25, 0x0c	; 12
    25d2:	f0 e0       	ldi	r31, 0x00	; 0
    25d4:	ed 5e       	subi	r30, 0xED	; 237
    25d6:	fb 4f       	sbci	r31, 0xFB	; 251
    25d8:	90 83       	st	Z, r25

	if(usart0_rx_cnt >= 200)
    25da:	88 3c       	cpi	r24, 0xC8	; 200
    25dc:	20 f0       	brcs	.+8      	; 0x25e6 <__vector_18+0x34>
	{
		usart0_rx_lenth = usart0_rx_cnt;
    25de:	80 93 49 03 	sts	0x0349, r24	; 0x800349 <usart0_rx_lenth>
		usart0_rx_cnt = 0;
    25e2:	10 92 48 03 	sts	0x0348, r1	; 0x800348 <usart0_rx_cnt>
	}
}
    25e6:	ff 91       	pop	r31
    25e8:	ef 91       	pop	r30
    25ea:	9f 91       	pop	r25
    25ec:	8f 91       	pop	r24
    25ee:	0f 90       	pop	r0
    25f0:	0f be       	out	0x3f, r0	; 63
    25f2:	0f 90       	pop	r0
    25f4:	1f 90       	pop	r1
    25f6:	18 95       	reti

000025f8 <__vector_30>:


ISR(USART1_RX_vect)
{
    25f8:	1f 92       	push	r1
    25fa:	0f 92       	push	r0
    25fc:	0f b6       	in	r0, 0x3f	; 63
    25fe:	0f 92       	push	r0
    2600:	11 24       	eor	r1, r1
    2602:	8f 93       	push	r24
    2604:	9f 93       	push	r25
    2606:	ef 93       	push	r30
    2608:	ff 93       	push	r31
	usart1_rx_buff[usart1_rx_cnt++] = UDR1;
    260a:	e0 91 db 04 	lds	r30, 0x04DB	; 0x8004db <usart1_rx_cnt>
    260e:	81 e0       	ldi	r24, 0x01	; 1
    2610:	8e 0f       	add	r24, r30
    2612:	80 93 db 04 	sts	0x04DB, r24	; 0x8004db <usart1_rx_cnt>
    2616:	90 91 9c 00 	lds	r25, 0x009C	; 0x80009c <__TEXT_REGION_LENGTH__+0x7e009c>
    261a:	f0 e0       	ldi	r31, 0x00	; 0
    261c:	ea 55       	subi	r30, 0x5A	; 90
    261e:	fa 4f       	sbci	r31, 0xFA	; 250
    2620:	90 83       	st	Z, r25
	
	if(usart1_rx_cnt >= 200)
    2622:	88 3c       	cpi	r24, 0xC8	; 200
    2624:	20 f0       	brcs	.+8      	; 0x262e <__vector_30+0x36>
	{
		usart1_rx_lenth = usart1_rx_cnt;
    2626:	80 93 dc 04 	sts	0x04DC, r24	; 0x8004dc <usart1_rx_lenth>
		usart1_rx_cnt = 0;
    262a:	10 92 db 04 	sts	0x04DB, r1	; 0x8004db <usart1_rx_cnt>
	}
}
    262e:	ff 91       	pop	r31
    2630:	ef 91       	pop	r30
    2632:	9f 91       	pop	r25
    2634:	8f 91       	pop	r24
    2636:	0f 90       	pop	r0
    2638:	0f be       	out	0x3f, r0	; 63
    263a:	0f 90       	pop	r0
    263c:	1f 90       	pop	r1
    263e:	18 95       	reti

00002640 <usart0_send_char>:
	return 0;
}

void usart0_send_char(uint8_t data)
{
	while(!( UCSR0A & (1<<UDRE0)));
    2640:	5d 9b       	sbis	0x0b, 5	; 11
    2642:	fe cf       	rjmp	.-4      	; 0x2640 <usart0_send_char>
	UDR0 = data;
    2644:	8c b9       	out	0x0c, r24	; 12
    2646:	08 95       	ret

00002648 <usart0_send_str>:
}

void usart0_send_str(uint8_t *str, uint8_t data_size)
{
    2648:	0f 93       	push	r16
    264a:	1f 93       	push	r17
    264c:	cf 93       	push	r28
    264e:	df 93       	push	r29
	uint8_t i = 0;
	
	for(i=0; i<data_size; i++)
    2650:	66 23       	and	r22, r22
    2652:	71 f0       	breq	.+28     	; 0x2670 <usart0_send_str+0x28>
    2654:	ec 01       	movw	r28, r24
    2656:	61 50       	subi	r22, 0x01	; 1
    2658:	06 2f       	mov	r16, r22
    265a:	10 e0       	ldi	r17, 0x00	; 0
    265c:	0f 5f       	subi	r16, 0xFF	; 255
    265e:	1f 4f       	sbci	r17, 0xFF	; 255
    2660:	08 0f       	add	r16, r24
    2662:	19 1f       	adc	r17, r25
	{
		usart0_send_char(*str++);
    2664:	89 91       	ld	r24, Y+
    2666:	0e 94 20 13 	call	0x2640	; 0x2640 <usart0_send_char>

void usart0_send_str(uint8_t *str, uint8_t data_size)
{
	uint8_t i = 0;
	
	for(i=0; i<data_size; i++)
    266a:	c0 17       	cp	r28, r16
    266c:	d1 07       	cpc	r29, r17
    266e:	d1 f7       	brne	.-12     	; 0x2664 <usart0_send_str+0x1c>
	{
		usart0_send_char(*str++);
	} 
}
    2670:	df 91       	pop	r29
    2672:	cf 91       	pop	r28
    2674:	1f 91       	pop	r17
    2676:	0f 91       	pop	r16
    2678:	08 95       	ret

0000267a <usart1_send_char>:

void usart1_send_char(uint8_t data)
{
	while(!( UCSR1A & (1<<UDRE1)));					//等待发送寄存器为空
    267a:	eb e9       	ldi	r30, 0x9B	; 155
    267c:	f0 e0       	ldi	r31, 0x00	; 0
    267e:	90 81       	ld	r25, Z
    2680:	95 ff       	sbrs	r25, 5
    2682:	fd cf       	rjmp	.-6      	; 0x267e <usart1_send_char+0x4>
	UDR1 = data;
    2684:	80 93 9c 00 	sts	0x009C, r24	; 0x80009c <__TEXT_REGION_LENGTH__+0x7e009c>
    2688:	08 95       	ret

0000268a <usart1_send_str>:
}

void usart1_send_str(uint8_t *str, uint8_t data_size)
{
    268a:	0f 93       	push	r16
    268c:	1f 93       	push	r17
    268e:	cf 93       	push	r28
    2690:	df 93       	push	r29
	uint8_t i = 0;
	
	for(i=0; i<data_size; i++)
    2692:	66 23       	and	r22, r22
    2694:	71 f0       	breq	.+28     	; 0x26b2 <usart1_send_str+0x28>
    2696:	ec 01       	movw	r28, r24
    2698:	61 50       	subi	r22, 0x01	; 1
    269a:	06 2f       	mov	r16, r22
    269c:	10 e0       	ldi	r17, 0x00	; 0
    269e:	0f 5f       	subi	r16, 0xFF	; 255
    26a0:	1f 4f       	sbci	r17, 0xFF	; 255
    26a2:	08 0f       	add	r16, r24
    26a4:	19 1f       	adc	r17, r25
	{
		usart1_send_char(*str++);
    26a6:	89 91       	ld	r24, Y+
    26a8:	0e 94 3d 13 	call	0x267a	; 0x267a <usart1_send_char>

void usart1_send_str(uint8_t *str, uint8_t data_size)
{
	uint8_t i = 0;
	
	for(i=0; i<data_size; i++)
    26ac:	c0 17       	cp	r28, r16
    26ae:	d1 07       	cpc	r29, r17
    26b0:	d1 f7       	brne	.-12     	; 0x26a6 <usart1_send_str+0x1c>
	{
		usart1_send_char(*str++);
	}
}
    26b2:	df 91       	pop	r29
    26b4:	cf 91       	pop	r28
    26b6:	1f 91       	pop	r17
    26b8:	0f 91       	pop	r16
    26ba:	08 95       	ret

000026bc <crc_check>:

uint16_t crc_check(uint8_t *p, uint8_t data_size)
{
    26bc:	dc 01       	movw	r26, r24
	uint16_t crc = 0xFFFF;
	uint8_t i, j;
	
	for (j=0;j<(data_size-5);j++)
    26be:	70 e0       	ldi	r23, 0x00	; 0
    26c0:	65 50       	subi	r22, 0x05	; 5
    26c2:	71 09       	sbc	r23, r1
    26c4:	16 16       	cp	r1, r22
    26c6:	17 06       	cpc	r1, r23
    26c8:	ec f4       	brge	.+58     	; 0x2704 <crc_check+0x48>
    26ca:	30 e0       	ldi	r19, 0x00	; 0
    26cc:	8f ef       	ldi	r24, 0xFF	; 255
    26ce:	9f ef       	ldi	r25, 0xFF	; 255
	{
		crc = crc ^ *(p+j+3);
    26d0:	fd 01       	movw	r30, r26
    26d2:	e3 0f       	add	r30, r19
    26d4:	f1 1d       	adc	r31, r1
    26d6:	23 81       	ldd	r18, Z+3	; 0x03
    26d8:	82 27       	eor	r24, r18
    26da:	28 e0       	ldi	r18, 0x08	; 8
		for ( i=0; i<8; i++)
		{
			if ((crc&0x0001)>0)
    26dc:	80 ff       	sbrs	r24, 0
    26de:	07 c0       	rjmp	.+14     	; 0x26ee <crc_check+0x32>
			{
				crc>>=1;
    26e0:	96 95       	lsr	r25
    26e2:	87 95       	ror	r24
				crc^=0xA001;
    26e4:	41 e0       	ldi	r20, 0x01	; 1
    26e6:	84 27       	eor	r24, r20
    26e8:	40 ea       	ldi	r20, 0xA0	; 160
    26ea:	94 27       	eor	r25, r20
    26ec:	02 c0       	rjmp	.+4      	; 0x26f2 <crc_check+0x36>
			}
			else
			crc>>=1;
    26ee:	96 95       	lsr	r25
    26f0:	87 95       	ror	r24
    26f2:	21 50       	subi	r18, 0x01	; 1
	uint8_t i, j;
	
	for (j=0;j<(data_size-5);j++)
	{
		crc = crc ^ *(p+j+3);
		for ( i=0; i<8; i++)
    26f4:	99 f7       	brne	.-26     	; 0x26dc <crc_check+0x20>
uint16_t crc_check(uint8_t *p, uint8_t data_size)
{
	uint16_t crc = 0xFFFF;
	uint8_t i, j;
	
	for (j=0;j<(data_size-5);j++)
    26f6:	3f 5f       	subi	r19, 0xFF	; 255
    26f8:	43 2f       	mov	r20, r19
    26fa:	50 e0       	ldi	r21, 0x00	; 0
    26fc:	46 17       	cp	r20, r22
    26fe:	57 07       	cpc	r21, r23
    2700:	3c f3       	brlt	.-50     	; 0x26d0 <crc_check+0x14>
    2702:	08 95       	ret
	}
}

uint16_t crc_check(uint8_t *p, uint8_t data_size)
{
	uint16_t crc = 0xFFFF;
    2704:	8f ef       	ldi	r24, 0xFF	; 255
    2706:	9f ef       	ldi	r25, 0xFF	; 255
			crc>>=1;
		}
	}
	
	return crc;
}
    2708:	08 95       	ret

0000270a <usart0_deal>:
		usart1_rx_cnt = 0;
	}
}

int usart0_deal(void)
{
    270a:	cf 93       	push	r28
    270c:	df 93       	push	r29
	variable_addr = (variable_addr<<8) | usart0_rx_buff[5];				//读取变量地址
	
	variable = usart0_rx_buff[usart0_rx_lenth-4];
	variable = (variable<<8) | usart0_rx_buff[usart0_rx_lenth - 3];		//读取变量值
	
	if((usart0_rx_buff[0]!=0xA5) || (usart0_rx_buff[1]!=0x5A))			//判断数据头是否正确
    270e:	80 91 13 04 	lds	r24, 0x0413	; 0x800413 <usart0_rx_buff>
    2712:	85 3a       	cpi	r24, 0xA5	; 165
    2714:	21 f4       	brne	.+8      	; 0x271e <usart0_deal+0x14>
    2716:	80 91 14 04 	lds	r24, 0x0414	; 0x800414 <usart0_rx_buff+0x1>
    271a:	8a 35       	cpi	r24, 0x5A	; 90
    271c:	19 f0       	breq	.+6      	; 0x2724 <usart0_deal+0x1a>
	{
		usart0_rx_end = 0;
    271e:	10 92 4a 03 	sts	0x034A, r1	; 0x80034a <usart0_rx_end>
		return 0;
    2722:	2c c1       	rjmp	.+600    	; 0x297c <usart0_deal+0x272>
	uint16_t crc_data = 0;
	
	uint16_t variable_addr = 0;
	uint16_t variable = 0;
	
	crc_data = usart0_rx_buff[usart0_rx_lenth-1];
    2724:	60 91 49 03 	lds	r22, 0x0349	; 0x800349 <usart0_rx_lenth>
    2728:	c6 2f       	mov	r28, r22
    272a:	d0 e0       	ldi	r29, 0x00	; 0
	{
		usart0_rx_end = 0;
		return 0;
	}
	
	if((usart0_rx_buff[2]+5)!=usart0_rx_lenth)							//判断数据长度是否正确
    272c:	80 91 15 04 	lds	r24, 0x0415	; 0x800415 <usart0_rx_buff+0x2>
    2730:	90 e0       	ldi	r25, 0x00	; 0
    2732:	05 96       	adiw	r24, 0x05	; 5
    2734:	c8 17       	cp	r28, r24
    2736:	d9 07       	cpc	r29, r25
    2738:	19 f0       	breq	.+6      	; 0x2740 <usart0_deal+0x36>
	{
		usart0_rx_end = 0;
    273a:	10 92 4a 03 	sts	0x034A, r1	; 0x80034a <usart0_rx_end>
		return 0;
    273e:	1e c1       	rjmp	.+572    	; 0x297c <usart0_deal+0x272>
	}
	
	if(crc_data != crc_check(usart0_rx_buff,usart0_rx_lenth))			//判断crc校验是否正确
    2740:	83 e1       	ldi	r24, 0x13	; 19
    2742:	94 e0       	ldi	r25, 0x04	; 4
    2744:	0e 94 5e 13 	call	0x26bc	; 0x26bc <crc_check>
	uint16_t crc_data = 0;
	
	uint16_t variable_addr = 0;
	uint16_t variable = 0;
	
	crc_data = usart0_rx_buff[usart0_rx_lenth-1];
    2748:	ae 01       	movw	r20, r28
    274a:	4d 5e       	subi	r20, 0xED	; 237
    274c:	5b 4f       	sbci	r21, 0xFB	; 251
    274e:	fa 01       	movw	r30, r20
    2750:	31 97       	sbiw	r30, 0x01	; 1
	crc_data = (crc_data<<8) + usart0_rx_buff[usart0_rx_lenth-2];		//读取接收数据后两个字节的校验值
    2752:	20 81       	ld	r18, Z
    2754:	30 e0       	ldi	r19, 0x00	; 0
    2756:	32 2f       	mov	r19, r18
    2758:	22 27       	eor	r18, r18
    275a:	31 97       	sbiw	r30, 0x01	; 1
	{
		usart0_rx_end = 0;
		return 0;
	}
	
	if(crc_data != crc_check(usart0_rx_buff,usart0_rx_lenth))			//判断crc校验是否正确
    275c:	40 81       	ld	r20, Z
    275e:	24 0f       	add	r18, r20
    2760:	31 1d       	adc	r19, r1
    2762:	28 17       	cp	r18, r24
    2764:	39 07       	cpc	r19, r25
    2766:	19 f0       	breq	.+6      	; 0x276e <usart0_deal+0x64>
	{
		usart0_rx_end = 0;
    2768:	10 92 4a 03 	sts	0x034A, r1	; 0x80034a <usart0_rx_end>
		return 0;
    276c:	07 c1       	rjmp	.+526    	; 0x297c <usart0_deal+0x272>
	}
	
	if(RX0_COMMAND == ACCESS_VARIABLE)
    276e:	80 91 16 04 	lds	r24, 0x0416	; 0x800416 <usart0_rx_buff+0x3>
    2772:	83 38       	cpi	r24, 0x83	; 131
    2774:	09 f0       	breq	.+2      	; 0x2778 <usart0_deal+0x6e>
    2776:	02 c1       	rjmp	.+516    	; 0x297c <usart0_deal+0x272>
	crc_data = (crc_data<<8) + usart0_rx_buff[usart0_rx_lenth-2];		//读取接收数据后两个字节的校验值
	
	variable_addr = usart0_rx_buff[4];
	variable_addr = (variable_addr<<8) | usart0_rx_buff[5];				//读取变量地址
	
	variable = usart0_rx_buff[usart0_rx_lenth-4];
    2778:	e3 e1       	ldi	r30, 0x13	; 19
    277a:	f4 e0       	ldi	r31, 0x04	; 4
    277c:	cd 5e       	subi	r28, 0xED	; 237
    277e:	db 4f       	sbci	r29, 0xFB	; 251
    2780:	de 01       	movw	r26, r28
    2782:	14 97       	sbiw	r26, 0x04	; 4
	variable = (variable<<8) | usart0_rx_buff[usart0_rx_lenth - 3];		//读取变量值
    2784:	8c 91       	ld	r24, X
    2786:	90 e0       	ldi	r25, 0x00	; 0
    2788:	98 2f       	mov	r25, r24
    278a:	88 27       	eor	r24, r24
    278c:	23 97       	sbiw	r28, 0x03	; 3
    278e:	28 81       	ld	r18, Y
    2790:	82 2b       	or	r24, r18
	
	crc_data = usart0_rx_buff[usart0_rx_lenth-1];
	crc_data = (crc_data<<8) + usart0_rx_buff[usart0_rx_lenth-2];		//读取接收数据后两个字节的校验值
	
	variable_addr = usart0_rx_buff[4];
	variable_addr = (variable_addr<<8) | usart0_rx_buff[5];				//读取变量地址
    2792:	24 81       	ldd	r18, Z+4	; 0x04
    2794:	30 e0       	ldi	r19, 0x00	; 0
    2796:	32 2f       	mov	r19, r18
    2798:	22 27       	eor	r18, r18
		return 0;
	}
	
	if(RX0_COMMAND == ACCESS_VARIABLE)
	{
		switch (variable_addr)
    279a:	45 81       	ldd	r20, Z+5	; 0x05
    279c:	24 2b       	or	r18, r20
    279e:	22 35       	cpi	r18, 0x52	; 82
    27a0:	41 e0       	ldi	r20, 0x01	; 1
    27a2:	34 07       	cpc	r19, r20
    27a4:	09 f4       	brne	.+2      	; 0x27a8 <usart0_deal+0x9e>
    27a6:	c1 c0       	rjmp	.+386    	; 0x292a <usart0_deal+0x220>
    27a8:	80 f5       	brcc	.+96     	; 0x280a <usart0_deal+0x100>
    27aa:	28 34       	cpi	r18, 0x48	; 72
    27ac:	41 e0       	ldi	r20, 0x01	; 1
    27ae:	34 07       	cpc	r19, r20
    27b0:	09 f4       	brne	.+2      	; 0x27b4 <usart0_deal+0xaa>
    27b2:	8e c0       	rjmp	.+284    	; 0x28d0 <usart0_deal+0x1c6>
    27b4:	a8 f4       	brcc	.+42     	; 0x27e0 <usart0_deal+0xd6>
    27b6:	22 34       	cpi	r18, 0x42	; 66
    27b8:	41 e0       	ldi	r20, 0x01	; 1
    27ba:	34 07       	cpc	r19, r20
    27bc:	09 f4       	brne	.+2      	; 0x27c0 <usart0_deal+0xb6>
    27be:	5f c0       	rjmp	.+190    	; 0x287e <usart0_deal+0x174>
    27c0:	28 f4       	brcc	.+10     	; 0x27cc <usart0_deal+0xc2>
    27c2:	20 34       	cpi	r18, 0x40	; 64
    27c4:	31 40       	sbci	r19, 0x01	; 1
    27c6:	09 f4       	brne	.+2      	; 0x27ca <usart0_deal+0xc0>
    27c8:	52 c0       	rjmp	.+164    	; 0x286e <usart0_deal+0x164>
    27ca:	d8 c0       	rjmp	.+432    	; 0x297c <usart0_deal+0x272>
    27cc:	24 34       	cpi	r18, 0x44	; 68
    27ce:	41 e0       	ldi	r20, 0x01	; 1
    27d0:	34 07       	cpc	r19, r20
    27d2:	09 f4       	brne	.+2      	; 0x27d6 <usart0_deal+0xcc>
    27d4:	66 c0       	rjmp	.+204    	; 0x28a2 <usart0_deal+0x198>
    27d6:	26 34       	cpi	r18, 0x46	; 70
    27d8:	31 40       	sbci	r19, 0x01	; 1
    27da:	09 f4       	brne	.+2      	; 0x27de <usart0_deal+0xd4>
    27dc:	6c c0       	rjmp	.+216    	; 0x28b6 <usart0_deal+0x1ac>
    27de:	ce c0       	rjmp	.+412    	; 0x297c <usart0_deal+0x272>
    27e0:	2c 34       	cpi	r18, 0x4C	; 76
    27e2:	41 e0       	ldi	r20, 0x01	; 1
    27e4:	34 07       	cpc	r19, r20
    27e6:	09 f4       	brne	.+2      	; 0x27ea <usart0_deal+0xe0>
    27e8:	7d c0       	rjmp	.+250    	; 0x28e4 <usart0_deal+0x1da>
    27ea:	28 f4       	brcc	.+10     	; 0x27f6 <usart0_deal+0xec>
    27ec:	2a 34       	cpi	r18, 0x4A	; 74
    27ee:	31 40       	sbci	r19, 0x01	; 1
    27f0:	09 f4       	brne	.+2      	; 0x27f4 <usart0_deal+0xea>
    27f2:	73 c0       	rjmp	.+230    	; 0x28da <usart0_deal+0x1d0>
    27f4:	c3 c0       	rjmp	.+390    	; 0x297c <usart0_deal+0x272>
    27f6:	2e 34       	cpi	r18, 0x4E	; 78
    27f8:	41 e0       	ldi	r20, 0x01	; 1
    27fa:	34 07       	cpc	r19, r20
    27fc:	09 f4       	brne	.+2      	; 0x2800 <usart0_deal+0xf6>
    27fe:	7f c0       	rjmp	.+254    	; 0x28fe <usart0_deal+0x1f4>
    2800:	20 35       	cpi	r18, 0x50	; 80
    2802:	31 40       	sbci	r19, 0x01	; 1
    2804:	09 f4       	brne	.+2      	; 0x2808 <usart0_deal+0xfe>
    2806:	8e c0       	rjmp	.+284    	; 0x2924 <usart0_deal+0x21a>
    2808:	b9 c0       	rjmp	.+370    	; 0x297c <usart0_deal+0x272>
    280a:	22 36       	cpi	r18, 0x62	; 98
    280c:	41 e0       	ldi	r20, 0x01	; 1
    280e:	34 07       	cpc	r19, r20
    2810:	09 f4       	brne	.+2      	; 0x2814 <usart0_deal+0x10a>
    2812:	a6 c0       	rjmp	.+332    	; 0x2960 <usart0_deal+0x256>
    2814:	a8 f4       	brcc	.+42     	; 0x2840 <usart0_deal+0x136>
    2816:	26 35       	cpi	r18, 0x56	; 86
    2818:	41 e0       	ldi	r20, 0x01	; 1
    281a:	34 07       	cpc	r19, r20
    281c:	09 f4       	brne	.+2      	; 0x2820 <usart0_deal+0x116>
    281e:	8f c0       	rjmp	.+286    	; 0x293e <usart0_deal+0x234>
    2820:	28 f4       	brcc	.+10     	; 0x282c <usart0_deal+0x122>
    2822:	24 35       	cpi	r18, 0x54	; 84
    2824:	31 40       	sbci	r19, 0x01	; 1
    2826:	09 f4       	brne	.+2      	; 0x282a <usart0_deal+0x120>
    2828:	85 c0       	rjmp	.+266    	; 0x2934 <usart0_deal+0x22a>
    282a:	a8 c0       	rjmp	.+336    	; 0x297c <usart0_deal+0x272>
    282c:	28 35       	cpi	r18, 0x58	; 88
    282e:	41 e0       	ldi	r20, 0x01	; 1
    2830:	34 07       	cpc	r19, r20
    2832:	09 f4       	brne	.+2      	; 0x2836 <usart0_deal+0x12c>
    2834:	4a c0       	rjmp	.+148    	; 0x28ca <usart0_deal+0x1c0>
    2836:	20 36       	cpi	r18, 0x60	; 96
    2838:	31 40       	sbci	r19, 0x01	; 1
    283a:	09 f4       	brne	.+2      	; 0x283e <usart0_deal+0x134>
    283c:	8c c0       	rjmp	.+280    	; 0x2956 <usart0_deal+0x24c>
    283e:	9e c0       	rjmp	.+316    	; 0x297c <usart0_deal+0x272>
    2840:	26 36       	cpi	r18, 0x66	; 102
    2842:	41 e0       	ldi	r20, 0x01	; 1
    2844:	34 07       	cpc	r19, r20
    2846:	09 f4       	brne	.+2      	; 0x284a <usart0_deal+0x140>
    2848:	95 c0       	rjmp	.+298    	; 0x2974 <usart0_deal+0x26a>
    284a:	28 f4       	brcc	.+10     	; 0x2856 <usart0_deal+0x14c>
    284c:	24 36       	cpi	r18, 0x64	; 100
    284e:	31 40       	sbci	r19, 0x01	; 1
    2850:	09 f4       	brne	.+2      	; 0x2854 <usart0_deal+0x14a>
    2852:	8b c0       	rjmp	.+278    	; 0x296a <usart0_deal+0x260>
    2854:	93 c0       	rjmp	.+294    	; 0x297c <usart0_deal+0x272>
    2856:	28 36       	cpi	r18, 0x68	; 104
    2858:	41 e0       	ldi	r20, 0x01	; 1
    285a:	34 07       	cpc	r19, r20
    285c:	09 f4       	brne	.+2      	; 0x2860 <usart0_deal+0x156>
    285e:	74 c0       	rjmp	.+232    	; 0x2948 <usart0_deal+0x23e>
    2860:	2f 3f       	cpi	r18, 0xFF	; 255
    2862:	31 40       	sbci	r19, 0x01	; 1
    2864:	09 f0       	breq	.+2      	; 0x2868 <usart0_deal+0x15e>
    2866:	8a c0       	rjmp	.+276    	; 0x297c <usart0_deal+0x272>
		{
			case KEY_ADDR:					key_action(variable);					break;					//如果变量地址为按键变量地址  执行按键动作
    2868:	0e 94 17 0b 	call	0x162e	; 0x162e <key_action>
    286c:	87 c0       	rjmp	.+270    	; 0x297c <usart0_deal+0x272>
			case MASTER_SWITCH:				ctrl_command = SWITCH_SENSOR;									//定时器中断中处理
    286e:	96 e0       	ldi	r25, 0x06	; 6
    2870:	90 93 18 02 	sts	0x0218, r25	; 0x800218 <ctrl_command>
											global = ALL;
    2874:	10 92 6f 06 	sts	0x066F, r1	; 0x80066f <global>
											all_senser_sta = variable;
    2878:	80 93 6e 06 	sts	0x066E, r24	; 0x80066e <all_senser_sta>
																					break;
    287c:	7f c0       	rjmp	.+254    	; 0x297c <usart0_deal+0x272>
			case SINGLE_SET_SENSOR_TYPE:	sensor_type_buff[set_num] = variable;
    287e:	e0 91 e1 02 	lds	r30, 0x02E1	; 0x8002e1 <set_num>
    2882:	f0 e0       	ldi	r31, 0x00	; 0
    2884:	ee 0f       	add	r30, r30
    2886:	ff 1f       	adc	r31, r31
    2888:	ec 5e       	subi	r30, 0xEC	; 236
    288a:	fc 4f       	sbci	r31, 0xFC	; 252
    288c:	91 83       	std	Z+1, r25	; 0x01
    288e:	80 83       	st	Z, r24
											send_variables(SINGLE_SENSORTYPE_ADDR, 
    2890:	86 5b       	subi	r24, 0xB6	; 182
    2892:	9f 4f       	sbci	r25, 0xFF	; 255
    2894:	60 e0       	ldi	r22, 0x00	; 0
    2896:	78 2f       	mov	r23, r24
    2898:	80 e9       	ldi	r24, 0x90	; 144
    289a:	92 e0       	ldi	r25, 0x02	; 2
    289c:	0e 94 a7 03 	call	0x74e	; 0x74e <send_variables>
														   TYPE_J + (sensor_type_buff[set_num]*TYPE_K));
																					break;
    28a0:	6d c0       	rjmp	.+218    	; 0x297c <usart0_deal+0x272>
			case SINGLE_SET_SWITCH:			switch_sensor_buff[set_num] = variable;	break;
    28a2:	e0 91 e1 02 	lds	r30, 0x02E1	; 0x8002e1 <set_num>
    28a6:	f0 e0       	ldi	r31, 0x00	; 0
    28a8:	ee 0f       	add	r30, r30
    28aa:	ff 1f       	adc	r31, r31
    28ac:	e4 5d       	subi	r30, 0xD4	; 212
    28ae:	fc 4f       	sbci	r31, 0xFC	; 252
    28b0:	91 83       	std	Z+1, r25	; 0x01
    28b2:	80 83       	st	Z, r24
    28b4:	63 c0       	rjmp	.+198    	; 0x297c <usart0_deal+0x272>
			case SINGLE_SET_TEMP:			set_temp_buff[set_num] = variable;		break;
    28b6:	e0 91 e1 02 	lds	r30, 0x02E1	; 0x8002e1 <set_num>
    28ba:	f0 e0       	ldi	r31, 0x00	; 0
    28bc:	ee 0f       	add	r30, r30
    28be:	ff 1f       	adc	r31, r31
    28c0:	e9 5d       	subi	r30, 0xD9	; 217
    28c2:	fd 4f       	sbci	r31, 0xFD	; 253
    28c4:	91 83       	std	Z+1, r25	; 0x01
    28c6:	80 83       	st	Z, r24
    28c8:	59 c0       	rjmp	.+178    	; 0x297c <usart0_deal+0x272>
			case SINGLE_SET_NAME:			get_set_name();							break;
    28ca:	0e 94 c4 02 	call	0x588	; 0x588 <get_set_name>
    28ce:	56 c0       	rjmp	.+172    	; 0x297c <usart0_deal+0x272>
			case ALL_SET_TEMP:				all_temp_buff = variable; 				break;
    28d0:	90 93 42 02 	sts	0x0242, r25	; 0x800242 <all_temp_buff+0x1>
    28d4:	80 93 41 02 	sts	0x0241, r24	; 0x800241 <all_temp_buff>
    28d8:	51 c0       	rjmp	.+162    	; 0x297c <usart0_deal+0x272>
			case SET_PREHEAT_TIME:			preheat_time_buff = variable;			break;
    28da:	90 93 40 02 	sts	0x0240, r25	; 0x800240 <preheat_time_buff+0x1>
    28de:	80 93 3f 02 	sts	0x023F, r24	; 0x80023f <preheat_time_buff>
    28e2:	4c c0       	rjmp	.+152    	; 0x297c <usart0_deal+0x272>
			case ALL_SET_SENSOR_TYPE:		all_sensor_type_buff = variable; 
    28e4:	90 93 47 03 	sts	0x0347, r25	; 0x800347 <all_sensor_type_buff+0x1>
    28e8:	80 93 46 03 	sts	0x0346, r24	; 0x800346 <all_sensor_type_buff>
											send_variables(ALL_SENSOR_TYPE_ADDR, 
    28ec:	86 5b       	subi	r24, 0xB6	; 182
    28ee:	9f 4f       	sbci	r25, 0xFF	; 255
    28f0:	60 e0       	ldi	r22, 0x00	; 0
    28f2:	78 2f       	mov	r23, r24
    28f4:	84 e9       	ldi	r24, 0x94	; 148
    28f6:	92 e0       	ldi	r25, 0x02	; 2
    28f8:	0e 94 a7 03 	call	0x74e	; 0x74e <send_variables>
														   TYPE_J+(all_sensor_type_buff*TYPE_K));
																			 		break;
    28fc:	3f c0       	rjmp	.+126    	; 0x297c <usart0_deal+0x272>
			case SET_TEMP_UNIT:				temp_unit_buff = variable;
    28fe:	90 93 45 03 	sts	0x0345, r25	; 0x800345 <temp_unit_buff+0x1>
    2902:	80 93 44 03 	sts	0x0344, r24	; 0x800344 <temp_unit_buff>
											send_variables(TEMP_UINT_ADDR, 
    2906:	20 e0       	ldi	r18, 0x00	; 0
    2908:	33 e0       	ldi	r19, 0x03	; 3
    290a:	82 9f       	mul	r24, r18
    290c:	b0 01       	movw	r22, r0
    290e:	83 9f       	mul	r24, r19
    2910:	70 0d       	add	r23, r0
    2912:	92 9f       	mul	r25, r18
    2914:	70 0d       	add	r23, r0
    2916:	11 24       	eor	r1, r1
    2918:	7d 5b       	subi	r23, 0xBD	; 189
    291a:	8c e3       	ldi	r24, 0x3C	; 60
    291c:	92 e0       	ldi	r25, 0x02	; 2
    291e:	0e 94 a7 03 	call	0x74e	; 0x74e <send_variables>
														  (CELSIUS+temp_unit_buff*FAHRENHEIT));				
																					break;
    2922:	2c c0       	rjmp	.+88     	; 0x297c <usart0_deal+0x272>
			case PID_CHANNEL:				update_pid_page(variable);				break;
    2924:	0e 94 18 05 	call	0xa30	; 0xa30 <update_pid_page>
    2928:	29 c0       	rjmp	.+82     	; 0x297c <usart0_deal+0x272>
			case PID_P:						p_value_buff = variable;				break;
    292a:	90 93 26 02 	sts	0x0226, r25	; 0x800226 <p_value_buff+0x1>
    292e:	80 93 25 02 	sts	0x0225, r24	; 0x800225 <p_value_buff>
    2932:	24 c0       	rjmp	.+72     	; 0x297c <usart0_deal+0x272>
			case PID_I:						i_value_buff = variable;				break;
    2934:	90 93 24 02 	sts	0x0224, r25	; 0x800224 <i_value_buff+0x1>
    2938:	80 93 23 02 	sts	0x0223, r24	; 0x800223 <i_value_buff>
    293c:	1f c0       	rjmp	.+62     	; 0x297c <usart0_deal+0x272>
			case PID_D:						d_value_buff = variable;				break;
    293e:	90 93 22 02 	sts	0x0222, r25	; 0x800222 <d_value_buff+0x1>
    2942:	80 93 21 02 	sts	0x0221, r24	; 0x800221 <d_value_buff>
    2946:	1a c0       	rjmp	.+52     	; 0x297c <usart0_deal+0x272>
			case TIME_CTRL_IQR:				pre_iqr = variable;	
    2948:	90 93 e9 02 	sts	0x02E9, r25	; 0x8002e9 <pre_iqr+0x1>
    294c:	80 93 e8 02 	sts	0x02E8, r24	; 0x8002e8 <pre_iqr>
											update_time_ctrl_page();				break;
    2950:	0e 94 83 0a 	call	0x1506	; 0x1506 <update_time_ctrl_page>
    2954:	13 c0       	rjmp	.+38     	; 0x297c <usart0_deal+0x272>
			case TIME_CTRL_T1:				t1_buff = variable;						break;
    2956:	90 93 20 02 	sts	0x0220, r25	; 0x800220 <t1_buff+0x1>
    295a:	80 93 1f 02 	sts	0x021F, r24	; 0x80021f <t1_buff>
    295e:	0e c0       	rjmp	.+28     	; 0x297c <usart0_deal+0x272>
			case TIME_CTRL_T2:				t2_buff = variable;						break;
    2960:	90 93 1e 02 	sts	0x021E, r25	; 0x80021e <t2_buff+0x1>
    2964:	80 93 1d 02 	sts	0x021D, r24	; 0x80021d <t2_buff>
    2968:	09 c0       	rjmp	.+18     	; 0x297c <usart0_deal+0x272>
			case TIME_CTRL_T3:				t3_buff = variable;						break;
    296a:	90 93 1c 02 	sts	0x021C, r25	; 0x80021c <t3_buff+0x1>
    296e:	80 93 1b 02 	sts	0x021B, r24	; 0x80021b <t3_buff>
    2972:	04 c0       	rjmp	.+8      	; 0x297c <usart0_deal+0x272>
			case TIME_CTRL_T4:				t4_buff = variable;						break;
    2974:	90 93 1a 02 	sts	0x021A, r25	; 0x80021a <t4_buff+0x1>
    2978:	80 93 19 02 	sts	0x0219, r24	; 0x800219 <t4_buff>
			default: break;
		}
	}
	return 0;	
}
    297c:	80 e0       	ldi	r24, 0x00	; 0
    297e:	90 e0       	ldi	r25, 0x00	; 0
    2980:	df 91       	pop	r29
    2982:	cf 91       	pop	r28
    2984:	08 95       	ret

00002986 <usart1_deal>:

int usart1_deal(void)
{
    2986:	cf 93       	push	r28
    2988:	df 93       	push	r29
	uint16_t crc_data = 0;
	
	crc_data = usart1_rx_buff[usart1_rx_lenth-1];
	crc_data = (crc_data<<8) + usart1_rx_buff[usart1_rx_lenth-2];
	
	if((usart1_rx_buff[0]!=0xA5) || (usart1_rx_buff[1]!=0x5A))
    298a:	80 91 a6 05 	lds	r24, 0x05A6	; 0x8005a6 <usart1_rx_buff>
    298e:	85 3a       	cpi	r24, 0xA5	; 165
    2990:	21 f4       	brne	.+8      	; 0x299a <usart1_deal+0x14>
    2992:	80 91 a7 05 	lds	r24, 0x05A7	; 0x8005a7 <usart1_rx_buff+0x1>
    2996:	8a 35       	cpi	r24, 0x5A	; 90
    2998:	19 f0       	breq	.+6      	; 0x29a0 <usart1_deal+0x1a>
	{
		usart1_rx_end = 0;
    299a:	10 92 dd 04 	sts	0x04DD, r1	; 0x8004dd <usart1_rx_end>
		return 0;
    299e:	2a c0       	rjmp	.+84     	; 0x29f4 <usart1_deal+0x6e>

int usart1_deal(void)
{
	uint16_t crc_data = 0;
	
	crc_data = usart1_rx_buff[usart1_rx_lenth-1];
    29a0:	60 91 dc 04 	lds	r22, 0x04DC	; 0x8004dc <usart1_rx_lenth>
    29a4:	c6 2f       	mov	r28, r22
    29a6:	d0 e0       	ldi	r29, 0x00	; 0
	{
		usart1_rx_end = 0;
		return 0;
	}
	
	if((usart1_rx_buff[2]+5) != usart1_rx_lenth)
    29a8:	80 91 a8 05 	lds	r24, 0x05A8	; 0x8005a8 <usart1_rx_buff+0x2>
    29ac:	90 e0       	ldi	r25, 0x00	; 0
    29ae:	05 96       	adiw	r24, 0x05	; 5
    29b0:	c8 17       	cp	r28, r24
    29b2:	d9 07       	cpc	r29, r25
    29b4:	19 f0       	breq	.+6      	; 0x29bc <usart1_deal+0x36>
	{
		usart1_rx_end = 0;
    29b6:	10 92 dd 04 	sts	0x04DD, r1	; 0x8004dd <usart1_rx_end>
		return 0;
    29ba:	1c c0       	rjmp	.+56     	; 0x29f4 <usart1_deal+0x6e>
	}
	
	if(crc_data != crc_check(usart1_rx_buff, usart1_rx_lenth))
    29bc:	86 ea       	ldi	r24, 0xA6	; 166
    29be:	95 e0       	ldi	r25, 0x05	; 5
    29c0:	0e 94 5e 13 	call	0x26bc	; 0x26bc <crc_check>

int usart1_deal(void)
{
	uint16_t crc_data = 0;
	
	crc_data = usart1_rx_buff[usart1_rx_lenth-1];
    29c4:	ca 55       	subi	r28, 0x5A	; 90
    29c6:	da 4f       	sbci	r29, 0xFA	; 250
    29c8:	fe 01       	movw	r30, r28
    29ca:	31 97       	sbiw	r30, 0x01	; 1
	crc_data = (crc_data<<8) + usart1_rx_buff[usart1_rx_lenth-2];
    29cc:	20 81       	ld	r18, Z
    29ce:	30 e0       	ldi	r19, 0x00	; 0
    29d0:	32 2f       	mov	r19, r18
    29d2:	22 27       	eor	r18, r18
    29d4:	22 97       	sbiw	r28, 0x02	; 2
	{
		usart1_rx_end = 0;
		return 0;
	}
	
	if(crc_data != crc_check(usart1_rx_buff, usart1_rx_lenth))
    29d6:	48 81       	ld	r20, Y
    29d8:	24 0f       	add	r18, r20
    29da:	31 1d       	adc	r19, r1
    29dc:	28 17       	cp	r18, r24
    29de:	39 07       	cpc	r19, r25
    29e0:	19 f0       	breq	.+6      	; 0x29e8 <usart1_deal+0x62>
	{
		usart1_rx_end = 0;
    29e2:	10 92 dd 04 	sts	0x04DD, r1	; 0x8004dd <usart1_rx_end>
		return 0;
    29e6:	06 c0       	rjmp	.+12     	; 0x29f4 <usart1_deal+0x6e>
	}
	
	if(RX1_COMMAND == READ_DATA_ALL)
    29e8:	80 91 a9 05 	lds	r24, 0x05A9	; 0x8005a9 <usart1_rx_buff+0x3>
    29ec:	81 30       	cpi	r24, 0x01	; 1
    29ee:	11 f4       	brne	.+4      	; 0x29f4 <usart1_deal+0x6e>
	{ 
		get_data_all();
    29f0:	0e 94 6b 08 	call	0x10d6	; 0x10d6 <get_data_all>
	}
	
	return 0;
}
    29f4:	80 e0       	ldi	r24, 0x00	; 0
    29f6:	90 e0       	ldi	r25, 0x00	; 0
    29f8:	df 91       	pop	r29
    29fa:	cf 91       	pop	r28
    29fc:	08 95       	ret

000029fe <usart0_init>:
	return crc;
}

void usart0_init(uint16_t ubrr0)					//屏幕通讯使用
{
	USART0_TX_PIN_OUTPUT;
    29fe:	11 9a       	sbi	0x02, 1	; 2
	USART0_RX_PIN_INPUT;							//配置引脚方向
    2a00:	10 98       	cbi	0x02, 0	; 2
	
	UBRR0H = (uint8_t)(ubrr0>>8);
    2a02:	90 93 90 00 	sts	0x0090, r25	; 0x800090 <__TEXT_REGION_LENGTH__+0x7e0090>
	UBRR0L = (uint8_t)ubrr0;
    2a06:	89 b9       	out	0x09, r24	; 9
	
//	UBRR0H = 0;
//	UBRR0L = 103;									//波特率9600，晶振16M
	UCSR0C |= (1<<UCSZ01)|(1<<UCSZ00);				// Set frame format: 8data, 1stop bit 无校验,异步正常模式
    2a08:	e5 e9       	ldi	r30, 0x95	; 149
    2a0a:	f0 e0       	ldi	r31, 0x00	; 0
    2a0c:	80 81       	ld	r24, Z
    2a0e:	86 60       	ori	r24, 0x06	; 6
    2a10:	80 83       	st	Z, r24
	UCSR0B |= (1<<RXEN0)|(1<<TXEN0)|(1<<RXCIE0); 	//使能发送、接收；使能接收中断
    2a12:	8a b1       	in	r24, 0x0a	; 10
    2a14:	88 69       	ori	r24, 0x98	; 152
    2a16:	8a b9       	out	0x0a, r24	; 10
    2a18:	08 95       	ret

00002a1a <usart1_init>:
}

void usart1_init(uint16_t ubrr1)					//设备通讯使用
{
	USART1_TX_PIN_OUTPUT;
    2a1a:	8b 9a       	sbi	0x11, 3	; 17
	USART1_RX_PIN_INPUT;							//配置引脚方向
    2a1c:	8a 98       	cbi	0x11, 2	; 17
	
	UBRR1H = (uint8_t)(ubrr1>>8);
    2a1e:	90 93 98 00 	sts	0x0098, r25	; 0x800098 <__TEXT_REGION_LENGTH__+0x7e0098>
	UBRR1L = (uint8_t)ubrr1;
    2a22:	80 93 99 00 	sts	0x0099, r24	; 0x800099 <__TEXT_REGION_LENGTH__+0x7e0099>
	
//	UBRR1H = 0;
//	UBRR1L = 103;						//波特率9600，晶振16M
	UCSR1C = (1<<UCSZ11)|(1<<UCSZ10);	// Set frame format: 8data, 1stop bit 无校验
    2a26:	86 e0       	ldi	r24, 0x06	; 6
    2a28:	80 93 9d 00 	sts	0x009D, r24	; 0x80009d <__TEXT_REGION_LENGTH__+0x7e009d>
	UCSR1B = (1<<RXEN1)|(1<<TXEN1)|(1<<RXCIE1);		//使能接收,发送
    2a2c:	88 e9       	ldi	r24, 0x98	; 152
    2a2e:	80 93 9a 00 	sts	0x009A, r24	; 0x80009a <__TEXT_REGION_LENGTH__+0x7e009a>
    2a32:	08 95       	ret

00002a34 <__divmodhi4>:
    2a34:	97 fb       	bst	r25, 7
    2a36:	07 2e       	mov	r0, r23
    2a38:	16 f4       	brtc	.+4      	; 0x2a3e <__divmodhi4+0xa>
    2a3a:	00 94       	com	r0
    2a3c:	07 d0       	rcall	.+14     	; 0x2a4c <__divmodhi4_neg1>
    2a3e:	77 fd       	sbrc	r23, 7
    2a40:	09 d0       	rcall	.+18     	; 0x2a54 <__divmodhi4_neg2>
    2a42:	0e 94 43 15 	call	0x2a86	; 0x2a86 <__udivmodhi4>
    2a46:	07 fc       	sbrc	r0, 7
    2a48:	05 d0       	rcall	.+10     	; 0x2a54 <__divmodhi4_neg2>
    2a4a:	3e f4       	brtc	.+14     	; 0x2a5a <__divmodhi4_exit>

00002a4c <__divmodhi4_neg1>:
    2a4c:	90 95       	com	r25
    2a4e:	81 95       	neg	r24
    2a50:	9f 4f       	sbci	r25, 0xFF	; 255
    2a52:	08 95       	ret

00002a54 <__divmodhi4_neg2>:
    2a54:	70 95       	com	r23
    2a56:	61 95       	neg	r22
    2a58:	7f 4f       	sbci	r23, 0xFF	; 255

00002a5a <__divmodhi4_exit>:
    2a5a:	08 95       	ret

00002a5c <__tablejump2__>:
    2a5c:	ee 0f       	add	r30, r30
    2a5e:	ff 1f       	adc	r31, r31
    2a60:	05 90       	lpm	r0, Z+
    2a62:	f4 91       	lpm	r31, Z
    2a64:	e0 2d       	mov	r30, r0
    2a66:	09 94       	ijmp

00002a68 <__umulhisi3>:
    2a68:	a2 9f       	mul	r26, r18
    2a6a:	b0 01       	movw	r22, r0
    2a6c:	b3 9f       	mul	r27, r19
    2a6e:	c0 01       	movw	r24, r0
    2a70:	a3 9f       	mul	r26, r19
    2a72:	70 0d       	add	r23, r0
    2a74:	81 1d       	adc	r24, r1
    2a76:	11 24       	eor	r1, r1
    2a78:	91 1d       	adc	r25, r1
    2a7a:	b2 9f       	mul	r27, r18
    2a7c:	70 0d       	add	r23, r0
    2a7e:	81 1d       	adc	r24, r1
    2a80:	11 24       	eor	r1, r1
    2a82:	91 1d       	adc	r25, r1
    2a84:	08 95       	ret

00002a86 <__udivmodhi4>:
    2a86:	aa 1b       	sub	r26, r26
    2a88:	bb 1b       	sub	r27, r27
    2a8a:	51 e1       	ldi	r21, 0x11	; 17
    2a8c:	07 c0       	rjmp	.+14     	; 0x2a9c <__udivmodhi4_ep>

00002a8e <__udivmodhi4_loop>:
    2a8e:	aa 1f       	adc	r26, r26
    2a90:	bb 1f       	adc	r27, r27
    2a92:	a6 17       	cp	r26, r22
    2a94:	b7 07       	cpc	r27, r23
    2a96:	10 f0       	brcs	.+4      	; 0x2a9c <__udivmodhi4_ep>
    2a98:	a6 1b       	sub	r26, r22
    2a9a:	b7 0b       	sbc	r27, r23

00002a9c <__udivmodhi4_ep>:
    2a9c:	88 1f       	adc	r24, r24
    2a9e:	99 1f       	adc	r25, r25
    2aa0:	5a 95       	dec	r21
    2aa2:	a9 f7       	brne	.-22     	; 0x2a8e <__udivmodhi4_loop>
    2aa4:	80 95       	com	r24
    2aa6:	90 95       	com	r25
    2aa8:	bc 01       	movw	r22, r24
    2aaa:	cd 01       	movw	r24, r26
    2aac:	08 95       	ret

00002aae <_exit>:
    2aae:	f8 94       	cli

00002ab0 <__stop_program>:
    2ab0:	ff cf       	rjmp	.-2      	; 0x2ab0 <__stop_program>
