
TempCtrlBoxCoreBoard.elf:     file format elf32-avr

Sections:
Idx Name          Size      VMA       LMA       File off  Algn
  0 .data         00000096  00800100  00002e56  00002eea  2**0
                  CONTENTS, ALLOC, LOAD, DATA
  1 .text         00002e56  00000000  00000000  00000094  2**1
                  CONTENTS, ALLOC, LOAD, READONLY, CODE
  2 .bss          00000968  00800196  00800196  00002f80  2**0
                  ALLOC
  3 .comment      00000030  00000000  00000000  00002f80  2**0
                  CONTENTS, READONLY
  4 .note.gnu.avr.deviceinfo 0000003c  00000000  00000000  00002fb0  2**2
                  CONTENTS, READONLY
  5 .debug_aranges 00000350  00000000  00000000  00002ff0  2**3
                  CONTENTS, READONLY, DEBUGGING
  6 .debug_info   000037ed  00000000  00000000  00003340  2**0
                  CONTENTS, READONLY, DEBUGGING
  7 .debug_abbrev 00000f4c  00000000  00000000  00006b2d  2**0
                  CONTENTS, READONLY, DEBUGGING
  8 .debug_line   00002680  00000000  00000000  00007a79  2**0
                  CONTENTS, READONLY, DEBUGGING
  9 .debug_frame  00000980  00000000  00000000  0000a0fc  2**2
                  CONTENTS, READONLY, DEBUGGING
 10 .debug_str    00000de0  00000000  00000000  0000aa7c  2**0
                  CONTENTS, READONLY, DEBUGGING
 11 .debug_loc    000027f9  00000000  00000000  0000b85c  2**0
                  CONTENTS, READONLY, DEBUGGING
 12 .debug_ranges 00000240  00000000  00000000  0000e055  2**0
                  CONTENTS, READONLY, DEBUGGING

Disassembly of section .text:

00000000 <__vectors>:
       0:	0c 94 31 01 	jmp	0x262	; 0x262 <__ctors_end>
       4:	0c 94 4e 01 	jmp	0x29c	; 0x29c <__bad_interrupt>
       8:	0c 94 4e 01 	jmp	0x29c	; 0x29c <__bad_interrupt>
       c:	0c 94 4e 01 	jmp	0x29c	; 0x29c <__bad_interrupt>
      10:	0c 94 4e 01 	jmp	0x29c	; 0x29c <__bad_interrupt>
      14:	0c 94 4e 01 	jmp	0x29c	; 0x29c <__bad_interrupt>
      18:	0c 94 4e 01 	jmp	0x29c	; 0x29c <__bad_interrupt>
      1c:	0c 94 4e 01 	jmp	0x29c	; 0x29c <__bad_interrupt>
      20:	0c 94 4e 01 	jmp	0x29c	; 0x29c <__bad_interrupt>
      24:	0c 94 4e 01 	jmp	0x29c	; 0x29c <__bad_interrupt>
      28:	0c 94 3c 12 	jmp	0x2478	; 0x2478 <__vector_10>
      2c:	0c 94 4e 01 	jmp	0x29c	; 0x29c <__bad_interrupt>
      30:	0c 94 32 12 	jmp	0x2464	; 0x2464 <__vector_12>
      34:	0c 94 4e 01 	jmp	0x29c	; 0x29c <__bad_interrupt>
      38:	0c 94 4e 01 	jmp	0x29c	; 0x29c <__bad_interrupt>
      3c:	0c 94 4e 01 	jmp	0x29c	; 0x29c <__bad_interrupt>
      40:	0c 94 25 11 	jmp	0x224a	; 0x224a <__vector_16>
      44:	0c 94 4e 01 	jmp	0x29c	; 0x29c <__bad_interrupt>
      48:	0c 94 2a 13 	jmp	0x2654	; 0x2654 <__vector_18>
      4c:	0c 94 4e 01 	jmp	0x29c	; 0x29c <__bad_interrupt>
      50:	0c 94 4e 01 	jmp	0x29c	; 0x29c <__bad_interrupt>
      54:	0c 94 4e 01 	jmp	0x29c	; 0x29c <__bad_interrupt>
      58:	0c 94 4e 01 	jmp	0x29c	; 0x29c <__bad_interrupt>
      5c:	0c 94 4e 01 	jmp	0x29c	; 0x29c <__bad_interrupt>
      60:	0c 94 4e 01 	jmp	0x29c	; 0x29c <__bad_interrupt>
      64:	0c 94 4e 01 	jmp	0x29c	; 0x29c <__bad_interrupt>
      68:	0c 94 a1 12 	jmp	0x2542	; 0x2542 <__vector_26>
      6c:	0c 94 4e 01 	jmp	0x29c	; 0x29c <__bad_interrupt>
      70:	0c 94 4e 01 	jmp	0x29c	; 0x29c <__bad_interrupt>
      74:	0c 94 4e 01 	jmp	0x29c	; 0x29c <__bad_interrupt>
      78:	0c 94 4d 13 	jmp	0x269a	; 0x269a <__vector_30>
      7c:	0c 94 4e 01 	jmp	0x29c	; 0x29c <__bad_interrupt>
      80:	0c 94 4e 01 	jmp	0x29c	; 0x29c <__bad_interrupt>
      84:	0c 94 4e 01 	jmp	0x29c	; 0x29c <__bad_interrupt>
      88:	0c 94 4e 01 	jmp	0x29c	; 0x29c <__bad_interrupt>
      8c:	da 0d       	add	r29, r10
      8e:	e3 0d       	add	r30, r3
      90:	e5 0d       	add	r30, r5
      92:	f2 0d       	add	r31, r2
      94:	00 0e       	add	r0, r16
      96:	0b 0e       	add	r0, r27
      98:	17 0e       	add	r1, r23
      9a:	23 0e       	add	r2, r19
      9c:	2f 0e       	add	r2, r31
      9e:	3b 0e       	add	r3, r27
      a0:	47 0e       	add	r4, r23
      a2:	4a 0e       	add	r4, r26
      a4:	4d 0e       	add	r4, r29
      a6:	75 0e       	add	r7, r21
      a8:	7d 0e       	add	r7, r29
      aa:	85 0e       	add	r8, r21
      ac:	8d 0e       	add	r8, r29
      ae:	95 0e       	add	r9, r21
      b0:	98 0e       	add	r9, r24
      b2:	a7 0e       	add	r10, r23
      b4:	b6 0e       	add	r11, r22
      b6:	b9 0e       	add	r11, r25
      b8:	50 0e       	add	r5, r16
      ba:	bc 0e       	add	r11, r28
      bc:	c2 0e       	add	r12, r18
      be:	c5 0e       	add	r12, r21
      c0:	cb 0e       	add	r12, r27
      c2:	ce 0e       	add	r12, r30
      c4:	d4 0e       	add	r13, r20
      c6:	d9 0e       	add	r13, r25
      c8:	de 0e       	add	r13, r30
      ca:	e1 0e       	add	r14, r17
      cc:	e9 0e       	add	r14, r25
      ce:	f1 0e       	add	r15, r17
      d0:	f7 0e       	add	r15, r23
      d2:	fd 0e       	add	r15, r29
      d4:	03 0f       	add	r16, r19
      d6:	09 0f       	add	r16, r25
      d8:	0f 0f       	add	r16, r31
      da:	15 0f       	add	r17, r21
      dc:	1b 0f       	add	r17, r27
      de:	56 0e       	add	r5, r22
      e0:	65 0e       	add	r6, r21
      e2:	85 14       	cp	r8, r5
      e4:	50 16       	cp	r5, r16
      e6:	8f 14       	cp	r8, r15
      e8:	50 16       	cp	r5, r16
      ea:	a1 14       	cp	r10, r1
      ec:	50 16       	cp	r5, r16
      ee:	ab 14       	cp	r10, r11
      f0:	50 16       	cp	r5, r16
      f2:	b8 14       	cp	r11, r8
      f4:	50 16       	cp	r5, r16
      f6:	bd 14       	cp	r11, r13
      f8:	50 16       	cp	r5, r16
      fa:	c2 14       	cp	r12, r2
      fc:	50 16       	cp	r5, r16
      fe:	cf 14       	cp	r12, r15
     100:	50 16       	cp	r5, r16
     102:	50 16       	cp	r5, r16
     104:	50 16       	cp	r5, r16
     106:	e2 14       	cp	r14, r2
     108:	50 16       	cp	r5, r16
     10a:	e7 14       	cp	r14, r7
     10c:	50 16       	cp	r5, r16
     10e:	ec 14       	cp	r14, r12
     110:	50 16       	cp	r5, r16
     112:	b5 14       	cp	r11, r5
     114:	50 16       	cp	r5, r16
     116:	50 16       	cp	r5, r16
     118:	50 16       	cp	r5, r16
     11a:	50 16       	cp	r5, r16
     11c:	50 16       	cp	r5, r16
     11e:	50 16       	cp	r5, r16
     120:	50 16       	cp	r5, r16
     122:	50 16       	cp	r5, r16
     124:	50 16       	cp	r5, r16
     126:	f1 14       	cp	r15, r1
     128:	50 16       	cp	r5, r16
     12a:	fc 14       	cp	r15, r12
     12c:	50 16       	cp	r5, r16
     12e:	07 15       	cp	r16, r7
     130:	50 16       	cp	r5, r16
     132:	12 15       	cp	r17, r2
     134:	50 16       	cp	r5, r16
     136:	1d 15       	cp	r17, r13
     138:	50 16       	cp	r5, r16
     13a:	28 15       	cp	r18, r8
     13c:	50 16       	cp	r5, r16
     13e:	33 15       	cp	r19, r3
     140:	50 16       	cp	r5, r16
     142:	3e 15       	cp	r19, r14
     144:	50 16       	cp	r5, r16
     146:	49 15       	cp	r20, r9
     148:	50 16       	cp	r5, r16
     14a:	54 15       	cp	r21, r4
     14c:	50 16       	cp	r5, r16
     14e:	5f 15       	cp	r21, r15
     150:	50 16       	cp	r5, r16
     152:	6a 15       	cp	r22, r10
     154:	50 16       	cp	r5, r16
     156:	75 15       	cp	r23, r5
     158:	50 16       	cp	r5, r16
     15a:	80 15       	cp	r24, r0
     15c:	50 16       	cp	r5, r16
     15e:	8b 15       	cp	r24, r11
     160:	50 16       	cp	r5, r16
     162:	96 15       	cp	r25, r6
     164:	50 16       	cp	r5, r16
     166:	a1 15       	cp	r26, r1
     168:	50 16       	cp	r5, r16
     16a:	ac 15       	cp	r26, r12
     16c:	50 16       	cp	r5, r16
     16e:	b7 15       	cp	r27, r7
     170:	50 16       	cp	r5, r16
     172:	c2 15       	cp	r28, r2
     174:	50 16       	cp	r5, r16
     176:	cd 15       	cp	r28, r13
     178:	50 16       	cp	r5, r16
     17a:	d8 15       	cp	r29, r8
     17c:	50 16       	cp	r5, r16
     17e:	e3 15       	cp	r30, r3
     180:	50 16       	cp	r5, r16
     182:	ee 15       	cp	r30, r14
     184:	50 16       	cp	r5, r16
     186:	f9 15       	cp	r31, r9
     188:	50 16       	cp	r5, r16
     18a:	04 16       	cp	r0, r20
     18c:	50 16       	cp	r5, r16
     18e:	0f 16       	cp	r0, r31
     190:	50 16       	cp	r5, r16
     192:	1a 16       	cp	r1, r26
     194:	50 16       	cp	r5, r16
     196:	25 16       	cp	r2, r21
     198:	50 16       	cp	r5, r16
     19a:	30 16       	cp	r3, r16
     19c:	50 16       	cp	r5, r16
     19e:	3b 16       	cp	r3, r27
     1a0:	50 16       	cp	r5, r16
     1a2:	46 16       	cp	r4, r22
     1a4:	50 16       	cp	r5, r16
     1a6:	88 14       	cp	r8, r8
     1a8:	50 16       	cp	r5, r16
     1aa:	50 16       	cp	r5, r16
     1ac:	50 16       	cp	r5, r16
     1ae:	50 16       	cp	r5, r16
     1b0:	50 16       	cp	r5, r16
     1b2:	50 16       	cp	r5, r16
     1b4:	50 16       	cp	r5, r16
     1b6:	50 16       	cp	r5, r16
     1b8:	50 16       	cp	r5, r16
     1ba:	50 16       	cp	r5, r16
     1bc:	50 16       	cp	r5, r16
     1be:	50 16       	cp	r5, r16
     1c0:	50 16       	cp	r5, r16
     1c2:	50 16       	cp	r5, r16
     1c4:	50 16       	cp	r5, r16
     1c6:	50 16       	cp	r5, r16
     1c8:	50 16       	cp	r5, r16
     1ca:	50 16       	cp	r5, r16
     1cc:	50 16       	cp	r5, r16
     1ce:	50 16       	cp	r5, r16
     1d0:	50 16       	cp	r5, r16
     1d2:	50 16       	cp	r5, r16
     1d4:	50 16       	cp	r5, r16
     1d6:	50 16       	cp	r5, r16
     1d8:	50 16       	cp	r5, r16
     1da:	50 16       	cp	r5, r16
     1dc:	50 16       	cp	r5, r16
     1de:	50 16       	cp	r5, r16
     1e0:	50 16       	cp	r5, r16
     1e2:	50 16       	cp	r5, r16
     1e4:	50 16       	cp	r5, r16
     1e6:	50 16       	cp	r5, r16
     1e8:	50 16       	cp	r5, r16
     1ea:	50 16       	cp	r5, r16
     1ec:	50 16       	cp	r5, r16
     1ee:	50 16       	cp	r5, r16
     1f0:	50 16       	cp	r5, r16
     1f2:	50 16       	cp	r5, r16
     1f4:	50 16       	cp	r5, r16
     1f6:	50 16       	cp	r5, r16
     1f8:	50 16       	cp	r5, r16
     1fa:	50 16       	cp	r5, r16
     1fc:	50 16       	cp	r5, r16
     1fe:	50 16       	cp	r5, r16
     200:	50 16       	cp	r5, r16
     202:	50 16       	cp	r5, r16
     204:	50 16       	cp	r5, r16
     206:	50 16       	cp	r5, r16
     208:	50 16       	cp	r5, r16
     20a:	50 16       	cp	r5, r16
     20c:	50 16       	cp	r5, r16
     20e:	50 16       	cp	r5, r16
     210:	50 16       	cp	r5, r16
     212:	50 16       	cp	r5, r16
     214:	50 16       	cp	r5, r16
     216:	50 16       	cp	r5, r16
     218:	50 16       	cp	r5, r16
     21a:	50 16       	cp	r5, r16
     21c:	50 16       	cp	r5, r16
     21e:	50 16       	cp	r5, r16
     220:	50 16       	cp	r5, r16
     222:	50 16       	cp	r5, r16
     224:	50 16       	cp	r5, r16
     226:	50 16       	cp	r5, r16
     228:	50 16       	cp	r5, r16
     22a:	50 16       	cp	r5, r16
     22c:	50 16       	cp	r5, r16
     22e:	50 16       	cp	r5, r16
     230:	50 16       	cp	r5, r16
     232:	50 16       	cp	r5, r16
     234:	50 16       	cp	r5, r16
     236:	50 16       	cp	r5, r16
     238:	50 16       	cp	r5, r16
     23a:	50 16       	cp	r5, r16
     23c:	50 16       	cp	r5, r16
     23e:	50 16       	cp	r5, r16
     240:	50 16       	cp	r5, r16
     242:	50 16       	cp	r5, r16
     244:	50 16       	cp	r5, r16
     246:	50 16       	cp	r5, r16
     248:	50 16       	cp	r5, r16
     24a:	50 16       	cp	r5, r16
     24c:	50 16       	cp	r5, r16
     24e:	50 16       	cp	r5, r16
     250:	50 16       	cp	r5, r16
     252:	50 16       	cp	r5, r16
     254:	50 16       	cp	r5, r16
     256:	50 16       	cp	r5, r16
     258:	50 16       	cp	r5, r16
     25a:	50 16       	cp	r5, r16
     25c:	50 16       	cp	r5, r16
     25e:	50 16       	cp	r5, r16
     260:	82 14       	cp	r8, r2

00000262 <__ctors_end>:
     262:	11 24       	eor	r1, r1
     264:	1f be       	out	0x3f, r1	; 63
     266:	cf ef       	ldi	r28, 0xFF	; 255
     268:	d0 e1       	ldi	r29, 0x10	; 16
     26a:	de bf       	out	0x3e, r29	; 62
     26c:	cd bf       	out	0x3d, r28	; 61

0000026e <__do_copy_data>:
     26e:	11 e0       	ldi	r17, 0x01	; 1
     270:	a0 e0       	ldi	r26, 0x00	; 0
     272:	b1 e0       	ldi	r27, 0x01	; 1
     274:	e6 e5       	ldi	r30, 0x56	; 86
     276:	fe e2       	ldi	r31, 0x2E	; 46
     278:	02 c0       	rjmp	.+4      	; 0x27e <__do_copy_data+0x10>
     27a:	05 90       	lpm	r0, Z+
     27c:	0d 92       	st	X+, r0
     27e:	a6 39       	cpi	r26, 0x96	; 150
     280:	b1 07       	cpc	r27, r17
     282:	d9 f7       	brne	.-10     	; 0x27a <__do_copy_data+0xc>

00000284 <__do_clear_bss>:
     284:	2a e0       	ldi	r18, 0x0A	; 10
     286:	a6 e9       	ldi	r26, 0x96	; 150
     288:	b1 e0       	ldi	r27, 0x01	; 1
     28a:	01 c0       	rjmp	.+2      	; 0x28e <.do_clear_bss_start>

0000028c <.do_clear_bss_loop>:
     28c:	1d 92       	st	X+, r1

0000028e <.do_clear_bss_start>:
     28e:	ae 3f       	cpi	r26, 0xFE	; 254
     290:	b2 07       	cpc	r27, r18
     292:	e1 f7       	brne	.-8      	; 0x28c <.do_clear_bss_loop>
     294:	0e 94 b4 10 	call	0x2168	; 0x2168 <main>
     298:	0c 94 29 17 	jmp	0x2e52	; 0x2e52 <_exit>

0000029c <__bad_interrupt>:
     29c:	0c 94 00 00 	jmp	0	; 0x0 <__vectors>

000002a0 <_delay_1us>:
		_delay_1us();
	}
}

void _delay_1us()
{
     2a0:	8f e0       	ldi	r24, 0x0F	; 15

	ticks = F_CPU / 1000000UL;

	while (--ticks)
	{
		_nop();
     2a2:	00 00       	nop
     2a4:	81 50       	subi	r24, 0x01	; 1
{
	uint8_t ticks;

	ticks = F_CPU / 1000000UL;

	while (--ticks)
     2a6:	e9 f7       	brne	.-6      	; 0x2a2 <_delay_1us+0x2>
	{
		_nop();
	}
     2a8:	08 95       	ret

000002aa <_delay_ms>:
*/

#include "delay.h"

void _delay_ms(uint32_t nms)
{
     2aa:	cf 92       	push	r12
     2ac:	df 92       	push	r13
     2ae:	ef 92       	push	r14
     2b0:	ff 92       	push	r15
     2b2:	9b 01       	movw	r18, r22
     2b4:	ac 01       	movw	r20, r24
	uint32_t us_ticks;
	us_ticks = nms * 1000;
     2b6:	a8 ee       	ldi	r26, 0xE8	; 232
     2b8:	b3 e0       	ldi	r27, 0x03	; 3
     2ba:	0e 94 da 16 	call	0x2db4	; 0x2db4 <__muluhisi3>

	while (--us_ticks)
     2be:	6b 01       	movw	r12, r22
     2c0:	7c 01       	movw	r14, r24
     2c2:	21 e0       	ldi	r18, 0x01	; 1
     2c4:	c2 1a       	sub	r12, r18
     2c6:	d1 08       	sbc	r13, r1
     2c8:	e1 08       	sbc	r14, r1
     2ca:	f1 08       	sbc	r15, r1
	{
		_delay_1us();
     2cc:	0e 94 50 01 	call	0x2a0	; 0x2a0 <_delay_1us>
void _delay_ms(uint32_t nms)
{
	uint32_t us_ticks;
	us_ticks = nms * 1000;

	while (--us_ticks)
     2d0:	81 e0       	ldi	r24, 0x01	; 1
     2d2:	c8 1a       	sub	r12, r24
     2d4:	d1 08       	sbc	r13, r1
     2d6:	e1 08       	sbc	r14, r1
     2d8:	f1 08       	sbc	r15, r1
     2da:	c1 f7       	brne	.-16     	; 0x2cc <_delay_ms+0x22>
	{
		_delay_1us();
	}
}
     2dc:	ff 90       	pop	r15
     2de:	ef 90       	pop	r14
     2e0:	df 90       	pop	r13
     2e2:	cf 90       	pop	r12
     2e4:	08 95       	ret

000002e6 <init_variable>:
	{0xBC, 0xD3, 0xC8, 0xC8, 0xC6, 0xF7, 0xB6, 0xCF, 0xBF, 0xAA}, //加热器断开
	{0xBC, 0xD3, 0xC8, 0xC8, 0xC6, 0xF7, 0xB6, 0xCC, 0xC2, 0xB7}, //加热器短路
};

void init_variable(void)
{
     2e6:	2f 92       	push	r2
     2e8:	3f 92       	push	r3
     2ea:	4f 92       	push	r4
     2ec:	5f 92       	push	r5
     2ee:	6f 92       	push	r6
     2f0:	7f 92       	push	r7
     2f2:	8f 92       	push	r8
     2f4:	9f 92       	push	r9
     2f6:	af 92       	push	r10
     2f8:	bf 92       	push	r11
     2fa:	cf 92       	push	r12
     2fc:	df 92       	push	r13
     2fe:	ef 92       	push	r14
     300:	ff 92       	push	r15
     302:	0f 93       	push	r16
     304:	1f 93       	push	r17
     306:	cf 93       	push	r28
     308:	df 93       	push	r29
     30a:	00 d0       	rcall	.+0      	; 0x30c <init_variable+0x26>
     30c:	00 d0       	rcall	.+0      	; 0x30e <init_variable+0x28>
     30e:	cd b7       	in	r28, 0x3d	; 61
     310:	de b7       	in	r29, 0x3e	; 62
     312:	41 e2       	ldi	r20, 0x21	; 33
     314:	57 e0       	ldi	r21, 0x07	; 7
     316:	6e ef       	ldi	r22, 0xFE	; 254
     318:	79 e0       	ldi	r23, 0x09	; 9
	{
		for (j = 0; j < 8; j++)
		{
			for (k = 0; k < 4; k++)
			{
				time_ctrl_value[i][j][k] = 500; //射胶控制时间所有数据初始化为
     31a:	84 ef       	ldi	r24, 0xF4	; 244
     31c:	91 e0       	ldi	r25, 0x01	; 1
     31e:	24 c0       	rjmp	.+72     	; 0x368 <init_variable+0x82>
     320:	91 83       	std	Z+1, r25	; 0x01
     322:	80 83       	st	Z, r24
				time_ctrl_value_buff[i][j][k] = 500;
     324:	11 96       	adiw	r26, 0x01	; 1
     326:	9c 93       	st	X, r25
     328:	8e 93       	st	-X, r24
	{
		for (j = 0; j < 8; j++)
		{
			for (k = 0; k < 4; k++)
			{
				time_ctrl_value[i][j][k] = 500; //射胶控制时间所有数据初始化为
     32a:	93 83       	std	Z+3, r25	; 0x03
     32c:	82 83       	std	Z+2, r24	; 0x02
				time_ctrl_value_buff[i][j][k] = 500;
     32e:	13 96       	adiw	r26, 0x03	; 3
     330:	9c 93       	st	X, r25
     332:	8e 93       	st	-X, r24
     334:	12 97       	sbiw	r26, 0x02	; 2
	{
		for (j = 0; j < 8; j++)
		{
			for (k = 0; k < 4; k++)
			{
				time_ctrl_value[i][j][k] = 500; //射胶控制时间所有数据初始化为
     336:	95 83       	std	Z+5, r25	; 0x05
     338:	84 83       	std	Z+4, r24	; 0x04
				time_ctrl_value_buff[i][j][k] = 500;
     33a:	15 96       	adiw	r26, 0x05	; 5
     33c:	9c 93       	st	X, r25
     33e:	8e 93       	st	-X, r24
     340:	14 97       	sbiw	r26, 0x04	; 4
	{
		for (j = 0; j < 8; j++)
		{
			for (k = 0; k < 4; k++)
			{
				time_ctrl_value[i][j][k] = 500; //射胶控制时间所有数据初始化为
     342:	97 83       	std	Z+7, r25	; 0x07
     344:	86 83       	std	Z+6, r24	; 0x06
				time_ctrl_value_buff[i][j][k] = 500;
     346:	17 96       	adiw	r26, 0x07	; 7
     348:	9c 93       	st	X, r25
     34a:	8e 93       	st	-X, r24
     34c:	16 97       	sbiw	r26, 0x06	; 6
     34e:	21 50       	subi	r18, 0x01	; 1
     350:	38 96       	adiw	r30, 0x08	; 8
     352:	18 96       	adiw	r26, 0x08	; 8
	uint8_t i, j, k;
	uint8_t name1=0, name2=0, name3=0;

	for (i = 0; i < 4; i++)
	{
		for (j = 0; j < 8; j++)
     354:	21 11       	cpse	r18, r1
     356:	e4 cf       	rjmp	.-56     	; 0x320 <init_variable+0x3a>
     358:	40 5c       	subi	r20, 0xC0	; 192
     35a:	5f 4f       	sbci	r21, 0xFF	; 255
     35c:	60 5c       	subi	r22, 0xC0	; 192
     35e:	7f 4f       	sbci	r23, 0xFF	; 255
void init_variable(void)
{
	uint8_t i, j, k;
	uint8_t name1=0, name2=0, name3=0;

	for (i = 0; i < 4; i++)
     360:	28 e0       	ldi	r18, 0x08	; 8
     362:	41 32       	cpi	r20, 0x21	; 33
     364:	52 07       	cpc	r21, r18
     366:	21 f0       	breq	.+8      	; 0x370 <init_variable+0x8a>
	{0xBC, 0xD3, 0xC8, 0xC8, 0xC6, 0xF7, 0xB6, 0xCF, 0xBF, 0xAA}, //加热器断开
	{0xBC, 0xD3, 0xC8, 0xC8, 0xC6, 0xF7, 0xB6, 0xCC, 0xC2, 0xB7}, //加热器短路
};

void init_variable(void)
{
     368:	db 01       	movw	r26, r22
     36a:	fa 01       	movw	r30, r20
     36c:	28 e0       	ldi	r18, 0x08	; 8
     36e:	d8 cf       	rjmp	.-80     	; 0x320 <init_variable+0x3a>
     370:	0f 2e       	mov	r0, r31
     372:	fd e9       	ldi	r31, 0x9D	; 157
     374:	8f 2e       	mov	r8, r31
     376:	f9 e0       	ldi	r31, 0x09	; 9
     378:	9f 2e       	mov	r9, r31
     37a:	f0 2d       	mov	r31, r0
     37c:	0f 2e       	mov	r0, r31
     37e:	fd ec       	ldi	r31, 0xCD	; 205
     380:	af 2e       	mov	r10, r31
     382:	f9 e0       	ldi	r31, 0x09	; 9
     384:	bf 2e       	mov	r11, r31
     386:	f0 2d       	mov	r31, r0
     388:	0f 2e       	mov	r0, r31
     38a:	f1 e5       	ldi	r31, 0x51	; 81
     38c:	cf 2e       	mov	r12, r31
     38e:	f8 e0       	ldi	r31, 0x08	; 8
     390:	df 2e       	mov	r13, r31
     392:	f0 2d       	mov	r31, r0
     394:	0f 2e       	mov	r0, r31
     396:	f1 e8       	ldi	r31, 0x81	; 129
     398:	ef 2e       	mov	r14, r31
     39a:	f8 e0       	ldi	r31, 0x08	; 8
     39c:	ff 2e       	mov	r15, r31
     39e:	f0 2d       	mov	r31, r0
     3a0:	01 e2       	ldi	r16, 0x21	; 33
     3a2:	18 e0       	ldi	r17, 0x08	; 8
     3a4:	ed e3       	ldi	r30, 0x3D	; 61
     3a6:	f9 e0       	ldi	r31, 0x09	; 9
     3a8:	fa 83       	std	Y+2, r31	; 0x02
     3aa:	e9 83       	std	Y+1, r30	; 0x01
	uint8_t i, j, k;
	uint8_t name1=0, name2=0, name3=0;

	for (i = 0; i < 4; i++)
     3ac:	3f 01       	movw	r6, r30
     3ae:	e1 e0       	ldi	r30, 0x01	; 1
     3b0:	f0 e0       	ldi	r31, 0x00	; 0
     3b2:	fc 83       	std	Y+4, r31	; 0x04
     3b4:	eb 83       	std	Y+3, r30	; 0x03
     3b6:	51 2c       	mov	r5, r1
     3b8:	50 e0       	ldi	r21, 0x00	; 0
     3ba:	60 e0       	ldi	r22, 0x00	; 0
     3bc:	40 e0       	ldi	r20, 0x00	; 0
		}
	}

	for (i = 0; i < MAX_IQR_QUANTITY; i++)
	{
		set_temp[i] = 100;
     3be:	24 e6       	ldi	r18, 0x64	; 100
     3c0:	30 e0       	ldi	r19, 0x00	; 0
			name1 = 0;
		}
		else if (i >= 99 && i < 199)
		{
			name3 = (i + 1) / 100 + 0x30;
			name2 = (i + 1) / 10 + 0x30;
     3c2:	0f 2e       	mov	r0, r31
     3c4:	fa e0       	ldi	r31, 0x0A	; 10
     3c6:	2f 2e       	mov	r2, r31
     3c8:	31 2c       	mov	r3, r1
     3ca:	f0 2d       	mov	r31, r0
		}
		else if (i >= 9 && i < 99)
		{
			name3 = (i + 1) / 10 + 0x30;
			name2 = (i + 1) % 10 + 0x30;
			name1 = 0;
     3cc:	41 2c       	mov	r4, r1
		}
	}

	for (i = 0; i < MAX_IQR_QUANTITY; i++)
	{
		set_temp[i] = 100;
     3ce:	d4 01       	movw	r26, r8
     3d0:	2d 93       	st	X+, r18
     3d2:	3d 93       	st	X+, r19
     3d4:	4d 01       	movw	r8, r26
		set_temp_buff[i] = 100;
     3d6:	f5 01       	movw	r30, r10
     3d8:	21 93       	st	Z+, r18
     3da:	31 93       	st	Z+, r19
     3dc:	5f 01       	movw	r10, r30
		p_value[i] = 100;
     3de:	d6 01       	movw	r26, r12
     3e0:	2d 93       	st	X+, r18
     3e2:	3d 93       	st	X+, r19
     3e4:	6d 01       	movw	r12, r26
		i_value[i] = 100;
     3e6:	f7 01       	movw	r30, r14
     3e8:	21 93       	st	Z+, r18
     3ea:	31 93       	st	Z+, r19
     3ec:	7f 01       	movw	r14, r30
		d_value[i] = 100;
     3ee:	d8 01       	movw	r26, r16
     3f0:	2d 93       	st	X+, r18
     3f2:	3d 93       	st	X+, r19
     3f4:	8d 01       	movw	r16, r26

		if (i < 9)
     3f6:	49 30       	cpi	r20, 0x09	; 9
     3f8:	68 f4       	brcc	.+26     	; 0x414 <__LOCK_REGION_LENGTH__+0x14>
		{
			name3 = (i + 1) % 10 + 0x30;
     3fa:	8b 81       	ldd	r24, Y+3	; 0x03
     3fc:	9c 81       	ldd	r25, Y+4	; 0x04
     3fe:	b1 01       	movw	r22, r2
     400:	0e 94 8f 16 	call	0x2d1e	; 0x2d1e <__divmodhi4>
     404:	0f 2e       	mov	r0, r31
     406:	f0 e3       	ldi	r31, 0x30	; 48
     408:	5f 2e       	mov	r5, r31
     40a:	f0 2d       	mov	r31, r0
     40c:	58 0e       	add	r5, r24
			name2 = 0;
     40e:	54 2d       	mov	r21, r4
			name1 = 0;
     410:	64 2d       	mov	r22, r4
     412:	29 c0       	rjmp	.+82     	; 0x466 <__LOCK_REGION_LENGTH__+0x66>
		}
		else if (i >= 9 && i < 99)
     414:	87 ef       	ldi	r24, 0xF7	; 247
     416:	84 0f       	add	r24, r20
     418:	8a 35       	cpi	r24, 0x5A	; 90
     41a:	70 f4       	brcc	.+28     	; 0x438 <__LOCK_REGION_LENGTH__+0x38>
		{
			name3 = (i + 1) / 10 + 0x30;
     41c:	8b 81       	ldd	r24, Y+3	; 0x03
     41e:	9c 81       	ldd	r25, Y+4	; 0x04
     420:	b1 01       	movw	r22, r2
     422:	0e 94 8f 16 	call	0x2d1e	; 0x2d1e <__divmodhi4>
     426:	0f 2e       	mov	r0, r31
     428:	f0 e3       	ldi	r31, 0x30	; 48
     42a:	5f 2e       	mov	r5, r31
     42c:	f0 2d       	mov	r31, r0
     42e:	56 0e       	add	r5, r22
			name2 = (i + 1) % 10 + 0x30;
     430:	50 e3       	ldi	r21, 0x30	; 48
     432:	58 0f       	add	r21, r24
			name1 = 0;
     434:	64 2d       	mov	r22, r4
     436:	17 c0       	rjmp	.+46     	; 0x466 <__LOCK_REGION_LENGTH__+0x66>
		}
		else if (i >= 99 && i < 199)
     438:	8d e9       	ldi	r24, 0x9D	; 157
     43a:	84 0f       	add	r24, r20
     43c:	84 36       	cpi	r24, 0x64	; 100
     43e:	98 f4       	brcc	.+38     	; 0x466 <__LOCK_REGION_LENGTH__+0x66>
		{
			name3 = (i + 1) / 100 + 0x30;
     440:	8b 81       	ldd	r24, Y+3	; 0x03
     442:	9c 81       	ldd	r25, Y+4	; 0x04
     444:	b9 01       	movw	r22, r18
     446:	0e 94 8f 16 	call	0x2d1e	; 0x2d1e <__divmodhi4>
     44a:	0f 2e       	mov	r0, r31
     44c:	f0 e3       	ldi	r31, 0x30	; 48
     44e:	5f 2e       	mov	r5, r31
     450:	f0 2d       	mov	r31, r0
     452:	56 0e       	add	r5, r22
			name2 = (i + 1) / 10 + 0x30;
     454:	8b 81       	ldd	r24, Y+3	; 0x03
     456:	9c 81       	ldd	r25, Y+4	; 0x04
     458:	b1 01       	movw	r22, r2
     45a:	0e 94 8f 16 	call	0x2d1e	; 0x2d1e <__divmodhi4>
     45e:	50 e3       	ldi	r21, 0x30	; 48
     460:	56 0f       	add	r21, r22
			name1 = (i + 1) % 10 + 0x30;
     462:	60 e3       	ldi	r22, 0x30	; 48
     464:	68 0f       	add	r22, r24
		}
		set_name[i] |= 0x23;		//固定前面显示#
     466:	f3 01       	movw	r30, r6
     468:	81 91       	ld	r24, Z+
     46a:	91 91       	ld	r25, Z+
     46c:	a1 91       	ld	r26, Z+
     46e:	b1 91       	ld	r27, Z+
     470:	3f 01       	movw	r6, r30
		set_name[i] = (set_name[i] << 8) | name3;
		set_name[i] = (set_name[i] << 8) | name2;
		set_name[i] = (set_name[i] << 8) | name1;
     472:	83 62       	ori	r24, 0x23	; 35
     474:	ba 2f       	mov	r27, r26
     476:	a9 2f       	mov	r26, r25
     478:	98 2f       	mov	r25, r24
     47a:	88 27       	eor	r24, r24
     47c:	85 29       	or	r24, r5
     47e:	ba 2f       	mov	r27, r26
     480:	a9 2f       	mov	r26, r25
     482:	98 2f       	mov	r25, r24
     484:	88 27       	eor	r24, r24
     486:	85 2b       	or	r24, r21
     488:	ba 2f       	mov	r27, r26
     48a:	a9 2f       	mov	r26, r25
     48c:	98 2f       	mov	r25, r24
     48e:	88 27       	eor	r24, r24
     490:	86 2b       	or	r24, r22
     492:	e9 81       	ldd	r30, Y+1	; 0x01
     494:	fa 81       	ldd	r31, Y+2	; 0x02
     496:	81 93       	st	Z+, r24
     498:	91 93       	st	Z+, r25
     49a:	a1 93       	st	Z+, r26
     49c:	b1 93       	st	Z+, r27
     49e:	fa 83       	std	Y+2, r31	; 0x02
     4a0:	e9 83       	std	Y+1, r30	; 0x01
				time_ctrl_value_buff[i][j][k] = 500;
			}
		}
	}

	for (i = 0; i < MAX_IQR_QUANTITY; i++)
     4a2:	4f 5f       	subi	r20, 0xFF	; 255
     4a4:	eb 81       	ldd	r30, Y+3	; 0x03
     4a6:	fc 81       	ldd	r31, Y+4	; 0x04
     4a8:	31 96       	adiw	r30, 0x01	; 1
     4aa:	fc 83       	std	Y+4, r31	; 0x04
     4ac:	eb 83       	std	Y+3, r30	; 0x03
     4ae:	48 31       	cpi	r20, 0x18	; 24
     4b0:	09 f0       	breq	.+2      	; 0x4b4 <__LOCK_REGION_LENGTH__+0xb4>
     4b2:	8d cf       	rjmp	.-230    	; 0x3ce <init_variable+0xe8>
		set_name[i] |= 0x23;		//固定前面显示#
		set_name[i] = (set_name[i] << 8) | name3;
		set_name[i] = (set_name[i] << 8) | name2;
		set_name[i] = (set_name[i] << 8) | name1;
	}
}
     4b4:	0f 90       	pop	r0
     4b6:	0f 90       	pop	r0
     4b8:	0f 90       	pop	r0
     4ba:	0f 90       	pop	r0
     4bc:	df 91       	pop	r29
     4be:	cf 91       	pop	r28
     4c0:	1f 91       	pop	r17
     4c2:	0f 91       	pop	r16
     4c4:	ff 90       	pop	r15
     4c6:	ef 90       	pop	r14
     4c8:	df 90       	pop	r13
     4ca:	cf 90       	pop	r12
     4cc:	bf 90       	pop	r11
     4ce:	af 90       	pop	r10
     4d0:	9f 90       	pop	r9
     4d2:	8f 90       	pop	r8
     4d4:	7f 90       	pop	r7
     4d6:	6f 90       	pop	r6
     4d8:	5f 90       	pop	r5
     4da:	4f 90       	pop	r4
     4dc:	3f 90       	pop	r3
     4de:	2f 90       	pop	r2
     4e0:	08 95       	ret

000004e2 <set_pid>:

/*
**设置PID参数，通过串口1发送到控制办卡
*/
void set_pid(void)
{
     4e2:	cf 93       	push	r28
     4e4:	df 93       	push	r29
	uint16_t crc = 0;
	uint8_t addr = 0;

	/*计算地址，前四位代表示板卡号，后四位表示*/
	addr = (set_pid_channel - 1) / 4 + 1;
     4e6:	80 91 b4 02 	lds	r24, 0x02B4	; 0x8002b4 <set_pid_channel>
     4ea:	90 e0       	ldi	r25, 0x00	; 0
     4ec:	01 97       	sbiw	r24, 0x01	; 1
	addr = (addr << 4) + ((set_pid_channel - 1) % 4) + 1;
     4ee:	9c 01       	movw	r18, r24
     4f0:	12 f4       	brpl	.+4      	; 0x4f6 <set_pid+0x14>
     4f2:	2d 5f       	subi	r18, 0xFD	; 253
     4f4:	3f 4f       	sbci	r19, 0xFF	; 255
     4f6:	35 95       	asr	r19
     4f8:	27 95       	ror	r18
     4fa:	35 95       	asr	r19
     4fc:	27 95       	ror	r18
     4fe:	2f 5f       	subi	r18, 0xFF	; 255
     500:	22 95       	swap	r18
     502:	20 7f       	andi	r18, 0xF0	; 240

	usart1_tx_buff[0] = 0xA5;
     504:	ee ef       	ldi	r30, 0xFE	; 254
     506:	f3 e0       	ldi	r31, 0x03	; 3
     508:	35 ea       	ldi	r19, 0xA5	; 165
     50a:	30 83       	st	Z, r19
	usart1_tx_buff[1] = 0x5A;
     50c:	3a e5       	ldi	r19, 0x5A	; 90
     50e:	31 83       	std	Z+1, r19	; 0x01
	usart1_tx_buff[2] = 0x08;
     510:	38 e0       	ldi	r19, 0x08	; 8
     512:	32 83       	std	Z+2, r19	; 0x02
	usart1_tx_buff[3] = PID;
     514:	32 e0       	ldi	r19, 0x02	; 2
     516:	33 83       	std	Z+3, r19	; 0x03
	usart1_tx_buff[4] = addr;
     518:	83 70       	andi	r24, 0x03	; 3
     51a:	90 78       	andi	r25, 0x80	; 128
     51c:	99 23       	and	r25, r25
     51e:	24 f4       	brge	.+8      	; 0x528 <set_pid+0x46>
     520:	01 97       	sbiw	r24, 0x01	; 1
     522:	8c 6f       	ori	r24, 0xFC	; 252
     524:	9f 6f       	ori	r25, 0xFF	; 255
     526:	01 96       	adiw	r24, 0x01	; 1
     528:	8f 5f       	subi	r24, 0xFF	; 255
     52a:	82 0f       	add	r24, r18
     52c:	80 93 02 04 	sts	0x0402, r24	; 0x800402 <usart1_tx_buff+0x4>

	usart1_tx_buff[5] = (uint8_t)(p_value_buff >> 8);
     530:	80 91 7c 01 	lds	r24, 0x017C	; 0x80017c <p_value_buff>
     534:	90 91 7d 01 	lds	r25, 0x017D	; 0x80017d <p_value_buff+0x1>
     538:	ce ef       	ldi	r28, 0xFE	; 254
     53a:	d3 e0       	ldi	r29, 0x03	; 3
     53c:	9d 83       	std	Y+5, r25	; 0x05
	usart1_tx_buff[6] = (uint8_t)(p_value_buff);
     53e:	8e 83       	std	Y+6, r24	; 0x06

	usart1_tx_buff[7] = (uint8_t)(i_value_buff >> 8);
     540:	80 91 7a 01 	lds	r24, 0x017A	; 0x80017a <i_value_buff>
     544:	90 91 7b 01 	lds	r25, 0x017B	; 0x80017b <i_value_buff+0x1>
     548:	9f 83       	std	Y+7, r25	; 0x07
	usart1_tx_buff[8] = (uint8_t)(i_value_buff);
     54a:	88 87       	std	Y+8, r24	; 0x08

	usart1_tx_buff[9] = (uint8_t)(d_value_buff >> 8);
     54c:	80 91 78 01 	lds	r24, 0x0178	; 0x800178 <d_value_buff>
     550:	90 91 79 01 	lds	r25, 0x0179	; 0x800179 <d_value_buff+0x1>
     554:	99 87       	std	Y+9, r25	; 0x09
	usart1_tx_buff[10] = (uint8_t)(d_value_buff);
     556:	8a 87       	std	Y+10, r24	; 0x0a

	crc = crc_check(usart1_tx_buff, 13);
     558:	6d e0       	ldi	r22, 0x0D	; 13
     55a:	ce 01       	movw	r24, r28
     55c:	0e 94 04 14 	call	0x2808	; 0x2808 <crc_check>

	usart1_tx_buff[11] = crc & 0x00FF;
     560:	8b 87       	std	Y+11, r24	; 0x0b
	usart1_tx_buff[12] = crc >> 8;
     562:	9c 87       	std	Y+12, r25	; 0x0c

	ctrl_command = PID;
     564:	82 e0       	ldi	r24, 0x02	; 2
     566:	80 93 77 01 	sts	0x0177, r24	; 0x800177 <ctrl_command>

	while (usart1_tx_overtime_mask != 1)
     56a:	80 91 c9 02 	lds	r24, 0x02C9	; 0x8002c9 <usart1_tx_overtime_mask>
     56e:	81 30       	cpi	r24, 0x01	; 1
     570:	f1 f7       	brne	.-4      	; 0x56e <set_pid+0x8c>
		;
	usart1_tx_overtime_mask = 0;
     572:	10 92 c9 02 	sts	0x02C9, r1	; 0x8002c9 <usart1_tx_overtime_mask>
	usart1_tx_timecnt = 0;
     576:	10 92 ca 02 	sts	0x02CA, r1	; 0x8002ca <usart1_tx_timecnt>

	usart1_send_str(usart1_tx_buff, 13);
     57a:	6d e0       	ldi	r22, 0x0D	; 13
     57c:	8e ef       	ldi	r24, 0xFE	; 254
     57e:	93 e0       	ldi	r25, 0x03	; 3
     580:	0e 94 be 13 	call	0x277c	; 0x277c <usart1_send_str>

	ctrl_command = READ_DATA_ALL;
     584:	81 e0       	ldi	r24, 0x01	; 1
     586:	80 93 77 01 	sts	0x0177, r24	; 0x800177 <ctrl_command>
}
     58a:	df 91       	pop	r29
     58c:	cf 91       	pop	r28
     58e:	08 95       	ret

00000590 <single_set_back>:

void single_set_back(void)
{
	if (set_temp_buff[set_num] != set_temp[set_num])
     590:	80 91 b5 02 	lds	r24, 0x02B5	; 0x8002b5 <set_num>
     594:	90 e0       	ldi	r25, 0x00	; 0
     596:	9c 01       	movw	r18, r24
     598:	22 0f       	add	r18, r18
     59a:	33 1f       	adc	r19, r19
     59c:	f9 01       	movw	r30, r18
     59e:	e3 56       	subi	r30, 0x63	; 99
     5a0:	f6 4f       	sbci	r31, 0xF6	; 246
     5a2:	40 81       	ld	r20, Z
     5a4:	51 81       	ldd	r21, Z+1	; 0x01
     5a6:	f9 01       	movw	r30, r18
     5a8:	e3 53       	subi	r30, 0x33	; 51
     5aa:	f6 4f       	sbci	r31, 0xF6	; 246
     5ac:	20 81       	ld	r18, Z
     5ae:	31 81       	ldd	r19, Z+1	; 0x01
     5b0:	24 17       	cp	r18, r20
     5b2:	35 07       	cpc	r19, r21
     5b4:	39 f0       	breq	.+14     	; 0x5c4 <single_set_back+0x34>
	{
		set_temp_buff[set_num] = set_temp[set_num];
     5b6:	fc 01       	movw	r30, r24
     5b8:	ee 0f       	add	r30, r30
     5ba:	ff 1f       	adc	r31, r31
     5bc:	e3 53       	subi	r30, 0x33	; 51
     5be:	f6 4f       	sbci	r31, 0xF6	; 246
     5c0:	51 83       	std	Z+1, r21	; 0x01
     5c2:	40 83       	st	Z, r20
	}

	if (switch_sensor_buff[set_num] != switch_sensor[set_num])
     5c4:	9c 01       	movw	r18, r24
     5c6:	22 0f       	add	r18, r18
     5c8:	33 1f       	adc	r19, r19
     5ca:	f9 01       	movw	r30, r18
     5cc:	ed 5f       	subi	r30, 0xFD	; 253
     5ce:	fd 4f       	sbci	r31, 0xFD	; 253
     5d0:	40 81       	ld	r20, Z
     5d2:	51 81       	ldd	r21, Z+1	; 0x01
     5d4:	f9 01       	movw	r30, r18
     5d6:	e2 50       	subi	r30, 0x02	; 2
     5d8:	fd 4f       	sbci	r31, 0xFD	; 253
     5da:	20 81       	ld	r18, Z
     5dc:	31 81       	ldd	r19, Z+1	; 0x01
     5de:	24 17       	cp	r18, r20
     5e0:	35 07       	cpc	r19, r21
     5e2:	39 f0       	breq	.+14     	; 0x5f2 <single_set_back+0x62>
	{
		switch_sensor_buff[set_num] = switch_sensor[set_num];
     5e4:	fc 01       	movw	r30, r24
     5e6:	ee 0f       	add	r30, r30
     5e8:	ff 1f       	adc	r31, r31
     5ea:	e2 50       	subi	r30, 0x02	; 2
     5ec:	fd 4f       	sbci	r31, 0xFD	; 253
     5ee:	51 83       	std	Z+1, r21	; 0x01
     5f0:	40 83       	st	Z, r20
	}

	if (sensor_type_buff[set_num] != sensor_type[set_num])
     5f2:	9c 01       	movw	r18, r24
     5f4:	22 0f       	add	r18, r18
     5f6:	33 1f       	adc	r19, r19
     5f8:	f9 01       	movw	r30, r18
     5fa:	ed 52       	subi	r30, 0x2D	; 45
     5fc:	fe 4f       	sbci	r31, 0xFE	; 254
     5fe:	40 81       	ld	r20, Z
     600:	51 81       	ldd	r21, Z+1	; 0x01
     602:	f9 01       	movw	r30, r18
     604:	e2 53       	subi	r30, 0x32	; 50
     606:	fd 4f       	sbci	r31, 0xFD	; 253
     608:	20 81       	ld	r18, Z
     60a:	31 81       	ldd	r19, Z+1	; 0x01
     60c:	24 17       	cp	r18, r20
     60e:	35 07       	cpc	r19, r21
     610:	39 f0       	breq	.+14     	; 0x620 <single_set_back+0x90>
	{
		sensor_type_buff[set_num] = sensor_type[set_num];
     612:	88 0f       	add	r24, r24
     614:	99 1f       	adc	r25, r25
     616:	fc 01       	movw	r30, r24
     618:	e2 53       	subi	r30, 0x32	; 50
     61a:	fd 4f       	sbci	r31, 0xFD	; 253
     61c:	51 83       	std	Z+1, r21	; 0x01
     61e:	40 83       	st	Z, r20
	}

	in_main_page = 1;
     620:	81 e0       	ldi	r24, 0x01	; 1
     622:	80 93 76 01 	sts	0x0176, r24	; 0x800176 <in_main_page>
	update_run_temp_flag = 0;
     626:	10 92 ba 02 	sts	0x02BA, r1	; 0x8002ba <update_run_temp_flag>
     62a:	08 95       	ret

0000062c <switch_all_sensor>:

	in_main_page = 1;
}

void switch_all_sensor(uint16_t sta)
{
     62c:	1f 93       	push	r17
     62e:	cf 93       	push	r28
     630:	df 93       	push	r29
	uint8_t i = 0;
	uint16_t crc = 0;
	uint8_t slave_num = 1;

	ctrl_command = 0; //不是READ_DATA_ALL 就ok
     632:	10 92 77 01 	sts	0x0177, r1	; 0x800177 <ctrl_command>

	usart1_tx_buff[0] = 0xA5;
     636:	ee ef       	ldi	r30, 0xFE	; 254
     638:	f3 e0       	ldi	r31, 0x03	; 3
     63a:	25 ea       	ldi	r18, 0xA5	; 165
     63c:	20 83       	st	Z, r18
	usart1_tx_buff[1] = 0x5A;
     63e:	2a e5       	ldi	r18, 0x5A	; 90
     640:	21 83       	std	Z+1, r18	; 0x01
	usart1_tx_buff[2] = 0x04;
     642:	24 e0       	ldi	r18, 0x04	; 4
     644:	22 83       	std	Z+2, r18	; 0x02
	usart1_tx_buff[3] = 0x06;
     646:	26 e0       	ldi	r18, 0x06	; 6
     648:	23 83       	std	Z+3, r18	; 0x03
	usart1_tx_buff[5] = 0x00;
     64a:	15 82       	std	Z+5, r1	; 0x05
	usart1_tx_buff[6] = sta;
     64c:	86 83       	std	Z+6, r24	; 0x06

	pre_system_sta = sta;
     64e:	80 93 b6 02 	sts	0x02B6, r24	; 0x8002b6 <pre_system_sta>
     652:	90 93 b7 02 	sts	0x02B7, r25	; 0x8002b7 <pre_system_sta+0x1>
     656:	e3 e0       	ldi	r30, 0x03	; 3
     658:	f2 e0       	ldi	r31, 0x02	; 2
     65a:	ae ef       	ldi	r26, 0xFE	; 254
     65c:	b2 e0       	ldi	r27, 0x02	; 2
     65e:	23 e3       	ldi	r18, 0x33	; 51
     660:	32 e0       	ldi	r19, 0x02	; 2

	for (i = 0; i < MAX_IQR_QUANTITY; i++)
	{
		switch_sensor[i] = sta;
     662:	80 83       	st	Z, r24
     664:	91 83       	std	Z+1, r25	; 0x01
     666:	32 96       	adiw	r30, 0x02	; 2
		switch_sensor_buff[i] = sta;
     668:	8c 93       	st	X, r24
     66a:	11 96       	adiw	r26, 0x01	; 1
     66c:	9c 93       	st	X, r25
     66e:	11 97       	sbiw	r26, 0x01	; 1
     670:	12 96       	adiw	r26, 0x02	; 2
	usart1_tx_buff[5] = 0x00;
	usart1_tx_buff[6] = sta;

	pre_system_sta = sta;

	for (i = 0; i < MAX_IQR_QUANTITY; i++)
     672:	e2 17       	cp	r30, r18
     674:	f3 07       	cpc	r31, r19
     676:	a9 f7       	brne	.-22     	; 0x662 <switch_all_sensor+0x36>
     678:	11 e0       	ldi	r17, 0x01	; 1
		// 		eeprom_write(SINGLE_SWSENSOR_EEADDR+i, switch_sensor[i]);
	}

	for (; slave_num <= TEMP_CTRL_BOARD_QUANTITY; slave_num++)
	{
		usart1_tx_buff[4] = slave_num << 4;
     67a:	ce ef       	ldi	r28, 0xFE	; 254
     67c:	d3 e0       	ldi	r29, 0x03	; 3
     67e:	81 2f       	mov	r24, r17
     680:	82 95       	swap	r24
     682:	80 7f       	andi	r24, 0xF0	; 240
     684:	8c 83       	std	Y+4, r24	; 0x04

		crc = crc_check(usart1_tx_buff, 9);
     686:	69 e0       	ldi	r22, 0x09	; 9
     688:	ce 01       	movw	r24, r28
     68a:	0e 94 04 14 	call	0x2808	; 0x2808 <crc_check>

		usart1_tx_buff[7] = crc & 0x00FF;
     68e:	8f 83       	std	Y+7, r24	; 0x07
		usart1_tx_buff[8] = crc >> 8;
     690:	98 87       	std	Y+8, r25	; 0x08

		while (usart1_tx_overtime_mask != 1)
     692:	80 91 c9 02 	lds	r24, 0x02C9	; 0x8002c9 <usart1_tx_overtime_mask>
     696:	81 30       	cpi	r24, 0x01	; 1
     698:	f1 f7       	brne	.-4      	; 0x696 <switch_all_sensor+0x6a>
			;
		usart1_tx_overtime_mask = 0;
     69a:	10 92 c9 02 	sts	0x02C9, r1	; 0x8002c9 <usart1_tx_overtime_mask>
		usart1_tx_timecnt = 0;
     69e:	10 92 ca 02 	sts	0x02CA, r1	; 0x8002ca <usart1_tx_timecnt>

		usart1_send_str(usart1_tx_buff, 9);
     6a2:	69 e0       	ldi	r22, 0x09	; 9
     6a4:	ce 01       	movw	r24, r28
     6a6:	0e 94 be 13 	call	0x277c	; 0x277c <usart1_send_str>
		switch_sensor[i] = sta;
		switch_sensor_buff[i] = sta;
		// 		eeprom_write(SINGLE_SWSENSOR_EEADDR+i, switch_sensor[i]);
	}

	for (; slave_num <= TEMP_CTRL_BOARD_QUANTITY; slave_num++)
     6aa:	1f 5f       	subi	r17, 0xFF	; 255
     6ac:	17 30       	cpi	r17, 0x07	; 7
     6ae:	39 f7       	brne	.-50     	; 0x67e <switch_all_sensor+0x52>
		usart1_tx_timecnt = 0;

		usart1_send_str(usart1_tx_buff, 9);
	}

	ctrl_command = READ_DATA_ALL;
     6b0:	81 e0       	ldi	r24, 0x01	; 1
     6b2:	80 93 77 01 	sts	0x0177, r24	; 0x800177 <ctrl_command>
}
     6b6:	df 91       	pop	r29
     6b8:	cf 91       	pop	r28
     6ba:	1f 91       	pop	r17
     6bc:	08 95       	ret

000006be <get_set_name>:

void get_set_name(void)
{
	set_name_buff = usart0_rx_buff[7];
     6be:	e9 e5       	ldi	r30, 0x59	; 89
     6c0:	f6 e0       	ldi	r31, 0x06	; 6
	set_name_buff = (set_name_buff << 8) | usart0_rx_buff[8];
	set_name_buff = (set_name_buff << 8) | usart0_rx_buff[9];
	set_name_buff = (set_name_buff << 8) | usart0_rx_buff[10];
     6c2:	87 81       	ldd	r24, Z+7	; 0x07
     6c4:	90 e0       	ldi	r25, 0x00	; 0
     6c6:	a0 e0       	ldi	r26, 0x00	; 0
     6c8:	b0 e0       	ldi	r27, 0x00	; 0
     6ca:	ba 2f       	mov	r27, r26
     6cc:	a9 2f       	mov	r26, r25
     6ce:	98 2f       	mov	r25, r24
     6d0:	88 27       	eor	r24, r24
     6d2:	20 85       	ldd	r18, Z+8	; 0x08
     6d4:	82 2b       	or	r24, r18
     6d6:	ba 2f       	mov	r27, r26
     6d8:	a9 2f       	mov	r26, r25
     6da:	98 2f       	mov	r25, r24
     6dc:	88 27       	eor	r24, r24
     6de:	21 85       	ldd	r18, Z+9	; 0x09
     6e0:	82 2b       	or	r24, r18
     6e2:	ba 2f       	mov	r27, r26
     6e4:	a9 2f       	mov	r26, r25
     6e6:	98 2f       	mov	r25, r24
     6e8:	88 27       	eor	r24, r24
     6ea:	22 85       	ldd	r18, Z+10	; 0x0a
     6ec:	82 2b       	or	r24, r18
     6ee:	80 93 cf 01 	sts	0x01CF, r24	; 0x8001cf <set_name_buff>
     6f2:	90 93 d0 01 	sts	0x01D0, r25	; 0x8001d0 <set_name_buff+0x1>
     6f6:	a0 93 d1 01 	sts	0x01D1, r26	; 0x8001d1 <set_name_buff+0x2>
     6fa:	b0 93 d2 01 	sts	0x01D2, r27	; 0x8001d2 <set_name_buff+0x3>
     6fe:	08 95       	ret

00000700 <single_set>:
}

void single_set(uint8_t command, uint16_t value)
{
     700:	cf 93       	push	r28
     702:	df 93       	push	r29
     704:	58 2f       	mov	r21, r24
	uint16_t crc = 0;
	uint8_t addr = 0;

	ctrl_command = 0; // 不是READ_DATA_ALL 就OK
     706:	10 92 77 01 	sts	0x0177, r1	; 0x800177 <ctrl_command>

	if (temp_unit_buff == 1)
     70a:	80 91 2e 03 	lds	r24, 0x032E	; 0x80032e <temp_unit_buff>
     70e:	90 91 2f 03 	lds	r25, 0x032F	; 0x80032f <temp_unit_buff+0x1>
     712:	01 97       	sbiw	r24, 0x01	; 1
     714:	c1 f4       	brne	.+48     	; 0x746 <single_set+0x46>
	{
		value = ((value - 32) * 10 / 18);
     716:	9b 01       	movw	r18, r22
     718:	22 0f       	add	r18, r18
     71a:	33 1f       	adc	r19, r19
     71c:	66 0f       	add	r22, r22
     71e:	77 1f       	adc	r23, r23
     720:	66 0f       	add	r22, r22
     722:	77 1f       	adc	r23, r23
     724:	66 0f       	add	r22, r22
     726:	77 1f       	adc	r23, r23
     728:	26 0f       	add	r18, r22
     72a:	37 1f       	adc	r19, r23
     72c:	20 54       	subi	r18, 0x40	; 64
     72e:	31 40       	sbci	r19, 0x01	; 1
     730:	af e8       	ldi	r26, 0x8F	; 143
     732:	b3 ee       	ldi	r27, 0xE3	; 227
     734:	0e 94 cb 16 	call	0x2d96	; 0x2d96 <__umulhisi3>
     738:	bc 01       	movw	r22, r24
     73a:	72 95       	swap	r23
     73c:	62 95       	swap	r22
     73e:	6f 70       	andi	r22, 0x0F	; 15
     740:	67 27       	eor	r22, r23
     742:	7f 70       	andi	r23, 0x0F	; 15
     744:	67 27       	eor	r22, r23
	}

	addr = (set_num / 4) + 1;
     746:	40 91 b5 02 	lds	r20, 0x02B5	; 0x8002b5 <set_num>
	addr = (addr << 4) | ((set_num % 4) + 1);
     74a:	94 2f       	mov	r25, r20
     74c:	96 95       	lsr	r25
     74e:	96 95       	lsr	r25
     750:	9f 5f       	subi	r25, 0xFF	; 255
     752:	80 e1       	ldi	r24, 0x10	; 16
     754:	98 9f       	mul	r25, r24
     756:	90 01       	movw	r18, r0
     758:	11 24       	eor	r1, r1
     75a:	43 70       	andi	r20, 0x03	; 3
     75c:	4f 5f       	subi	r20, 0xFF	; 255
     75e:	24 2b       	or	r18, r20

	usart1_tx_buff[0] = 0xA5;
     760:	ce ef       	ldi	r28, 0xFE	; 254
     762:	d3 e0       	ldi	r29, 0x03	; 3
     764:	85 ea       	ldi	r24, 0xA5	; 165
     766:	88 83       	st	Y, r24
	usart1_tx_buff[1] = 0x5A;
     768:	8a e5       	ldi	r24, 0x5A	; 90
     76a:	89 83       	std	Y+1, r24	; 0x01
	usart1_tx_buff[2] = 0x04;
     76c:	84 e0       	ldi	r24, 0x04	; 4
     76e:	8a 83       	std	Y+2, r24	; 0x02
	usart1_tx_buff[3] = command;
     770:	5b 83       	std	Y+3, r21	; 0x03
	usart1_tx_buff[4] = addr;
     772:	2c 83       	std	Y+4, r18	; 0x04
	usart1_tx_buff[5] = (value >> 8);
     774:	7d 83       	std	Y+5, r23	; 0x05
	usart1_tx_buff[6] = value;
     776:	6e 83       	std	Y+6, r22	; 0x06

	crc = crc_check(usart1_tx_buff, 9);
     778:	69 e0       	ldi	r22, 0x09	; 9
     77a:	ce 01       	movw	r24, r28
     77c:	0e 94 04 14 	call	0x2808	; 0x2808 <crc_check>

	usart1_tx_buff[7] = crc & 0x00FF;
     780:	8f 83       	std	Y+7, r24	; 0x07
	usart1_tx_buff[8] = crc >> 8;
     782:	98 87       	std	Y+8, r25	; 0x08

	while (usart1_tx_overtime_mask != 1)
     784:	80 91 c9 02 	lds	r24, 0x02C9	; 0x8002c9 <usart1_tx_overtime_mask>
     788:	81 30       	cpi	r24, 0x01	; 1
     78a:	f1 f7       	brne	.-4      	; 0x788 <single_set+0x88>
		;
	usart1_tx_overtime_mask = 0;
     78c:	10 92 c9 02 	sts	0x02C9, r1	; 0x8002c9 <usart1_tx_overtime_mask>
	usart1_tx_timecnt = 0;
     790:	10 92 ca 02 	sts	0x02CA, r1	; 0x8002ca <usart1_tx_timecnt>

	usart1_send_str(usart1_tx_buff, 9);
     794:	69 e0       	ldi	r22, 0x09	; 9
     796:	8e ef       	ldi	r24, 0xFE	; 254
     798:	93 e0       	ldi	r25, 0x03	; 3
     79a:	0e 94 be 13 	call	0x277c	; 0x277c <usart1_send_str>

	ctrl_command = READ_DATA_ALL;
     79e:	81 e0       	ldi	r24, 0x01	; 1
     7a0:	80 93 77 01 	sts	0x0177, r24	; 0x800177 <ctrl_command>
}
     7a4:	df 91       	pop	r29
     7a6:	cf 91       	pop	r28
     7a8:	08 95       	ret

000007aa <all_set>:

void all_set(uint8_t command, uint16_t value)
{
     7aa:	1f 93       	push	r17
     7ac:	cf 93       	push	r28
     7ae:	df 93       	push	r29
     7b0:	48 2f       	mov	r20, r24
	uint16_t crc = 0;
	uint8_t slave_num = 1;

	ctrl_command = 0; //不是READ_DATA_ALL 就ok
     7b2:	10 92 77 01 	sts	0x0177, r1	; 0x800177 <ctrl_command>

	if (command == TEMP)
     7b6:	83 30       	cpi	r24, 0x03	; 3
     7b8:	f1 f4       	brne	.+60     	; 0x7f6 <all_set+0x4c>
	{
		if (temp_unit_buff == 1)
     7ba:	80 91 2e 03 	lds	r24, 0x032E	; 0x80032e <temp_unit_buff>
     7be:	90 91 2f 03 	lds	r25, 0x032F	; 0x80032f <temp_unit_buff+0x1>
     7c2:	01 97       	sbiw	r24, 0x01	; 1
     7c4:	c1 f4       	brne	.+48     	; 0x7f6 <all_set+0x4c>
		{
			value = ((value - 32) * 10 / 18);
     7c6:	9b 01       	movw	r18, r22
     7c8:	22 0f       	add	r18, r18
     7ca:	33 1f       	adc	r19, r19
     7cc:	66 0f       	add	r22, r22
     7ce:	77 1f       	adc	r23, r23
     7d0:	66 0f       	add	r22, r22
     7d2:	77 1f       	adc	r23, r23
     7d4:	66 0f       	add	r22, r22
     7d6:	77 1f       	adc	r23, r23
     7d8:	26 0f       	add	r18, r22
     7da:	37 1f       	adc	r19, r23
     7dc:	20 54       	subi	r18, 0x40	; 64
     7de:	31 40       	sbci	r19, 0x01	; 1
     7e0:	af e8       	ldi	r26, 0x8F	; 143
     7e2:	b3 ee       	ldi	r27, 0xE3	; 227
     7e4:	0e 94 cb 16 	call	0x2d96	; 0x2d96 <__umulhisi3>
     7e8:	bc 01       	movw	r22, r24
     7ea:	72 95       	swap	r23
     7ec:	62 95       	swap	r22
     7ee:	6f 70       	andi	r22, 0x0F	; 15
     7f0:	67 27       	eor	r22, r23
     7f2:	7f 70       	andi	r23, 0x0F	; 15
     7f4:	67 27       	eor	r22, r23
		}
	}

	usart1_tx_buff[0] = 0xA5;
     7f6:	ee ef       	ldi	r30, 0xFE	; 254
     7f8:	f3 e0       	ldi	r31, 0x03	; 3
     7fa:	85 ea       	ldi	r24, 0xA5	; 165
     7fc:	80 83       	st	Z, r24
	usart1_tx_buff[1] = 0x5A;
     7fe:	8a e5       	ldi	r24, 0x5A	; 90
     800:	81 83       	std	Z+1, r24	; 0x01
	usart1_tx_buff[2] = 0x04;
     802:	84 e0       	ldi	r24, 0x04	; 4
     804:	82 83       	std	Z+2, r24	; 0x02
	usart1_tx_buff[3] = command;
     806:	43 83       	std	Z+3, r20	; 0x03
	usart1_tx_buff[5] = (value >> 8);
     808:	75 83       	std	Z+5, r23	; 0x05
	usart1_tx_buff[6] = value;
     80a:	66 83       	std	Z+6, r22	; 0x06
}

void all_set(uint8_t command, uint16_t value)
{
	uint16_t crc = 0;
	uint8_t slave_num = 1;
     80c:	11 e0       	ldi	r17, 0x01	; 1
	usart1_tx_buff[5] = (value >> 8);
	usart1_tx_buff[6] = value;

	for (; slave_num <= TEMP_CTRL_BOARD_QUANTITY; slave_num++)
	{
		usart1_tx_buff[4] = slave_num << 4;
     80e:	ef 01       	movw	r28, r30
     810:	81 2f       	mov	r24, r17
     812:	82 95       	swap	r24
     814:	80 7f       	andi	r24, 0xF0	; 240
     816:	8c 83       	std	Y+4, r24	; 0x04

		crc = crc_check(usart1_tx_buff, 9);
     818:	69 e0       	ldi	r22, 0x09	; 9
     81a:	ce 01       	movw	r24, r28
     81c:	0e 94 04 14 	call	0x2808	; 0x2808 <crc_check>

		usart1_tx_buff[7] = crc & 0x00FF;
     820:	8f 83       	std	Y+7, r24	; 0x07
		usart1_tx_buff[8] = crc >> 8;
     822:	98 87       	std	Y+8, r25	; 0x08

		while (usart1_tx_overtime_mask != 1)
     824:	80 91 c9 02 	lds	r24, 0x02C9	; 0x8002c9 <usart1_tx_overtime_mask>
     828:	81 30       	cpi	r24, 0x01	; 1
     82a:	f1 f7       	brne	.-4      	; 0x828 <all_set+0x7e>
			;
		usart1_tx_overtime_mask = 0;
     82c:	10 92 c9 02 	sts	0x02C9, r1	; 0x8002c9 <usart1_tx_overtime_mask>
		usart1_tx_timecnt = 0;
     830:	10 92 ca 02 	sts	0x02CA, r1	; 0x8002ca <usart1_tx_timecnt>

		usart1_send_str(usart1_tx_buff, 9);
     834:	69 e0       	ldi	r22, 0x09	; 9
     836:	ce 01       	movw	r24, r28
     838:	0e 94 be 13 	call	0x277c	; 0x277c <usart1_send_str>
	usart1_tx_buff[2] = 0x04;
	usart1_tx_buff[3] = command;
	usart1_tx_buff[5] = (value >> 8);
	usart1_tx_buff[6] = value;

	for (; slave_num <= TEMP_CTRL_BOARD_QUANTITY; slave_num++)
     83c:	1f 5f       	subi	r17, 0xFF	; 255
     83e:	17 30       	cpi	r17, 0x07	; 7
     840:	39 f7       	brne	.-50     	; 0x810 <all_set+0x66>
		usart1_tx_timecnt = 0;

		usart1_send_str(usart1_tx_buff, 9);
	}

	ctrl_command = READ_DATA_ALL;
     842:	81 e0       	ldi	r24, 0x01	; 1
     844:	80 93 77 01 	sts	0x0177, r24	; 0x800177 <ctrl_command>
}
     848:	df 91       	pop	r29
     84a:	cf 91       	pop	r28
     84c:	1f 91       	pop	r17
     84e:	08 95       	ret

00000850 <save_time_ctrl_data>:
	}
}

/*按下保存键 保存输入的数据  不按保存直接返回的话  则不保存*/
void save_time_ctrl_data(void)
{
     850:	0f 93       	push	r16
     852:	1f 93       	push	r17
     854:	cf 93       	push	r28
     856:	df 93       	push	r29
     858:	c0 e0       	ldi	r28, 0x00	; 0
     85a:	d0 e0       	ldi	r29, 0x00	; 0
     85c:	2b c0       	rjmp	.+86     	; 0x8b4 <save_time_ctrl_data+0x64>

	for (i = 0; i < 8; i++)
	{
		for (j = 0; j < 4; j++)
		{
			time_ctrl_value[module_num - 1][i][j] = time_ctrl_value_buff[module_num - 1][i][j];
     85e:	80 91 71 01 	lds	r24, 0x0171	; 0x800171 <module_num>
     862:	90 e0       	ldi	r25, 0x00	; 0
     864:	01 97       	sbiw	r24, 0x01	; 1
     866:	88 0f       	add	r24, r24
     868:	99 1f       	adc	r25, r25
     86a:	88 0f       	add	r24, r24
     86c:	99 1f       	adc	r25, r25
     86e:	88 0f       	add	r24, r24
     870:	99 1f       	adc	r25, r25
     872:	8c 0f       	add	r24, r28
     874:	9d 1f       	adc	r25, r29
     876:	88 0f       	add	r24, r24
     878:	99 1f       	adc	r25, r25
     87a:	88 0f       	add	r24, r24
     87c:	99 1f       	adc	r25, r25
     87e:	80 0f       	add	r24, r16
     880:	91 1f       	adc	r25, r17
     882:	88 0f       	add	r24, r24
     884:	99 1f       	adc	r25, r25
     886:	fc 01       	movw	r30, r24
     888:	e2 50       	subi	r30, 0x02	; 2
     88a:	f6 4f       	sbci	r31, 0xF6	; 246
     88c:	60 81       	ld	r22, Z
     88e:	71 81       	ldd	r23, Z+1	; 0x01
     890:	fc 01       	movw	r30, r24
     892:	ef 5d       	subi	r30, 0xDF	; 223
     894:	f8 4f       	sbci	r31, 0xF8	; 248
     896:	71 83       	std	Z+1, r23	; 0x01
     898:	60 83       	st	Z, r22
			eeprom_write_word((uint16_t *)(TIME_CTRL_VALUE_EEADDR + ((module_num - 1) * 32 + i * 4 + j) * 2), time_ctrl_value[module_num - 1][i][j]);
     89a:	81 57       	subi	r24, 0x71	; 113
     89c:	9f 4f       	sbci	r25, 0xFF	; 255
     89e:	0e 94 14 17 	call	0x2e28	; 0x2e28 <eeprom_write_word>
     8a2:	0f 5f       	subi	r16, 0xFF	; 255
     8a4:	1f 4f       	sbci	r17, 0xFF	; 255
{
	uint8_t i, j;

	for (i = 0; i < 8; i++)
	{
		for (j = 0; j < 4; j++)
     8a6:	04 30       	cpi	r16, 0x04	; 4
     8a8:	11 05       	cpc	r17, r1
     8aa:	c9 f6       	brne	.-78     	; 0x85e <save_time_ctrl_data+0xe>
     8ac:	21 96       	adiw	r28, 0x01	; 1
/*按下保存键 保存输入的数据  不按保存直接返回的话  则不保存*/
void save_time_ctrl_data(void)
{
	uint8_t i, j;

	for (i = 0; i < 8; i++)
     8ae:	c8 30       	cpi	r28, 0x08	; 8
     8b0:	d1 05       	cpc	r29, r1
     8b2:	19 f0       	breq	.+6      	; 0x8ba <save_time_ctrl_data+0x6a>
	}
}

/*按下保存键 保存输入的数据  不按保存直接返回的话  则不保存*/
void save_time_ctrl_data(void)
{
     8b4:	00 e0       	ldi	r16, 0x00	; 0
     8b6:	10 e0       	ldi	r17, 0x00	; 0
     8b8:	d2 cf       	rjmp	.-92     	; 0x85e <save_time_ctrl_data+0xe>
		{
			time_ctrl_value[module_num - 1][i][j] = time_ctrl_value_buff[module_num - 1][i][j];
			eeprom_write_word((uint16_t *)(TIME_CTRL_VALUE_EEADDR + ((module_num - 1) * 32 + i * 4 + j) * 2), time_ctrl_value[module_num - 1][i][j]);
		}
	}
}
     8ba:	df 91       	pop	r29
     8bc:	cf 91       	pop	r28
     8be:	1f 91       	pop	r17
     8c0:	0f 91       	pop	r16
     8c2:	08 95       	ret

000008c4 <time_ctrl_test>:
{
	uint8_t i;
	uint8_t cnt = 0; //计数第几个数据
	uint16_t crc = 0;

	usart2_tx_buff[0] = 0xA5;
     8c4:	e3 e3       	ldi	r30, 0x33	; 51
     8c6:	f3 e0       	ldi	r31, 0x03	; 3
     8c8:	95 ea       	ldi	r25, 0xA5	; 165
     8ca:	90 83       	st	Z, r25
	usart2_tx_buff[1] = 0x5A;
     8cc:	9a e5       	ldi	r25, 0x5A	; 90
     8ce:	91 83       	std	Z+1, r25	; 0x01
	usart2_tx_buff[2] = 0x0A;
     8d0:	9a e0       	ldi	r25, 0x0A	; 10
     8d2:	92 83       	std	Z+2, r25	; 0x02
	usart2_tx_buff[3] = command;
     8d4:	63 83       	std	Z+3, r22	; 0x03
	usart2_tx_buff[4] = slave_num - 1;
     8d6:	9f ef       	ldi	r25, 0xFF	; 255
     8d8:	98 0f       	add	r25, r24
     8da:	94 83       	std	Z+4, r25	; 0x04
     8dc:	e6 2f       	mov	r30, r22
     8de:	f0 e0       	ldi	r31, 0x00	; 0
     8e0:	98 e0       	ldi	r25, 0x08	; 8
     8e2:	89 9f       	mul	r24, r25
     8e4:	e0 0d       	add	r30, r0
     8e6:	f1 1d       	adc	r31, r1
     8e8:	11 24       	eor	r1, r1
     8ea:	ee 0f       	add	r30, r30
     8ec:	ff 1f       	adc	r31, r31
     8ee:	ee 0f       	add	r30, r30
     8f0:	ff 1f       	adc	r31, r31
     8f2:	ee 0f       	add	r30, r30
     8f4:	ff 1f       	adc	r31, r31
     8f6:	e7 52       	subi	r30, 0x27	; 39
     8f8:	fa 4f       	sbci	r31, 0xFA	; 250
     8fa:	a3 e3       	ldi	r26, 0x33	; 51
     8fc:	b3 e0       	ldi	r27, 0x03	; 3
     8fe:	2b e3       	ldi	r18, 0x3B	; 59
     900:	33 e0       	ldi	r19, 0x03	; 3

	for (i = 0; i < 4; i++)
	{
		usart2_tx_buff[cnt + 5] = time_ctrl_value[slave_num - 1][command - 0x21][i] >> 8;
     902:	80 81       	ld	r24, Z
     904:	91 81       	ldd	r25, Z+1	; 0x01
     906:	32 96       	adiw	r30, 0x02	; 2
     908:	15 96       	adiw	r26, 0x05	; 5
     90a:	9c 93       	st	X, r25
     90c:	15 97       	sbiw	r26, 0x05	; 5
		usart2_tx_buff[cnt + 6] = time_ctrl_value[slave_num - 1][command - 0x21][i];
     90e:	16 96       	adiw	r26, 0x06	; 6
     910:	8c 93       	st	X, r24
     912:	16 97       	sbiw	r26, 0x06	; 6
     914:	12 96       	adiw	r26, 0x02	; 2
	usart2_tx_buff[1] = 0x5A;
	usart2_tx_buff[2] = 0x0A;
	usart2_tx_buff[3] = command;
	usart2_tx_buff[4] = slave_num - 1;

	for (i = 0; i < 4; i++)
     916:	a2 17       	cp	r26, r18
     918:	b3 07       	cpc	r27, r19
     91a:	99 f7       	brne	.-26     	; 0x902 <time_ctrl_test+0x3e>
		usart2_tx_buff[cnt + 5] = time_ctrl_value[slave_num - 1][command - 0x21][i] >> 8;
		usart2_tx_buff[cnt + 6] = time_ctrl_value[slave_num - 1][command - 0x21][i];
		cnt += 2;
	}

	crc = crc_check(usart2_tx_buff, 15);
     91c:	6f e0       	ldi	r22, 0x0F	; 15
     91e:	83 e3       	ldi	r24, 0x33	; 51
     920:	93 e0       	ldi	r25, 0x03	; 3
     922:	0e 94 04 14 	call	0x2808	; 0x2808 <crc_check>

	usart2_tx_buff[13] = crc & 0x00FF;
     926:	e3 e3       	ldi	r30, 0x33	; 51
     928:	f3 e0       	ldi	r31, 0x03	; 3
     92a:	85 87       	std	Z+13, r24	; 0x0d
	usart2_tx_buff[14] = crc >> 8;
     92c:	96 87       	std	Z+14, r25	; 0x0e

	usart2_send_str(usart2_tx_buff, 15);
     92e:	6f e0       	ldi	r22, 0x0F	; 15
     930:	cf 01       	movw	r24, r30
     932:	0e 94 e6 13 	call	0x27cc	; 0x27cc <usart2_send_str>
     936:	08 95       	ret

00000938 <change_page>:

	eeprom_write_byte((uint8_t *)PRE_LANGUAGE_EEADDR, pre_language);
}

void change_page(uint8_t page_num)
{
     938:	cf 93       	push	r28
     93a:	df 93       	push	r29
	uint16_t crc = 0;

	usart0_tx_buff[0] = 0xA5;
     93c:	c1 e9       	ldi	r28, 0x91	; 145
     93e:	d5 e0       	ldi	r29, 0x05	; 5
     940:	95 ea       	ldi	r25, 0xA5	; 165
     942:	98 83       	st	Y, r25
	usart0_tx_buff[1] = 0x5A;
     944:	9a e5       	ldi	r25, 0x5A	; 90
     946:	99 83       	std	Y+1, r25	; 0x01
	usart0_tx_buff[2] = 0x04; //4.3寸屏为4  5寸屏为6
     948:	94 e0       	ldi	r25, 0x04	; 4
     94a:	9a 83       	std	Y+2, r25	; 0x02
	usart0_tx_buff[3] = 0x80;
     94c:	90 e8       	ldi	r25, 0x80	; 128
     94e:	9b 83       	std	Y+3, r25	; 0x03
	usart0_tx_buff[4] = 0x03;
     950:	93 e0       	ldi	r25, 0x03	; 3
     952:	9c 83       	std	Y+4, r25	; 0x04
	usart0_tx_buff[5] = 0x00;
     954:	1d 82       	std	Y+5, r1	; 0x05
	usart0_tx_buff[6] = page_num;
     956:	8e 83       	std	Y+6, r24	; 0x06

	crc = crc_check(usart0_tx_buff, 9);
     958:	69 e0       	ldi	r22, 0x09	; 9
     95a:	ce 01       	movw	r24, r28
     95c:	0e 94 04 14 	call	0x2808	; 0x2808 <crc_check>

	usart0_tx_buff[7] = crc & 0x00FF;
     960:	8f 83       	std	Y+7, r24	; 0x07
	usart0_tx_buff[8] = crc >> 8;
     962:	98 87       	std	Y+8, r25	; 0x08

	usart0_send_str(usart0_tx_buff, 9);
     964:	69 e0       	ldi	r22, 0x09	; 9
     966:	ce 01       	movw	r24, r28
     968:	0e 94 9d 13 	call	0x273a	; 0x273a <usart0_send_str>
}
     96c:	df 91       	pop	r29
     96e:	cf 91       	pop	r28
     970:	08 95       	ret

00000972 <switch_language>:
*/
}

void switch_language(void)
{
	if (pre_language == 1)
     972:	80 91 b9 02 	lds	r24, 0x02B9	; 0x8002b9 <pre_language>
     976:	81 30       	cpi	r24, 0x01	; 1
     978:	21 f4       	brne	.+8      	; 0x982 <switch_language+0x10>
	{
		change_page(3); //暂定英文页面为13
     97a:	83 e0       	ldi	r24, 0x03	; 3
     97c:	0e 94 9c 04 	call	0x938	; 0x938 <change_page>
     980:	03 c0       	rjmp	.+6      	; 0x988 <switch_language+0x16>
	}
	else
	{
		change_page(1);
     982:	81 e0       	ldi	r24, 0x01	; 1
     984:	0e 94 9c 04 	call	0x938	; 0x938 <change_page>
	}

	eeprom_write_byte((uint8_t *)PRE_LANGUAGE_EEADDR, pre_language);
     988:	60 91 b9 02 	lds	r22, 0x02B9	; 0x8002b9 <pre_language>
     98c:	81 e0       	ldi	r24, 0x01	; 1
     98e:	90 e0       	ldi	r25, 0x00	; 0
     990:	0e 94 07 17 	call	0x2e0e	; 0x2e0e <eeprom_write_byte>
     994:	08 95       	ret

00000996 <send_variables>:
* @brief  指定地址下发变量到dgus
* @param  addr变量地址  data变量值
* @retval None
*/
void send_variables(uint16_t addr, uint16_t data)
{
     996:	cf 93       	push	r28
     998:	df 93       	push	r29
	uint16_t crc = 0;
	usart0_tx_buff[0] = 0xA5;
     99a:	c1 e9       	ldi	r28, 0x91	; 145
     99c:	d5 e0       	ldi	r29, 0x05	; 5
     99e:	25 ea       	ldi	r18, 0xA5	; 165
     9a0:	28 83       	st	Y, r18
	usart0_tx_buff[1] = 0x5A;
     9a2:	2a e5       	ldi	r18, 0x5A	; 90
     9a4:	29 83       	std	Y+1, r18	; 0x01
	usart0_tx_buff[2] = 0x05;
     9a6:	25 e0       	ldi	r18, 0x05	; 5
     9a8:	2a 83       	std	Y+2, r18	; 0x02
	usart0_tx_buff[3] = 0x82;
     9aa:	22 e8       	ldi	r18, 0x82	; 130
     9ac:	2b 83       	std	Y+3, r18	; 0x03
	usart0_tx_buff[4] = addr >> 8;
     9ae:	9c 83       	std	Y+4, r25	; 0x04
	usart0_tx_buff[5] = addr & 0x00FF;
     9b0:	8d 83       	std	Y+5, r24	; 0x05
	usart0_tx_buff[6] = data >> 8;
     9b2:	7e 83       	std	Y+6, r23	; 0x06
	usart0_tx_buff[7] = data & 0x00FF;
     9b4:	6f 83       	std	Y+7, r22	; 0x07

	crc = crc_check(usart0_tx_buff, 10);
     9b6:	6a e0       	ldi	r22, 0x0A	; 10
     9b8:	ce 01       	movw	r24, r28
     9ba:	0e 94 04 14 	call	0x2808	; 0x2808 <crc_check>

	usart0_tx_buff[8] = crc & 0x00FF;
     9be:	88 87       	std	Y+8, r24	; 0x08
	usart0_tx_buff[9] = crc >> 8;
     9c0:	99 87       	std	Y+9, r25	; 0x09

	usart0_send_str(usart0_tx_buff, 10);
     9c2:	6a e0       	ldi	r22, 0x0A	; 10
     9c4:	ce 01       	movw	r24, r28
     9c6:	0e 94 9d 13 	call	0x273a	; 0x273a <usart0_send_str>
}
     9ca:	df 91       	pop	r29
     9cc:	cf 91       	pop	r28
     9ce:	08 95       	ret

000009d0 <pid_set_ok>:
	in_main_page = 1;
}

void pid_set_ok(void)
{
	p_value[set_pid_channel - 1] = p_value_buff;
     9d0:	80 91 b4 02 	lds	r24, 0x02B4	; 0x8002b4 <set_pid_channel>
     9d4:	90 e0       	ldi	r25, 0x00	; 0
     9d6:	01 97       	sbiw	r24, 0x01	; 1
     9d8:	60 91 7c 01 	lds	r22, 0x017C	; 0x80017c <p_value_buff>
     9dc:	70 91 7d 01 	lds	r23, 0x017D	; 0x80017d <p_value_buff+0x1>
     9e0:	88 0f       	add	r24, r24
     9e2:	99 1f       	adc	r25, r25
     9e4:	fc 01       	movw	r30, r24
     9e6:	ef 5a       	subi	r30, 0xAF	; 175
     9e8:	f7 4f       	sbci	r31, 0xF7	; 247
     9ea:	71 83       	std	Z+1, r23	; 0x01
     9ec:	60 83       	st	Z, r22
	i_value[set_pid_channel - 1] = i_value_buff;
     9ee:	fc 01       	movw	r30, r24
     9f0:	ef 57       	subi	r30, 0x7F	; 127
     9f2:	f7 4f       	sbci	r31, 0xF7	; 247
     9f4:	20 91 7a 01 	lds	r18, 0x017A	; 0x80017a <i_value_buff>
     9f8:	30 91 7b 01 	lds	r19, 0x017B	; 0x80017b <i_value_buff+0x1>
     9fc:	31 83       	std	Z+1, r19	; 0x01
     9fe:	20 83       	st	Z, r18
	d_value[set_pid_channel - 1] = d_value_buff;
     a00:	fc 01       	movw	r30, r24
     a02:	ef 5d       	subi	r30, 0xDF	; 223
     a04:	f7 4f       	sbci	r31, 0xF7	; 247
     a06:	20 91 78 01 	lds	r18, 0x0178	; 0x800178 <d_value_buff>
     a0a:	30 91 79 01 	lds	r19, 0x0179	; 0x800179 <d_value_buff+0x1>
     a0e:	31 83       	std	Z+1, r19	; 0x01
     a10:	20 83       	st	Z, r18
	// 	eeprom_write(PID_I_EEADDR + ((set_pid_channel - 1) * 2) + 1, i_value[set_pid_channel - 1] >> 8);
	//
	// 	eeprom_write(PID_D_EEADDR + ((set_pid_channel - 1) * 2), d_value[set_pid_channel - 1]);
	// 	eeprom_write(PID_D_EEADDR + ((set_pid_channel - 1) * 2) + 1, d_value[set_pid_channel - 1] >> 8);

	send_variables(PID_P_ADDR, p_value[set_pid_channel - 1]);
     a12:	86 e3       	ldi	r24, 0x36	; 54
     a14:	90 e0       	ldi	r25, 0x00	; 0
     a16:	0e 94 cb 04 	call	0x996	; 0x996 <send_variables>
	send_variables(PID_I_ADDR, i_value[set_pid_channel - 1]);
     a1a:	e0 91 b4 02 	lds	r30, 0x02B4	; 0x8002b4 <set_pid_channel>
     a1e:	f0 e0       	ldi	r31, 0x00	; 0
     a20:	ee 0f       	add	r30, r30
     a22:	ff 1f       	adc	r31, r31
     a24:	e1 58       	subi	r30, 0x81	; 129
     a26:	f7 4f       	sbci	r31, 0xF7	; 247
     a28:	60 81       	ld	r22, Z
     a2a:	71 81       	ldd	r23, Z+1	; 0x01
     a2c:	88 e3       	ldi	r24, 0x38	; 56
     a2e:	90 e0       	ldi	r25, 0x00	; 0
     a30:	0e 94 cb 04 	call	0x996	; 0x996 <send_variables>
	send_variables(PID_D_ADDR, d_value[set_pid_channel - 1]);
     a34:	e0 91 b4 02 	lds	r30, 0x02B4	; 0x8002b4 <set_pid_channel>
     a38:	f0 e0       	ldi	r31, 0x00	; 0
     a3a:	ee 0f       	add	r30, r30
     a3c:	ff 1f       	adc	r31, r31
     a3e:	e1 5e       	subi	r30, 0xE1	; 225
     a40:	f7 4f       	sbci	r31, 0xF7	; 247
     a42:	60 81       	ld	r22, Z
     a44:	71 81       	ldd	r23, Z+1	; 0x01
     a46:	8a e3       	ldi	r24, 0x3A	; 58
     a48:	90 e0       	ldi	r25, 0x00	; 0
     a4a:	0e 94 cb 04 	call	0x996	; 0x996 <send_variables>

	set_pid();
     a4e:	0e 94 71 02 	call	0x4e2	; 0x4e2 <set_pid>
     a52:	08 95       	ret

00000a54 <all_set_back>:
	update_run_temp_flag = 0;
}

void all_set_back(void)
{
	if (all_temp_buff != all_temp)
     a54:	60 91 72 01 	lds	r22, 0x0172	; 0x800172 <all_temp>
     a58:	70 91 73 01 	lds	r23, 0x0173	; 0x800173 <all_temp+0x1>
     a5c:	80 91 80 01 	lds	r24, 0x0180	; 0x800180 <all_temp_buff>
     a60:	90 91 81 01 	lds	r25, 0x0181	; 0x800181 <all_temp_buff+0x1>
     a64:	86 17       	cp	r24, r22
     a66:	97 07       	cpc	r25, r23
     a68:	41 f0       	breq	.+16     	; 0xa7a <all_set_back+0x26>
	{
		all_temp_buff = all_temp;
     a6a:	70 93 81 01 	sts	0x0181, r23	; 0x800181 <all_temp_buff+0x1>
     a6e:	60 93 80 01 	sts	0x0180, r22	; 0x800180 <all_temp_buff>
		send_variables(ALL_SET_TEMP, all_temp);
     a72:	88 e4       	ldi	r24, 0x48	; 72
     a74:	91 e0       	ldi	r25, 0x01	; 1
     a76:	0e 94 cb 04 	call	0x996	; 0x996 <send_variables>
	}

	if (preheat_time_buff != preheat_time)
     a7a:	60 91 74 01 	lds	r22, 0x0174	; 0x800174 <preheat_time>
     a7e:	70 91 75 01 	lds	r23, 0x0175	; 0x800175 <preheat_time+0x1>
     a82:	80 91 7e 01 	lds	r24, 0x017E	; 0x80017e <preheat_time_buff>
     a86:	90 91 7f 01 	lds	r25, 0x017F	; 0x80017f <preheat_time_buff+0x1>
     a8a:	86 17       	cp	r24, r22
     a8c:	97 07       	cpc	r25, r23
     a8e:	41 f0       	breq	.+16     	; 0xaa0 <all_set_back+0x4c>
	{
		preheat_time_buff = preheat_time;
     a90:	70 93 7f 01 	sts	0x017F, r23	; 0x80017f <preheat_time_buff+0x1>
     a94:	60 93 7e 01 	sts	0x017E, r22	; 0x80017e <preheat_time_buff>
		send_variables(SET_PREHEAT_TIME, preheat_time);
     a98:	8a e4       	ldi	r24, 0x4A	; 74
     a9a:	91 e0       	ldi	r25, 0x01	; 1
     a9c:	0e 94 cb 04 	call	0x996	; 0x996 <send_variables>
	}

	if (all_sensor_type_buff != all_sensor_type)
     aa0:	80 91 9d 01 	lds	r24, 0x019D	; 0x80019d <all_sensor_type>
     aa4:	90 91 9e 01 	lds	r25, 0x019E	; 0x80019e <all_sensor_type+0x1>
     aa8:	20 91 30 03 	lds	r18, 0x0330	; 0x800330 <all_sensor_type_buff>
     aac:	30 91 31 03 	lds	r19, 0x0331	; 0x800331 <all_sensor_type_buff+0x1>
     ab0:	28 17       	cp	r18, r24
     ab2:	39 07       	cpc	r19, r25
     ab4:	61 f0       	breq	.+24     	; 0xace <all_set_back+0x7a>
	{
		all_sensor_type_buff = all_sensor_type;
     ab6:	90 93 31 03 	sts	0x0331, r25	; 0x800331 <all_sensor_type_buff+0x1>
     aba:	80 93 30 03 	sts	0x0330, r24	; 0x800330 <all_sensor_type_buff>
		send_variables(ALL_SENSOR_TYPE_ADDR, TYPE_J + (all_sensor_type * TYPE_K));
     abe:	86 5b       	subi	r24, 0xB6	; 182
     ac0:	9f 4f       	sbci	r25, 0xFF	; 255
     ac2:	60 e0       	ldi	r22, 0x00	; 0
     ac4:	78 2f       	mov	r23, r24
     ac6:	84 e9       	ldi	r24, 0x94	; 148
     ac8:	92 e0       	ldi	r25, 0x02	; 2
     aca:	0e 94 cb 04 	call	0x996	; 0x996 <send_variables>
	}

	if (temp_unit_buff != temp_unit)
     ace:	80 91 9b 01 	lds	r24, 0x019B	; 0x80019b <temp_unit>
     ad2:	90 91 9c 01 	lds	r25, 0x019C	; 0x80019c <temp_unit+0x1>
     ad6:	20 91 2e 03 	lds	r18, 0x032E	; 0x80032e <temp_unit_buff>
     ada:	30 91 2f 03 	lds	r19, 0x032F	; 0x80032f <temp_unit_buff+0x1>
     ade:	28 17       	cp	r18, r24
     ae0:	39 07       	cpc	r19, r25
     ae2:	91 f0       	breq	.+36     	; 0xb08 <all_set_back+0xb4>
	{
		temp_unit_buff = temp_unit;
     ae4:	90 93 2f 03 	sts	0x032F, r25	; 0x80032f <temp_unit_buff+0x1>
     ae8:	80 93 2e 03 	sts	0x032E, r24	; 0x80032e <temp_unit_buff>
		send_variables(TEMP_UINT_ADDR, (CELSIUS + temp_unit * FAHRENHEIT));
     aec:	20 e0       	ldi	r18, 0x00	; 0
     aee:	33 e0       	ldi	r19, 0x03	; 3
     af0:	82 9f       	mul	r24, r18
     af2:	b0 01       	movw	r22, r0
     af4:	83 9f       	mul	r24, r19
     af6:	70 0d       	add	r23, r0
     af8:	92 9f       	mul	r25, r18
     afa:	70 0d       	add	r23, r0
     afc:	11 24       	eor	r1, r1
     afe:	7d 5b       	subi	r23, 0xBD	; 189
     b00:	8c e3       	ldi	r24, 0x3C	; 60
     b02:	92 e0       	ldi	r25, 0x02	; 2
     b04:	0e 94 cb 04 	call	0x996	; 0x996 <send_variables>
	}

	in_main_page = 1;
     b08:	81 e0       	ldi	r24, 0x01	; 1
     b0a:	80 93 76 01 	sts	0x0176, r24	; 0x800176 <in_main_page>
     b0e:	08 95       	ret

00000b10 <update_pid_page>:

	set_name_buff = set_name[set_num];
}

void update_pid_page(uint8_t channel)
{
     b10:	ef 92       	push	r14
     b12:	ff 92       	push	r15
     b14:	0f 93       	push	r16
     b16:	1f 93       	push	r17
     b18:	cf 93       	push	r28
     b1a:	df 93       	push	r29
	set_pid_channel = channel;
     b1c:	80 93 b4 02 	sts	0x02B4, r24	; 0x8002b4 <set_pid_channel>

	send_variables(PID_CHANNEL, channel);
     b20:	c8 2f       	mov	r28, r24
     b22:	d0 e0       	ldi	r29, 0x00	; 0
     b24:	be 01       	movw	r22, r28
     b26:	80 e5       	ldi	r24, 0x50	; 80
     b28:	91 e0       	ldi	r25, 0x01	; 1
     b2a:	0e 94 cb 04 	call	0x996	; 0x996 <send_variables>

	send_variables(PID_P_ADDR, p_value[channel - 1]);
     b2e:	21 97       	sbiw	r28, 0x01	; 1
     b30:	cc 0f       	add	r28, r28
     b32:	dd 1f       	adc	r29, r29
     b34:	ce 01       	movw	r24, r28
     b36:	8f 5a       	subi	r24, 0xAF	; 175
     b38:	97 4f       	sbci	r25, 0xF7	; 247
     b3a:	7c 01       	movw	r14, r24
     b3c:	fc 01       	movw	r30, r24
     b3e:	60 81       	ld	r22, Z
     b40:	71 81       	ldd	r23, Z+1	; 0x01
     b42:	86 e3       	ldi	r24, 0x36	; 54
     b44:	90 e0       	ldi	r25, 0x00	; 0
     b46:	0e 94 cb 04 	call	0x996	; 0x996 <send_variables>
	send_variables(PID_I_ADDR, i_value[channel - 1]);
     b4a:	8e 01       	movw	r16, r28
     b4c:	0f 57       	subi	r16, 0x7F	; 127
     b4e:	17 4f       	sbci	r17, 0xF7	; 247
     b50:	f8 01       	movw	r30, r16
     b52:	60 81       	ld	r22, Z
     b54:	71 81       	ldd	r23, Z+1	; 0x01
     b56:	88 e3       	ldi	r24, 0x38	; 56
     b58:	90 e0       	ldi	r25, 0x00	; 0
     b5a:	0e 94 cb 04 	call	0x996	; 0x996 <send_variables>
	send_variables(PID_D_ADDR, d_value[channel - 1]);
     b5e:	cf 5d       	subi	r28, 0xDF	; 223
     b60:	d7 4f       	sbci	r29, 0xF7	; 247
     b62:	68 81       	ld	r22, Y
     b64:	79 81       	ldd	r23, Y+1	; 0x01
     b66:	8a e3       	ldi	r24, 0x3A	; 58
     b68:	90 e0       	ldi	r25, 0x00	; 0
     b6a:	0e 94 cb 04 	call	0x996	; 0x996 <send_variables>

	send_variables(PID_P, p_value[channel - 1]);
     b6e:	f7 01       	movw	r30, r14
     b70:	60 81       	ld	r22, Z
     b72:	71 81       	ldd	r23, Z+1	; 0x01
     b74:	82 e5       	ldi	r24, 0x52	; 82
     b76:	91 e0       	ldi	r25, 0x01	; 1
     b78:	0e 94 cb 04 	call	0x996	; 0x996 <send_variables>
	send_variables(PID_I, i_value[channel - 1]);
     b7c:	f8 01       	movw	r30, r16
     b7e:	60 81       	ld	r22, Z
     b80:	71 81       	ldd	r23, Z+1	; 0x01
     b82:	84 e5       	ldi	r24, 0x54	; 84
     b84:	91 e0       	ldi	r25, 0x01	; 1
     b86:	0e 94 cb 04 	call	0x996	; 0x996 <send_variables>
	send_variables(PID_D, d_value[channel - 1]);
     b8a:	68 81       	ld	r22, Y
     b8c:	79 81       	ldd	r23, Y+1	; 0x01
     b8e:	86 e5       	ldi	r24, 0x56	; 86
     b90:	91 e0       	ldi	r25, 0x01	; 1
     b92:	0e 94 cb 04 	call	0x996	; 0x996 <send_variables>

	p_value_buff = p_value[channel - 1];
     b96:	f7 01       	movw	r30, r14
     b98:	80 81       	ld	r24, Z
     b9a:	91 81       	ldd	r25, Z+1	; 0x01
     b9c:	90 93 7d 01 	sts	0x017D, r25	; 0x80017d <p_value_buff+0x1>
     ba0:	80 93 7c 01 	sts	0x017C, r24	; 0x80017c <p_value_buff>
	i_value_buff = i_value[channel - 1];
     ba4:	f8 01       	movw	r30, r16
     ba6:	80 81       	ld	r24, Z
     ba8:	91 81       	ldd	r25, Z+1	; 0x01
     baa:	90 93 7b 01 	sts	0x017B, r25	; 0x80017b <i_value_buff+0x1>
     bae:	80 93 7a 01 	sts	0x017A, r24	; 0x80017a <i_value_buff>
	d_value_buff = d_value[channel - 1];
     bb2:	88 81       	ld	r24, Y
     bb4:	99 81       	ldd	r25, Y+1	; 0x01
     bb6:	90 93 79 01 	sts	0x0179, r25	; 0x800179 <d_value_buff+0x1>
     bba:	80 93 78 01 	sts	0x0178, r24	; 0x800178 <d_value_buff>
}
     bbe:	df 91       	pop	r29
     bc0:	cf 91       	pop	r28
     bc2:	1f 91       	pop	r17
     bc4:	0f 91       	pop	r16
     bc6:	ff 90       	pop	r15
     bc8:	ef 90       	pop	r14
     bca:	08 95       	ret

00000bcc <update_time_ctrl_page>:
	OPEN_CURVE(count);
}

/*更新射胶时间控制界面*/
void update_time_ctrl_page(void)
{
     bcc:	ef 92       	push	r14
     bce:	ff 92       	push	r15
     bd0:	0f 93       	push	r16
     bd2:	1f 93       	push	r17
     bd4:	cf 93       	push	r28
     bd6:	df 93       	push	r29
	uint8_t j, k;
	uint8_t addr_offset = 0x00;

	if (module_num < 1)
     bd8:	60 91 71 01 	lds	r22, 0x0171	; 0x800171 <module_num>
     bdc:	61 11       	cpse	r22, r1
     bde:	04 c0       	rjmp	.+8      	; 0xbe8 <update_time_ctrl_page+0x1c>
	{
		module_num = 1;
     be0:	81 e0       	ldi	r24, 0x01	; 1
     be2:	80 93 71 01 	sts	0x0171, r24	; 0x800171 <module_num>
     be6:	49 c0       	rjmp	.+146    	; 0xc7a <update_time_ctrl_page+0xae>
	}
	else if (module_num > 4)
     be8:	65 30       	cpi	r22, 0x05	; 5
     bea:	20 f0       	brcs	.+8      	; 0xbf4 <update_time_ctrl_page+0x28>
	{
		module_num = 4;
     bec:	84 e0       	ldi	r24, 0x04	; 4
     bee:	80 93 71 01 	sts	0x0171, r24	; 0x800171 <module_num>
     bf2:	43 c0       	rjmp	.+134    	; 0xc7a <update_time_ctrl_page+0xae>
	}
	else
	{
		send_variables(MODULE_NUM_ADDR, module_num);
     bf4:	70 e0       	ldi	r23, 0x00	; 0
     bf6:	82 e7       	ldi	r24, 0x72	; 114
     bf8:	90 e0       	ldi	r25, 0x00	; 0
     bfa:	0e 94 cb 04 	call	0x996	; 0x996 <send_variables>
		send_variables(MODULE_STATUS_ADDR, module_status[module_num - 1]);
     bfe:	e0 91 71 01 	lds	r30, 0x0171	; 0x800171 <module_num>
     c02:	f0 e0       	ldi	r31, 0x00	; 0
     c04:	ea 56       	subi	r30, 0x6A	; 106
     c06:	fe 4f       	sbci	r31, 0xFE	; 254
     c08:	60 81       	ld	r22, Z
     c0a:	70 e0       	ldi	r23, 0x00	; 0
     c0c:	80 e7       	ldi	r24, 0x70	; 112
     c0e:	90 e0       	ldi	r25, 0x00	; 0
     c10:	0e 94 cb 04 	call	0x996	; 0x996 <send_variables>
     c14:	c0 e0       	ldi	r28, 0x00	; 0
     c16:	d0 e0       	ldi	r29, 0x00	; 0

/*更新射胶时间控制界面*/
void update_time_ctrl_page(void)
{
	uint8_t j, k;
	uint8_t addr_offset = 0x00;
     c18:	e1 2c       	mov	r14, r1
     c1a:	2b c0       	rjmp	.+86     	; 0xc72 <update_time_ctrl_page+0xa6>

		for (j = 0; j < 8; j++)
		{
			for (k = 0; k < 4; k++)
			{
				send_variables(IQR1_T1 + addr_offset, time_ctrl_value[module_num - 1][j][k]);
     c1c:	e0 91 71 01 	lds	r30, 0x0171	; 0x800171 <module_num>
     c20:	f0 e0       	ldi	r31, 0x00	; 0
     c22:	31 97       	sbiw	r30, 0x01	; 1
     c24:	ee 0f       	add	r30, r30
     c26:	ff 1f       	adc	r31, r31
     c28:	ee 0f       	add	r30, r30
     c2a:	ff 1f       	adc	r31, r31
     c2c:	ee 0f       	add	r30, r30
     c2e:	ff 1f       	adc	r31, r31
     c30:	ec 0f       	add	r30, r28
     c32:	fd 1f       	adc	r31, r29
     c34:	ee 0f       	add	r30, r30
     c36:	ff 1f       	adc	r31, r31
     c38:	ee 0f       	add	r30, r30
     c3a:	ff 1f       	adc	r31, r31
     c3c:	e0 0f       	add	r30, r16
     c3e:	f1 1f       	adc	r31, r17
     c40:	ee 0f       	add	r30, r30
     c42:	ff 1f       	adc	r31, r31
     c44:	ef 5d       	subi	r30, 0xDF	; 223
     c46:	f8 4f       	sbci	r31, 0xF8	; 248
     c48:	60 81       	ld	r22, Z
     c4a:	71 81       	ldd	r23, Z+1	; 0x01
     c4c:	8f 2d       	mov	r24, r15
     c4e:	90 e0       	ldi	r25, 0x00	; 0
     c50:	8e 59       	subi	r24, 0x9E	; 158
     c52:	9e 4f       	sbci	r25, 0xFE	; 254
     c54:	0e 94 cb 04 	call	0x996	; 0x996 <send_variables>
				addr_offset += 0x02;
     c58:	f3 94       	inc	r15
     c5a:	f3 94       	inc	r15
     c5c:	0f 5f       	subi	r16, 0xFF	; 255
     c5e:	1f 4f       	sbci	r17, 0xFF	; 255
		send_variables(MODULE_NUM_ADDR, module_num);
		send_variables(MODULE_STATUS_ADDR, module_status[module_num - 1]);

		for (j = 0; j < 8; j++)
		{
			for (k = 0; k < 4; k++)
     c60:	04 30       	cpi	r16, 0x04	; 4
     c62:	11 05       	cpc	r17, r1
     c64:	d9 f6       	brne	.-74     	; 0xc1c <update_time_ctrl_page+0x50>
     c66:	88 e0       	ldi	r24, 0x08	; 8
     c68:	e8 0e       	add	r14, r24
     c6a:	21 96       	adiw	r28, 0x01	; 1
	else
	{
		send_variables(MODULE_NUM_ADDR, module_num);
		send_variables(MODULE_STATUS_ADDR, module_status[module_num - 1]);

		for (j = 0; j < 8; j++)
     c6c:	80 e4       	ldi	r24, 0x40	; 64
     c6e:	e8 16       	cp	r14, r24
     c70:	21 f0       	breq	.+8      	; 0xc7a <update_time_ctrl_page+0xae>
	OPEN_CURVE(count);
}

/*更新射胶时间控制界面*/
void update_time_ctrl_page(void)
{
     c72:	fe 2c       	mov	r15, r14
     c74:	00 e0       	ldi	r16, 0x00	; 0
     c76:	10 e0       	ldi	r17, 0x00	; 0
     c78:	d1 cf       	rjmp	.-94     	; 0xc1c <update_time_ctrl_page+0x50>
				send_variables(IQR1_T1 + addr_offset, time_ctrl_value[module_num - 1][j][k]);
				addr_offset += 0x02;
			}
		}
	}
}
     c7a:	df 91       	pop	r29
     c7c:	cf 91       	pop	r28
     c7e:	1f 91       	pop	r17
     c80:	0f 91       	pop	r16
     c82:	ff 90       	pop	r15
     c84:	ef 90       	pop	r14
     c86:	08 95       	ret

00000c88 <start_time_ctrl>:
	}
}

/*向时间控制子模块发送开始命令 并发送每个通道的 T1―T4 数据*/
void start_time_ctrl(uint8_t slave_num)
{
     c88:	df 92       	push	r13
     c8a:	ef 92       	push	r14
     c8c:	ff 92       	push	r15
     c8e:	0f 93       	push	r16
     c90:	1f 93       	push	r17
     c92:	cf 93       	push	r28
     c94:	df 93       	push	r29
	uint8_t i, j;
	uint8_t cnt = 0; //计数第几个数据
	uint16_t crc = 0;

	usart2_tx_buff[0] = 0xA5;
     c96:	e3 e3       	ldi	r30, 0x33	; 51
     c98:	f3 e0       	ldi	r31, 0x03	; 3
     c9a:	95 ea       	ldi	r25, 0xA5	; 165
     c9c:	90 83       	st	Z, r25
	usart2_tx_buff[1] = 0x5A;
     c9e:	9a e5       	ldi	r25, 0x5A	; 90
     ca0:	91 83       	std	Z+1, r25	; 0x01
	usart2_tx_buff[2] = 0x42;
     ca2:	92 e4       	ldi	r25, 0x42	; 66
     ca4:	92 83       	std	Z+2, r25	; 0x02
	usart2_tx_buff[3] = TIME_CTRL_START;
     ca6:	9d e1       	ldi	r25, 0x1D	; 29
     ca8:	93 83       	std	Z+3, r25	; 0x03
	usart2_tx_buff[4] = slave_num - 1;
     caa:	9f ef       	ldi	r25, 0xFF	; 255
     cac:	98 0f       	add	r25, r24
     cae:	94 83       	std	Z+4, r25	; 0x04
     cb0:	40 e4       	ldi	r20, 0x40	; 64
     cb2:	84 9f       	mul	r24, r20
     cb4:	90 01       	movw	r18, r0
     cb6:	11 24       	eor	r1, r1
     cb8:	a9 01       	movw	r20, r18
     cba:	4f 51       	subi	r20, 0x1F	; 31
     cbc:	59 4f       	sbci	r21, 0xF9	; 249
     cbe:	7a 01       	movw	r14, r20

/*向时间控制子模块发送开始命令 并发送每个通道的 T1―T4 数据*/
void start_time_ctrl(uint8_t slave_num)
{
	uint8_t i, j;
	uint8_t cnt = 0; //计数第几个数据
     cc0:	90 e0       	ldi	r25, 0x00	; 0

	for (i = 0; i < 8; i++)
	{
		for (j = 0; j < 4; j++)
		{
			usart2_tx_buff[cnt + 5] = time_ctrl_value[slave_num - 1][i][j] >> 8;
     cc2:	68 2f       	mov	r22, r24
     cc4:	70 e0       	ldi	r23, 0x00	; 0
     cc6:	d8 2e       	mov	r13, r24
     cc8:	57 2f       	mov	r21, r23
     cca:	61 50       	subi	r22, 0x01	; 1
     ccc:	71 09       	sbc	r23, r1
     cce:	17 c0       	rjmp	.+46     	; 0xcfe <start_time_ctrl+0x76>
     cd0:	e9 2f       	mov	r30, r25
     cd2:	f0 e0       	ldi	r31, 0x00	; 0
     cd4:	cd 2d       	mov	r28, r13
     cd6:	d5 2f       	mov	r29, r21
     cd8:	8b 01       	movw	r16, r22
     cda:	2c 91       	ld	r18, X
     cdc:	11 96       	adiw	r26, 0x01	; 1
     cde:	3c 91       	ld	r19, X
     ce0:	11 97       	sbiw	r26, 0x01	; 1
     ce2:	12 96       	adiw	r26, 0x02	; 2
     ce4:	ed 5c       	subi	r30, 0xCD	; 205
     ce6:	fc 4f       	sbci	r31, 0xFC	; 252
     ce8:	35 83       	std	Z+5, r19	; 0x05
			usart2_tx_buff[cnt + 6] = time_ctrl_value[slave_num - 1][i][j];
     cea:	26 83       	std	Z+6, r18	; 0x06
			cnt += 2;
     cec:	9e 5f       	subi	r25, 0xFE	; 254
	usart2_tx_buff[3] = TIME_CTRL_START;
	usart2_tx_buff[4] = slave_num - 1;

	for (i = 0; i < 8; i++)
	{
		for (j = 0; j < 4; j++)
     cee:	94 13       	cpse	r25, r20
     cf0:	ef cf       	rjmp	.-34     	; 0xcd0 <start_time_ctrl+0x48>
     cf2:	98 e0       	ldi	r25, 0x08	; 8
     cf4:	e9 0e       	add	r14, r25
     cf6:	f1 1c       	adc	r15, r1
		{
			usart2_tx_buff[cnt + 5] = time_ctrl_value[slave_num - 1][i][j] >> 8;
			usart2_tx_buff[cnt + 6] = time_ctrl_value[slave_num - 1][i][j];
			cnt += 2;
     cf8:	94 2f       	mov	r25, r20
	usart2_tx_buff[1] = 0x5A;
	usart2_tx_buff[2] = 0x42;
	usart2_tx_buff[3] = TIME_CTRL_START;
	usart2_tx_buff[4] = slave_num - 1;

	for (i = 0; i < 8; i++)
     cfa:	40 34       	cpi	r20, 0x40	; 64
     cfc:	21 f0       	breq	.+8      	; 0xd06 <start_time_ctrl+0x7e>
     cfe:	48 e0       	ldi	r20, 0x08	; 8
     d00:	49 0f       	add	r20, r25
	}
}

/*向时间控制子模块发送开始命令 并发送每个通道的 T1―T4 数据*/
void start_time_ctrl(uint8_t slave_num)
{
     d02:	d7 01       	movw	r26, r14
     d04:	e5 cf       	rjmp	.-54     	; 0xcd0 <start_time_ctrl+0x48>
			usart2_tx_buff[cnt + 6] = time_ctrl_value[slave_num - 1][i][j];
			cnt += 2;
		}
	}

	crc = crc_check(usart2_tx_buff, 71);
     d06:	67 e4       	ldi	r22, 0x47	; 71
     d08:	83 e3       	ldi	r24, 0x33	; 51
     d0a:	93 e0       	ldi	r25, 0x03	; 3
     d0c:	0e 94 04 14 	call	0x2808	; 0x2808 <crc_check>

	usart2_tx_buff[69] = crc & 0x00FF;
     d10:	80 93 78 03 	sts	0x0378, r24	; 0x800378 <usart2_tx_buff+0x45>
	usart2_tx_buff[70] = crc >> 8;
     d14:	90 93 79 03 	sts	0x0379, r25	; 0x800379 <usart2_tx_buff+0x46>

	usart2_send_str(usart2_tx_buff, 71);
     d18:	67 e4       	ldi	r22, 0x47	; 71
     d1a:	83 e3       	ldi	r24, 0x33	; 51
     d1c:	93 e0       	ldi	r25, 0x03	; 3
     d1e:	0e 94 e6 13 	call	0x27cc	; 0x27cc <usart2_send_str>

	module_status[slave_num - 1] = 1;
     d22:	f8 01       	movw	r30, r16
     d24:	e9 56       	subi	r30, 0x69	; 105
     d26:	fe 4f       	sbci	r31, 0xFE	; 254
     d28:	81 e0       	ldi	r24, 0x01	; 1
     d2a:	80 83       	st	Z, r24
	send_variables(MODULE_STATUS_ADDR, module_status[slave_num - 1]);
     d2c:	61 e0       	ldi	r22, 0x01	; 1
     d2e:	70 e0       	ldi	r23, 0x00	; 0
     d30:	80 e7       	ldi	r24, 0x70	; 112
     d32:	90 e0       	ldi	r25, 0x00	; 0
     d34:	0e 94 cb 04 	call	0x996	; 0x996 <send_variables>
	PORTA &= ~(1 << (7 - slave_num));
     d38:	2b b3       	in	r18, 0x1b	; 27
     d3a:	47 e0       	ldi	r20, 0x07	; 7
     d3c:	50 e0       	ldi	r21, 0x00	; 0
     d3e:	4c 1b       	sub	r20, r28
     d40:	5d 0b       	sbc	r21, r29
     d42:	81 e0       	ldi	r24, 0x01	; 1
     d44:	90 e0       	ldi	r25, 0x00	; 0
     d46:	02 c0       	rjmp	.+4      	; 0xd4c <start_time_ctrl+0xc4>
     d48:	88 0f       	add	r24, r24
     d4a:	99 1f       	adc	r25, r25
     d4c:	4a 95       	dec	r20
     d4e:	e2 f7       	brpl	.-8      	; 0xd48 <start_time_ctrl+0xc0>
     d50:	80 95       	com	r24
     d52:	82 23       	and	r24, r18
     d54:	8b bb       	out	0x1b, r24	; 27
}
     d56:	df 91       	pop	r29
     d58:	cf 91       	pop	r28
     d5a:	1f 91       	pop	r17
     d5c:	0f 91       	pop	r16
     d5e:	ff 90       	pop	r15
     d60:	ef 90       	pop	r14
     d62:	df 90       	pop	r13
     d64:	08 95       	ret

00000d66 <stop_time_ctrl>:
	// PORTA &= ~(1 << (7 - slave_num));
}

/*向时间控制子模块发送停止命令 不需要发送每个通道的 T1―T4 数据*/
void stop_time_ctrl(uint8_t slave_num)
{
     d66:	1f 93       	push	r17
     d68:	cf 93       	push	r28
     d6a:	df 93       	push	r29
     d6c:	18 2f       	mov	r17, r24
	uint16_t crc = 0;

	usart2_tx_buff[0] = 0xA5;
     d6e:	c3 e3       	ldi	r28, 0x33	; 51
     d70:	d3 e0       	ldi	r29, 0x03	; 3
     d72:	85 ea       	ldi	r24, 0xA5	; 165
     d74:	88 83       	st	Y, r24
	usart2_tx_buff[1] = 0x5A;
     d76:	8a e5       	ldi	r24, 0x5A	; 90
     d78:	89 83       	std	Y+1, r24	; 0x01
	usart2_tx_buff[2] = 0x02;
     d7a:	82 e0       	ldi	r24, 0x02	; 2
     d7c:	8a 83       	std	Y+2, r24	; 0x02
	usart2_tx_buff[3] = TIME_CTRL_STOP;
     d7e:	8c e1       	ldi	r24, 0x1C	; 28
     d80:	8b 83       	std	Y+3, r24	; 0x03
	usart2_tx_buff[4] = slave_num - 1;
     d82:	8f ef       	ldi	r24, 0xFF	; 255
     d84:	81 0f       	add	r24, r17
     d86:	8c 83       	std	Y+4, r24	; 0x04

	crc = crc_check(usart2_tx_buff, 7);
     d88:	67 e0       	ldi	r22, 0x07	; 7
     d8a:	ce 01       	movw	r24, r28
     d8c:	0e 94 04 14 	call	0x2808	; 0x2808 <crc_check>

	usart2_tx_buff[5] = crc & 0x00FF;
     d90:	8d 83       	std	Y+5, r24	; 0x05
	usart2_tx_buff[6] = crc >> 8;
     d92:	9e 83       	std	Y+6, r25	; 0x06

	usart2_send_str(usart2_tx_buff, 7);
     d94:	67 e0       	ldi	r22, 0x07	; 7
     d96:	ce 01       	movw	r24, r28
     d98:	0e 94 e6 13 	call	0x27cc	; 0x27cc <usart2_send_str>

	module_status[slave_num - 1] = 0;
     d9c:	c1 2f       	mov	r28, r17
     d9e:	d0 e0       	ldi	r29, 0x00	; 0
     da0:	fe 01       	movw	r30, r28
     da2:	ea 56       	subi	r30, 0x6A	; 106
     da4:	fe 4f       	sbci	r31, 0xFE	; 254
     da6:	10 82       	st	Z, r1
	send_variables(MODULE_STATUS_ADDR, module_status[slave_num - 1]);
     da8:	60 e0       	ldi	r22, 0x00	; 0
     daa:	70 e0       	ldi	r23, 0x00	; 0
     dac:	80 e7       	ldi	r24, 0x70	; 112
     dae:	90 e0       	ldi	r25, 0x00	; 0
     db0:	0e 94 cb 04 	call	0x996	; 0x996 <send_variables>
	PORTA |= (1 << (7 - slave_num));
     db4:	4b b3       	in	r20, 0x1b	; 27
     db6:	27 e0       	ldi	r18, 0x07	; 7
     db8:	30 e0       	ldi	r19, 0x00	; 0
     dba:	2c 1b       	sub	r18, r28
     dbc:	3d 0b       	sbc	r19, r29
     dbe:	81 e0       	ldi	r24, 0x01	; 1
     dc0:	90 e0       	ldi	r25, 0x00	; 0
     dc2:	02 c0       	rjmp	.+4      	; 0xdc8 <stop_time_ctrl+0x62>
     dc4:	88 0f       	add	r24, r24
     dc6:	99 1f       	adc	r25, r25
     dc8:	2a 95       	dec	r18
     dca:	e2 f7       	brpl	.-8      	; 0xdc4 <stop_time_ctrl+0x5e>
     dcc:	84 2b       	or	r24, r20
     dce:	8b bb       	out	0x1b, r24	; 27
}
     dd0:	df 91       	pop	r29
     dd2:	cf 91       	pop	r28
     dd4:	1f 91       	pop	r17
     dd6:	08 95       	ret

00000dd8 <send_name>:

	usart0_send_str(usart0_tx_buff, 10);
}

void send_name(uint16_t addr, uint32_t name)
{
     dd8:	cf 93       	push	r28
     dda:	df 93       	push	r29
	uint16_t crc = 0;

	usart0_tx_buff[0] = 0xA5;
     ddc:	c1 e9       	ldi	r28, 0x91	; 145
     dde:	d5 e0       	ldi	r29, 0x05	; 5
     de0:	25 ea       	ldi	r18, 0xA5	; 165
     de2:	28 83       	st	Y, r18
	usart0_tx_buff[1] = 0x5A;
     de4:	2a e5       	ldi	r18, 0x5A	; 90
     de6:	29 83       	std	Y+1, r18	; 0x01
	usart0_tx_buff[2] = 0x07;
     de8:	27 e0       	ldi	r18, 0x07	; 7
     dea:	2a 83       	std	Y+2, r18	; 0x02
	usart0_tx_buff[3] = 0x82;
     dec:	22 e8       	ldi	r18, 0x82	; 130
     dee:	2b 83       	std	Y+3, r18	; 0x03
	usart0_tx_buff[4] = addr >> 8;
     df0:	9c 83       	std	Y+4, r25	; 0x04
	usart0_tx_buff[5] = addr & 0x00FF;
     df2:	8d 83       	std	Y+5, r24	; 0x05
	usart0_tx_buff[6] = name >> 24;
     df4:	7e 83       	std	Y+6, r23	; 0x06
	usart0_tx_buff[7] = name >> 16;
     df6:	6f 83       	std	Y+7, r22	; 0x07
	usart0_tx_buff[8] = name >> 8;
     df8:	58 87       	std	Y+8, r21	; 0x08
	usart0_tx_buff[9] = name;
     dfa:	49 87       	std	Y+9, r20	; 0x09

	crc = crc_check(usart0_tx_buff, 12);
     dfc:	6c e0       	ldi	r22, 0x0C	; 12
     dfe:	ce 01       	movw	r24, r28
     e00:	0e 94 04 14 	call	0x2808	; 0x2808 <crc_check>

	usart0_tx_buff[10] = crc & 0x00FF;
     e04:	8a 87       	std	Y+10, r24	; 0x0a
	usart0_tx_buff[11] = crc >> 8;
     e06:	9b 87       	std	Y+11, r25	; 0x0b

	usart0_send_str(usart0_tx_buff, 12);
     e08:	6c e0       	ldi	r22, 0x0C	; 12
     e0a:	ce 01       	movw	r24, r28
     e0c:	0e 94 9d 13 	call	0x273a	; 0x273a <usart0_send_str>
}
     e10:	df 91       	pop	r29
     e12:	cf 91       	pop	r28
     e14:	08 95       	ret

00000e16 <update_main_page>:
// 		}
// 	}
// }

void update_main_page(void)
{
     e16:	af 92       	push	r10
     e18:	bf 92       	push	r11
     e1a:	cf 92       	push	r12
     e1c:	df 92       	push	r13
     e1e:	ef 92       	push	r14
     e20:	ff 92       	push	r15
     e22:	0f 93       	push	r16
     e24:	1f 93       	push	r17
     e26:	cf 93       	push	r28
     e28:	df 93       	push	r29
     e2a:	68 94       	set
     e2c:	ee 24       	eor	r14, r14
     e2e:	e6 f8       	bld	r14, 6
     e30:	ff 24       	eor	r15, r15
     e32:	f1 f8       	bld	r15, 1
     e34:	0f 2e       	mov	r0, r31
     e36:	f0 e7       	ldi	r31, 0x70	; 112
     e38:	cf 2e       	mov	r12, r31
     e3a:	f2 e0       	ldi	r31, 0x02	; 2
     e3c:	df 2e       	mov	r13, r31
     e3e:	f0 2d       	mov	r31, r0
     e40:	0c e0       	ldi	r16, 0x0C	; 12
     e42:	10 e0       	ldi	r17, 0x00	; 0
     e44:	c0 e0       	ldi	r28, 0x00	; 0
     e46:	d0 e0       	ldi	r29, 0x00	; 0

	for (i = 0; i < IQR_QUANTITY_PER_PAGE; i++)
	{
		send_variables(MAINPAGE_NUM1_ADDR + (i * 2), (i + (pre_main_page * IQR_QUANTITY_PER_PAGE) + 1));		//主页面传感器序号显示
		send_variables(MAIN_OUTRATE1_ADDR + (i * 2), output_rate[i + (pre_main_page * IQR_QUANTITY_PER_PAGE)]); //传感器输出比例
		send_variables(MAIN_RUNTEMP1_ADDR + (i * 2), run_temp[i + (pre_main_page * IQR_QUANTITY_PER_PAGE)] +
     e48:	0f 2e       	mov	r0, r31
     e4a:	fa e0       	ldi	r31, 0x0A	; 10
     e4c:	af 2e       	mov	r10, r31
     e4e:	b1 2c       	mov	r11, r1
     e50:	f0 2d       	mov	r31, r0
{
	uint8_t i = 0;

	for (i = 0; i < IQR_QUANTITY_PER_PAGE; i++)
	{
		send_variables(MAINPAGE_NUM1_ADDR + (i * 2), (i + (pre_main_page * IQR_QUANTITY_PER_PAGE) + 1));		//主页面传感器序号显示
     e52:	80 91 b8 02 	lds	r24, 0x02B8	; 0x8002b8 <pre_main_page>
     e56:	08 2e       	mov	r0, r24
     e58:	00 0c       	add	r0, r0
     e5a:	99 0b       	sbc	r25, r25
     e5c:	bc 01       	movw	r22, r24
     e5e:	66 0f       	add	r22, r22
     e60:	77 1f       	adc	r23, r23
     e62:	68 0f       	add	r22, r24
     e64:	79 1f       	adc	r23, r25
     e66:	66 0f       	add	r22, r22
     e68:	77 1f       	adc	r23, r23
     e6a:	6c 0f       	add	r22, r28
     e6c:	7d 1f       	adc	r23, r29
     e6e:	6f 5f       	subi	r22, 0xFF	; 255
     e70:	7f 4f       	sbci	r23, 0xFF	; 255
     e72:	ce 01       	movw	r24, r28
     e74:	88 0f       	add	r24, r24
     e76:	99 1f       	adc	r25, r25
     e78:	0e 94 cb 04 	call	0x996	; 0x996 <send_variables>
		send_variables(MAIN_OUTRATE1_ADDR + (i * 2), output_rate[i + (pre_main_page * IQR_QUANTITY_PER_PAGE)]); //传感器输出比例
     e7c:	80 91 b8 02 	lds	r24, 0x02B8	; 0x8002b8 <pre_main_page>
     e80:	08 2e       	mov	r0, r24
     e82:	00 0c       	add	r0, r0
     e84:	99 0b       	sbc	r25, r25
     e86:	fc 01       	movw	r30, r24
     e88:	ee 0f       	add	r30, r30
     e8a:	ff 1f       	adc	r31, r31
     e8c:	e8 0f       	add	r30, r24
     e8e:	f9 1f       	adc	r31, r25
     e90:	ee 0f       	add	r30, r30
     e92:	ff 1f       	adc	r31, r31
     e94:	ed 56       	subi	r30, 0x6D	; 109
     e96:	fd 4f       	sbci	r31, 0xFD	; 253
     e98:	ec 0f       	add	r30, r28
     e9a:	fd 1f       	adc	r31, r29
     e9c:	60 81       	ld	r22, Z
     e9e:	70 e0       	ldi	r23, 0x00	; 0
     ea0:	c8 01       	movw	r24, r16
     ea2:	0e 94 cb 04 	call	0x996	; 0x996 <send_variables>
		send_variables(MAIN_RUNTEMP1_ADDR + (i * 2), run_temp[i + (pre_main_page * IQR_QUANTITY_PER_PAGE)] +
     ea6:	80 91 b8 02 	lds	r24, 0x02B8	; 0x8002b8 <pre_main_page>
     eaa:	08 2e       	mov	r0, r24
     eac:	00 0c       	add	r0, r0
     eae:	99 0b       	sbc	r25, r25
     eb0:	fc 01       	movw	r30, r24
     eb2:	ee 0f       	add	r30, r30
     eb4:	ff 1f       	adc	r31, r31
     eb6:	e8 0f       	add	r30, r24
     eb8:	f9 1f       	adc	r31, r25
     eba:	ee 0f       	add	r30, r30
     ebc:	ff 1f       	adc	r31, r31
     ebe:	ec 0f       	add	r30, r28
     ec0:	fd 1f       	adc	r31, r29
     ec2:	ee 0f       	add	r30, r30
     ec4:	ff 1f       	adc	r31, r31
     ec6:	ed 5c       	subi	r30, 0xCD	; 205
     ec8:	fd 4f       	sbci	r31, 0xFD	; 253
     eca:	20 81       	ld	r18, Z
     ecc:	31 81       	ldd	r19, Z+1	; 0x01
     ece:	c9 01       	movw	r24, r18
     ed0:	88 0f       	add	r24, r24
     ed2:	99 1f       	adc	r25, r25
     ed4:	88 0f       	add	r24, r24
     ed6:	99 1f       	adc	r25, r25
     ed8:	88 0f       	add	r24, r24
     eda:	99 1f       	adc	r25, r25
     edc:	b5 01       	movw	r22, r10
     ede:	0e 94 8f 16 	call	0x2d1e	; 0x2d1e <__divmodhi4>
     ee2:	cb 01       	movw	r24, r22
     ee4:	80 96       	adiw	r24, 0x20	; 32
     ee6:	40 91 9b 01 	lds	r20, 0x019B	; 0x80019b <temp_unit>
     eea:	50 91 9c 01 	lds	r21, 0x019C	; 0x80019c <temp_unit+0x1>
     eee:	84 9f       	mul	r24, r20
     ef0:	b0 01       	movw	r22, r0
     ef2:	85 9f       	mul	r24, r21
     ef4:	70 0d       	add	r23, r0
     ef6:	94 9f       	mul	r25, r20
     ef8:	70 0d       	add	r23, r0
     efa:	11 24       	eor	r1, r1
     efc:	62 0f       	add	r22, r18
     efe:	73 1f       	adc	r23, r19
     f00:	c8 01       	movw	r24, r16
     f02:	0c 96       	adiw	r24, 0x0c	; 12
     f04:	0e 94 cb 04 	call	0x996	; 0x996 <send_variables>
														 temp_unit * (run_temp[i + (pre_main_page * IQR_QUANTITY_PER_PAGE)] * 8 / 10 + 32)); //运行温度
		send_variables(MAIN_SETTEMP1_ADDR + (i * 2), set_temp[i + (pre_main_page * IQR_QUANTITY_PER_PAGE)]);								 //设定温度
     f08:	80 91 b8 02 	lds	r24, 0x02B8	; 0x8002b8 <pre_main_page>
     f0c:	08 2e       	mov	r0, r24
     f0e:	00 0c       	add	r0, r0
     f10:	99 0b       	sbc	r25, r25
     f12:	fc 01       	movw	r30, r24
     f14:	ee 0f       	add	r30, r30
     f16:	ff 1f       	adc	r31, r31
     f18:	e8 0f       	add	r30, r24
     f1a:	f9 1f       	adc	r31, r25
     f1c:	ee 0f       	add	r30, r30
     f1e:	ff 1f       	adc	r31, r31
     f20:	ec 0f       	add	r30, r28
     f22:	fd 1f       	adc	r31, r29
     f24:	ee 0f       	add	r30, r30
     f26:	ff 1f       	adc	r31, r31
     f28:	e3 56       	subi	r30, 0x63	; 99
     f2a:	f6 4f       	sbci	r31, 0xF6	; 246
     f2c:	60 81       	ld	r22, Z
     f2e:	71 81       	ldd	r23, Z+1	; 0x01
     f30:	c8 01       	movw	r24, r16
     f32:	48 96       	adiw	r24, 0x18	; 24
     f34:	0e 94 cb 04 	call	0x996	; 0x996 <send_variables>
		send_variables(MAIN_SENSOR1_TYPE_ADDR + (i * 2), TYPE_J + (sensor_type[i + (pre_main_page * IQR_QUANTITY_PER_PAGE)]) * TYPE_K);
     f38:	80 91 b8 02 	lds	r24, 0x02B8	; 0x8002b8 <pre_main_page>
     f3c:	08 2e       	mov	r0, r24
     f3e:	00 0c       	add	r0, r0
     f40:	99 0b       	sbc	r25, r25
     f42:	fc 01       	movw	r30, r24
     f44:	ee 0f       	add	r30, r30
     f46:	ff 1f       	adc	r31, r31
     f48:	e8 0f       	add	r30, r24
     f4a:	f9 1f       	adc	r31, r25
     f4c:	ee 0f       	add	r30, r30
     f4e:	ff 1f       	adc	r31, r31
     f50:	ec 0f       	add	r30, r28
     f52:	fd 1f       	adc	r31, r29
     f54:	ee 0f       	add	r30, r30
     f56:	ff 1f       	adc	r31, r31
     f58:	ed 52       	subi	r30, 0x2D	; 45
     f5a:	fe 4f       	sbci	r31, 0xFE	; 254
     f5c:	80 81       	ld	r24, Z
     f5e:	91 81       	ldd	r25, Z+1	; 0x01
     f60:	86 5b       	subi	r24, 0xB6	; 182
     f62:	9f 4f       	sbci	r25, 0xFF	; 255
     f64:	60 e0       	ldi	r22, 0x00	; 0
     f66:	78 2f       	mov	r23, r24
     f68:	c8 01       	movw	r24, r16
     f6a:	8c 5d       	subi	r24, 0xDC	; 220
     f6c:	9d 4f       	sbci	r25, 0xFD	; 253
     f6e:	0e 94 cb 04 	call	0x996	; 0x996 <send_variables>

		send_name(MAIN_NAME1_ADDR + (i * 8), set_name[i + (pre_main_page * IQR_QUANTITY_PER_PAGE)]);
     f72:	80 91 b8 02 	lds	r24, 0x02B8	; 0x8002b8 <pre_main_page>
     f76:	08 2e       	mov	r0, r24
     f78:	00 0c       	add	r0, r0
     f7a:	99 0b       	sbc	r25, r25
     f7c:	fc 01       	movw	r30, r24
     f7e:	ee 0f       	add	r30, r30
     f80:	ff 1f       	adc	r31, r31
     f82:	e8 0f       	add	r30, r24
     f84:	f9 1f       	adc	r31, r25
     f86:	ee 0f       	add	r30, r30
     f88:	ff 1f       	adc	r31, r31
     f8a:	ec 0f       	add	r30, r28
     f8c:	fd 1f       	adc	r31, r29
     f8e:	ee 0f       	add	r30, r30
     f90:	ff 1f       	adc	r31, r31
     f92:	ee 0f       	add	r30, r30
     f94:	ff 1f       	adc	r31, r31
     f96:	e3 5c       	subi	r30, 0xC3	; 195
     f98:	f6 4f       	sbci	r31, 0xF6	; 246
     f9a:	40 81       	ld	r20, Z
     f9c:	51 81       	ldd	r21, Z+1	; 0x01
     f9e:	62 81       	ldd	r22, Z+2	; 0x02
     fa0:	73 81       	ldd	r23, Z+3	; 0x03
     fa2:	c7 01       	movw	r24, r14
     fa4:	80 54       	subi	r24, 0x40	; 64
     fa6:	91 09       	sbc	r25, r1
     fa8:	0e 94 ec 06 	call	0xdd8	; 0xdd8 <send_name>

		/*更新传感状态图标 sensor_sta >= 3 时显示告警 0~2：关闭 开启 跟随*/
		/*更新告警类型图标 sensor_sta >= 3 时显示对应各种告警类型  0~2：显示运行正常*/
		if (sensor_sta[i + (pre_main_page * IQR_QUANTITY_PER_PAGE)] >= 3)
     fac:	80 91 b8 02 	lds	r24, 0x02B8	; 0x8002b8 <pre_main_page>
     fb0:	08 2e       	mov	r0, r24
     fb2:	00 0c       	add	r0, r0
     fb4:	99 0b       	sbc	r25, r25
     fb6:	fc 01       	movw	r30, r24
     fb8:	ee 0f       	add	r30, r30
     fba:	ff 1f       	adc	r31, r31
     fbc:	e8 0f       	add	r30, r24
     fbe:	f9 1f       	adc	r31, r25
     fc0:	ee 0f       	add	r30, r30
     fc2:	ff 1f       	adc	r31, r31
     fc4:	e5 58       	subi	r30, 0x85	; 133
     fc6:	fd 4f       	sbci	r31, 0xFD	; 253
     fc8:	ec 0f       	add	r30, r28
     fca:	fd 1f       	adc	r31, r29
     fcc:	60 81       	ld	r22, Z
     fce:	63 30       	cpi	r22, 0x03	; 3
     fd0:	d8 f0       	brcs	.+54     	; 0x1008 <update_main_page+0x1f2>
		{
			send_variables(MAIN_STA1_ADDR + (i * 4), 3);
     fd2:	63 e0       	ldi	r22, 0x03	; 3
     fd4:	70 e0       	ldi	r23, 0x00	; 0
     fd6:	c6 01       	movw	r24, r12
     fd8:	0e 94 cb 04 	call	0x996	; 0x996 <send_variables>
			send_variables(MAIN_ALARM1_ADDR + (i * 8), sensor_sta[i + (pre_main_page * IQR_QUANTITY_PER_PAGE)]);
     fdc:	80 91 b8 02 	lds	r24, 0x02B8	; 0x8002b8 <pre_main_page>
     fe0:	08 2e       	mov	r0, r24
     fe2:	00 0c       	add	r0, r0
     fe4:	99 0b       	sbc	r25, r25
     fe6:	fc 01       	movw	r30, r24
     fe8:	ee 0f       	add	r30, r30
     fea:	ff 1f       	adc	r31, r31
     fec:	e8 0f       	add	r30, r24
     fee:	f9 1f       	adc	r31, r25
     ff0:	ee 0f       	add	r30, r30
     ff2:	ff 1f       	adc	r31, r31
     ff4:	e5 58       	subi	r30, 0x85	; 133
     ff6:	fd 4f       	sbci	r31, 0xFD	; 253
     ff8:	ec 0f       	add	r30, r28
     ffa:	fd 1f       	adc	r31, r29
     ffc:	60 81       	ld	r22, Z
     ffe:	70 e0       	ldi	r23, 0x00	; 0
    1000:	c7 01       	movw	r24, r14
    1002:	0e 94 cb 04 	call	0x996	; 0x996 <send_variables>
    1006:	09 c0       	rjmp	.+18     	; 0x101a <update_main_page+0x204>
		}
		else
		{
			send_variables(MAIN_STA1_ADDR + (i * 4), sensor_sta[i + (pre_main_page * IQR_QUANTITY_PER_PAGE)]);
    1008:	70 e0       	ldi	r23, 0x00	; 0
    100a:	c6 01       	movw	r24, r12
    100c:	0e 94 cb 04 	call	0x996	; 0x996 <send_variables>
			send_variables(MAIN_ALARM1_ADDR + (i * 8), 2);
    1010:	62 e0       	ldi	r22, 0x02	; 2
    1012:	70 e0       	ldi	r23, 0x00	; 0
    1014:	c7 01       	movw	r24, r14
    1016:	0e 94 cb 04 	call	0x996	; 0x996 <send_variables>
    101a:	21 96       	adiw	r28, 0x01	; 1
    101c:	0e 5f       	subi	r16, 0xFE	; 254
    101e:	1f 4f       	sbci	r17, 0xFF	; 255
    1020:	84 e0       	ldi	r24, 0x04	; 4
    1022:	c8 0e       	add	r12, r24
    1024:	d1 1c       	adc	r13, r1
    1026:	88 e0       	ldi	r24, 0x08	; 8
    1028:	e8 0e       	add	r14, r24
    102a:	f1 1c       	adc	r15, r1

void update_main_page(void)
{
	uint8_t i = 0;

	for (i = 0; i < IQR_QUANTITY_PER_PAGE; i++)
    102c:	c6 30       	cpi	r28, 0x06	; 6
    102e:	d1 05       	cpc	r29, r1
    1030:	09 f0       	breq	.+2      	; 0x1034 <update_main_page+0x21e>
    1032:	0f cf       	rjmp	.-482    	; 0xe52 <update_main_page+0x3c>
		{
			send_variables(MAIN_STA1_ADDR + (i * 4), sensor_sta[i + (pre_main_page * IQR_QUANTITY_PER_PAGE)]);
			send_variables(MAIN_ALARM1_ADDR + (i * 8), 2);
		}
	}
}
    1034:	df 91       	pop	r29
    1036:	cf 91       	pop	r28
    1038:	1f 91       	pop	r17
    103a:	0f 91       	pop	r16
    103c:	ff 90       	pop	r15
    103e:	ef 90       	pop	r14
    1040:	df 90       	pop	r13
    1042:	cf 90       	pop	r12
    1044:	bf 90       	pop	r11
    1046:	af 90       	pop	r10
    1048:	08 95       	ret

0000104a <single_set_ok>:
		break;
	}
}

void single_set_ok(void)
{
    104a:	0f 93       	push	r16
    104c:	1f 93       	push	r17
	if (set_temp_buff[set_num] != set_temp[set_num])
    104e:	80 91 b5 02 	lds	r24, 0x02B5	; 0x8002b5 <set_num>
    1052:	90 e0       	ldi	r25, 0x00	; 0
    1054:	9c 01       	movw	r18, r24
    1056:	22 0f       	add	r18, r18
    1058:	33 1f       	adc	r19, r19
    105a:	f9 01       	movw	r30, r18
    105c:	e3 53       	subi	r30, 0x33	; 51
    105e:	f6 4f       	sbci	r31, 0xF6	; 246
    1060:	60 81       	ld	r22, Z
    1062:	71 81       	ldd	r23, Z+1	; 0x01
    1064:	f9 01       	movw	r30, r18
    1066:	e3 56       	subi	r30, 0x63	; 99
    1068:	f6 4f       	sbci	r31, 0xF6	; 246
    106a:	20 81       	ld	r18, Z
    106c:	31 81       	ldd	r19, Z+1	; 0x01
    106e:	62 17       	cp	r22, r18
    1070:	73 07       	cpc	r23, r19
    1072:	51 f0       	breq	.+20     	; 0x1088 <single_set_ok+0x3e>
	{
		set_temp[set_num] = set_temp_buff[set_num];
    1074:	88 0f       	add	r24, r24
    1076:	99 1f       	adc	r25, r25
    1078:	fc 01       	movw	r30, r24
    107a:	e3 56       	subi	r30, 0x63	; 99
    107c:	f6 4f       	sbci	r31, 0xF6	; 246
    107e:	71 83       	std	Z+1, r23	; 0x01
    1080:	60 83       	st	Z, r22
		single_set(TEMP, set_temp[set_num]);
    1082:	83 e0       	ldi	r24, 0x03	; 3
    1084:	0e 94 80 03 	call	0x700	; 0x700 <single_set>
		// 		eeprom_write(SINGLE_SETTEMP_EEADDR + (set_num * 2), set_temp[set_num]);
		// 		eeprom_write(SINGLE_SETTEMP_EEADDR + (set_num * 2) + 1, set_temp[set_num] >> 8);
	}

	if (switch_sensor_buff[set_num] != switch_sensor[set_num])
    1088:	80 91 b5 02 	lds	r24, 0x02B5	; 0x8002b5 <set_num>
    108c:	90 e0       	ldi	r25, 0x00	; 0
    108e:	9c 01       	movw	r18, r24
    1090:	22 0f       	add	r18, r18
    1092:	33 1f       	adc	r19, r19
    1094:	f9 01       	movw	r30, r18
    1096:	e2 50       	subi	r30, 0x02	; 2
    1098:	fd 4f       	sbci	r31, 0xFD	; 253
    109a:	60 81       	ld	r22, Z
    109c:	71 81       	ldd	r23, Z+1	; 0x01
    109e:	f9 01       	movw	r30, r18
    10a0:	ed 5f       	subi	r30, 0xFD	; 253
    10a2:	fd 4f       	sbci	r31, 0xFD	; 253
    10a4:	20 81       	ld	r18, Z
    10a6:	31 81       	ldd	r19, Z+1	; 0x01
    10a8:	62 17       	cp	r22, r18
    10aa:	73 07       	cpc	r23, r19
    10ac:	51 f0       	breq	.+20     	; 0x10c2 <single_set_ok+0x78>
	{
		switch_sensor[set_num] = switch_sensor_buff[set_num];
    10ae:	88 0f       	add	r24, r24
    10b0:	99 1f       	adc	r25, r25
    10b2:	fc 01       	movw	r30, r24
    10b4:	ed 5f       	subi	r30, 0xFD	; 253
    10b6:	fd 4f       	sbci	r31, 0xFD	; 253
    10b8:	71 83       	std	Z+1, r23	; 0x01
    10ba:	60 83       	st	Z, r22
		single_set(SWITCH_SENSOR, switch_sensor[set_num]);
    10bc:	86 e0       	ldi	r24, 0x06	; 6
    10be:	0e 94 80 03 	call	0x700	; 0x700 <single_set>
	// 		sensor_type[set_num] = sensor_type_buff[set_num];
	// 		ctrl_command = SENSOR_TYPE;
	// //		eeprom_write(SINGLE_SENSORTYPE_EEADDR + set_num, sensor_type[set_num]);
	// 	}

	if (follow_sta_buff[set_num] != follow_sta[set_num])
    10c2:	80 91 b5 02 	lds	r24, 0x02B5	; 0x8002b5 <set_num>
    10c6:	90 e0       	ldi	r25, 0x00	; 0
    10c8:	fc 01       	movw	r30, r24
    10ca:	e1 56       	subi	r30, 0x61	; 97
    10cc:	fe 4f       	sbci	r31, 0xFE	; 254
    10ce:	60 81       	ld	r22, Z
    10d0:	fc 01       	movw	r30, r24
    10d2:	e9 54       	subi	r30, 0x49	; 73
    10d4:	fe 4f       	sbci	r31, 0xFE	; 254
    10d6:	20 81       	ld	r18, Z
    10d8:	62 17       	cp	r22, r18
    10da:	41 f0       	breq	.+16     	; 0x10ec <single_set_ok+0xa2>
	{
		follow_sta[set_num] = follow_sta_buff[set_num];
    10dc:	fc 01       	movw	r30, r24
    10de:	e9 54       	subi	r30, 0x49	; 73
    10e0:	fe 4f       	sbci	r31, 0xFE	; 254
    10e2:	60 83       	st	Z, r22
		single_set(SET_FOLLOW, follow_sta[set_num]);
    10e4:	70 e0       	ldi	r23, 0x00	; 0
    10e6:	88 e0       	ldi	r24, 0x08	; 8
    10e8:	0e 94 80 03 	call	0x700	; 0x700 <single_set>
	}

	if (set_name_buff != set_name[set_num])
    10ec:	80 91 b5 02 	lds	r24, 0x02B5	; 0x8002b5 <set_num>
    10f0:	90 e0       	ldi	r25, 0x00	; 0
    10f2:	40 91 cf 01 	lds	r20, 0x01CF	; 0x8001cf <set_name_buff>
    10f6:	50 91 d0 01 	lds	r21, 0x01D0	; 0x8001d0 <set_name_buff+0x1>
    10fa:	60 91 d1 01 	lds	r22, 0x01D1	; 0x8001d1 <set_name_buff+0x2>
    10fe:	70 91 d2 01 	lds	r23, 0x01D2	; 0x8001d2 <set_name_buff+0x3>
    1102:	fc 01       	movw	r30, r24
    1104:	ee 0f       	add	r30, r30
    1106:	ff 1f       	adc	r31, r31
    1108:	ee 0f       	add	r30, r30
    110a:	ff 1f       	adc	r31, r31
    110c:	e3 5c       	subi	r30, 0xC3	; 195
    110e:	f6 4f       	sbci	r31, 0xF6	; 246
    1110:	00 81       	ld	r16, Z
    1112:	11 81       	ldd	r17, Z+1	; 0x01
    1114:	22 81       	ldd	r18, Z+2	; 0x02
    1116:	33 81       	ldd	r19, Z+3	; 0x03
    1118:	04 17       	cp	r16, r20
    111a:	15 07       	cpc	r17, r21
    111c:	26 07       	cpc	r18, r22
    111e:	37 07       	cpc	r19, r23
    1120:	59 f0       	breq	.+22     	; 0x1138 <__stack+0x39>
	{
		set_name[set_num] = set_name_buff;
    1122:	88 0f       	add	r24, r24
    1124:	99 1f       	adc	r25, r25
    1126:	88 0f       	add	r24, r24
    1128:	99 1f       	adc	r25, r25
    112a:	fc 01       	movw	r30, r24
    112c:	e3 5c       	subi	r30, 0xC3	; 195
    112e:	f6 4f       	sbci	r31, 0xF6	; 246
    1130:	40 83       	st	Z, r20
    1132:	51 83       	std	Z+1, r21	; 0x01
    1134:	62 83       	std	Z+2, r22	; 0x02
    1136:	73 83       	std	Z+3, r23	; 0x03
		// 		eeprom_write(SET_NAME_EEADDR + (set_num * 4) + 1, set_name[set_num] >> 8);
		// 		eeprom_write(SET_NAME_EEADDR + (set_num * 4) + 2, set_name[set_num] >> 16);
		// 		eeprom_write(SET_NAME_EEADDR + (set_num * 4) + 3, set_name[set_num] >> 24);
	}

	update_main_page();
    1138:	0e 94 0b 07 	call	0xe16	; 0xe16 <update_main_page>
	in_main_page = 1;
    113c:	81 e0       	ldi	r24, 0x01	; 1
    113e:	80 93 76 01 	sts	0x0176, r24	; 0x800176 <in_main_page>
	update_run_temp_flag = 0;
    1142:	10 92 ba 02 	sts	0x02BA, r1	; 0x8002ba <update_run_temp_flag>
}
    1146:	1f 91       	pop	r17
    1148:	0f 91       	pop	r16
    114a:	08 95       	ret

0000114c <all_set_ok>:

void all_set_ok(void)
{
	uint8_t i = 0;

	all_temp = all_temp_buff;
    114c:	80 91 80 01 	lds	r24, 0x0180	; 0x800180 <all_temp_buff>
    1150:	90 91 81 01 	lds	r25, 0x0181	; 0x800181 <all_temp_buff+0x1>
    1154:	90 93 73 01 	sts	0x0173, r25	; 0x800173 <all_temp+0x1>
    1158:	80 93 72 01 	sts	0x0172, r24	; 0x800172 <all_temp>
    115c:	ed e9       	ldi	r30, 0x9D	; 157
    115e:	f9 e0       	ldi	r31, 0x09	; 9
    1160:	ad ec       	ldi	r26, 0xCD	; 205
    1162:	b9 e0       	ldi	r27, 0x09	; 9
    1164:	2d ec       	ldi	r18, 0xCD	; 205
    1166:	39 e0       	ldi	r19, 0x09	; 9

	for (i = 0; i < MAX_IQR_QUANTITY; i++)
	{
		set_temp[i] = all_temp;
    1168:	81 93       	st	Z+, r24
    116a:	91 93       	st	Z+, r25
		set_temp_buff[i] = all_temp;
    116c:	8d 93       	st	X+, r24
    116e:	9d 93       	st	X+, r25
{
	uint8_t i = 0;

	all_temp = all_temp_buff;

	for (i = 0; i < MAX_IQR_QUANTITY; i++)
    1170:	e2 17       	cp	r30, r18
    1172:	f3 07       	cpc	r31, r19
    1174:	c9 f7       	brne	.-14     	; 0x1168 <all_set_ok+0x1c>
		// 		eeprom_write(SINGLE_SETTEMP_EEADDR + (i * 2) + 1, set_temp[i] >> 8);
	}

	// 	if (temp_unit_buff != temp_unit)
	// 	{
	temp_unit = temp_unit_buff;
    1176:	80 91 2e 03 	lds	r24, 0x032E	; 0x80032e <temp_unit_buff>
    117a:	90 91 2f 03 	lds	r25, 0x032F	; 0x80032f <temp_unit_buff+0x1>
    117e:	90 93 9c 01 	sts	0x019C, r25	; 0x80019c <temp_unit+0x1>
    1182:	80 93 9b 01 	sts	0x019B, r24	; 0x80019b <temp_unit>
	//
	// 		//发送给控制板卡  保存数据
	// 		/*		eeprom_write(TEMP_UNIT_EEADDR, temp_unit);*/
	// 	}

	preheat_time = preheat_time_buff;
    1186:	80 91 7e 01 	lds	r24, 0x017E	; 0x80017e <preheat_time_buff>
    118a:	90 91 7f 01 	lds	r25, 0x017F	; 0x80017f <preheat_time_buff+0x1>
    118e:	90 93 75 01 	sts	0x0175, r25	; 0x800175 <preheat_time+0x1>
    1192:	80 93 74 01 	sts	0x0174, r24	; 0x800174 <preheat_time>

	all_sensor_type = all_sensor_type_buff;
    1196:	80 91 30 03 	lds	r24, 0x0330	; 0x800330 <all_sensor_type_buff>
    119a:	90 91 31 03 	lds	r25, 0x0331	; 0x800331 <all_sensor_type_buff+0x1>
    119e:	90 93 9e 01 	sts	0x019E, r25	; 0x80019e <all_sensor_type+0x1>
    11a2:	80 93 9d 01 	sts	0x019D, r24	; 0x80019d <all_sensor_type>
    11a6:	e3 ed       	ldi	r30, 0xD3	; 211
    11a8:	f1 e0       	ldi	r31, 0x01	; 1
    11aa:	ae ec       	ldi	r26, 0xCE	; 206
    11ac:	b2 e0       	ldi	r27, 0x02	; 2
    11ae:	23 e0       	ldi	r18, 0x03	; 3
    11b0:	32 e0       	ldi	r19, 0x02	; 2

	for (i = 0; i < MAX_IQR_QUANTITY; i++)
	{
		sensor_type[i] = all_sensor_type;
    11b2:	81 93       	st	Z+, r24
    11b4:	91 93       	st	Z+, r25
		sensor_type_buff[i] = all_sensor_type;
    11b6:	8d 93       	st	X+, r24
    11b8:	9d 93       	st	X+, r25

	preheat_time = preheat_time_buff;

	all_sensor_type = all_sensor_type_buff;

	for (i = 0; i < MAX_IQR_QUANTITY; i++)
    11ba:	e2 17       	cp	r30, r18
    11bc:	f3 07       	cpc	r31, r19
    11be:	c9 f7       	brne	.-14     	; 0x11b2 <all_set_ok+0x66>
		sensor_type_buff[i] = all_sensor_type;
		//			eeprom_write(SINGLE_SENSORTYPE_EEADDR + i, sensor_type[i]);
	}
	//	send_variables(ALL_SENSOR_TYPE_ADDR, TYPE_J + (all_sensor_type * TYPE_K));

	update_main_page();
    11c0:	0e 94 0b 07 	call	0xe16	; 0xe16 <update_main_page>

	all_set(TEMP, all_temp);
    11c4:	60 91 72 01 	lds	r22, 0x0172	; 0x800172 <all_temp>
    11c8:	70 91 73 01 	lds	r23, 0x0173	; 0x800173 <all_temp+0x1>
    11cc:	83 e0       	ldi	r24, 0x03	; 3
    11ce:	0e 94 d5 03 	call	0x7aa	; 0x7aa <all_set>
	all_set(PREHEAT_TIME, preheat_time);
    11d2:	60 91 74 01 	lds	r22, 0x0174	; 0x800174 <preheat_time>
    11d6:	70 91 75 01 	lds	r23, 0x0175	; 0x800175 <preheat_time+0x1>
    11da:	84 e0       	ldi	r24, 0x04	; 4
    11dc:	0e 94 d5 03 	call	0x7aa	; 0x7aa <all_set>
	all_set(SENSOR_TYPE, all_sensor_type);
    11e0:	60 91 9d 01 	lds	r22, 0x019D	; 0x80019d <all_sensor_type>
    11e4:	70 91 9e 01 	lds	r23, 0x019E	; 0x80019e <all_sensor_type+0x1>
    11e8:	85 e0       	ldi	r24, 0x05	; 5
    11ea:	0e 94 d5 03 	call	0x7aa	; 0x7aa <all_set>
	// //			eeprom_write(SINGLE_SENSORTYPE_EEADDR + i, sensor_type[i]);
	// 		}
	// 		send_variables(ALL_SENSOR_TYPE_ADDR, TYPE_J + (all_sensor_type * TYPE_K));
	// 	}
	//
	in_main_page = 1;
    11ee:	81 e0       	ldi	r24, 0x01	; 1
    11f0:	80 93 76 01 	sts	0x0176, r24	; 0x800176 <in_main_page>
    11f4:	08 95       	ret

000011f6 <update_single_set_page>:
	ctrl_command = READ_DATA_ALL;
}

void update_single_set_page(void)
{
	in_main_page = 0;
    11f6:	10 92 76 01 	sts	0x0176, r1	; 0x800176 <in_main_page>

	update_run_temp_flag = 1;
    11fa:	81 e0       	ldi	r24, 0x01	; 1
    11fc:	80 93 ba 02 	sts	0x02BA, r24	; 0x8002ba <update_run_temp_flag>
	run_temp_page = 1;
    1200:	80 93 bb 02 	sts	0x02BB, r24	; 0x8002bb <run_temp_page>

	send_variables(SINGLE_NUM_ADDR, set_num + 1);															  //序号显示
    1204:	60 91 b5 02 	lds	r22, 0x02B5	; 0x8002b5 <set_num>
    1208:	70 e0       	ldi	r23, 0x00	; 0
    120a:	6f 5f       	subi	r22, 0xFF	; 255
    120c:	7f 4f       	sbci	r23, 0xFF	; 255
    120e:	80 e3       	ldi	r24, 0x30	; 48
    1210:	90 e0       	ldi	r25, 0x00	; 0
    1212:	0e 94 cb 04 	call	0x996	; 0x996 <send_variables>
	send_variables(SINGLE_RUNTEMP_ADDR, run_temp[set_num] + temp_unit * ((run_temp[set_num] * 8 / 10) + 32)); //运行温度显示
    1216:	e0 91 b5 02 	lds	r30, 0x02B5	; 0x8002b5 <set_num>
    121a:	f0 e0       	ldi	r31, 0x00	; 0
    121c:	ee 0f       	add	r30, r30
    121e:	ff 1f       	adc	r31, r31
    1220:	ed 5c       	subi	r30, 0xCD	; 205
    1222:	fd 4f       	sbci	r31, 0xFD	; 253
    1224:	20 81       	ld	r18, Z
    1226:	31 81       	ldd	r19, Z+1	; 0x01
    1228:	c9 01       	movw	r24, r18
    122a:	88 0f       	add	r24, r24
    122c:	99 1f       	adc	r25, r25
    122e:	88 0f       	add	r24, r24
    1230:	99 1f       	adc	r25, r25
    1232:	88 0f       	add	r24, r24
    1234:	99 1f       	adc	r25, r25
    1236:	6a e0       	ldi	r22, 0x0A	; 10
    1238:	70 e0       	ldi	r23, 0x00	; 0
    123a:	0e 94 8f 16 	call	0x2d1e	; 0x2d1e <__divmodhi4>
    123e:	cb 01       	movw	r24, r22
    1240:	80 96       	adiw	r24, 0x20	; 32
    1242:	40 91 9b 01 	lds	r20, 0x019B	; 0x80019b <temp_unit>
    1246:	50 91 9c 01 	lds	r21, 0x019C	; 0x80019c <temp_unit+0x1>
    124a:	84 9f       	mul	r24, r20
    124c:	b0 01       	movw	r22, r0
    124e:	85 9f       	mul	r24, r21
    1250:	70 0d       	add	r23, r0
    1252:	94 9f       	mul	r25, r20
    1254:	70 0d       	add	r23, r0
    1256:	11 24       	eor	r1, r1
    1258:	62 0f       	add	r22, r18
    125a:	73 1f       	adc	r23, r19
    125c:	82 e3       	ldi	r24, 0x32	; 50
    125e:	90 e0       	ldi	r25, 0x00	; 0
    1260:	0e 94 cb 04 	call	0x996	; 0x996 <send_variables>
	send_variables(SINGLE_SETTEMP_ADDR, set_temp[set_num]);													  //设定温度显示
    1264:	e0 91 b5 02 	lds	r30, 0x02B5	; 0x8002b5 <set_num>
    1268:	f0 e0       	ldi	r31, 0x00	; 0
    126a:	ee 0f       	add	r30, r30
    126c:	ff 1f       	adc	r31, r31
    126e:	e3 56       	subi	r30, 0x63	; 99
    1270:	f6 4f       	sbci	r31, 0xF6	; 246
    1272:	60 81       	ld	r22, Z
    1274:	71 81       	ldd	r23, Z+1	; 0x01
    1276:	84 e3       	ldi	r24, 0x34	; 52
    1278:	90 e0       	ldi	r25, 0x00	; 0
    127a:	0e 94 cb 04 	call	0x996	; 0x996 <send_variables>
	send_variables(SINGLE_SET_TEMP, set_temp[set_num]);														  //温度设定输入框显示
    127e:	e0 91 b5 02 	lds	r30, 0x02B5	; 0x8002b5 <set_num>
    1282:	f0 e0       	ldi	r31, 0x00	; 0
    1284:	ee 0f       	add	r30, r30
    1286:	ff 1f       	adc	r31, r31
    1288:	e3 56       	subi	r30, 0x63	; 99
    128a:	f6 4f       	sbci	r31, 0xF6	; 246
    128c:	60 81       	ld	r22, Z
    128e:	71 81       	ldd	r23, Z+1	; 0x01
    1290:	86 e4       	ldi	r24, 0x46	; 70
    1292:	91 e0       	ldi	r25, 0x01	; 1
    1294:	0e 94 cb 04 	call	0x996	; 0x996 <send_variables>
	send_variables(SINGLE_SET_SWITCH, switch_sensor[set_num]);												  //传感器开启/关闭状态
    1298:	e0 91 b5 02 	lds	r30, 0x02B5	; 0x8002b5 <set_num>
    129c:	f0 e0       	ldi	r31, 0x00	; 0
    129e:	ee 0f       	add	r30, r30
    12a0:	ff 1f       	adc	r31, r31
    12a2:	ed 5f       	subi	r30, 0xFD	; 253
    12a4:	fd 4f       	sbci	r31, 0xFD	; 253
    12a6:	60 81       	ld	r22, Z
    12a8:	71 81       	ldd	r23, Z+1	; 0x01
    12aa:	84 e4       	ldi	r24, 0x44	; 68
    12ac:	91 e0       	ldi	r25, 0x01	; 1
    12ae:	0e 94 cb 04 	call	0x996	; 0x996 <send_variables>
	send_variables(SINGLE_SENSORTYPE_ADDR, TYPE_J + (sensor_type[set_num] * TYPE_K));						  //DANDUPAGE传感器类型选择显示
    12b2:	e0 91 b5 02 	lds	r30, 0x02B5	; 0x8002b5 <set_num>
    12b6:	f0 e0       	ldi	r31, 0x00	; 0
    12b8:	ee 0f       	add	r30, r30
    12ba:	ff 1f       	adc	r31, r31
    12bc:	ed 52       	subi	r30, 0x2D	; 45
    12be:	fe 4f       	sbci	r31, 0xFE	; 254
    12c0:	80 81       	ld	r24, Z
    12c2:	91 81       	ldd	r25, Z+1	; 0x01
    12c4:	86 5b       	subi	r24, 0xB6	; 182
    12c6:	9f 4f       	sbci	r25, 0xFF	; 255
    12c8:	60 e0       	ldi	r22, 0x00	; 0
    12ca:	78 2f       	mov	r23, r24
    12cc:	80 e9       	ldi	r24, 0x90	; 144
    12ce:	92 e0       	ldi	r25, 0x02	; 2
    12d0:	0e 94 cb 04 	call	0x996	; 0x996 <send_variables>

	send_name(SINGLE_NAME_ADDR, set_name[set_num]);
    12d4:	e0 91 b5 02 	lds	r30, 0x02B5	; 0x8002b5 <set_num>
    12d8:	f0 e0       	ldi	r31, 0x00	; 0
    12da:	ee 0f       	add	r30, r30
    12dc:	ff 1f       	adc	r31, r31
    12de:	ee 0f       	add	r30, r30
    12e0:	ff 1f       	adc	r31, r31
    12e2:	e3 5c       	subi	r30, 0xC3	; 195
    12e4:	f6 4f       	sbci	r31, 0xF6	; 246
    12e6:	40 81       	ld	r20, Z
    12e8:	51 81       	ldd	r21, Z+1	; 0x01
    12ea:	62 81       	ldd	r22, Z+2	; 0x02
    12ec:	73 81       	ldd	r23, Z+3	; 0x03
    12ee:	88 e8       	ldi	r24, 0x88	; 136
    12f0:	92 e0       	ldi	r25, 0x02	; 2
    12f2:	0e 94 ec 06 	call	0xdd8	; 0xdd8 <send_name>

	send_name(SINGLE_SET_NAME, set_name[set_num]);
    12f6:	e0 91 b5 02 	lds	r30, 0x02B5	; 0x8002b5 <set_num>
    12fa:	f0 e0       	ldi	r31, 0x00	; 0
    12fc:	ee 0f       	add	r30, r30
    12fe:	ff 1f       	adc	r31, r31
    1300:	ee 0f       	add	r30, r30
    1302:	ff 1f       	adc	r31, r31
    1304:	e3 5c       	subi	r30, 0xC3	; 195
    1306:	f6 4f       	sbci	r31, 0xF6	; 246
    1308:	40 81       	ld	r20, Z
    130a:	51 81       	ldd	r21, Z+1	; 0x01
    130c:	62 81       	ldd	r22, Z+2	; 0x02
    130e:	73 81       	ldd	r23, Z+3	; 0x03
    1310:	88 e5       	ldi	r24, 0x58	; 88
    1312:	91 e0       	ldi	r25, 0x01	; 1
    1314:	0e 94 ec 06 	call	0xdd8	; 0xdd8 <send_name>

	set_name_buff = set_name[set_num];
    1318:	e0 91 b5 02 	lds	r30, 0x02B5	; 0x8002b5 <set_num>
    131c:	f0 e0       	ldi	r31, 0x00	; 0
    131e:	ee 0f       	add	r30, r30
    1320:	ff 1f       	adc	r31, r31
    1322:	ee 0f       	add	r30, r30
    1324:	ff 1f       	adc	r31, r31
    1326:	e3 5c       	subi	r30, 0xC3	; 195
    1328:	f6 4f       	sbci	r31, 0xF6	; 246
    132a:	80 81       	ld	r24, Z
    132c:	91 81       	ldd	r25, Z+1	; 0x01
    132e:	a2 81       	ldd	r26, Z+2	; 0x02
    1330:	b3 81       	ldd	r27, Z+3	; 0x03
    1332:	80 93 cf 01 	sts	0x01CF, r24	; 0x8001cf <set_name_buff>
    1336:	90 93 d0 01 	sts	0x01D0, r25	; 0x8001d0 <set_name_buff+0x1>
    133a:	a0 93 d1 01 	sts	0x01D1, r26	; 0x8001d1 <set_name_buff+0x2>
    133e:	b0 93 d2 01 	sts	0x01D2, r27	; 0x8001d2 <set_name_buff+0x3>
    1342:	08 95       	ret

00001344 <send_to_channel>:

	usart0_send_str(usart0_tx_buff, 12);
}

void send_to_channel(uint8_t ch, uint16_t value)
{
    1344:	cf 93       	push	r28
    1346:	df 93       	push	r29
	uint16_t crc = 0;

	usart0_tx_buff[0] = 0xA5;
    1348:	c1 e9       	ldi	r28, 0x91	; 145
    134a:	d5 e0       	ldi	r29, 0x05	; 5
    134c:	95 ea       	ldi	r25, 0xA5	; 165
    134e:	98 83       	st	Y, r25
	usart0_tx_buff[1] = 0x5A;
    1350:	9a e5       	ldi	r25, 0x5A	; 90
    1352:	99 83       	std	Y+1, r25	; 0x01
	usart0_tx_buff[2] = 0x04;
    1354:	94 e0       	ldi	r25, 0x04	; 4
    1356:	9a 83       	std	Y+2, r25	; 0x02
	usart0_tx_buff[3] = 0x84;
    1358:	94 e8       	ldi	r25, 0x84	; 132
    135a:	9b 83       	std	Y+3, r25	; 0x03
	usart0_tx_buff[4] = ch;
    135c:	8c 83       	std	Y+4, r24	; 0x04
	usart0_tx_buff[5] = value >> 8;
    135e:	7d 83       	std	Y+5, r23	; 0x05
	usart0_tx_buff[6] = value;
    1360:	6e 83       	std	Y+6, r22	; 0x06

	crc = crc_check(usart0_tx_buff, 9);
    1362:	69 e0       	ldi	r22, 0x09	; 9
    1364:	ce 01       	movw	r24, r28
    1366:	0e 94 04 14 	call	0x2808	; 0x2808 <crc_check>

	usart0_tx_buff[7] = crc & 0x00FF;
    136a:	8f 83       	std	Y+7, r24	; 0x07
	usart0_tx_buff[8] = crc >> 8;
    136c:	98 87       	std	Y+8, r25	; 0x08

	usart0_send_str(usart0_tx_buff, 9);
    136e:	69 e0       	ldi	r22, 0x09	; 9
    1370:	ce 01       	movw	r24, r28
    1372:	0e 94 9d 13 	call	0x273a	; 0x273a <usart0_send_str>
}
    1376:	df 91       	pop	r29
    1378:	cf 91       	pop	r28
    137a:	08 95       	ret

0000137c <send_alarm_msg>:

void send_alarm_msg(uint8_t type, uint8_t msg_num, uint16_t sen_num)
{
    137c:	0f 93       	push	r16
    137e:	1f 93       	push	r17
    1380:	cf 93       	push	r28
    1382:	df 93       	push	r29
    1384:	8a 01       	movw	r16, r20
	uint8_t i = 0;
	uint16_t crc = 0;
	uint16_t sensor_num = 0;

	usart0_tx_buff[0] = 0xA5;
    1386:	e1 e9       	ldi	r30, 0x91	; 145
    1388:	f5 e0       	ldi	r31, 0x05	; 5
    138a:	95 ea       	ldi	r25, 0xA5	; 165
    138c:	90 83       	st	Z, r25
	usart0_tx_buff[1] = 0x5A;
    138e:	9a e5       	ldi	r25, 0x5A	; 90
    1390:	91 83       	std	Z+1, r25	; 0x01
	usart0_tx_buff[2] = 0x13;
    1392:	93 e1       	ldi	r25, 0x13	; 19
    1394:	92 83       	std	Z+2, r25	; 0x02
	usart0_tx_buff[3] = 0x82;
    1396:	92 e8       	ldi	r25, 0x82	; 130
    1398:	93 83       	std	Z+3, r25	; 0x03
	usart0_tx_buff[4] = (ALAEM_MSG1_ADDR + (msg_num * 16)) >> 8;
    139a:	c6 2f       	mov	r28, r22
    139c:	d0 e0       	ldi	r29, 0x00	; 0
    139e:	9e 01       	movw	r18, r28
    13a0:	25 5d       	subi	r18, 0xD5	; 213
    13a2:	3f 4f       	sbci	r19, 0xFF	; 255
    13a4:	a9 01       	movw	r20, r18
    13a6:	42 95       	swap	r20
    13a8:	52 95       	swap	r21
    13aa:	50 7f       	andi	r21, 0xF0	; 240
    13ac:	54 27       	eor	r21, r20
    13ae:	40 7f       	andi	r20, 0xF0	; 240
    13b0:	54 27       	eor	r21, r20
    13b2:	54 83       	std	Z+4, r21	; 0x04
	usart0_tx_buff[5] = (ALAEM_MSG1_ADDR + (msg_num * 16)) & 0x00FF;
    13b4:	22 95       	swap	r18
    13b6:	20 7f       	andi	r18, 0xF0	; 240
    13b8:	25 83       	std	Z+5, r18	; 0x05
    13ba:	20 e1       	ldi	r18, 0x10	; 16
    13bc:	82 9f       	mul	r24, r18
    13be:	c0 01       	movw	r24, r0
    13c0:	11 24       	eor	r1, r1
    13c2:	dc 01       	movw	r26, r24
    13c4:	af 5f       	subi	r26, 0xFF	; 255
    13c6:	be 4f       	sbci	r27, 0xFE	; 254
    13c8:	e7 e9       	ldi	r30, 0x97	; 151
    13ca:	f5 e0       	ldi	r31, 0x05	; 5
    13cc:	27 ea       	ldi	r18, 0xA7	; 167
    13ce:	35 e0       	ldi	r19, 0x05	; 5

	for (i = 0; i < 16; i++)
	{
		usart0_tx_buff[i + 6] = alarm_msg[type][i];
    13d0:	9d 91       	ld	r25, X+
    13d2:	91 93       	st	Z+, r25
	usart0_tx_buff[2] = 0x13;
	usart0_tx_buff[3] = 0x82;
	usart0_tx_buff[4] = (ALAEM_MSG1_ADDR + (msg_num * 16)) >> 8;
	usart0_tx_buff[5] = (ALAEM_MSG1_ADDR + (msg_num * 16)) & 0x00FF;

	for (i = 0; i < 16; i++)
    13d4:	e2 17       	cp	r30, r18
    13d6:	f3 07       	cpc	r31, r19
    13d8:	d9 f7       	brne	.-10     	; 0x13d0 <send_alarm_msg+0x54>
	{
		usart0_tx_buff[i + 6] = alarm_msg[type][i];
	}

	crc = crc_check(usart0_tx_buff, 24);
    13da:	68 e1       	ldi	r22, 0x18	; 24
    13dc:	81 e9       	ldi	r24, 0x91	; 145
    13de:	95 e0       	ldi	r25, 0x05	; 5
    13e0:	0e 94 04 14 	call	0x2808	; 0x2808 <crc_check>

	usart0_tx_buff[22] = crc & 0x00FF;
    13e4:	e1 e9       	ldi	r30, 0x91	; 145
    13e6:	f5 e0       	ldi	r31, 0x05	; 5
    13e8:	86 8b       	std	Z+22, r24	; 0x16
	usart0_tx_buff[23] = crc >> 8;
    13ea:	97 8b       	std	Z+23, r25	; 0x17

	usart0_send_str(usart0_tx_buff, 24);
    13ec:	68 e1       	ldi	r22, 0x18	; 24
    13ee:	cf 01       	movw	r24, r30
    13f0:	0e 94 9d 13 	call	0x273a	; 0x273a <usart0_send_str>

	if (sen_num <= 8)
    13f4:	09 30       	cpi	r16, 0x09	; 9
    13f6:	11 05       	cpc	r17, r1
    13f8:	28 f4       	brcc	.+10     	; 0x1404 <send_alarm_msg+0x88>
	{
		sensor_num = 0x2300 | (sen_num + 49);
    13fa:	0f 5c       	subi	r16, 0xCF	; 207
    13fc:	1f 4f       	sbci	r17, 0xFF	; 255
    13fe:	b8 01       	movw	r22, r16
    1400:	73 62       	ori	r23, 0x23	; 35
    1402:	04 c0       	rjmp	.+8      	; 0x140c <send_alarm_msg+0x90>
	}
	else
	{
		sensor_num = 0x2300 | (sen_num + 56);
    1404:	08 5c       	subi	r16, 0xC8	; 200
    1406:	1f 4f       	sbci	r17, 0xFF	; 255
    1408:	b8 01       	movw	r22, r16
    140a:	73 62       	ori	r23, 0x23	; 35
	}

	send_variables(ALARM_DEVICE_NUM1_ADDR + (msg_num * 2), sensor_num);
    140c:	ce 01       	movw	r24, r28
    140e:	cc 96       	adiw	r24, 0x3c	; 60
    1410:	88 0f       	add	r24, r24
    1412:	99 1f       	adc	r25, r25
    1414:	0e 94 cb 04 	call	0x996	; 0x996 <send_variables>
}
    1418:	df 91       	pop	r29
    141a:	cf 91       	pop	r28
    141c:	1f 91       	pop	r17
    141e:	0f 91       	pop	r16
    1420:	08 95       	ret

00001422 <read_setting_data>:
/*
*功能：读取一块主控板设定数据
*返回数据：0:断线 1:连接（收到数据）
*/
uint8_t read_setting_data(uint8_t addr)
{
    1422:	3f 92       	push	r3
    1424:	4f 92       	push	r4
    1426:	5f 92       	push	r5
    1428:	6f 92       	push	r6
    142a:	7f 92       	push	r7
    142c:	8f 92       	push	r8
    142e:	9f 92       	push	r9
    1430:	af 92       	push	r10
    1432:	bf 92       	push	r11
    1434:	cf 92       	push	r12
    1436:	df 92       	push	r13
    1438:	ef 92       	push	r14
    143a:	ff 92       	push	r15
    143c:	0f 93       	push	r16
    143e:	1f 93       	push	r17
    1440:	cf 93       	push	r28
    1442:	df 93       	push	r29
	uint8_t board_sta = 0;
	uint16_t crc = 0;
	uint8_t i;
	read_setting_data_mask = 0;
    1444:	10 92 cc 02 	sts	0x02CC, r1	; 0x8002cc <read_setting_data_mask>
	read_setting_data_cnt = 0;
    1448:	10 92 cb 02 	sts	0x02CB, r1	; 0x8002cb <read_setting_data_cnt>
	{
		usart1_tx_buff[0] = 0xA5;
		usart1_tx_buff[1] = 0x5A;
		usart1_tx_buff[2] = 0x02;
		usart1_tx_buff[3] = READ_SETTING_DATA;
		usart1_tx_buff[4] = (addr << 4) + i;
    144c:	98 2f       	mov	r25, r24
    144e:	92 95       	swap	r25
    1450:	90 7f       	andi	r25, 0xF0	; 240
    1452:	ff 24       	eor	r15, r15
    1454:	f3 94       	inc	r15
    1456:	f9 0e       	add	r15, r25
    1458:	20 e1       	ldi	r18, 0x10	; 16
    145a:	82 9f       	mul	r24, r18
    145c:	80 01       	movw	r16, r0
    145e:	11 24       	eor	r1, r1
    1460:	0f 5f       	subi	r16, 0xFF	; 255
    1462:	1f 4f       	sbci	r17, 0xFF	; 255
    1464:	0f 2e       	mov	r0, r31
    1466:	f5 e0       	ldi	r31, 0x05	; 5
    1468:	9f 2e       	mov	r9, r31
    146a:	f0 2d       	mov	r31, r0
    146c:	99 0e       	add	r9, r25
*功能：读取一块主控板设定数据
*返回数据：0:断线 1:连接（收到数据）
*/
uint8_t read_setting_data(uint8_t addr)
{
	uint8_t board_sta = 0;
    146e:	41 2c       	mov	r4, r1
	read_setting_data_mask = 0;
	read_setting_data_cnt = 0;

	for (i = 1; i < 5; i++)
	{
		usart1_tx_buff[0] = 0xA5;
    1470:	ce ef       	ldi	r28, 0xFE	; 254
    1472:	d3 e0       	ldi	r29, 0x03	; 3
    1474:	0f 2e       	mov	r0, r31
    1476:	f5 ea       	ldi	r31, 0xA5	; 165
    1478:	5f 2e       	mov	r5, r31
    147a:	f0 2d       	mov	r31, r0
		usart1_tx_buff[1] = 0x5A;
    147c:	0f 2e       	mov	r0, r31
    147e:	fa e5       	ldi	r31, 0x5A	; 90
    1480:	6f 2e       	mov	r6, r31
    1482:	f0 2d       	mov	r31, r0
		usart1_tx_buff[2] = 0x02;
    1484:	68 94       	set
    1486:	77 24       	eor	r7, r7
    1488:	71 f8       	bld	r7, 1
		usart1_tx_buff[3] = READ_SETTING_DATA;
    148a:	0f 2e       	mov	r0, r31
    148c:	f7 e0       	ldi	r31, 0x07	; 7
    148e:	ef 2e       	mov	r14, r31
    1490:	f0 2d       	mov	r31, r0
    1492:	8e 2c       	mov	r8, r14
			if (usart1_rx_end)
			{
				usart1_deal();
				usart1_rx_end = 0;

				if (usart1_rx_buff[4] == (addr << 4) + i)
    1494:	0f 2e       	mov	r0, r31
    1496:	f6 ec       	ldi	r31, 0xC6	; 198
    1498:	af 2e       	mov	r10, r31
    149a:	f4 e0       	ldi	r31, 0x04	; 4
    149c:	bf 2e       	mov	r11, r31
    149e:	f0 2d       	mov	r31, r0
				{
					board_sta = 1;
    14a0:	33 24       	eor	r3, r3
    14a2:	33 94       	inc	r3
	read_setting_data_mask = 0;
	read_setting_data_cnt = 0;

	for (i = 1; i < 5; i++)
	{
		usart1_tx_buff[0] = 0xA5;
    14a4:	58 82       	st	Y, r5
		usart1_tx_buff[1] = 0x5A;
    14a6:	69 82       	std	Y+1, r6	; 0x01
		usart1_tx_buff[2] = 0x02;
    14a8:	7a 82       	std	Y+2, r7	; 0x02
		usart1_tx_buff[3] = READ_SETTING_DATA;
    14aa:	8b 82       	std	Y+3, r8	; 0x03
		usart1_tx_buff[4] = (addr << 4) + i;
    14ac:	fc 82       	std	Y+4, r15	; 0x04

		crc = crc_check(usart1_tx_buff, 7);
    14ae:	6e 2d       	mov	r22, r14
    14b0:	ce 01       	movw	r24, r28
    14b2:	0e 94 04 14 	call	0x2808	; 0x2808 <crc_check>

		usart1_tx_buff[5] = crc & 0x00FF;
    14b6:	8d 83       	std	Y+5, r24	; 0x05
		usart1_tx_buff[6] = crc >> 8;
    14b8:	9e 83       	std	Y+6, r25	; 0x06

		usart1_send_str(usart1_tx_buff, 7);
    14ba:	6e 2d       	mov	r22, r14
    14bc:	ce 01       	movw	r24, r28
    14be:	0e 94 be 13 	call	0x277c	; 0x277c <usart1_send_str>
			if (usart1_rx_end)
			{
				usart1_deal();
				usart1_rx_end = 0;

				if (usart1_rx_buff[4] == (addr << 4) + i)
    14c2:	68 01       	movw	r12, r16
		usart1_tx_buff[5] = crc & 0x00FF;
		usart1_tx_buff[6] = crc >> 8;

		usart1_send_str(usart1_tx_buff, 7);

		while (read_setting_data_mask != 1)
    14c4:	0d c0       	rjmp	.+26     	; 0x14e0 <read_setting_data+0xbe>
		{
			if (usart1_rx_end)
    14c6:	99 23       	and	r25, r25
    14c8:	79 f0       	breq	.+30     	; 0x14e8 <read_setting_data+0xc6>
			{
				usart1_deal();
    14ca:	0e 94 71 13 	call	0x26e2	; 0x26e2 <usart1_deal>
				usart1_rx_end = 0;
    14ce:	10 92 fd 03 	sts	0x03FD, r1	; 0x8003fd <usart1_rx_end>

				if (usart1_rx_buff[4] == (addr << 4) + i)
    14d2:	f5 01       	movw	r30, r10
    14d4:	84 81       	ldd	r24, Z+4	; 0x04
    14d6:	90 e0       	ldi	r25, 0x00	; 0
    14d8:	8c 15       	cp	r24, r12
    14da:	9d 05       	cpc	r25, r13
    14dc:	09 f4       	brne	.+2      	; 0x14e0 <read_setting_data+0xbe>
				{
					board_sta = 1;
    14de:	43 2c       	mov	r4, r3
		usart1_tx_buff[5] = crc & 0x00FF;
		usart1_tx_buff[6] = crc >> 8;

		usart1_send_str(usart1_tx_buff, 7);

		while (read_setting_data_mask != 1)
    14e0:	80 91 cc 02 	lds	r24, 0x02CC	; 0x8002cc <read_setting_data_mask>
		{
			if (usart1_rx_end)
    14e4:	90 91 fd 03 	lds	r25, 0x03FD	; 0x8003fd <usart1_rx_end>
		usart1_tx_buff[5] = crc & 0x00FF;
		usart1_tx_buff[6] = crc >> 8;

		usart1_send_str(usart1_tx_buff, 7);

		while (read_setting_data_mask != 1)
    14e8:	81 30       	cpi	r24, 0x01	; 1
    14ea:	69 f7       	brne	.-38     	; 0x14c6 <read_setting_data+0xa4>
				{
					board_sta = 1;
				}
			}
		}
		read_setting_data_mask = 0;
    14ec:	10 92 cc 02 	sts	0x02CC, r1	; 0x8002cc <read_setting_data_mask>
		read_setting_data_cnt = 0;
    14f0:	10 92 cb 02 	sts	0x02CB, r1	; 0x8002cb <read_setting_data_cnt>
    14f4:	f3 94       	inc	r15
    14f6:	0f 5f       	subi	r16, 0xFF	; 255
    14f8:	1f 4f       	sbci	r17, 0xFF	; 255
	uint16_t crc = 0;
	uint8_t i;
	read_setting_data_mask = 0;
	read_setting_data_cnt = 0;

	for (i = 1; i < 5; i++)
    14fa:	f9 10       	cpse	r15, r9
    14fc:	d3 cf       	rjmp	.-90     	; 0x14a4 <read_setting_data+0x82>
		}
		read_setting_data_mask = 0;
		read_setting_data_cnt = 0;
	}
	return board_sta;
}
    14fe:	84 2d       	mov	r24, r4
    1500:	df 91       	pop	r29
    1502:	cf 91       	pop	r28
    1504:	1f 91       	pop	r17
    1506:	0f 91       	pop	r16
    1508:	ff 90       	pop	r15
    150a:	ef 90       	pop	r14
    150c:	df 90       	pop	r13
    150e:	cf 90       	pop	r12
    1510:	bf 90       	pop	r11
    1512:	af 90       	pop	r10
    1514:	9f 90       	pop	r9
    1516:	8f 90       	pop	r8
    1518:	7f 90       	pop	r7
    151a:	6f 90       	pop	r6
    151c:	5f 90       	pop	r5
    151e:	4f 90       	pop	r4
    1520:	3f 90       	pop	r3
    1522:	08 95       	ret

00001524 <read_setting_data_all>:
	send_variables(ALARM_DEVICE_NUM1_ADDR + (msg_num * 2), sensor_num);
}

/* 依次读取三块主控板设定数据 */
void read_setting_data_all(void)
{
    1524:	ef 92       	push	r14
    1526:	ff 92       	push	r15
    1528:	0f 93       	push	r16
    152a:	1f 93       	push	r17
    152c:	cf 93       	push	r28
    152e:	df 93       	push	r29
    1530:	0f 2e       	mov	r0, r31
    1532:	fb ea       	ldi	r31, 0xAB	; 171
    1534:	ef 2e       	mov	r14, r31
    1536:	f2 e0       	ldi	r31, 0x02	; 2
    1538:	ff 2e       	mov	r15, r31
    153a:	f0 2d       	mov	r31, r0
    153c:	0b e7       	ldi	r16, 0x7B	; 123
    153e:	12 e0       	ldi	r17, 0x02	; 2
	uint8_t i, j; //i:板号   j：通道号

	for (i = 0; i < TEMP_CTRL_BOARD_QUANTITY; i++)
    1540:	c0 e0       	ldi	r28, 0x00	; 0

		if (ctrl_board_sta[i] == 0)
		{
			for (j = 0; j < 4; j++)
			{
				sensor_sta[i * 4 + j] = 3;
    1542:	d3 e0       	ldi	r29, 0x03	; 3
{
	uint8_t i, j; //i:板号   j：通道号

	for (i = 0; i < TEMP_CTRL_BOARD_QUANTITY; i++)
	{
		ctrl_board_sta[i] = read_setting_data(i+1);
    1544:	cf 5f       	subi	r28, 0xFF	; 255
    1546:	8c 2f       	mov	r24, r28
    1548:	0e 94 11 0a 	call	0x1422	; 0x1422 <read_setting_data>
    154c:	f7 01       	movw	r30, r14
    154e:	81 93       	st	Z+, r24
    1550:	7f 01       	movw	r14, r30

		if (ctrl_board_sta[i] == 0)
    1552:	81 11       	cpse	r24, r1
    1554:	05 c0       	rjmp	.+10     	; 0x1560 <read_setting_data_all+0x3c>
		{
			for (j = 0; j < 4; j++)
			{
				sensor_sta[i * 4 + j] = 3;
    1556:	f8 01       	movw	r30, r16
    1558:	d0 83       	st	Z, r29
    155a:	d1 83       	std	Z+1, r29	; 0x01
    155c:	d2 83       	std	Z+2, r29	; 0x02
    155e:	d3 83       	std	Z+3, r29	; 0x03
    1560:	0c 5f       	subi	r16, 0xFC	; 252
    1562:	1f 4f       	sbci	r17, 0xFF	; 255
/* 依次读取三块主控板设定数据 */
void read_setting_data_all(void)
{
	uint8_t i, j; //i:板号   j：通道号

	for (i = 0; i < TEMP_CTRL_BOARD_QUANTITY; i++)
    1564:	c6 30       	cpi	r28, 0x06	; 6
    1566:	71 f7       	brne	.-36     	; 0x1544 <read_setting_data_all+0x20>
			{
				sensor_sta[i * 4 + j] = 3;
			}
		}
	}
}
    1568:	df 91       	pop	r29
    156a:	cf 91       	pop	r28
    156c:	1f 91       	pop	r17
    156e:	0f 91       	pop	r16
    1570:	ff 90       	pop	r15
    1572:	ef 90       	pop	r14
    1574:	08 95       	ret

00001576 <get_setting_data>:
		read_setting_data_cnt = 0;
	}
	return board_sta;
}
void get_setting_data(uint8_t addr)
{
    1576:	cf 93       	push	r28
    1578:	df 93       	push	r29
	uint8_t i;
	uint8_t iqr_num = ((addr >> 4) - 1) * 4 + (addr & 0x0F) - 1;

	set_name[iqr_num] = usart1_rx_buff[5];
    157a:	48 2f       	mov	r20, r24
    157c:	42 95       	swap	r20
    157e:	4f 70       	andi	r20, 0x0F	; 15
    1580:	44 0f       	add	r20, r20
    1582:	44 0f       	add	r20, r20
    1584:	8f 70       	andi	r24, 0x0F	; 15
    1586:	84 0f       	add	r24, r20
    1588:	85 50       	subi	r24, 0x05	; 5
    158a:	48 2f       	mov	r20, r24
    158c:	50 e0       	ldi	r21, 0x00	; 0
	set_name[iqr_num] = (set_name[iqr_num] << 8) | usart1_rx_buff[6];
	set_name[iqr_num] = (set_name[iqr_num] << 8) | usart1_rx_buff[7];
	set_name[iqr_num] = (set_name[iqr_num] << 8) | usart1_rx_buff[8];
    158e:	ea 01       	movw	r28, r20
    1590:	cc 0f       	add	r28, r28
    1592:	dd 1f       	adc	r29, r29
    1594:	cc 0f       	add	r28, r28
    1596:	dd 1f       	adc	r29, r29
    1598:	c3 5c       	subi	r28, 0xC3	; 195
    159a:	d6 4f       	sbci	r29, 0xF6	; 246
void get_setting_data(uint8_t addr)
{
	uint8_t i;
	uint8_t iqr_num = ((addr >> 4) - 1) * 4 + (addr & 0x0F) - 1;

	set_name[iqr_num] = usart1_rx_buff[5];
    159c:	e6 ec       	ldi	r30, 0xC6	; 198
    159e:	f4 e0       	ldi	r31, 0x04	; 4
	set_name[iqr_num] = (set_name[iqr_num] << 8) | usart1_rx_buff[6];
	set_name[iqr_num] = (set_name[iqr_num] << 8) | usart1_rx_buff[7];
	set_name[iqr_num] = (set_name[iqr_num] << 8) | usart1_rx_buff[8];
    15a0:	85 81       	ldd	r24, Z+5	; 0x05
    15a2:	90 e0       	ldi	r25, 0x00	; 0
    15a4:	a0 e0       	ldi	r26, 0x00	; 0
    15a6:	b0 e0       	ldi	r27, 0x00	; 0
    15a8:	ba 2f       	mov	r27, r26
    15aa:	a9 2f       	mov	r26, r25
    15ac:	98 2f       	mov	r25, r24
    15ae:	88 27       	eor	r24, r24
    15b0:	26 81       	ldd	r18, Z+6	; 0x06
    15b2:	82 2b       	or	r24, r18
    15b4:	ba 2f       	mov	r27, r26
    15b6:	a9 2f       	mov	r26, r25
    15b8:	98 2f       	mov	r25, r24
    15ba:	88 27       	eor	r24, r24
    15bc:	27 81       	ldd	r18, Z+7	; 0x07
    15be:	82 2b       	or	r24, r18
    15c0:	ba 2f       	mov	r27, r26
    15c2:	a9 2f       	mov	r26, r25
    15c4:	98 2f       	mov	r25, r24
    15c6:	88 27       	eor	r24, r24
    15c8:	20 85       	ldd	r18, Z+8	; 0x08
    15ca:	82 2b       	or	r24, r18
    15cc:	88 83       	st	Y, r24
    15ce:	99 83       	std	Y+1, r25	; 0x01
    15d0:	aa 83       	std	Y+2, r26	; 0x02
    15d2:	bb 83       	std	Y+3, r27	; 0x03

	set_temp[iqr_num] = usart1_rx_buff[9];
	set_temp[iqr_num] = (set_temp[iqr_num] << 8) | usart1_rx_buff[10];
    15d4:	81 85       	ldd	r24, Z+9	; 0x09
    15d6:	90 e0       	ldi	r25, 0x00	; 0
    15d8:	98 2f       	mov	r25, r24
    15da:	88 27       	eor	r24, r24
    15dc:	22 85       	ldd	r18, Z+10	; 0x0a
    15de:	82 2b       	or	r24, r18
    15e0:	9a 01       	movw	r18, r20
    15e2:	22 0f       	add	r18, r18
    15e4:	33 1f       	adc	r19, r19
    15e6:	d9 01       	movw	r26, r18
    15e8:	a3 56       	subi	r26, 0x63	; 99
    15ea:	b6 4f       	sbci	r27, 0xF6	; 246
    15ec:	8d 93       	st	X+, r24
    15ee:	9c 93       	st	X, r25
	set_temp_buff[iqr_num] = set_temp[iqr_num];
    15f0:	d9 01       	movw	r26, r18
    15f2:	a3 53       	subi	r26, 0x33	; 51
    15f4:	b6 4f       	sbci	r27, 0xF6	; 246
    15f6:	8d 93       	st	X+, r24
    15f8:	9c 93       	st	X, r25

	all_sensor_type = usart1_rx_buff[12];
    15fa:	84 85       	ldd	r24, Z+12	; 0x0c
    15fc:	90 e0       	ldi	r25, 0x00	; 0
    15fe:	90 93 9e 01 	sts	0x019E, r25	; 0x80019e <all_sensor_type+0x1>
    1602:	80 93 9d 01 	sts	0x019D, r24	; 0x80019d <all_sensor_type>
	all_sensor_type_buff = all_sensor_type;
    1606:	90 93 31 03 	sts	0x0331, r25	; 0x800331 <all_sensor_type_buff+0x1>
    160a:	80 93 30 03 	sts	0x0330, r24	; 0x800330 <all_sensor_type_buff>
    160e:	e3 ed       	ldi	r30, 0xD3	; 211
    1610:	f1 e0       	ldi	r31, 0x01	; 1
    1612:	23 e0       	ldi	r18, 0x03	; 3
    1614:	32 e0       	ldi	r19, 0x02	; 2

	for (i = 0; i < MAX_IQR_QUANTITY; i++)
	{
		sensor_type[i] = all_sensor_type;
    1616:	81 93       	st	Z+, r24
    1618:	91 93       	st	Z+, r25
	set_temp_buff[iqr_num] = set_temp[iqr_num];

	all_sensor_type = usart1_rx_buff[12];
	all_sensor_type_buff = all_sensor_type;

	for (i = 0; i < MAX_IQR_QUANTITY; i++)
    161a:	e2 17       	cp	r30, r18
    161c:	f3 07       	cpc	r31, r19
    161e:	d9 f7       	brne	.-10     	; 0x1616 <get_setting_data+0xa0>
	{
		sensor_type[i] = all_sensor_type;
	}

	follow_sta[iqr_num] = usart1_rx_buff[14];
    1620:	e6 ec       	ldi	r30, 0xC6	; 198
    1622:	f4 e0       	ldi	r31, 0x04	; 4
    1624:	86 85       	ldd	r24, Z+14	; 0x0e
    1626:	da 01       	movw	r26, r20
    1628:	a9 54       	subi	r26, 0x49	; 73
    162a:	be 4f       	sbci	r27, 0xFE	; 254
    162c:	8c 93       	st	X, r24
	follow_sta_buff[iqr_num] = follow_sta[iqr_num];
    162e:	da 01       	movw	r26, r20
    1630:	a1 56       	subi	r26, 0x61	; 97
    1632:	be 4f       	sbci	r27, 0xFE	; 254
    1634:	8c 93       	st	X, r24

	if (usart1_rx_buff[16] <= 2) //通道状态： 0：关闭  1：开启  2:跟随 3~n：告警类型
    1636:	80 89       	ldd	r24, Z+16	; 0x10
    1638:	83 30       	cpi	r24, 0x03	; 3
    163a:	a8 f4       	brcc	.+42     	; 0x1666 <get_setting_data+0xf0>
	{
		switch_sensor[iqr_num] = usart1_rx_buff[16] & 0x01; //0：关闭  1：开启 （跟随归属到开启）
    163c:	28 2f       	mov	r18, r24
    163e:	21 70       	andi	r18, 0x01	; 1
    1640:	90 e0       	ldi	r25, 0x00	; 0
    1642:	fa 01       	movw	r30, r20
    1644:	ee 0f       	add	r30, r30
    1646:	ff 1f       	adc	r31, r31
    1648:	df 01       	movw	r26, r30
    164a:	ad 5f       	subi	r26, 0xFD	; 253
    164c:	bd 4f       	sbci	r27, 0xFD	; 253
    164e:	2c 93       	st	X, r18
    1650:	11 96       	adiw	r26, 0x01	; 1
    1652:	9c 93       	st	X, r25
		switch_sensor_buff[iqr_num] = switch_sensor[iqr_num];
    1654:	e2 50       	subi	r30, 0x02	; 2
    1656:	fd 4f       	sbci	r31, 0xFD	; 253
    1658:	20 83       	st	Z, r18
    165a:	91 83       	std	Z+1, r25	; 0x01

		sensor_sta[iqr_num] = usart1_rx_buff[16];
    165c:	fa 01       	movw	r30, r20
    165e:	e5 58       	subi	r30, 0x85	; 133
    1660:	fd 4f       	sbci	r31, 0xFD	; 253
    1662:	80 83       	st	Z, r24
    1664:	11 c0       	rjmp	.+34     	; 0x1688 <get_setting_data+0x112>
	}
	else
	{
		sensor_sta[iqr_num] = usart1_rx_buff[16];
    1666:	fa 01       	movw	r30, r20
    1668:	e5 58       	subi	r30, 0x85	; 133
    166a:	fd 4f       	sbci	r31, 0xFD	; 253
    166c:	80 83       	st	Z, r24
		switch_sensor[iqr_num] = 0;
    166e:	ca 01       	movw	r24, r20
    1670:	88 0f       	add	r24, r24
    1672:	99 1f       	adc	r25, r25
    1674:	fc 01       	movw	r30, r24
    1676:	ed 5f       	subi	r30, 0xFD	; 253
    1678:	fd 4f       	sbci	r31, 0xFD	; 253
    167a:	11 82       	std	Z+1, r1	; 0x01
    167c:	10 82       	st	Z, r1
		switch_sensor_buff[iqr_num] = 0;
    167e:	fc 01       	movw	r30, r24
    1680:	e2 50       	subi	r30, 0x02	; 2
    1682:	fd 4f       	sbci	r31, 0xFD	; 253
    1684:	11 82       	std	Z+1, r1	; 0x01
    1686:	10 82       	st	Z, r1
	}

	p_value[iqr_num] = usart1_rx_buff[17];
	p_value[iqr_num] = (p_value[iqr_num] << 8) | usart1_rx_buff[18];
    1688:	44 0f       	add	r20, r20
    168a:	55 1f       	adc	r21, r21
    168c:	da 01       	movw	r26, r20
    168e:	af 5a       	subi	r26, 0xAF	; 175
    1690:	b7 4f       	sbci	r27, 0xF7	; 247
		sensor_sta[iqr_num] = usart1_rx_buff[16];
		switch_sensor[iqr_num] = 0;
		switch_sensor_buff[iqr_num] = 0;
	}

	p_value[iqr_num] = usart1_rx_buff[17];
    1692:	e6 ec       	ldi	r30, 0xC6	; 198
    1694:	f4 e0       	ldi	r31, 0x04	; 4
	p_value[iqr_num] = (p_value[iqr_num] << 8) | usart1_rx_buff[18];
    1696:	81 89       	ldd	r24, Z+17	; 0x11
    1698:	90 e0       	ldi	r25, 0x00	; 0
    169a:	98 2f       	mov	r25, r24
    169c:	88 27       	eor	r24, r24
    169e:	22 89       	ldd	r18, Z+18	; 0x12
    16a0:	82 2b       	or	r24, r18
    16a2:	8d 93       	st	X+, r24
    16a4:	9c 93       	st	X, r25

	i_value[iqr_num] = usart1_rx_buff[19];
	i_value[iqr_num] = (i_value[iqr_num] << 8) | usart1_rx_buff[20];
    16a6:	da 01       	movw	r26, r20
    16a8:	af 57       	subi	r26, 0x7F	; 127
    16aa:	b7 4f       	sbci	r27, 0xF7	; 247
    16ac:	83 89       	ldd	r24, Z+19	; 0x13
    16ae:	90 e0       	ldi	r25, 0x00	; 0
    16b0:	98 2f       	mov	r25, r24
    16b2:	88 27       	eor	r24, r24
    16b4:	24 89       	ldd	r18, Z+20	; 0x14
    16b6:	82 2b       	or	r24, r18
    16b8:	8d 93       	st	X+, r24
    16ba:	9c 93       	st	X, r25

	d_value[iqr_num] = usart1_rx_buff[21];
	d_value[iqr_num] = (d_value[iqr_num] << 8) | usart1_rx_buff[22];
    16bc:	da 01       	movw	r26, r20
    16be:	af 5d       	subi	r26, 0xDF	; 223
    16c0:	b7 4f       	sbci	r27, 0xF7	; 247
    16c2:	85 89       	ldd	r24, Z+21	; 0x15
    16c4:	90 e0       	ldi	r25, 0x00	; 0
    16c6:	98 2f       	mov	r25, r24
    16c8:	88 27       	eor	r24, r24
    16ca:	26 89       	ldd	r18, Z+22	; 0x16
    16cc:	82 2b       	or	r24, r18
    16ce:	8d 93       	st	X+, r24
    16d0:	9c 93       	st	X, r25
	//
	// 	preheat_time = usart1_rx_buff[22];
	// 	preheat_time_buff = preheat_time;

	//	pre_system_sta
}
    16d2:	df 91       	pop	r29
    16d4:	cf 91       	pop	r28
    16d6:	08 95       	ret

000016d8 <send_request_all>:

void send_request_all(uint8_t addr)
{
    16d8:	cf 93       	push	r28
    16da:	df 93       	push	r29
	uint16_t crc = 0;

	usart1_tx_buff[0] = 0xA5;
    16dc:	ce ef       	ldi	r28, 0xFE	; 254
    16de:	d3 e0       	ldi	r29, 0x03	; 3
    16e0:	95 ea       	ldi	r25, 0xA5	; 165
    16e2:	98 83       	st	Y, r25
	usart1_tx_buff[1] = 0x5A;
    16e4:	9a e5       	ldi	r25, 0x5A	; 90
    16e6:	99 83       	std	Y+1, r25	; 0x01
	usart1_tx_buff[2] = 0x02;
    16e8:	92 e0       	ldi	r25, 0x02	; 2
    16ea:	9a 83       	std	Y+2, r25	; 0x02
	usart1_tx_buff[3] = 0x01;
    16ec:	91 e0       	ldi	r25, 0x01	; 1
    16ee:	9b 83       	std	Y+3, r25	; 0x03
	usart1_tx_buff[4] = (addr << 4);
    16f0:	82 95       	swap	r24
    16f2:	80 7f       	andi	r24, 0xF0	; 240
    16f4:	8c 83       	std	Y+4, r24	; 0x04

	crc = crc_check(usart1_tx_buff, 7);
    16f6:	67 e0       	ldi	r22, 0x07	; 7
    16f8:	ce 01       	movw	r24, r28
    16fa:	0e 94 04 14 	call	0x2808	; 0x2808 <crc_check>

	usart1_tx_buff[5] = crc & 0x00FF;
    16fe:	8d 83       	std	Y+5, r24	; 0x05
	usart1_tx_buff[6] = crc >> 8;
    1700:	9e 83       	std	Y+6, r25	; 0x06

	usart1_send_str(usart1_tx_buff, 7);
    1702:	67 e0       	ldi	r22, 0x07	; 7
    1704:	ce 01       	movw	r24, r28
    1706:	0e 94 be 13 	call	0x277c	; 0x277c <usart1_send_str>
}
    170a:	df 91       	pop	r29
    170c:	cf 91       	pop	r28
    170e:	08 95       	ret

00001710 <get_data_all>:

void get_data_all()
{
    1710:	1f 93       	push	r17
    1712:	cf 93       	push	r28
    1714:	df 93       	push	r29
	uint8_t slave_num = 0;

	slave_num = (usart1_rx_buff[4] >> 4);
    1716:	e6 ec       	ldi	r30, 0xC6	; 198
    1718:	f4 e0       	ldi	r31, 0x04	; 4

	output_rate[0 + ((slave_num - 1) * 4)] = usart1_rx_buff[5];
    171a:	84 81       	ldd	r24, Z+4	; 0x04
    171c:	82 95       	swap	r24
    171e:	8f 70       	andi	r24, 0x0F	; 15
    1720:	90 e0       	ldi	r25, 0x00	; 0
    1722:	01 97       	sbiw	r24, 0x01	; 1
    1724:	88 0f       	add	r24, r24
    1726:	99 1f       	adc	r25, r25
    1728:	88 0f       	add	r24, r24
    172a:	99 1f       	adc	r25, r25
    172c:	dc 01       	movw	r26, r24
    172e:	ad 56       	subi	r26, 0x6D	; 109
    1730:	bd 4f       	sbci	r27, 0xFD	; 253
    1732:	25 81       	ldd	r18, Z+5	; 0x05
    1734:	2c 93       	st	X, r18
	output_rate[1 + ((slave_num - 1) * 4)] = usart1_rx_buff[6];
    1736:	dc 01       	movw	r26, r24
    1738:	11 96       	adiw	r26, 0x01	; 1
    173a:	ed 01       	movw	r28, r26
    173c:	cd 56       	subi	r28, 0x6D	; 109
    173e:	dd 4f       	sbci	r29, 0xFD	; 253
    1740:	26 81       	ldd	r18, Z+6	; 0x06
    1742:	28 83       	st	Y, r18
	output_rate[2 + ((slave_num - 1) * 4)] = usart1_rx_buff[7];
    1744:	bc 01       	movw	r22, r24
    1746:	6e 5f       	subi	r22, 0xFE	; 254
    1748:	7f 4f       	sbci	r23, 0xFF	; 255
    174a:	eb 01       	movw	r28, r22
    174c:	cd 56       	subi	r28, 0x6D	; 109
    174e:	dd 4f       	sbci	r29, 0xFD	; 253
    1750:	27 81       	ldd	r18, Z+7	; 0x07
    1752:	28 83       	st	Y, r18
	output_rate[3 + ((slave_num - 1) * 4)] = usart1_rx_buff[8];
    1754:	ac 01       	movw	r20, r24
    1756:	4d 5f       	subi	r20, 0xFD	; 253
    1758:	5f 4f       	sbci	r21, 0xFF	; 255
    175a:	ea 01       	movw	r28, r20
    175c:	cd 56       	subi	r28, 0x6D	; 109
    175e:	dd 4f       	sbci	r29, 0xFD	; 253
    1760:	20 85       	ldd	r18, Z+8	; 0x08
    1762:	28 83       	st	Y, r18
	sensor_sta[1 + ((slave_num - 1) * 4)] = usart1_rx_buff[10];
	sensor_sta[2 + ((slave_num - 1) * 4)] = usart1_rx_buff[11];
	sensor_sta[3 + ((slave_num - 1) * 4)] = usart1_rx_buff[12];

	run_temp[0 + ((slave_num - 1) * 4)] = usart1_rx_buff[13];
	run_temp[0 + ((slave_num - 1) * 4)] = (run_temp[0 + ((slave_num - 1) * 4)] << 8) | usart1_rx_buff[14];
    1764:	ec 01       	movw	r28, r24
    1766:	cc 0f       	add	r28, r28
    1768:	dd 1f       	adc	r29, r29
    176a:	cd 5c       	subi	r28, 0xCD	; 205
    176c:	dd 4f       	sbci	r29, 0xFD	; 253
    176e:	25 85       	ldd	r18, Z+13	; 0x0d
    1770:	30 e0       	ldi	r19, 0x00	; 0
    1772:	32 2f       	mov	r19, r18
    1774:	22 27       	eor	r18, r18
    1776:	16 85       	ldd	r17, Z+14	; 0x0e
    1778:	21 2b       	or	r18, r17
    177a:	39 83       	std	Y+1, r19	; 0x01
    177c:	28 83       	st	Y, r18
	run_temp[1 + ((slave_num - 1) * 4)] = usart1_rx_buff[15];
	run_temp[1 + ((slave_num - 1) * 4)] = (run_temp[1 + ((slave_num - 1) * 4)] << 8) | usart1_rx_buff[16];
    177e:	ed 01       	movw	r28, r26
    1780:	cc 0f       	add	r28, r28
    1782:	dd 1f       	adc	r29, r29
    1784:	cd 5c       	subi	r28, 0xCD	; 205
    1786:	dd 4f       	sbci	r29, 0xFD	; 253
    1788:	27 85       	ldd	r18, Z+15	; 0x0f
    178a:	30 e0       	ldi	r19, 0x00	; 0
    178c:	32 2f       	mov	r19, r18
    178e:	22 27       	eor	r18, r18
    1790:	10 89       	ldd	r17, Z+16	; 0x10
    1792:	21 2b       	or	r18, r17
    1794:	39 83       	std	Y+1, r19	; 0x01
    1796:	28 83       	st	Y, r18
	run_temp[2 + ((slave_num - 1) * 4)] = usart1_rx_buff[17];
	run_temp[2 + ((slave_num - 1) * 4)] = (run_temp[2 + ((slave_num - 1) * 4)] << 8) | usart1_rx_buff[18];
    1798:	eb 01       	movw	r28, r22
    179a:	cc 0f       	add	r28, r28
    179c:	dd 1f       	adc	r29, r29
    179e:	cd 5c       	subi	r28, 0xCD	; 205
    17a0:	dd 4f       	sbci	r29, 0xFD	; 253
    17a2:	21 89       	ldd	r18, Z+17	; 0x11
    17a4:	30 e0       	ldi	r19, 0x00	; 0
    17a6:	32 2f       	mov	r19, r18
    17a8:	22 27       	eor	r18, r18
    17aa:	12 89       	ldd	r17, Z+18	; 0x12
    17ac:	21 2b       	or	r18, r17
    17ae:	39 83       	std	Y+1, r19	; 0x01
    17b0:	28 83       	st	Y, r18
	run_temp[3 + ((slave_num - 1) * 4)] = usart1_rx_buff[19];
	run_temp[3 + ((slave_num - 1) * 4)] = (run_temp[3 + ((slave_num - 1) * 4)] << 8) | usart1_rx_buff[20];
    17b2:	ea 01       	movw	r28, r20
    17b4:	cc 0f       	add	r28, r28
    17b6:	dd 1f       	adc	r29, r29
    17b8:	cd 5c       	subi	r28, 0xCD	; 205
    17ba:	dd 4f       	sbci	r29, 0xFD	; 253
    17bc:	23 89       	ldd	r18, Z+19	; 0x13
    17be:	30 e0       	ldi	r19, 0x00	; 0
    17c0:	32 2f       	mov	r19, r18
    17c2:	22 27       	eor	r18, r18
    17c4:	14 89       	ldd	r17, Z+20	; 0x14
    17c6:	21 2b       	or	r18, r17
    17c8:	39 83       	std	Y+1, r19	; 0x01
    17ca:	28 83       	st	Y, r18

	sensor_sta[0 + ((slave_num - 1) * 4)] = usart1_rx_buff[21];
    17cc:	ec 01       	movw	r28, r24
    17ce:	c5 58       	subi	r28, 0x85	; 133
    17d0:	dd 4f       	sbci	r29, 0xFD	; 253
    17d2:	25 89       	ldd	r18, Z+21	; 0x15
    17d4:	28 83       	st	Y, r18
	sensor_sta[1 + ((slave_num - 1) * 4)] = usart1_rx_buff[22];
    17d6:	a5 58       	subi	r26, 0x85	; 133
    17d8:	bd 4f       	sbci	r27, 0xFD	; 253
    17da:	86 89       	ldd	r24, Z+22	; 0x16
    17dc:	8c 93       	st	X, r24
	sensor_sta[2 + ((slave_num - 1) * 4)] = usart1_rx_buff[23];
    17de:	db 01       	movw	r26, r22
    17e0:	a5 58       	subi	r26, 0x85	; 133
    17e2:	bd 4f       	sbci	r27, 0xFD	; 253
    17e4:	87 89       	ldd	r24, Z+23	; 0x17
    17e6:	8c 93       	st	X, r24
	sensor_sta[3 + ((slave_num - 1) * 4)] = usart1_rx_buff[24];
    17e8:	da 01       	movw	r26, r20
    17ea:	a5 58       	subi	r26, 0x85	; 133
    17ec:	bd 4f       	sbci	r27, 0xFD	; 253
    17ee:	80 8d       	ldd	r24, Z+24	; 0x18
    17f0:	8c 93       	st	X, r24

	update_main_page();
    17f2:	0e 94 0b 07 	call	0xe16	; 0xe16 <update_main_page>
}
    17f6:	df 91       	pop	r29
    17f8:	cf 91       	pop	r28
    17fa:	1f 91       	pop	r17
    17fc:	08 95       	ret

000017fe <clear_alarm_msg>:

void clear_alarm_msg(uint8_t msg_num)
{
    17fe:	cf 93       	push	r28
    1800:	df 93       	push	r29
	uint8_t i = 0;
	uint16_t crc = 0;

	usart0_tx_buff[0] = 0xA5;
    1802:	e1 e9       	ldi	r30, 0x91	; 145
    1804:	f5 e0       	ldi	r31, 0x05	; 5
    1806:	95 ea       	ldi	r25, 0xA5	; 165
    1808:	90 83       	st	Z, r25
	usart0_tx_buff[1] = 0x5A;
    180a:	9a e5       	ldi	r25, 0x5A	; 90
    180c:	91 83       	std	Z+1, r25	; 0x01
	usart0_tx_buff[2] = 0x13;
    180e:	93 e1       	ldi	r25, 0x13	; 19
    1810:	92 83       	std	Z+2, r25	; 0x02
	usart0_tx_buff[3] = 0x82;
    1812:	92 e8       	ldi	r25, 0x82	; 130
    1814:	93 83       	std	Z+3, r25	; 0x03
	usart0_tx_buff[4] = (ALAEM_MSG1_ADDR + (msg_num * 16)) >> 8;
    1816:	c8 2f       	mov	r28, r24
    1818:	d0 e0       	ldi	r29, 0x00	; 0
    181a:	ce 01       	movw	r24, r28
    181c:	8b 96       	adiw	r24, 0x2b	; 43
    181e:	9c 01       	movw	r18, r24
    1820:	22 95       	swap	r18
    1822:	32 95       	swap	r19
    1824:	30 7f       	andi	r19, 0xF0	; 240
    1826:	32 27       	eor	r19, r18
    1828:	20 7f       	andi	r18, 0xF0	; 240
    182a:	32 27       	eor	r19, r18
    182c:	34 83       	std	Z+4, r19	; 0x04
	usart0_tx_buff[5] = (ALAEM_MSG1_ADDR + (msg_num * 16)) & 0x00FF;
    182e:	82 95       	swap	r24
    1830:	80 7f       	andi	r24, 0xF0	; 240
    1832:	85 83       	std	Z+5, r24	; 0x05
    1834:	e7 e9       	ldi	r30, 0x97	; 151
    1836:	f5 e0       	ldi	r31, 0x05	; 5
    1838:	27 ea       	ldi	r18, 0xA7	; 167
    183a:	35 e0       	ldi	r19, 0x05	; 5

	for (i = 0; i < 16; i++)
	{
		usart0_tx_buff[i + 6] = 0x00;
    183c:	11 92       	st	Z+, r1
	usart0_tx_buff[2] = 0x13;
	usart0_tx_buff[3] = 0x82;
	usart0_tx_buff[4] = (ALAEM_MSG1_ADDR + (msg_num * 16)) >> 8;
	usart0_tx_buff[5] = (ALAEM_MSG1_ADDR + (msg_num * 16)) & 0x00FF;

	for (i = 0; i < 16; i++)
    183e:	e2 17       	cp	r30, r18
    1840:	f3 07       	cpc	r31, r19
    1842:	e1 f7       	brne	.-8      	; 0x183c <clear_alarm_msg+0x3e>
	{
		usart0_tx_buff[i + 6] = 0x00;
	}

	crc = crc_check(usart0_tx_buff, 24);
    1844:	68 e1       	ldi	r22, 0x18	; 24
    1846:	81 e9       	ldi	r24, 0x91	; 145
    1848:	95 e0       	ldi	r25, 0x05	; 5
    184a:	0e 94 04 14 	call	0x2808	; 0x2808 <crc_check>

	usart0_tx_buff[22] = crc & 0x00FF;
    184e:	e1 e9       	ldi	r30, 0x91	; 145
    1850:	f5 e0       	ldi	r31, 0x05	; 5
    1852:	86 8b       	std	Z+22, r24	; 0x16
	usart0_tx_buff[23] = crc >> 8;
    1854:	97 8b       	std	Z+23, r25	; 0x17

	usart0_send_str(usart0_tx_buff, 24);
    1856:	68 e1       	ldi	r22, 0x18	; 24
    1858:	cf 01       	movw	r24, r30
    185a:	0e 94 9d 13 	call	0x273a	; 0x273a <usart0_send_str>

	send_variables(ALARM_DEVICE_NUM1_ADDR + (msg_num * 2), 0x0000);
    185e:	ce 01       	movw	r24, r28
    1860:	cc 96       	adiw	r24, 0x3c	; 60
    1862:	60 e0       	ldi	r22, 0x00	; 0
    1864:	70 e0       	ldi	r23, 0x00	; 0
    1866:	88 0f       	add	r24, r24
    1868:	99 1f       	adc	r25, r25
    186a:	0e 94 cb 04 	call	0x996	; 0x996 <send_variables>
}
    186e:	df 91       	pop	r29
    1870:	cf 91       	pop	r28
    1872:	08 95       	ret

00001874 <update_alarm_page>:
	send_variables(MODULE_STATUS_ADDR, module_status[slave_num - 1]);
	PORTA |= (1 << (7 - slave_num));
}

void update_alarm_page(uint8_t page_num)
{
    1874:	bf 92       	push	r11
    1876:	cf 92       	push	r12
    1878:	df 92       	push	r13
    187a:	ef 92       	push	r14
    187c:	ff 92       	push	r15
    187e:	0f 93       	push	r16
    1880:	1f 93       	push	r17
    1882:	cf 93       	push	r28
    1884:	df 93       	push	r29
	uint8_t i = 0;
	uint8_t alarm_msg_num = 0;

	for (i = 0; i < 7; i++)
	{
		alarm_msg_num = alarm_cnt - i - (page_num - 1) * 7;
    1886:	90 e0       	ldi	r25, 0x00	; 0
    1888:	01 97       	sbiw	r24, 0x01	; 1
    188a:	29 ef       	ldi	r18, 0xF9	; 249
    188c:	82 9f       	mul	r24, r18
    188e:	b0 2c       	mov	r11, r0
    1890:	11 24       	eor	r1, r1
    1892:	8c 01       	movw	r16, r24
    1894:	00 0f       	add	r16, r16
    1896:	11 1f       	adc	r17, r17
    1898:	00 0f       	add	r16, r16
    189a:	11 1f       	adc	r17, r17
    189c:	00 0f       	add	r16, r16
    189e:	11 1f       	adc	r17, r17
    18a0:	08 1b       	sub	r16, r24
    18a2:	19 0b       	sbc	r17, r25
    18a4:	0f 2e       	mov	r0, r31
    18a6:	f4 e4       	ldi	r31, 0x44	; 68
    18a8:	ef 2e       	mov	r14, r31
    18aa:	f1 2c       	mov	r15, r1
    18ac:	f0 2d       	mov	r31, r0
void update_alarm_page(uint8_t page_num)
{
	uint8_t i = 0;
	uint8_t alarm_msg_num = 0;

	for (i = 0; i < 7; i++)
    18ae:	d0 e0       	ldi	r29, 0x00	; 0
	{
		alarm_msg_num = alarm_cnt - i - (page_num - 1) * 7;
    18b0:	c0 91 96 01 	lds	r28, 0x0196	; 0x800196 <__data_end>
		send_variables(ALARM_PAGE_NUM1_ADDR + (i * 2), i + ((page_num - 1) * 7) + 1);
    18b4:	68 01       	movw	r12, r16
    18b6:	0f 5f       	subi	r16, 0xFF	; 255
    18b8:	1f 4f       	sbci	r17, 0xFF	; 255
    18ba:	b8 01       	movw	r22, r16
    18bc:	c7 01       	movw	r24, r14
    18be:	0e 94 cb 04 	call	0x996	; 0x996 <send_variables>

		if (alarm_cnt > i + (page_num - 1) * 7)
    18c2:	80 91 96 01 	lds	r24, 0x0196	; 0x800196 <__data_end>
    18c6:	90 e0       	ldi	r25, 0x00	; 0
    18c8:	c8 16       	cp	r12, r24
    18ca:	d9 06       	cpc	r13, r25
    18cc:	7c f4       	brge	.+30     	; 0x18ec <update_alarm_page+0x78>
		{
			send_alarm_msg(alarm_history[alarm_msg_num - 1].alarm_type, i, alarm_history[alarm_msg_num - 1].alarm_device_num);
    18ce:	ec 2f       	mov	r30, r28
    18d0:	eb 0d       	add	r30, r11
    18d2:	ed 1b       	sub	r30, r29
    18d4:	f0 e0       	ldi	r31, 0x00	; 0
    18d6:	ee 0f       	add	r30, r30
    18d8:	ff 1f       	adc	r31, r31
    18da:	e1 55       	subi	r30, 0x51	; 81
    18dc:	f7 4f       	sbci	r31, 0xF7	; 247
    18de:	41 81       	ldd	r20, Z+1	; 0x01
    18e0:	50 e0       	ldi	r21, 0x00	; 0
    18e2:	6d 2f       	mov	r22, r29
    18e4:	80 81       	ld	r24, Z
    18e6:	0e 94 be 09 	call	0x137c	; 0x137c <send_alarm_msg>
    18ea:	03 c0       	rjmp	.+6      	; 0x18f2 <update_alarm_page+0x7e>
		}
		else
		{
			clear_alarm_msg(i);
    18ec:	8d 2f       	mov	r24, r29
    18ee:	0e 94 ff 0b 	call	0x17fe	; 0x17fe <clear_alarm_msg>
void update_alarm_page(uint8_t page_num)
{
	uint8_t i = 0;
	uint8_t alarm_msg_num = 0;

	for (i = 0; i < 7; i++)
    18f2:	df 5f       	subi	r29, 0xFF	; 255
    18f4:	82 e0       	ldi	r24, 0x02	; 2
    18f6:	e8 0e       	add	r14, r24
    18f8:	f1 1c       	adc	r15, r1
    18fa:	d7 30       	cpi	r29, 0x07	; 7
    18fc:	c9 f6       	brne	.-78     	; 0x18b0 <update_alarm_page+0x3c>
	for (; alarm_msg_num < 7; alarm_msg_num++)
	{
		clear_alarm_msg(alarm_msg_num);
	}
*/
}
    18fe:	df 91       	pop	r29
    1900:	cf 91       	pop	r28
    1902:	1f 91       	pop	r17
    1904:	0f 91       	pop	r16
    1906:	ff 90       	pop	r15
    1908:	ef 90       	pop	r14
    190a:	df 90       	pop	r13
    190c:	cf 90       	pop	r12
    190e:	bf 90       	pop	r11
    1910:	08 95       	ret

00001912 <clear_all_alarm_msg>:
	send_variables(ALARM_DEVICE_NUM1_ADDR + (msg_num * 2), 0x0000);
}

/*清除所有告警清单中的信息*/
void clear_all_alarm_msg(void)
{
    1912:	cf 93       	push	r28
	uint8_t i;

	alarm_cnt = 0;
    1914:	10 92 96 01 	sts	0x0196, r1	; 0x800196 <__data_end>

	for (i = 0; i < 7; i++)
    1918:	c0 e0       	ldi	r28, 0x00	; 0
	{
		clear_alarm_msg(i);
    191a:	8c 2f       	mov	r24, r28
    191c:	0e 94 ff 0b 	call	0x17fe	; 0x17fe <clear_alarm_msg>
{
	uint8_t i;

	alarm_cnt = 0;

	for (i = 0; i < 7; i++)
    1920:	cf 5f       	subi	r28, 0xFF	; 255
    1922:	c7 30       	cpi	r28, 0x07	; 7
    1924:	d1 f7       	brne	.-12     	; 0x191a <clear_all_alarm_msg+0x8>
	{
		clear_alarm_msg(i);
	}

	update_alarm_page(1);
    1926:	81 e0       	ldi	r24, 0x01	; 1
    1928:	0e 94 3a 0c 	call	0x1874	; 0x1874 <update_alarm_page>
	eeprom_write_byte((uint8_t *)ALARM_CNT_EEADDR, alarm_cnt);
    192c:	60 91 96 01 	lds	r22, 0x0196	; 0x800196 <__data_end>
    1930:	82 e0       	ldi	r24, 0x02	; 2
    1932:	90 e0       	ldi	r25, 0x00	; 0
    1934:	0e 94 07 17 	call	0x2e0e	; 0x2e0e <eeprom_write_byte>
}
    1938:	cf 91       	pop	r28
    193a:	08 95       	ret

0000193c <clear_curve_buff>:

void clear_curve_buff(uint8_t channel)
{
    193c:	cf 93       	push	r28
    193e:	df 93       	push	r29
	uint16_t crc = 0;

	usart0_tx_buff[0] = 0xA5;
    1940:	c1 e9       	ldi	r28, 0x91	; 145
    1942:	d5 e0       	ldi	r29, 0x05	; 5
    1944:	95 ea       	ldi	r25, 0xA5	; 165
    1946:	98 83       	st	Y, r25
	usart0_tx_buff[1] = 0x5A;
    1948:	9a e5       	ldi	r25, 0x5A	; 90
    194a:	99 83       	std	Y+1, r25	; 0x01
	usart0_tx_buff[2] = 0x03;
    194c:	93 e0       	ldi	r25, 0x03	; 3
    194e:	9a 83       	std	Y+2, r25	; 0x02
	usart0_tx_buff[3] = 0x80;
    1950:	90 e8       	ldi	r25, 0x80	; 128
    1952:	9b 83       	std	Y+3, r25	; 0x03
	usart0_tx_buff[4] = 0xEB;
    1954:	9b ee       	ldi	r25, 0xEB	; 235
    1956:	9c 83       	std	Y+4, r25	; 0x04
	usart0_tx_buff[5] = channel;
    1958:	8d 83       	std	Y+5, r24	; 0x05

	crc = crc_check(usart0_tx_buff, 8);
    195a:	68 e0       	ldi	r22, 0x08	; 8
    195c:	ce 01       	movw	r24, r28
    195e:	0e 94 04 14 	call	0x2808	; 0x2808 <crc_check>

	usart0_tx_buff[6] = crc & 0x00FF;
    1962:	8e 83       	std	Y+6, r24	; 0x06
	usart0_tx_buff[7] = crc >> 8;
    1964:	9f 83       	std	Y+7, r25	; 0x07

	usart0_send_str(usart0_tx_buff, 8);
    1966:	68 e0       	ldi	r22, 0x08	; 8
    1968:	ce 01       	movw	r24, r28
    196a:	0e 94 9d 13 	call	0x273a	; 0x273a <usart0_send_str>
}
    196e:	df 91       	pop	r29
    1970:	cf 91       	pop	r28
    1972:	08 95       	ret

00001974 <update_curve_page>:
	i_value_buff = i_value[channel - 1];
	d_value_buff = d_value[channel - 1];
}

void update_curve_page(void)
{
    1974:	bf 92       	push	r11
    1976:	cf 92       	push	r12
    1978:	df 92       	push	r13
    197a:	ef 92       	push	r14
    197c:	ff 92       	push	r15
    197e:	0f 93       	push	r16
    1980:	1f 93       	push	r17
    1982:	cf 93       	push	r28
    1984:	df 93       	push	r29
    1986:	cd b7       	in	r28, 0x3d	; 61
    1988:	de b7       	in	r29, 0x3e	; 62
    198a:	64 97       	sbiw	r28, 0x14	; 20
    198c:	0f b6       	in	r0, 0x3f	; 63
    198e:	f8 94       	cli
    1990:	de bf       	out	0x3e, r29	; 62
    1992:	0f be       	out	0x3f, r0	; 63
    1994:	cd bf       	out	0x3d, r28	; 61
	uint8_t i = 0;
	uint8_t count = 0;
	uint16_t time_line[10] = {2, 4, 6, 8, 10, 12, 14, 16, 18, 20};
    1996:	84 e1       	ldi	r24, 0x14	; 20
    1998:	e2 e8       	ldi	r30, 0x82	; 130
    199a:	f1 e0       	ldi	r31, 0x01	; 1
    199c:	de 01       	movw	r26, r28
    199e:	11 96       	adiw	r26, 0x01	; 1
    19a0:	01 90       	ld	r0, Z+
    19a2:	0d 92       	st	X+, r0
    19a4:	8a 95       	dec	r24
    19a6:	e1 f7       	brne	.-8      	; 0x19a0 <update_curve_page+0x2c>

	update_run_temp_flag = 1;
    19a8:	81 e0       	ldi	r24, 0x01	; 1
    19aa:	80 93 ba 02 	sts	0x02BA, r24	; 0x8002ba <update_run_temp_flag>
	run_temp_page = 0;
    19ae:	10 92 bb 02 	sts	0x02BB, r1	; 0x8002bb <run_temp_page>

	if (curve_time_level >= 4)
    19b2:	80 91 b2 02 	lds	r24, 0x02B2	; 0x8002b2 <curve_time_level>
    19b6:	84 30       	cpi	r24, 0x04	; 4
    19b8:	24 f0       	brlt	.+8      	; 0x19c2 <update_curve_page+0x4e>
	{
		curve_time_level = 3;
    19ba:	83 e0       	ldi	r24, 0x03	; 3
    19bc:	80 93 b2 02 	sts	0x02B2, r24	; 0x8002b2 <curve_time_level>
    19c0:	04 c0       	rjmp	.+8      	; 0x19ca <update_curve_page+0x56>
	}
	else if (curve_time_level < 0)
    19c2:	88 23       	and	r24, r24
    19c4:	14 f4       	brge	.+4      	; 0x19ca <update_curve_page+0x56>
	{
		curve_time_level = 0;
    19c6:	10 92 b2 02 	sts	0x02B2, r1	; 0x8002b2 <curve_time_level>
	}

	if (curve_page_num >= MAX_IQR_QUANTITY)
    19ca:	80 91 b3 02 	lds	r24, 0x02B3	; 0x8002b3 <curve_page_num>
    19ce:	88 31       	cpi	r24, 0x18	; 24
    19d0:	1c f0       	brlt	.+6      	; 0x19d8 <update_curve_page+0x64>
	{
		curve_page_num = 0;
    19d2:	10 92 b3 02 	sts	0x02B3, r1	; 0x8002b3 <curve_page_num>
    19d6:	05 c0       	rjmp	.+10     	; 0x19e2 <update_curve_page+0x6e>
	}
	else if (curve_page_num < 0)
    19d8:	88 23       	and	r24, r24
    19da:	1c f4       	brge	.+6      	; 0x19e2 <update_curve_page+0x6e>
	{
		curve_page_num = MAX_IQR_QUANTITY - 1;
    19dc:	87 e1       	ldi	r24, 0x17	; 23
    19de:	80 93 b3 02 	sts	0x02B3, r24	; 0x8002b3 <curve_page_num>
	}

	count = 10 * (curve_time_level + 1);
    19e2:	80 91 b2 02 	lds	r24, 0x02B2	; 0x8002b2 <curve_time_level>
    19e6:	88 0f       	add	r24, r24
    19e8:	8e 5f       	subi	r24, 0xFE	; 254
    19ea:	b8 2e       	mov	r11, r24
    19ec:	bb 0c       	add	r11, r11
    19ee:	bb 0c       	add	r11, r11
    19f0:	b8 0e       	add	r11, r24

	CLOSE_CURVE;
    19f2:	85 b5       	in	r24, 0x25	; 37
    19f4:	88 7f       	andi	r24, 0xF8	; 248
    19f6:	85 bd       	out	0x25, r24	; 37
	clear_curve_buff(CHANNEL0_BUFF);
    19f8:	8a e5       	ldi	r24, 0x5A	; 90
    19fa:	0e 94 9e 0c 	call	0x193c	; 0x193c <clear_curve_buff>
    19fe:	ce 01       	movw	r24, r28
    1a00:	01 96       	adiw	r24, 0x01	; 1
    1a02:	7e 01       	movw	r14, r28
    1a04:	25 e1       	ldi	r18, 0x15	; 21
    1a06:	e2 0e       	add	r14, r18
    1a08:	f1 1c       	adc	r15, r1
    1a0a:	6c 01       	movw	r12, r24

	for (i = 0; i < 10; i++)
	{
		time_line[i] *= (curve_time_level + 1);
		send_variables(CURVE_TIMELINE_ADDR + (i * 2), time_line[i]);
    1a0c:	00 e5       	ldi	r16, 0x50	; 80
    1a0e:	10 e0       	ldi	r17, 0x00	; 0
    1a10:	08 1b       	sub	r16, r24
    1a12:	19 0b       	sbc	r17, r25
	CLOSE_CURVE;
	clear_curve_buff(CHANNEL0_BUFF);

	for (i = 0; i < 10; i++)
	{
		time_line[i] *= (curve_time_level + 1);
    1a14:	80 91 b2 02 	lds	r24, 0x02B2	; 0x8002b2 <curve_time_level>
    1a18:	08 2e       	mov	r0, r24
    1a1a:	00 0c       	add	r0, r0
    1a1c:	99 0b       	sbc	r25, r25
    1a1e:	01 96       	adiw	r24, 0x01	; 1
    1a20:	f6 01       	movw	r30, r12
    1a22:	20 81       	ld	r18, Z
    1a24:	31 81       	ldd	r19, Z+1	; 0x01
    1a26:	82 9f       	mul	r24, r18
    1a28:	b0 01       	movw	r22, r0
    1a2a:	83 9f       	mul	r24, r19
    1a2c:	70 0d       	add	r23, r0
    1a2e:	92 9f       	mul	r25, r18
    1a30:	70 0d       	add	r23, r0
    1a32:	11 24       	eor	r1, r1
    1a34:	61 93       	st	Z+, r22
    1a36:	71 93       	st	Z+, r23
    1a38:	6f 01       	movw	r12, r30
		send_variables(CURVE_TIMELINE_ADDR + (i * 2), time_line[i]);
    1a3a:	c8 01       	movw	r24, r16
    1a3c:	8e 0f       	add	r24, r30
    1a3e:	9f 1f       	adc	r25, r31
    1a40:	0e 94 cb 04 	call	0x996	; 0x996 <send_variables>
	count = 10 * (curve_time_level + 1);

	CLOSE_CURVE;
	clear_curve_buff(CHANNEL0_BUFF);

	for (i = 0; i < 10; i++)
    1a44:	ce 14       	cp	r12, r14
    1a46:	df 04       	cpc	r13, r15
    1a48:	29 f7       	brne	.-54     	; 0x1a14 <update_curve_page+0xa0>
	{
		time_line[i] *= (curve_time_level + 1);
		send_variables(CURVE_TIMELINE_ADDR + (i * 2), time_line[i]);
	}

	send_variables(CURVE_PAGE_NUM_ADDR, curve_page_num + 1);
    1a4a:	60 91 b3 02 	lds	r22, 0x02B3	; 0x8002b3 <curve_page_num>
    1a4e:	06 2e       	mov	r0, r22
    1a50:	00 0c       	add	r0, r0
    1a52:	77 0b       	sbc	r23, r23
    1a54:	6f 5f       	subi	r22, 0xFF	; 255
    1a56:	7f 4f       	sbci	r23, 0xFF	; 255
    1a58:	8c e3       	ldi	r24, 0x3C	; 60
    1a5a:	90 e0       	ldi	r25, 0x00	; 0
    1a5c:	0e 94 cb 04 	call	0x996	; 0x996 <send_variables>
	send_variables(CURVE_PAGE_RUNTEMP_ADDR, run_temp[curve_page_num] +
    1a60:	e0 91 b3 02 	lds	r30, 0x02B3	; 0x8002b3 <curve_page_num>
    1a64:	ee 0f       	add	r30, r30
    1a66:	ff 0b       	sbc	r31, r31
    1a68:	ed 5c       	subi	r30, 0xCD	; 205
    1a6a:	fd 4f       	sbci	r31, 0xFD	; 253
    1a6c:	20 81       	ld	r18, Z
    1a6e:	31 81       	ldd	r19, Z+1	; 0x01
    1a70:	c9 01       	movw	r24, r18
    1a72:	88 0f       	add	r24, r24
    1a74:	99 1f       	adc	r25, r25
    1a76:	88 0f       	add	r24, r24
    1a78:	99 1f       	adc	r25, r25
    1a7a:	88 0f       	add	r24, r24
    1a7c:	99 1f       	adc	r25, r25
    1a7e:	6a e0       	ldi	r22, 0x0A	; 10
    1a80:	70 e0       	ldi	r23, 0x00	; 0
    1a82:	0e 94 8f 16 	call	0x2d1e	; 0x2d1e <__divmodhi4>
    1a86:	cb 01       	movw	r24, r22
    1a88:	80 96       	adiw	r24, 0x20	; 32
    1a8a:	40 91 9b 01 	lds	r20, 0x019B	; 0x80019b <temp_unit>
    1a8e:	50 91 9c 01 	lds	r21, 0x019C	; 0x80019c <temp_unit+0x1>
    1a92:	84 9f       	mul	r24, r20
    1a94:	b0 01       	movw	r22, r0
    1a96:	85 9f       	mul	r24, r21
    1a98:	70 0d       	add	r23, r0
    1a9a:	94 9f       	mul	r25, r20
    1a9c:	70 0d       	add	r23, r0
    1a9e:	11 24       	eor	r1, r1
    1aa0:	62 0f       	add	r22, r18
    1aa2:	73 1f       	adc	r23, r19
    1aa4:	8e e3       	ldi	r24, 0x3E	; 62
    1aa6:	90 e0       	ldi	r25, 0x00	; 0
    1aa8:	0e 94 cb 04 	call	0x996	; 0x996 <send_variables>
												temp_unit * (run_temp[curve_page_num] * 8 / 10 + 32)); //运行温度
	send_variables(CURVE_PAGE_SETTEMP_ADDR, set_temp[curve_page_num]);								   //设定温度
    1aac:	e0 91 b3 02 	lds	r30, 0x02B3	; 0x8002b3 <curve_page_num>
    1ab0:	ee 0f       	add	r30, r30
    1ab2:	ff 0b       	sbc	r31, r31
    1ab4:	e3 56       	subi	r30, 0x63	; 99
    1ab6:	f6 4f       	sbci	r31, 0xF6	; 246
    1ab8:	60 81       	ld	r22, Z
    1aba:	71 81       	ldd	r23, Z+1	; 0x01
    1abc:	80 e4       	ldi	r24, 0x40	; 64
    1abe:	90 e0       	ldi	r25, 0x00	; 0
    1ac0:	0e 94 cb 04 	call	0x996	; 0x996 <send_variables>
	send_variables(CURVE_PAGE_OUTRATE_ADDR, output_rate[curve_page_num]);
    1ac4:	e0 91 b3 02 	lds	r30, 0x02B3	; 0x8002b3 <curve_page_num>
    1ac8:	0e 2e       	mov	r0, r30
    1aca:	00 0c       	add	r0, r0
    1acc:	ff 0b       	sbc	r31, r31
    1ace:	ed 56       	subi	r30, 0x6D	; 109
    1ad0:	fd 4f       	sbci	r31, 0xFD	; 253
    1ad2:	60 81       	ld	r22, Z
    1ad4:	70 e0       	ldi	r23, 0x00	; 0
    1ad6:	82 e4       	ldi	r24, 0x42	; 66
    1ad8:	90 e0       	ldi	r25, 0x00	; 0
    1ada:	0e 94 cb 04 	call	0x996	; 0x996 <send_variables>
	send_variables(CURVE_PAGE_SENSORTYPE_ADDR, TYPE_J + (sensor_type[curve_page_num] * TYPE_K));
    1ade:	e0 91 b3 02 	lds	r30, 0x02B3	; 0x8002b3 <curve_page_num>
    1ae2:	ee 0f       	add	r30, r30
    1ae4:	ff 0b       	sbc	r31, r31
    1ae6:	ed 52       	subi	r30, 0x2D	; 45
    1ae8:	fe 4f       	sbci	r31, 0xFE	; 254
    1aea:	80 81       	ld	r24, Z
    1aec:	91 81       	ldd	r25, Z+1	; 0x01
    1aee:	86 5b       	subi	r24, 0xB6	; 182
    1af0:	9f 4f       	sbci	r25, 0xFF	; 255
    1af2:	60 e0       	ldi	r22, 0x00	; 0
    1af4:	78 2f       	mov	r23, r24
    1af6:	80 ea       	ldi	r24, 0xA0	; 160
    1af8:	92 e0       	ldi	r25, 0x02	; 2
    1afa:	0e 94 cb 04 	call	0x996	; 0x996 <send_variables>
	send_name(CURVE_PAGE_NAME_ADDR, set_name[curve_page_num]);
    1afe:	e0 91 b3 02 	lds	r30, 0x02B3	; 0x8002b3 <curve_page_num>
    1b02:	24 e0       	ldi	r18, 0x04	; 4
    1b04:	e2 02       	muls	r30, r18
    1b06:	f0 01       	movw	r30, r0
    1b08:	11 24       	eor	r1, r1
    1b0a:	e3 5c       	subi	r30, 0xC3	; 195
    1b0c:	f6 4f       	sbci	r31, 0xF6	; 246
    1b0e:	40 81       	ld	r20, Z
    1b10:	51 81       	ldd	r21, Z+1	; 0x01
    1b12:	62 81       	ldd	r22, Z+2	; 0x02
    1b14:	73 81       	ldd	r23, Z+3	; 0x03
    1b16:	88 e9       	ldi	r24, 0x98	; 152
    1b18:	92 e0       	ldi	r25, 0x02	; 2
    1b1a:	0e 94 ec 06 	call	0xdd8	; 0xdd8 <send_name>

	OPEN_CURVE(count);
    1b1e:	b0 92 cd 02 	sts	0x02CD, r11	; 0x8002cd <timer2_ovf>
    1b22:	82 eb       	ldi	r24, 0xB2	; 178
    1b24:	84 bd       	out	0x24, r24	; 36
    1b26:	85 b5       	in	r24, 0x25	; 37
    1b28:	85 60       	ori	r24, 0x05	; 5
    1b2a:	85 bd       	out	0x25, r24	; 37
}
    1b2c:	64 96       	adiw	r28, 0x14	; 20
    1b2e:	0f b6       	in	r0, 0x3f	; 63
    1b30:	f8 94       	cli
    1b32:	de bf       	out	0x3e, r29	; 62
    1b34:	0f be       	out	0x3f, r0	; 63
    1b36:	cd bf       	out	0x3d, r28	; 61
    1b38:	df 91       	pop	r29
    1b3a:	cf 91       	pop	r28
    1b3c:	1f 91       	pop	r17
    1b3e:	0f 91       	pop	r16
    1b40:	ff 90       	pop	r15
    1b42:	ef 90       	pop	r14
    1b44:	df 90       	pop	r13
    1b46:	cf 90       	pop	r12
    1b48:	bf 90       	pop	r11
    1b4a:	08 95       	ret

00001b4c <key_action>:
		}
	}
}

void key_action(uint16_t key_code)
{
    1b4c:	fc 01       	movw	r30, r24
	static uint8_t alarm_page_num = 1;
	uint8_t max_alarm_page_num;

	if (alarm_cnt == 0)
    1b4e:	90 91 96 01 	lds	r25, 0x0196	; 0x800196 <__data_end>
    1b52:	99 23       	and	r25, r25
    1b54:	31 f1       	breq	.+76     	; 0x1ba2 <key_action+0x56>
	{
		max_alarm_page_num = 1;
	}
	else if (alarm_cnt % 7 == 0)
    1b56:	85 e2       	ldi	r24, 0x25	; 37
    1b58:	98 9f       	mul	r25, r24
    1b5a:	21 2d       	mov	r18, r1
    1b5c:	11 24       	eor	r1, r1
    1b5e:	89 2f       	mov	r24, r25
    1b60:	82 1b       	sub	r24, r18
    1b62:	86 95       	lsr	r24
    1b64:	82 0f       	add	r24, r18
    1b66:	86 95       	lsr	r24
    1b68:	86 95       	lsr	r24
    1b6a:	28 2f       	mov	r18, r24
    1b6c:	22 0f       	add	r18, r18
    1b6e:	22 0f       	add	r18, r18
    1b70:	22 0f       	add	r18, r18
    1b72:	28 1b       	sub	r18, r24
    1b74:	92 13       	cpse	r25, r18
    1b76:	0a c0       	rjmp	.+20     	; 0x1b8c <key_action+0x40>
	{
		max_alarm_page_num = alarm_cnt / 7;
    1b78:	85 e2       	ldi	r24, 0x25	; 37
    1b7a:	98 9f       	mul	r25, r24
    1b7c:	81 2d       	mov	r24, r1
    1b7e:	11 24       	eor	r1, r1
    1b80:	98 1b       	sub	r25, r24
    1b82:	96 95       	lsr	r25
    1b84:	98 0f       	add	r25, r24
    1b86:	96 95       	lsr	r25
    1b88:	96 95       	lsr	r25
    1b8a:	0c c0       	rjmp	.+24     	; 0x1ba4 <key_action+0x58>
	}
	else
	{
		max_alarm_page_num = alarm_cnt / 7 + 1;
    1b8c:	85 e2       	ldi	r24, 0x25	; 37
    1b8e:	98 9f       	mul	r25, r24
    1b90:	81 2d       	mov	r24, r1
    1b92:	11 24       	eor	r1, r1
    1b94:	98 1b       	sub	r25, r24
    1b96:	96 95       	lsr	r25
    1b98:	98 0f       	add	r25, r24
    1b9a:	96 95       	lsr	r25
    1b9c:	96 95       	lsr	r25
    1b9e:	9f 5f       	subi	r25, 0xFF	; 255
    1ba0:	01 c0       	rjmp	.+2      	; 0x1ba4 <key_action+0x58>
	static uint8_t alarm_page_num = 1;
	uint8_t max_alarm_page_num;

	if (alarm_cnt == 0)
	{
		max_alarm_page_num = 1;
    1ba2:	91 e0       	ldi	r25, 0x01	; 1
	else
	{
		max_alarm_page_num = alarm_cnt / 7 + 1;
	}

	switch (key_code)
    1ba4:	eb 32       	cpi	r30, 0x2B	; 43
    1ba6:	f1 05       	cpc	r31, r1
    1ba8:	08 f0       	brcs	.+2      	; 0x1bac <key_action+0x60>
    1baa:	4a c1       	rjmp	.+660    	; 0x1e40 <key_action+0x2f4>
    1bac:	ea 5b       	subi	r30, 0xBA	; 186
    1bae:	ff 4f       	sbci	r31, 0xFF	; 255
    1bb0:	0c 94 c5 16 	jmp	0x2d8a	; 0x2d8a <__tablejump2__>
	{
	case SWITCH_LANGUAGE:
		pre_language ^= 0x01;
    1bb4:	90 91 b9 02 	lds	r25, 0x02B9	; 0x8002b9 <pre_language>
    1bb8:	81 e0       	ldi	r24, 0x01	; 1
    1bba:	89 27       	eor	r24, r25
    1bbc:	80 93 b9 02 	sts	0x02B9, r24	; 0x8002b9 <pre_language>
		switch_language();
    1bc0:	0e 94 b9 04 	call	0x972	; 0x972 <switch_language>
		break;
    1bc4:	08 95       	ret
	case CLEAR_ALARM_SOUND:
		ALARM_OFF;
    1bc6:	94 98       	cbi	0x12, 4	; 18
		break;
    1bc8:	08 95       	ret
	case MAIN_PAGE_UP:
		if (--pre_main_page <= 0)
    1bca:	80 91 b8 02 	lds	r24, 0x02B8	; 0x8002b8 <pre_main_page>
    1bce:	81 50       	subi	r24, 0x01	; 1
    1bd0:	18 16       	cp	r1, r24
    1bd2:	1c f4       	brge	.+6      	; 0x1bda <key_action+0x8e>
    1bd4:	80 93 b8 02 	sts	0x02B8, r24	; 0x8002b8 <pre_main_page>
    1bd8:	02 c0       	rjmp	.+4      	; 0x1bde <key_action+0x92>
			pre_main_page = 0;
    1bda:	10 92 b8 02 	sts	0x02B8, r1	; 0x8002b8 <pre_main_page>
		update_main_page();
    1bde:	0e 94 0b 07 	call	0xe16	; 0xe16 <update_main_page>
		break;
    1be2:	08 95       	ret
	case MAIN_PAGE_DOWN:
		if (++pre_main_page >= MAX_PAGE_QUANTITY-1)
    1be4:	80 91 b8 02 	lds	r24, 0x02B8	; 0x8002b8 <pre_main_page>
    1be8:	8f 5f       	subi	r24, 0xFF	; 255
    1bea:	83 30       	cpi	r24, 0x03	; 3
    1bec:	1c f4       	brge	.+6      	; 0x1bf4 <key_action+0xa8>
    1bee:	80 93 b8 02 	sts	0x02B8, r24	; 0x8002b8 <pre_main_page>
    1bf2:	03 c0       	rjmp	.+6      	; 0x1bfa <key_action+0xae>
			pre_main_page = MAX_PAGE_QUANTITY-1;
    1bf4:	83 e0       	ldi	r24, 0x03	; 3
    1bf6:	80 93 b8 02 	sts	0x02B8, r24	; 0x8002b8 <pre_main_page>
		update_main_page();
    1bfa:	0e 94 0b 07 	call	0xe16	; 0xe16 <update_main_page>
		break;
    1bfe:	08 95       	ret
	case MAIN_SENSOR1_SET:
		set_num = 0 + (pre_main_page * IQR_QUANTITY_PER_PAGE);
    1c00:	80 91 b8 02 	lds	r24, 0x02B8	; 0x8002b8 <pre_main_page>
    1c04:	98 2f       	mov	r25, r24
    1c06:	99 0f       	add	r25, r25
    1c08:	89 0f       	add	r24, r25
    1c0a:	88 0f       	add	r24, r24
    1c0c:	80 93 b5 02 	sts	0x02B5, r24	; 0x8002b5 <set_num>
		update_single_set_page();
    1c10:	0e 94 fb 08 	call	0x11f6	; 0x11f6 <update_single_set_page>
		break;
    1c14:	08 95       	ret
	case MAIN_SENSOR2_SET:
		set_num = 1 + (pre_main_page * IQR_QUANTITY_PER_PAGE);
    1c16:	80 91 b8 02 	lds	r24, 0x02B8	; 0x8002b8 <pre_main_page>
    1c1a:	98 2f       	mov	r25, r24
    1c1c:	99 0f       	add	r25, r25
    1c1e:	89 0f       	add	r24, r25
    1c20:	88 0f       	add	r24, r24
    1c22:	8f 5f       	subi	r24, 0xFF	; 255
    1c24:	80 93 b5 02 	sts	0x02B5, r24	; 0x8002b5 <set_num>
		update_single_set_page();
    1c28:	0e 94 fb 08 	call	0x11f6	; 0x11f6 <update_single_set_page>
		break;
    1c2c:	08 95       	ret
	case MAIN_SENSOR3_SET:
		set_num = 2 + (pre_main_page * IQR_QUANTITY_PER_PAGE);
    1c2e:	80 91 b8 02 	lds	r24, 0x02B8	; 0x8002b8 <pre_main_page>
    1c32:	98 2f       	mov	r25, r24
    1c34:	99 0f       	add	r25, r25
    1c36:	89 0f       	add	r24, r25
    1c38:	88 0f       	add	r24, r24
    1c3a:	8e 5f       	subi	r24, 0xFE	; 254
    1c3c:	80 93 b5 02 	sts	0x02B5, r24	; 0x8002b5 <set_num>
		update_single_set_page();
    1c40:	0e 94 fb 08 	call	0x11f6	; 0x11f6 <update_single_set_page>
		break;
    1c44:	08 95       	ret
	case MAIN_SENSOR4_SET:
		set_num = 3 + (pre_main_page * IQR_QUANTITY_PER_PAGE);
    1c46:	80 91 b8 02 	lds	r24, 0x02B8	; 0x8002b8 <pre_main_page>
    1c4a:	98 2f       	mov	r25, r24
    1c4c:	99 0f       	add	r25, r25
    1c4e:	89 0f       	add	r24, r25
    1c50:	88 0f       	add	r24, r24
    1c52:	8d 5f       	subi	r24, 0xFD	; 253
    1c54:	80 93 b5 02 	sts	0x02B5, r24	; 0x8002b5 <set_num>
		update_single_set_page();
    1c58:	0e 94 fb 08 	call	0x11f6	; 0x11f6 <update_single_set_page>
		break;
    1c5c:	08 95       	ret
	case MAIN_SENSOR5_SET:
		set_num = 4 + (pre_main_page * IQR_QUANTITY_PER_PAGE);
    1c5e:	80 91 b8 02 	lds	r24, 0x02B8	; 0x8002b8 <pre_main_page>
    1c62:	98 2f       	mov	r25, r24
    1c64:	99 0f       	add	r25, r25
    1c66:	89 0f       	add	r24, r25
    1c68:	88 0f       	add	r24, r24
    1c6a:	8c 5f       	subi	r24, 0xFC	; 252
    1c6c:	80 93 b5 02 	sts	0x02B5, r24	; 0x8002b5 <set_num>
		update_single_set_page();
    1c70:	0e 94 fb 08 	call	0x11f6	; 0x11f6 <update_single_set_page>
		break;
    1c74:	08 95       	ret
	case MAIN_SENSOR6_SET:
		set_num = 5 + (pre_main_page * IQR_QUANTITY_PER_PAGE);
    1c76:	80 91 b8 02 	lds	r24, 0x02B8	; 0x8002b8 <pre_main_page>
    1c7a:	98 2f       	mov	r25, r24
    1c7c:	99 0f       	add	r25, r25
    1c7e:	89 0f       	add	r24, r25
    1c80:	88 0f       	add	r24, r24
    1c82:	8b 5f       	subi	r24, 0xFB	; 251
    1c84:	80 93 b5 02 	sts	0x02B5, r24	; 0x8002b5 <set_num>
		update_single_set_page();
    1c88:	0e 94 fb 08 	call	0x11f6	; 0x11f6 <update_single_set_page>
		break;
    1c8c:	08 95       	ret
	case SINGLE_SET_OK:
		single_set_ok();
    1c8e:	0e 94 25 08 	call	0x104a	; 0x104a <single_set_ok>
		break;
    1c92:	08 95       	ret
	case ALL_SET_OK:
		all_set_ok();
    1c94:	0e 94 a6 08 	call	0x114c	; 0x114c <all_set_ok>
		break;
    1c98:	08 95       	ret
	case PID_SET_OK:
		pid_set_ok();
    1c9a:	0e 94 e8 04 	call	0x9d0	; 0x9d0 <pid_set_ok>
		break;
    1c9e:	08 95       	ret
	case PID_PAGE_ENTER:
		pid_page_num = 1;
    1ca0:	81 e0       	ldi	r24, 0x01	; 1
    1ca2:	80 93 b1 02 	sts	0x02B1, r24	; 0x8002b1 <pid_page_num>
		update_pid_page(pid_page_num);
    1ca6:	0e 94 88 05 	call	0xb10	; 0xb10 <update_pid_page>
		break;
    1caa:	08 95       	ret
	case PID_PAGE_UP:
		if(--pid_page_num < 1)
    1cac:	80 91 b1 02 	lds	r24, 0x02B1	; 0x8002b1 <pid_page_num>
    1cb0:	81 50       	subi	r24, 0x01	; 1
    1cb2:	19 f0       	breq	.+6      	; 0x1cba <key_action+0x16e>
    1cb4:	80 93 b1 02 	sts	0x02B1, r24	; 0x8002b1 <pid_page_num>
    1cb8:	03 c0       	rjmp	.+6      	; 0x1cc0 <key_action+0x174>
			pid_page_num = MAX_IQR_QUANTITY;
    1cba:	88 e1       	ldi	r24, 0x18	; 24
    1cbc:	80 93 b1 02 	sts	0x02B1, r24	; 0x8002b1 <pid_page_num>
		update_pid_page(pid_page_num);
    1cc0:	80 91 b1 02 	lds	r24, 0x02B1	; 0x8002b1 <pid_page_num>
    1cc4:	0e 94 88 05 	call	0xb10	; 0xb10 <update_pid_page>
		break;
    1cc8:	08 95       	ret
	case PID_PAGE_DOWN:
		if(++pid_page_num > MAX_IQR_QUANTITY)
    1cca:	80 91 b1 02 	lds	r24, 0x02B1	; 0x8002b1 <pid_page_num>
    1cce:	8f 5f       	subi	r24, 0xFF	; 255
    1cd0:	89 31       	cpi	r24, 0x19	; 25
    1cd2:	18 f4       	brcc	.+6      	; 0x1cda <key_action+0x18e>
    1cd4:	80 93 b1 02 	sts	0x02B1, r24	; 0x8002b1 <pid_page_num>
    1cd8:	03 c0       	rjmp	.+6      	; 0x1ce0 <key_action+0x194>
			pid_page_num = 1;
    1cda:	81 e0       	ldi	r24, 0x01	; 1
    1cdc:	80 93 b1 02 	sts	0x02B1, r24	; 0x8002b1 <pid_page_num>
		update_pid_page(pid_page_num);
    1ce0:	80 91 b1 02 	lds	r24, 0x02B1	; 0x8002b1 <pid_page_num>
    1ce4:	0e 94 88 05 	call	0xb10	; 0xb10 <update_pid_page>
		break;
    1ce8:	08 95       	ret
	case CURVE_ZOOM_OUT:
		curve_time_level--;
    1cea:	80 91 b2 02 	lds	r24, 0x02B2	; 0x8002b2 <curve_time_level>
    1cee:	81 50       	subi	r24, 0x01	; 1
    1cf0:	80 93 b2 02 	sts	0x02B2, r24	; 0x8002b2 <curve_time_level>
		update_curve_page();
    1cf4:	0e 94 ba 0c 	call	0x1974	; 0x1974 <update_curve_page>
		break;
    1cf8:	08 95       	ret
	case CURVE_ZOOM_IN:
		curve_time_level++;
    1cfa:	80 91 b2 02 	lds	r24, 0x02B2	; 0x8002b2 <curve_time_level>
    1cfe:	8f 5f       	subi	r24, 0xFF	; 255
    1d00:	80 93 b2 02 	sts	0x02B2, r24	; 0x8002b2 <curve_time_level>
		update_curve_page();
    1d04:	0e 94 ba 0c 	call	0x1974	; 0x1974 <update_curve_page>
		break;
    1d08:	08 95       	ret
	case CURVE_PAGE_UP:
		curve_page_num--;
    1d0a:	80 91 b3 02 	lds	r24, 0x02B3	; 0x8002b3 <curve_page_num>
    1d0e:	81 50       	subi	r24, 0x01	; 1
    1d10:	80 93 b3 02 	sts	0x02B3, r24	; 0x8002b3 <curve_page_num>
		update_curve_page();
    1d14:	0e 94 ba 0c 	call	0x1974	; 0x1974 <update_curve_page>
		break;
    1d18:	08 95       	ret
	case CURVE_PAGE_DOWN:
		curve_page_num++;
    1d1a:	80 91 b3 02 	lds	r24, 0x02B3	; 0x8002b3 <curve_page_num>
    1d1e:	8f 5f       	subi	r24, 0xFF	; 255
    1d20:	80 93 b3 02 	sts	0x02B3, r24	; 0x8002b3 <curve_page_num>
		update_curve_page();
    1d24:	0e 94 ba 0c 	call	0x1974	; 0x1974 <update_curve_page>
		break;
    1d28:	08 95       	ret
	case CLEAR_ALARM_MSG:
		clear_all_alarm_msg();
    1d2a:	0e 94 89 0c 	call	0x1912	; 0x1912 <clear_all_alarm_msg>
		break;
    1d2e:	08 95       	ret
	case ALARM_PAGE_UP:
		if (--alarm_page_num <= 0)
    1d30:	80 91 00 01 	lds	r24, 0x0100	; 0x800100 <__data_start>
    1d34:	81 50       	subi	r24, 0x01	; 1
    1d36:	19 f0       	breq	.+6      	; 0x1d3e <key_action+0x1f2>
    1d38:	80 93 00 01 	sts	0x0100, r24	; 0x800100 <__data_start>
    1d3c:	03 c0       	rjmp	.+6      	; 0x1d44 <key_action+0x1f8>
			alarm_page_num = 1;
    1d3e:	81 e0       	ldi	r24, 0x01	; 1
    1d40:	80 93 00 01 	sts	0x0100, r24	; 0x800100 <__data_start>
		update_alarm_page(alarm_page_num);
    1d44:	80 91 00 01 	lds	r24, 0x0100	; 0x800100 <__data_start>
    1d48:	0e 94 3a 0c 	call	0x1874	; 0x1874 <update_alarm_page>
		break;
    1d4c:	08 95       	ret
	case ALARM_PAGE_DOWN:
		if (++alarm_page_num >= max_alarm_page_num)
    1d4e:	80 91 00 01 	lds	r24, 0x0100	; 0x800100 <__data_start>
    1d52:	8f 5f       	subi	r24, 0xFF	; 255
    1d54:	89 17       	cp	r24, r25
    1d56:	18 f4       	brcc	.+6      	; 0x1d5e <key_action+0x212>
    1d58:	80 93 00 01 	sts	0x0100, r24	; 0x800100 <__data_start>
    1d5c:	02 c0       	rjmp	.+4      	; 0x1d62 <key_action+0x216>
			alarm_page_num = max_alarm_page_num;
    1d5e:	90 93 00 01 	sts	0x0100, r25	; 0x800100 <__data_start>
		update_alarm_page(alarm_page_num);
    1d62:	80 91 00 01 	lds	r24, 0x0100	; 0x800100 <__data_start>
    1d66:	0e 94 3a 0c 	call	0x1874	; 0x1874 <update_alarm_page>
		break;
    1d6a:	08 95       	ret
	case SINGLE_SET_BACK:
		single_set_back();
    1d6c:	0e 94 c8 02 	call	0x590	; 0x590 <single_set_back>
		break;
    1d70:	08 95       	ret
	case ALL_SET_BACK:
		all_set_back();
    1d72:	0e 94 2a 05 	call	0xa54	; 0xa54 <all_set_back>
		break;
    1d76:	08 95       	ret
	case ALARM_PAGE_ENTER:
		alarm_page_num = 1;
    1d78:	81 e0       	ldi	r24, 0x01	; 1
    1d7a:	80 93 00 01 	sts	0x0100, r24	; 0x800100 <__data_start>
		update_alarm_page(1);
    1d7e:	0e 94 3a 0c 	call	0x1874	; 0x1874 <update_alarm_page>
		break;
    1d82:	08 95       	ret
	case CURVE_PAGE_ENTER:
		update_curve_page();
    1d84:	0e 94 ba 0c 	call	0x1974	; 0x1974 <update_curve_page>
		break;
    1d88:	08 95       	ret
	case CURVE_PAGE_BACK:
		CLOSE_CURVE;
    1d8a:	85 b5       	in	r24, 0x25	; 37
    1d8c:	88 7f       	andi	r24, 0xF8	; 248
    1d8e:	85 bd       	out	0x25, r24	; 37
		update_run_temp_flag = 0;
    1d90:	10 92 ba 02 	sts	0x02BA, r1	; 0x8002ba <update_run_temp_flag>
		break;
    1d94:	08 95       	ret
	case MENU_PAGE_ENTER:
		in_main_page = 0;
    1d96:	10 92 76 01 	sts	0x0176, r1	; 0x800176 <in_main_page>
		break;
    1d9a:	08 95       	ret
	case TIME_CTRL_ENTER:
		module_num = 1;
    1d9c:	81 e0       	ldi	r24, 0x01	; 1
    1d9e:	80 93 71 01 	sts	0x0171, r24	; 0x800171 <module_num>
		update_time_ctrl_page();
    1da2:	0e 94 e6 05 	call	0xbcc	; 0xbcc <update_time_ctrl_page>
		break;
    1da6:	08 95       	ret
	case TIME_CTRL_STOP:
		stop_time_ctrl(module_num);
    1da8:	80 91 71 01 	lds	r24, 0x0171	; 0x800171 <module_num>
    1dac:	0e 94 b3 06 	call	0xd66	; 0xd66 <stop_time_ctrl>
		break;
    1db0:	08 95       	ret
	case TIME_CTRL_START:
		start_time_ctrl(module_num);
    1db2:	80 91 71 01 	lds	r24, 0x0171	; 0x800171 <module_num>
    1db6:	0e 94 44 06 	call	0xc88	; 0xc88 <start_time_ctrl>
		break;
    1dba:	08 95       	ret
	case TIME_CTRL_SAVEDAT:
		save_time_ctrl_data();
    1dbc:	0e 94 28 04 	call	0x850	; 0x850 <save_time_ctrl_data>
		break;
    1dc0:	08 95       	ret
	case TIME_CTRL_PAGEUP:
		module_num -= 1;
    1dc2:	80 91 71 01 	lds	r24, 0x0171	; 0x800171 <module_num>
    1dc6:	81 50       	subi	r24, 0x01	; 1
    1dc8:	80 93 71 01 	sts	0x0171, r24	; 0x800171 <module_num>
		update_time_ctrl_page();
    1dcc:	0e 94 e6 05 	call	0xbcc	; 0xbcc <update_time_ctrl_page>
		break;
    1dd0:	08 95       	ret
	case TIME_CTRL_PAGEDOWN:
		module_num += 1;
    1dd2:	80 91 71 01 	lds	r24, 0x0171	; 0x800171 <module_num>
    1dd6:	8f 5f       	subi	r24, 0xFF	; 255
    1dd8:	80 93 71 01 	sts	0x0171, r24	; 0x800171 <module_num>
		update_time_ctrl_page();
    1ddc:	0e 94 e6 05 	call	0xbcc	; 0xbcc <update_time_ctrl_page>
		break;
    1de0:	08 95       	ret
	case IQR1_TEST:
		time_ctrl_test(module_num, IQR1_TEST);
    1de2:	61 e2       	ldi	r22, 0x21	; 33
    1de4:	80 91 71 01 	lds	r24, 0x0171	; 0x800171 <module_num>
    1de8:	0e 94 62 04 	call	0x8c4	; 0x8c4 <time_ctrl_test>
		break;
    1dec:	08 95       	ret
	case IQR2_TEST:
		time_ctrl_test(module_num, IQR2_TEST);
    1dee:	62 e2       	ldi	r22, 0x22	; 34
    1df0:	80 91 71 01 	lds	r24, 0x0171	; 0x800171 <module_num>
    1df4:	0e 94 62 04 	call	0x8c4	; 0x8c4 <time_ctrl_test>
		break;
    1df8:	08 95       	ret
	case IQR3_TEST:
		time_ctrl_test(module_num, IQR3_TEST);
    1dfa:	63 e2       	ldi	r22, 0x23	; 35
    1dfc:	80 91 71 01 	lds	r24, 0x0171	; 0x800171 <module_num>
    1e00:	0e 94 62 04 	call	0x8c4	; 0x8c4 <time_ctrl_test>
		break;
    1e04:	08 95       	ret
	case IQR4_TEST:
		time_ctrl_test(module_num, IQR4_TEST);
    1e06:	64 e2       	ldi	r22, 0x24	; 36
    1e08:	80 91 71 01 	lds	r24, 0x0171	; 0x800171 <module_num>
    1e0c:	0e 94 62 04 	call	0x8c4	; 0x8c4 <time_ctrl_test>
		break;
    1e10:	08 95       	ret
	case IQR5_TEST:
		time_ctrl_test(module_num, IQR5_TEST);
    1e12:	65 e2       	ldi	r22, 0x25	; 37
    1e14:	80 91 71 01 	lds	r24, 0x0171	; 0x800171 <module_num>
    1e18:	0e 94 62 04 	call	0x8c4	; 0x8c4 <time_ctrl_test>
		break;
    1e1c:	08 95       	ret
	case IQR6_TEST:
		time_ctrl_test(module_num, IQR6_TEST);
    1e1e:	66 e2       	ldi	r22, 0x26	; 38
    1e20:	80 91 71 01 	lds	r24, 0x0171	; 0x800171 <module_num>
    1e24:	0e 94 62 04 	call	0x8c4	; 0x8c4 <time_ctrl_test>
		break;
    1e28:	08 95       	ret
	case IQR7_TEST:
		time_ctrl_test(module_num, IQR7_TEST);
    1e2a:	67 e2       	ldi	r22, 0x27	; 39
    1e2c:	80 91 71 01 	lds	r24, 0x0171	; 0x800171 <module_num>
    1e30:	0e 94 62 04 	call	0x8c4	; 0x8c4 <time_ctrl_test>
		break;
    1e34:	08 95       	ret
	case IQR8_TEST:
		time_ctrl_test(module_num, IQR8_TEST);
    1e36:	68 e2       	ldi	r22, 0x28	; 40
    1e38:	80 91 71 01 	lds	r24, 0x0171	; 0x800171 <module_num>
    1e3c:	0e 94 62 04 	call	0x8c4	; 0x8c4 <time_ctrl_test>
    1e40:	08 95       	ret

00001e42 <alarm_monitor>:

	usart0_send_str(usart0_tx_buff, 8);
}

void alarm_monitor(void)
{
    1e42:	4f 92       	push	r4
    1e44:	5f 92       	push	r5
    1e46:	6f 92       	push	r6
    1e48:	7f 92       	push	r7
    1e4a:	8f 92       	push	r8
    1e4c:	9f 92       	push	r9
    1e4e:	af 92       	push	r10
    1e50:	bf 92       	push	r11
    1e52:	cf 92       	push	r12
    1e54:	df 92       	push	r13
    1e56:	ef 92       	push	r14
    1e58:	ff 92       	push	r15
    1e5a:	0f 93       	push	r16
    1e5c:	1f 93       	push	r17
    1e5e:	cf 93       	push	r28
    1e60:	df 93       	push	r29
    1e62:	0f 2e       	mov	r0, r31
    1e64:	fb e7       	ldi	r31, 0x7B	; 123
    1e66:	ef 2e       	mov	r14, r31
    1e68:	f2 e0       	ldi	r31, 0x02	; 2
    1e6a:	ff 2e       	mov	r15, r31
    1e6c:	f0 2d       	mov	r31, r0
    1e6e:	0f 2e       	mov	r0, r31
    1e70:	f3 e6       	ldi	r31, 0x63	; 99
    1e72:	cf 2e       	mov	r12, r31
    1e74:	f2 e0       	ldi	r31, 0x02	; 2
    1e76:	df 2e       	mov	r13, r31
    1e78:	f0 2d       	mov	r31, r0
    1e7a:	00 e0       	ldi	r16, 0x00	; 0
    1e7c:	10 e0       	ldi	r17, 0x00	; 0
	uint8_t i, j;
	uint16_t alarm_sta_mask = 0;
    1e7e:	81 2c       	mov	r8, r1
    1e80:	91 2c       	mov	r9, r1
			}
		}

		if (sensor_sta[i] <= 2)
		{
			alarm_sta_mask |= 1 << i;
    1e82:	66 24       	eor	r6, r6
    1e84:	63 94       	inc	r6
    1e86:	71 2c       	mov	r7, r1
			{
				ALARM_ON;
				LED6_ON;
				if (alarm_cnt >= MAX_ALARM_HISTORY - 1)
				{
					alarm_cnt = MAX_ALARM_HISTORY - 1;
    1e88:	0f 2e       	mov	r0, r31
    1e8a:	f5 e4       	ldi	r31, 0x45	; 69
    1e8c:	4f 2e       	mov	r4, r31
    1e8e:	f0 2d       	mov	r31, r0
    1e90:	cb e3       	ldi	r28, 0x3B	; 59
    1e92:	d9 e0       	ldi	r29, 0x09	; 9
    1e94:	20 2f       	mov	r18, r16
	uint8_t i, j;
	uint16_t alarm_sta_mask = 0;

	for (i = 0; i < MAX_IQR_QUANTITY; i++)
	{
		if (sensor_sta[i] != pre_sensor_sta[i])
    1e96:	50 2e       	mov	r5, r16
    1e98:	57 01       	movw	r10, r14
    1e9a:	f7 01       	movw	r30, r14
    1e9c:	80 81       	ld	r24, Z
    1e9e:	f6 01       	movw	r30, r12
    1ea0:	90 81       	ld	r25, Z
    1ea2:	89 17       	cp	r24, r25
    1ea4:	d9 f1       	breq	.+118    	; 0x1f1c <alarm_monitor+0xda>
		{
			pre_sensor_sta[i] = sensor_sta[i];
    1ea6:	80 83       	st	Z, r24

			if (sensor_sta[i] >= 3)
    1ea8:	83 30       	cpi	r24, 0x03	; 3
    1eaa:	e0 f1       	brcs	.+120    	; 0x1f24 <alarm_monitor+0xe2>
			{
				ALARM_ON;
    1eac:	94 9a       	sbi	0x12, 4	; 18
				LED6_ON;
    1eae:	d9 98       	cbi	0x1b, 1	; 27
				if (alarm_cnt >= MAX_ALARM_HISTORY - 1)
    1eb0:	80 91 96 01 	lds	r24, 0x0196	; 0x800196 <__data_end>
    1eb4:	85 34       	cpi	r24, 0x45	; 69
    1eb6:	58 f0       	brcs	.+22     	; 0x1ece <alarm_monitor+0x8c>
				{
					alarm_cnt = MAX_ALARM_HISTORY - 1;
    1eb8:	40 92 96 01 	sts	0x0196, r4	; 0x800196 <__data_end>
    1ebc:	e1 eb       	ldi	r30, 0xB1	; 177
    1ebe:	f8 e0       	ldi	r31, 0x08	; 8
					for (j = 0; j < alarm_cnt; j++)
					{
						alarm_history[j] = alarm_history[j + 1];
    1ec0:	82 81       	ldd	r24, Z+2	; 0x02
    1ec2:	93 81       	ldd	r25, Z+3	; 0x03
    1ec4:	81 93       	st	Z+, r24
    1ec6:	91 93       	st	Z+, r25
				ALARM_ON;
				LED6_ON;
				if (alarm_cnt >= MAX_ALARM_HISTORY - 1)
				{
					alarm_cnt = MAX_ALARM_HISTORY - 1;
					for (j = 0; j < alarm_cnt; j++)
    1ec8:	ec 17       	cp	r30, r28
    1eca:	fd 07       	cpc	r31, r29
    1ecc:	c9 f7       	brne	.-14     	; 0x1ec0 <alarm_monitor+0x7e>
					{
						alarm_history[j] = alarm_history[j + 1];
					}
				}
				alarm_history[alarm_cnt].alarm_type = sensor_sta[i] - 3;
    1ece:	80 91 96 01 	lds	r24, 0x0196	; 0x800196 <__data_end>
    1ed2:	90 e0       	ldi	r25, 0x00	; 0
    1ed4:	f5 01       	movw	r30, r10
    1ed6:	60 81       	ld	r22, Z
    1ed8:	63 50       	subi	r22, 0x03	; 3
    1eda:	fc 01       	movw	r30, r24
    1edc:	ee 0f       	add	r30, r30
    1ede:	ff 1f       	adc	r31, r31
    1ee0:	ef 54       	subi	r30, 0x4F	; 79
    1ee2:	f7 4f       	sbci	r31, 0xF7	; 247
    1ee4:	60 83       	st	Z, r22
				alarm_history[alarm_cnt].alarm_device_num = i;
    1ee6:	21 83       	std	Z+1, r18	; 0x01

				eeprom_write_byte((uint8_t *)(ALARM_HISTORY_EEADDR + alarm_cnt * 2 + 1),
    1ee8:	02 96       	adiw	r24, 0x02	; 2
    1eea:	88 0f       	add	r24, r24
    1eec:	99 1f       	adc	r25, r25
    1eee:	0e 94 07 17 	call	0x2e0e	; 0x2e0e <eeprom_write_byte>
								  alarm_history[alarm_cnt].alarm_type);
				eeprom_write_byte((uint8_t *)(ALARM_HISTORY_EEADDR + alarm_cnt * 2),
    1ef2:	80 91 96 01 	lds	r24, 0x0196	; 0x800196 <__data_end>
    1ef6:	90 e0       	ldi	r25, 0x00	; 0
    1ef8:	88 0f       	add	r24, r24
    1efa:	99 1f       	adc	r25, r25
    1efc:	fc 01       	movw	r30, r24
    1efe:	ef 54       	subi	r30, 0x4F	; 79
    1f00:	f7 4f       	sbci	r31, 0xF7	; 247
    1f02:	61 81       	ldd	r22, Z+1	; 0x01
    1f04:	03 96       	adiw	r24, 0x03	; 3
    1f06:	0e 94 07 17 	call	0x2e0e	; 0x2e0e <eeprom_write_byte>
								  alarm_history[alarm_cnt].alarm_device_num);
				eeprom_write_byte((uint8_t *)ALARM_CNT_EEADDR, ++alarm_cnt);
    1f0a:	60 91 96 01 	lds	r22, 0x0196	; 0x800196 <__data_end>
    1f0e:	6f 5f       	subi	r22, 0xFF	; 255
    1f10:	60 93 96 01 	sts	0x0196, r22	; 0x800196 <__data_end>
    1f14:	82 e0       	ldi	r24, 0x02	; 2
    1f16:	90 e0       	ldi	r25, 0x00	; 0
    1f18:	0e 94 07 17 	call	0x2e0e	; 0x2e0e <eeprom_write_byte>
			}
		}

		if (sensor_sta[i] <= 2)
    1f1c:	f5 01       	movw	r30, r10
    1f1e:	80 81       	ld	r24, Z
    1f20:	83 30       	cpi	r24, 0x03	; 3
    1f22:	40 f4       	brcc	.+16     	; 0x1f34 <alarm_monitor+0xf2>
		{
			alarm_sta_mask |= 1 << i;
    1f24:	c3 01       	movw	r24, r6
    1f26:	02 c0       	rjmp	.+4      	; 0x1f2c <alarm_monitor+0xea>
    1f28:	88 0f       	add	r24, r24
    1f2a:	99 1f       	adc	r25, r25
    1f2c:	5a 94       	dec	r5
    1f2e:	e2 f7       	brpl	.-8      	; 0x1f28 <alarm_monitor+0xe6>
    1f30:	88 2a       	or	r8, r24
    1f32:	99 2a       	or	r9, r25
    1f34:	0f 5f       	subi	r16, 0xFF	; 255
    1f36:	1f 4f       	sbci	r17, 0xFF	; 255
    1f38:	ff ef       	ldi	r31, 0xFF	; 255
    1f3a:	ef 1a       	sub	r14, r31
    1f3c:	ff 0a       	sbc	r15, r31
    1f3e:	8f ef       	ldi	r24, 0xFF	; 255
    1f40:	c8 1a       	sub	r12, r24
    1f42:	d8 0a       	sbc	r13, r24
void alarm_monitor(void)
{
	uint8_t i, j;
	uint16_t alarm_sta_mask = 0;

	for (i = 0; i < MAX_IQR_QUANTITY; i++)
    1f44:	08 31       	cpi	r16, 0x18	; 24
    1f46:	11 05       	cpc	r17, r1
    1f48:	09 f0       	breq	.+2      	; 0x1f4c <alarm_monitor+0x10a>
    1f4a:	a4 cf       	rjmp	.-184    	; 0x1e94 <alarm_monitor+0x52>
			alarm_sta_mask |= 1 << i;
		}
	}

	/*如果无告警 则自动关闭报警器*/
	if (alarm_sta_mask == 0x0FFF)
    1f4c:	ef ef       	ldi	r30, 0xFF	; 255
    1f4e:	8e 16       	cp	r8, r30
    1f50:	ef e0       	ldi	r30, 0x0F	; 15
    1f52:	9e 06       	cpc	r9, r30
    1f54:	11 f4       	brne	.+4      	; 0x1f5a <alarm_monitor+0x118>
	{
		ALARM_OFF;
    1f56:	94 98       	cbi	0x12, 4	; 18
		LED6_OFF;
    1f58:	d9 9a       	sbi	0x1b, 1	; 27
	}
	alarm_sta_mask = 0;
    1f5a:	df 91       	pop	r29
    1f5c:	cf 91       	pop	r28
    1f5e:	1f 91       	pop	r17
    1f60:	0f 91       	pop	r16
    1f62:	ff 90       	pop	r15
    1f64:	ef 90       	pop	r14
    1f66:	df 90       	pop	r13
    1f68:	cf 90       	pop	r12
    1f6a:	bf 90       	pop	r11
    1f6c:	af 90       	pop	r10
    1f6e:	9f 90       	pop	r9
    1f70:	8f 90       	pop	r8
    1f72:	7f 90       	pop	r7
    1f74:	6f 90       	pop	r6
    1f76:	5f 90       	pop	r5
    1f78:	4f 90       	pop	r4
    1f7a:	08 95       	ret

00001f7c <read_eeprom_data>:
#include "dgus.h"
#include "usart.h"

/*当前语言 告警 射胶阀控制时间参数*/
void read_eeprom_data(void)
{
    1f7c:	6f 92       	push	r6
    1f7e:	7f 92       	push	r7
    1f80:	8f 92       	push	r8
    1f82:	9f 92       	push	r9
    1f84:	af 92       	push	r10
    1f86:	bf 92       	push	r11
    1f88:	cf 92       	push	r12
    1f8a:	df 92       	push	r13
    1f8c:	ef 92       	push	r14
    1f8e:	ff 92       	push	r15
    1f90:	0f 93       	push	r16
    1f92:	1f 93       	push	r17
    1f94:	cf 93       	push	r28
    1f96:	df 93       	push	r29
	uint8_t i,j,k;

	if (eeprom_read_byte((uint8_t *)FIRST_START_ADDR) != 'y')
    1f98:	80 e0       	ldi	r24, 0x00	; 0
    1f9a:	90 e0       	ldi	r25, 0x00	; 0
    1f9c:	0e 94 f9 16 	call	0x2df2	; 0x2df2 <eeprom_read_byte>
    1fa0:	89 37       	cpi	r24, 0x79	; 121
    1fa2:	f1 f1       	breq	.+124    	; 0x2020 <read_eeprom_data+0xa4>
	{
		eeprom_write_byte((uint8_t *)PRE_LANGUAGE_EEADDR, 0); //当前语言 与开机时切换到的界面有关
    1fa4:	60 e0       	ldi	r22, 0x00	; 0
    1fa6:	81 e0       	ldi	r24, 0x01	; 1
    1fa8:	90 e0       	ldi	r25, 0x00	; 0
    1faa:	0e 94 07 17 	call	0x2e0e	; 0x2e0e <eeprom_write_byte>
		eeprom_write_byte((uint8_t *)ALARM_CNT_EEADDR, 0);	//告警清单数量
    1fae:	60 e0       	ldi	r22, 0x00	; 0
    1fb0:	82 e0       	ldi	r24, 0x02	; 2
    1fb2:	90 e0       	ldi	r25, 0x00	; 0
    1fb4:	0e 94 07 17 	call	0x2e0e	; 0x2e0e <eeprom_write_byte>
    1fb8:	0f 2e       	mov	r0, r31
    1fba:	ff ec       	ldi	r31, 0xCF	; 207
    1fbc:	af 2e       	mov	r10, r31
    1fbe:	b1 2c       	mov	r11, r1
    1fc0:	f0 2d       	mov	r31, r0
    1fc2:	20 c0       	rjmp	.+64     	; 0x2004 <read_eeprom_data+0x88>
		{
			for(j=0;j<8;j++)
			{
				for (k=0;k<4;k++)
				{
					eeprom_write_word((uint16_t *)(TIME_CTRL_VALUE_EEADDR + (i * 32 + j * 4 + k) * 2), time_ctrl_value[i][j][k]);
    1fc4:	f8 01       	movw	r30, r16
    1fc6:	61 91       	ld	r22, Z+
    1fc8:	71 91       	ld	r23, Z+
    1fca:	8f 01       	movw	r16, r30
    1fcc:	ce 01       	movw	r24, r28
    1fce:	0e 94 14 17 	call	0x2e28	; 0x2e28 <eeprom_write_word>
    1fd2:	22 96       	adiw	r28, 0x02	; 2
		
		for(i=0;i<4;i++)
		{
			for(j=0;j<8;j++)
			{
				for (k=0;k<4;k++)
    1fd4:	ec 16       	cp	r14, r28
    1fd6:	fd 06       	cpc	r15, r29
    1fd8:	a9 f7       	brne	.-22     	; 0x1fc4 <read_eeprom_data+0x48>
    1fda:	f8 e0       	ldi	r31, 0x08	; 8
    1fdc:	cf 0e       	add	r12, r31
    1fde:	d1 1c       	adc	r13, r1
    1fe0:	e7 01       	movw	r28, r14
		eeprom_write_byte((uint8_t *)PRE_LANGUAGE_EEADDR, 0); //当前语言 与开机时切换到的界面有关
		eeprom_write_byte((uint8_t *)ALARM_CNT_EEADDR, 0);	//告警清单数量
		
		for(i=0;i<4;i++)
		{
			for(j=0;j<8;j++)
    1fe2:	ea 14       	cp	r14, r10
    1fe4:	fb 04       	cpc	r15, r11
    1fe6:	31 f0       	breq	.+12     	; 0x1ff4 <read_eeprom_data+0x78>
    1fe8:	7e 01       	movw	r14, r28
    1fea:	28 e0       	ldi	r18, 0x08	; 8
    1fec:	e2 0e       	add	r14, r18
    1fee:	f1 1c       	adc	r15, r1
#include "dgus.h"
#include "usart.h"

/*当前语言 告警 射胶阀控制时间参数*/
void read_eeprom_data(void)
{
    1ff0:	86 01       	movw	r16, r12
    1ff2:	e8 cf       	rjmp	.-48     	; 0x1fc4 <read_eeprom_data+0x48>
    1ff4:	30 e4       	ldi	r19, 0x40	; 64
    1ff6:	a3 0e       	add	r10, r19
    1ff8:	b1 1c       	adc	r11, r1
	if (eeprom_read_byte((uint8_t *)FIRST_START_ADDR) != 'y')
	{
		eeprom_write_byte((uint8_t *)PRE_LANGUAGE_EEADDR, 0); //当前语言 与开机时切换到的界面有关
		eeprom_write_byte((uint8_t *)ALARM_CNT_EEADDR, 0);	//告警清单数量
		
		for(i=0;i<4;i++)
    1ffa:	8f ec       	ldi	r24, 0xCF	; 207
    1ffc:	a8 16       	cp	r10, r24
    1ffe:	81 e0       	ldi	r24, 0x01	; 1
    2000:	b8 06       	cpc	r11, r24
    2002:	41 f0       	breq	.+16     	; 0x2014 <read_eeprom_data+0x98>
    2004:	f5 01       	movw	r30, r10
    2006:	ee 5a       	subi	r30, 0xAE	; 174
    2008:	f9 4f       	sbci	r31, 0xF9	; 249
    200a:	6f 01       	movw	r12, r30
    200c:	e5 01       	movw	r28, r10
    200e:	c0 54       	subi	r28, 0x40	; 64
    2010:	d1 09       	sbc	r29, r1
    2012:	ea cf       	rjmp	.-44     	; 0x1fe8 <read_eeprom_data+0x6c>
				}
			}
				
		}
		
		eeprom_write_byte((uint8_t *)FIRST_START_ADDR, 'y');
    2014:	69 e7       	ldi	r22, 0x79	; 121
    2016:	80 e0       	ldi	r24, 0x00	; 0
    2018:	90 e0       	ldi	r25, 0x00	; 0
    201a:	0e 94 07 17 	call	0x2e0e	; 0x2e0e <eeprom_write_byte>
    201e:	6b c0       	rjmp	.+214    	; 0x20f6 <read_eeprom_data+0x17a>
	}
	else
	{
		pre_language = eeprom_read_byte((uint8_t *)PRE_LANGUAGE_EEADDR);
    2020:	81 e0       	ldi	r24, 0x01	; 1
    2022:	90 e0       	ldi	r25, 0x00	; 0
    2024:	0e 94 f9 16 	call	0x2df2	; 0x2df2 <eeprom_read_byte>
    2028:	80 93 b9 02 	sts	0x02B9, r24	; 0x8002b9 <pre_language>
		alarm_cnt = eeprom_read_byte((uint8_t *)ALARM_CNT_EEADDR);
    202c:	82 e0       	ldi	r24, 0x02	; 2
    202e:	90 e0       	ldi	r25, 0x00	; 0
    2030:	0e 94 f9 16 	call	0x2df2	; 0x2df2 <eeprom_read_byte>
    2034:	80 93 96 01 	sts	0x0196, r24	; 0x800196 <__data_end>

		for (i = 0; i < alarm_cnt; i++)
    2038:	88 23       	and	r24, r24
    203a:	09 f4       	brne	.+2      	; 0x203e <read_eeprom_data+0xc2>
    203c:	56 c0       	rjmp	.+172    	; 0x20ea <read_eeprom_data+0x16e>
    203e:	01 eb       	ldi	r16, 0xB1	; 177
    2040:	18 e0       	ldi	r17, 0x08	; 8
    2042:	81 50       	subi	r24, 0x01	; 1
    2044:	e8 2e       	mov	r14, r24
    2046:	f1 2c       	mov	r15, r1
    2048:	f3 e0       	ldi	r31, 0x03	; 3
    204a:	ef 0e       	add	r14, r31
    204c:	f1 1c       	adc	r15, r1
    204e:	ee 0c       	add	r14, r14
    2050:	ff 1c       	adc	r15, r15
    2052:	c4 e0       	ldi	r28, 0x04	; 4
    2054:	d0 e0       	ldi	r29, 0x00	; 0
		{
			alarm_history[i].alarm_type = eeprom_read_byte((uint8_t *)(ALARM_HISTORY_EEADDR + i * 2 + 1));
    2056:	ce 01       	movw	r24, r28
    2058:	0e 94 f9 16 	call	0x2df2	; 0x2df2 <eeprom_read_byte>
    205c:	f8 01       	movw	r30, r16
    205e:	80 83       	st	Z, r24
			alarm_history[i].alarm_device_num = eeprom_read_byte((uint8_t *)(ALARM_HISTORY_EEADDR + i * 2));
    2060:	ce 01       	movw	r24, r28
    2062:	01 97       	sbiw	r24, 0x01	; 1
    2064:	0e 94 f9 16 	call	0x2df2	; 0x2df2 <eeprom_read_byte>
    2068:	f8 01       	movw	r30, r16
    206a:	81 83       	std	Z+1, r24	; 0x01
    206c:	22 96       	adiw	r28, 0x02	; 2
    206e:	0e 5f       	subi	r16, 0xFE	; 254
    2070:	1f 4f       	sbci	r17, 0xFF	; 255
	else
	{
		pre_language = eeprom_read_byte((uint8_t *)PRE_LANGUAGE_EEADDR);
		alarm_cnt = eeprom_read_byte((uint8_t *)ALARM_CNT_EEADDR);

		for (i = 0; i < alarm_cnt; i++)
    2072:	ce 15       	cp	r28, r14
    2074:	df 05       	cpc	r29, r15
    2076:	79 f7       	brne	.-34     	; 0x2056 <read_eeprom_data+0xda>
    2078:	38 c0       	rjmp	.+112    	; 0x20ea <read_eeprom_data+0x16e>
		{
			for(j=0;j<8;j++)
			{
				for (k=0;k<4;k++)
				{
					time_ctrl_value[i][j][k] = eeprom_read_word((uint16_t *)(TIME_CTRL_VALUE_EEADDR + (i * 32 + j * 4 + k) * 2));
    207a:	c3 01       	movw	r24, r6
    207c:	0e 94 01 17 	call	0x2e02	; 0x2e02 <eeprom_read_word>
    2080:	89 93       	st	Y+, r24
    2082:	99 93       	st	Y+, r25
					time_ctrl_value_buff[i][j][k] = time_ctrl_value[i][j][k];
    2084:	f8 01       	movw	r30, r16
    2086:	81 93       	st	Z+, r24
    2088:	91 93       	st	Z+, r25
    208a:	8f 01       	movw	r16, r30
    208c:	f2 e0       	ldi	r31, 0x02	; 2
    208e:	6f 0e       	add	r6, r31
    2090:	71 1c       	adc	r7, r1
		
		for(i=0;i<4;i++)
		{
			for(j=0;j<8;j++)
			{
				for (k=0;k<4;k++)
    2092:	6e 14       	cp	r6, r14
    2094:	7f 04       	cpc	r7, r15
    2096:	89 f7       	brne	.-30     	; 0x207a <read_eeprom_data+0xfe>
    2098:	28 e0       	ldi	r18, 0x08	; 8
    209a:	a2 0e       	add	r10, r18
    209c:	b1 1c       	adc	r11, r1
    209e:	38 e0       	ldi	r19, 0x08	; 8
    20a0:	c3 0e       	add	r12, r19
    20a2:	d1 1c       	adc	r13, r1
    20a4:	37 01       	movw	r6, r14
			alarm_history[i].alarm_device_num = eeprom_read_byte((uint8_t *)(ALARM_HISTORY_EEADDR + i * 2));
		}
		
		for(i=0;i<4;i++)
		{
			for(j=0;j<8;j++)
    20a6:	8e 14       	cp	r8, r14
    20a8:	9f 04       	cpc	r9, r15
    20aa:	39 f0       	breq	.+14     	; 0x20ba <read_eeprom_data+0x13e>
    20ac:	73 01       	movw	r14, r6
    20ae:	88 e0       	ldi	r24, 0x08	; 8
    20b0:	e8 0e       	add	r14, r24
    20b2:	f1 1c       	adc	r15, r1
	else
	{
		pre_language = eeprom_read_byte((uint8_t *)PRE_LANGUAGE_EEADDR);
		alarm_cnt = eeprom_read_byte((uint8_t *)ALARM_CNT_EEADDR);

		for (i = 0; i < alarm_cnt; i++)
    20b4:	86 01       	movw	r16, r12
    20b6:	e5 01       	movw	r28, r10
    20b8:	e0 cf       	rjmp	.-64     	; 0x207a <read_eeprom_data+0xfe>
    20ba:	90 e4       	ldi	r25, 0x40	; 64
    20bc:	89 0e       	add	r8, r25
    20be:	91 1c       	adc	r9, r1
		{
			alarm_history[i].alarm_type = eeprom_read_byte((uint8_t *)(ALARM_HISTORY_EEADDR + i * 2 + 1));
			alarm_history[i].alarm_device_num = eeprom_read_byte((uint8_t *)(ALARM_HISTORY_EEADDR + i * 2));
		}
		
		for(i=0;i<4;i++)
    20c0:	ef ec       	ldi	r30, 0xCF	; 207
    20c2:	8e 16       	cp	r8, r30
    20c4:	e1 e0       	ldi	r30, 0x01	; 1
    20c6:	9e 06       	cpc	r9, r30
    20c8:	b1 f0       	breq	.+44     	; 0x20f6 <read_eeprom_data+0x17a>
    20ca:	34 01       	movw	r6, r8
    20cc:	f0 e4       	ldi	r31, 0x40	; 64
    20ce:	6f 1a       	sub	r6, r31
    20d0:	71 08       	sbc	r7, r1
    20d2:	c4 01       	movw	r24, r8
    20d4:	8f 5c       	subi	r24, 0xCF	; 207
    20d6:	91 09       	sbc	r25, r1
    20d8:	9c 01       	movw	r18, r24
    20da:	2f 5d       	subi	r18, 0xDF	; 223
    20dc:	38 4f       	sbci	r19, 0xF8	; 248
    20de:	59 01       	movw	r10, r18
    20e0:	fc 01       	movw	r30, r24
    20e2:	e2 50       	subi	r30, 0x02	; 2
    20e4:	f6 4f       	sbci	r31, 0xF6	; 246
    20e6:	6f 01       	movw	r12, r30
    20e8:	e1 cf       	rjmp	.-62     	; 0x20ac <read_eeprom_data+0x130>
	else
	{
		pre_language = eeprom_read_byte((uint8_t *)PRE_LANGUAGE_EEADDR);
		alarm_cnt = eeprom_read_byte((uint8_t *)ALARM_CNT_EEADDR);

		for (i = 0; i < alarm_cnt; i++)
    20ea:	0f 2e       	mov	r0, r31
    20ec:	ff ec       	ldi	r31, 0xCF	; 207
    20ee:	8f 2e       	mov	r8, r31
    20f0:	91 2c       	mov	r9, r1
    20f2:	f0 2d       	mov	r31, r0
    20f4:	ea cf       	rjmp	.-44     	; 0x20ca <read_eeprom_data+0x14e>
				}
			}
		}
				
	}
}
    20f6:	df 91       	pop	r29
    20f8:	cf 91       	pop	r28
    20fa:	1f 91       	pop	r17
    20fc:	0f 91       	pop	r16
    20fe:	ff 90       	pop	r15
    2100:	ef 90       	pop	r14
    2102:	df 90       	pop	r13
    2104:	cf 90       	pop	r12
    2106:	bf 90       	pop	r11
    2108:	af 90       	pop	r10
    210a:	9f 90       	pop	r9
    210c:	8f 90       	pop	r8
    210e:	7f 90       	pop	r7
    2110:	6f 90       	pop	r6
    2112:	08 95       	ret

00002114 <gpio_init>:
*初始化gpio
*/
void gpio_init()
{
	/* LED相关IO口初始化 */
	LED1_PIN_OUTPUT;
    2114:	d6 9a       	sbi	0x1a, 6	; 26
	LED2_PIN_OUTPUT;
    2116:	d5 9a       	sbi	0x1a, 5	; 26
	LED3_PIN_OUTPUT;
    2118:	d4 9a       	sbi	0x1a, 4	; 26
	LED4_PIN_OUTPUT;
    211a:	d3 9a       	sbi	0x1a, 3	; 26
	LED5_PIN_OUTPUT;
    211c:	d2 9a       	sbi	0x1a, 2	; 26
	LED6_PIN_OUTPUT;
    211e:	d1 9a       	sbi	0x1a, 1	; 26
	LED7_PIN_OUTPUT;
    2120:	d0 9a       	sbi	0x1a, 0	; 26

	LED1_OFF;
    2122:	de 9a       	sbi	0x1b, 6	; 27
	LED2_OFF;
    2124:	dd 9a       	sbi	0x1b, 5	; 27
	LED3_OFF;
    2126:	dc 9a       	sbi	0x1b, 4	; 27
	LED4_OFF;
    2128:	db 9a       	sbi	0x1b, 3	; 27
	LED5_ON;
    212a:	da 98       	cbi	0x1b, 2	; 27
	LED6_OFF;
    212c:	d9 9a       	sbi	0x1b, 1	; 27
	LED7_ON;
    212e:	d8 98       	cbi	0x1b, 0	; 27
	IQR6_CLOSE;
	IQR7_CLOSE;
	*/

	/* 继电器相关IO口初始化 */
	ALARM_PIN_OUTPUT;
    2130:	8c 9a       	sbi	0x11, 4	; 17
	ACCON_PIN_OUTPUT;
    2132:	8d 9a       	sbi	0x11, 5	; 17

	ALARM_OFF;
    2134:	94 98       	cbi	0x12, 4	; 18
	ACCON_ON;
    2136:	95 9a       	sbi	0x12, 5	; 18
    2138:	08 95       	ret

0000213a <system_init>:
	return 0;
}

void system_init()
{
	gpio_init();
    213a:	0e 94 8a 10 	call	0x2114	; 0x2114 <gpio_init>
	usart0_init(MYUBRR(38400));
    213e:	89 e1       	ldi	r24, 0x19	; 25
    2140:	90 e0       	ldi	r25, 0x00	; 0
    2142:	0e 94 55 16 	call	0x2caa	; 0x2caa <usart0_init>
	usart1_init(MYUBRR(8928));
    2146:	8f e6       	ldi	r24, 0x6F	; 111
    2148:	90 e0       	ldi	r25, 0x00	; 0
    214a:	0e 94 63 16 	call	0x2cc6	; 0x2cc6 <usart1_init>
	usart2_init(9600);
    214e:	80 e8       	ldi	r24, 0x80	; 128
    2150:	95 e2       	ldi	r25, 0x25	; 37
    2152:	0e 94 70 16 	call	0x2ce0	; 0x2ce0 <usart2_init>

	timer0_init();
    2156:	0e 94 f8 12 	call	0x25f0	; 0x25f0 <timer0_init>
	timer2_init();
    215a:	0e 94 18 13 	call	0x2630	; 0x2630 <timer2_init>
	timer1_init();
    215e:	0e 94 07 13 	call	0x260e	; 0x260e <timer1_init>
	init_variable();
    2162:	0e 94 73 01 	call	0x2e6	; 0x2e6 <init_variable>
    2166:	08 95       	ret

00002168 <main>:

int main(void)
{
	uint8_t slave_num = 1;
	
	system_init();
    2168:	0e 94 9d 10 	call	0x213a	; 0x213a <system_init>
	EN_INTERRUPT;
    216c:	8f b7       	in	r24, 0x3f	; 63
    216e:	80 68       	ori	r24, 0x80	; 128
    2170:	8f bf       	out	0x3f, r24	; 63
	read_eeprom_data();
    2172:	0e 94 be 0f 	call	0x1f7c	; 0x1f7c <read_eeprom_data>

	_delay_ms(100);
    2176:	64 e6       	ldi	r22, 0x64	; 100
    2178:	70 e0       	ldi	r23, 0x00	; 0
    217a:	80 e0       	ldi	r24, 0x00	; 0
    217c:	90 e0       	ldi	r25, 0x00	; 0
    217e:	0e 94 55 01 	call	0x2aa	; 0x2aa <_delay_ms>
	
	read_setting_data_all(); //开机从主控板读取设定数据
    2182:	0e 94 92 0a 	call	0x1524	; 0x1524 <read_setting_data_all>

	//	send_variables(MASTER_SWITCH, pre_system_sta);	//默认系统为关闭状态 调节屏幕状态图标为关闭
	send_variables(ALL_SET_TEMP, all_temp);
    2186:	60 91 72 01 	lds	r22, 0x0172	; 0x800172 <all_temp>
    218a:	70 91 73 01 	lds	r23, 0x0173	; 0x800173 <all_temp+0x1>
    218e:	88 e4       	ldi	r24, 0x48	; 72
    2190:	91 e0       	ldi	r25, 0x01	; 1
    2192:	0e 94 cb 04 	call	0x996	; 0x996 <send_variables>
	send_variables(SET_PREHEAT_TIME, preheat_time);
    2196:	60 91 74 01 	lds	r22, 0x0174	; 0x800174 <preheat_time>
    219a:	70 91 75 01 	lds	r23, 0x0175	; 0x800175 <preheat_time+0x1>
    219e:	8a e4       	ldi	r24, 0x4A	; 74
    21a0:	91 e0       	ldi	r25, 0x01	; 1
    21a2:	0e 94 cb 04 	call	0x996	; 0x996 <send_variables>
	send_variables(TEMP_UINT_ADDR, (CELSIUS + temp_unit * FAHRENHEIT));
    21a6:	20 91 9b 01 	lds	r18, 0x019B	; 0x80019b <temp_unit>
    21aa:	30 91 9c 01 	lds	r19, 0x019C	; 0x80019c <temp_unit+0x1>
    21ae:	80 e0       	ldi	r24, 0x00	; 0
    21b0:	93 e0       	ldi	r25, 0x03	; 3
    21b2:	28 9f       	mul	r18, r24
    21b4:	b0 01       	movw	r22, r0
    21b6:	29 9f       	mul	r18, r25
    21b8:	70 0d       	add	r23, r0
    21ba:	38 9f       	mul	r19, r24
    21bc:	70 0d       	add	r23, r0
    21be:	11 24       	eor	r1, r1
    21c0:	7d 5b       	subi	r23, 0xBD	; 189
    21c2:	8c e3       	ldi	r24, 0x3C	; 60
    21c4:	92 e0       	ldi	r25, 0x02	; 2
    21c6:	0e 94 cb 04 	call	0x996	; 0x996 <send_variables>
	send_variables(ALL_SENSOR_TYPE_ADDR, TYPE_J + (all_sensor_type * TYPE_K));
    21ca:	80 91 9d 01 	lds	r24, 0x019D	; 0x80019d <all_sensor_type>
    21ce:	90 91 9e 01 	lds	r25, 0x019E	; 0x80019e <all_sensor_type+0x1>
    21d2:	86 5b       	subi	r24, 0xB6	; 182
    21d4:	9f 4f       	sbci	r25, 0xFF	; 255
    21d6:	60 e0       	ldi	r22, 0x00	; 0
    21d8:	78 2f       	mov	r23, r24
    21da:	84 e9       	ldi	r24, 0x94	; 148
    21dc:	92 e0       	ldi	r25, 0x02	; 2
    21de:	0e 94 cb 04 	call	0x996	; 0x996 <send_variables>

	init_complete = 1;
    21e2:	81 e0       	ldi	r24, 0x01	; 1
    21e4:	80 93 c8 02 	sts	0x02C8, r24	; 0x8002c8 <init_complete>
	update_main_page();
    21e8:	0e 94 0b 07 	call	0xe16	; 0xe16 <update_main_page>
	switch_language();
    21ec:	0e 94 b9 04 	call	0x972	; 0x972 <switch_language>
extern void read_eeprom_data(void);
void system_init(void);

int main(void)
{
	uint8_t slave_num = 1;
    21f0:	c1 e0       	ldi	r28, 0x01	; 1
	switch_language();
	
	/* Replace with your application code */
	while (1)
	{
		if (usart0_rx_end) //屏相关数据接收完成
    21f2:	80 91 90 05 	lds	r24, 0x0590	; 0x800590 <usart0_rx_end>
    21f6:	88 23       	and	r24, r24
    21f8:	21 f0       	breq	.+8      	; 0x2202 <main+0x9a>
		{
			usart0_deal();
    21fa:	0e 94 2b 14 	call	0x2856	; 0x2856 <usart0_deal>
			usart0_rx_end = 0;
    21fe:	10 92 90 05 	sts	0x0590, r1	; 0x800590 <usart0_rx_end>
		}

		if (usart1_rx_end) //控制卡数据接收完成
    2202:	80 91 fd 03 	lds	r24, 0x03FD	; 0x8003fd <usart1_rx_end>
    2206:	88 23       	and	r24, r24
    2208:	21 f0       	breq	.+8      	; 0x2212 <main+0xaa>
		{
			usart1_deal();
    220a:	0e 94 71 13 	call	0x26e2	; 0x26e2 <usart1_deal>
			usart1_rx_end = 0;
    220e:	10 92 fd 03 	sts	0x03FD, r1	; 0x8003fd <usart1_rx_end>
		// 		{
		// 			update_main_page();
		// 		}
		
		/*500ms发送一次请求获取主控板卡运行数据*/
		if (ctrl_command == READ_DATA_ALL)
    2212:	80 91 77 01 	lds	r24, 0x0177	; 0x800177 <ctrl_command>
    2216:	81 30       	cpi	r24, 0x01	; 1
    2218:	79 f4       	brne	.+30     	; 0x2238 <main+0xd0>
		{
			if(usart1_tx_overtime_mask == 1)
    221a:	80 91 c9 02 	lds	r24, 0x02C9	; 0x8002c9 <usart1_tx_overtime_mask>
    221e:	81 30       	cpi	r24, 0x01	; 1
    2220:	59 f4       	brne	.+22     	; 0x2238 <main+0xd0>
			{
				send_request_all(slave_num);
    2222:	8c 2f       	mov	r24, r28
    2224:	0e 94 6c 0b 	call	0x16d8	; 0x16d8 <send_request_all>
				
				if(++slave_num >=TEMP_CTRL_BOARD_QUANTITY+1)
    2228:	cf 5f       	subi	r28, 0xFF	; 255
    222a:	c7 30       	cpi	r28, 0x07	; 7
    222c:	08 f0       	brcs	.+2      	; 0x2230 <main+0xc8>
				{
					slave_num = 1;
    222e:	c1 e0       	ldi	r28, 0x01	; 1
				}
				
				usart1_tx_overtime_mask = 0;
    2230:	10 92 c9 02 	sts	0x02C9, r1	; 0x8002c9 <usart1_tx_overtime_mask>
				usart1_tx_timecnt = 0;
    2234:	10 92 ca 02 	sts	0x02CA, r1	; 0x8002ca <usart1_tx_timecnt>
			}
		}
		
		/*1.5秒监测一次告警状态*/
		if(alarm_monitor_overtime_mask)
    2238:	80 91 c7 02 	lds	r24, 0x02C7	; 0x8002c7 <alarm_monitor_overtime_mask>
    223c:	88 23       	and	r24, r24
    223e:	c9 f2       	breq	.-78     	; 0x21f2 <main+0x8a>
		{
			alarm_monitor();
    2240:	0e 94 21 0f 	call	0x1e42	; 0x1e42 <alarm_monitor>
			alarm_monitor_overtime_mask = 0;
    2244:	10 92 c7 02 	sts	0x02C7, r1	; 0x8002c7 <alarm_monitor_overtime_mask>
    2248:	d4 cf       	rjmp	.-88     	; 0x21f2 <main+0x8a>

0000224a <__vector_16>:
uint8_t usart1_tx_overtime_mask = 0;
uint8_t init_complete = 0;
uint8_t alarm_monitor_overtime_mask = 0;

ISR(TIMER0_OVF_vect)
{
    224a:	1f 92       	push	r1
    224c:	0f 92       	push	r0
    224e:	0f b6       	in	r0, 0x3f	; 63
    2250:	0f 92       	push	r0
    2252:	11 24       	eor	r1, r1
    2254:	2f 93       	push	r18
    2256:	3f 93       	push	r19
    2258:	4f 93       	push	r20
    225a:	5f 93       	push	r21
    225c:	6f 93       	push	r22
    225e:	7f 93       	push	r23
    2260:	8f 93       	push	r24
    2262:	9f 93       	push	r25
    2264:	af 93       	push	r26
    2266:	bf 93       	push	r27
    2268:	ef 93       	push	r30
    226a:	ff 93       	push	r31
/*	static uint8_t time_cnt = 0;  //时间计数*/
/*	static uint8_t slave_num = 1; //控制板号码*/
	static uint16_t update_run_temp_cnt = 0;
	static uint16_t alarm_monitor_cnt = 0;

	EN_INTERRUPT;
    226c:	8f b7       	in	r24, 0x3f	; 63
    226e:	80 68       	ori	r24, 0x80	; 128
    2270:	8f bf       	out	0x3f, r24	; 63
	TCNT0 = 0xB2;
    2272:	82 eb       	ldi	r24, 0xB2	; 178
    2274:	82 bf       	out	0x32, r24	; 50

	if (++read_setting_data_cnt >= 60)
    2276:	80 91 cb 02 	lds	r24, 0x02CB	; 0x8002cb <read_setting_data_cnt>
    227a:	8f 5f       	subi	r24, 0xFF	; 255
    227c:	8c 33       	cpi	r24, 0x3C	; 60
    227e:	18 f4       	brcc	.+6      	; 0x2286 <__vector_16+0x3c>
    2280:	80 93 cb 02 	sts	0x02CB, r24	; 0x8002cb <read_setting_data_cnt>
    2284:	05 c0       	rjmp	.+10     	; 0x2290 <__vector_16+0x46>
	{
		read_setting_data_cnt = 0;
    2286:	10 92 cb 02 	sts	0x02CB, r1	; 0x8002cb <read_setting_data_cnt>
		read_setting_data_mask = 1;
    228a:	81 e0       	ldi	r24, 0x01	; 1
    228c:	80 93 cc 02 	sts	0x02CC, r24	; 0x8002cc <read_setting_data_mask>
	}

	if (init_complete)
    2290:	80 91 c8 02 	lds	r24, 0x02C8	; 0x8002c8 <init_complete>
    2294:	88 23       	and	r24, r24
    2296:	11 f1       	breq	.+68     	; 0x22dc <__vector_16+0x92>
	{
		if (++usart1_tx_timecnt >= 100)
    2298:	80 91 ca 02 	lds	r24, 0x02CA	; 0x8002ca <usart1_tx_timecnt>
    229c:	8f 5f       	subi	r24, 0xFF	; 255
    229e:	84 36       	cpi	r24, 0x64	; 100
    22a0:	18 f4       	brcc	.+6      	; 0x22a8 <__vector_16+0x5e>
    22a2:	80 93 ca 02 	sts	0x02CA, r24	; 0x8002ca <usart1_tx_timecnt>
    22a6:	05 c0       	rjmp	.+10     	; 0x22b2 <__vector_16+0x68>
		{
			usart1_tx_timecnt = 0;
    22a8:	10 92 ca 02 	sts	0x02CA, r1	; 0x8002ca <usart1_tx_timecnt>
			usart1_tx_overtime_mask = 1;
    22ac:	81 e0       	ldi	r24, 0x01	; 1
    22ae:	80 93 c9 02 	sts	0x02C9, r24	; 0x8002c9 <usart1_tx_overtime_mask>
		} //每5百毫秒请求一个主控板发送所有采集数据  1500毫秒完成3个主控板采集数据的发送

		if(++alarm_monitor_cnt >= 300)
    22b2:	80 91 c5 02 	lds	r24, 0x02C5	; 0x8002c5 <alarm_monitor_cnt.1862>
    22b6:	90 91 c6 02 	lds	r25, 0x02C6	; 0x8002c6 <alarm_monitor_cnt.1862+0x1>
    22ba:	01 96       	adiw	r24, 0x01	; 1
    22bc:	8c 32       	cpi	r24, 0x2C	; 44
    22be:	21 e0       	ldi	r18, 0x01	; 1
    22c0:	92 07       	cpc	r25, r18
    22c2:	28 f4       	brcc	.+10     	; 0x22ce <__vector_16+0x84>
    22c4:	90 93 c6 02 	sts	0x02C6, r25	; 0x8002c6 <alarm_monitor_cnt.1862+0x1>
    22c8:	80 93 c5 02 	sts	0x02C5, r24	; 0x8002c5 <alarm_monitor_cnt.1862>
    22cc:	07 c0       	rjmp	.+14     	; 0x22dc <__vector_16+0x92>
		{
			alarm_monitor_cnt = 0;
    22ce:	10 92 c6 02 	sts	0x02C6, r1	; 0x8002c6 <alarm_monitor_cnt.1862+0x1>
    22d2:	10 92 c5 02 	sts	0x02C5, r1	; 0x8002c5 <alarm_monitor_cnt.1862>
			alarm_monitor_overtime_mask = 1;
    22d6:	81 e0       	ldi	r24, 0x01	; 1
    22d8:	80 93 c7 02 	sts	0x02C7, r24	; 0x8002c7 <alarm_monitor_overtime_mask>
		}
	}

	if (update_run_temp_flag) //如果在单独设定界面，1s更新一次运行温度
    22dc:	80 91 ba 02 	lds	r24, 0x02BA	; 0x8002ba <update_run_temp_flag>
    22e0:	88 23       	and	r24, r24
    22e2:	09 f4       	brne	.+2      	; 0x22e6 <__vector_16+0x9c>
    22e4:	70 c0       	rjmp	.+224    	; 0x23c6 <__vector_16+0x17c>
	{
		update_run_temp_cnt++;
    22e6:	80 91 c3 02 	lds	r24, 0x02C3	; 0x8002c3 <update_run_temp_cnt.1861>
    22ea:	90 91 c4 02 	lds	r25, 0x02C4	; 0x8002c4 <update_run_temp_cnt.1861+0x1>
    22ee:	01 96       	adiw	r24, 0x01	; 1

		if (update_run_temp_cnt >= 200)
    22f0:	88 3c       	cpi	r24, 0xC8	; 200
    22f2:	91 05       	cpc	r25, r1
    22f4:	28 f4       	brcc	.+10     	; 0x2300 <__vector_16+0xb6>
		}
	}

	if (update_run_temp_flag) //如果在单独设定界面，1s更新一次运行温度
	{
		update_run_temp_cnt++;
    22f6:	90 93 c4 02 	sts	0x02C4, r25	; 0x8002c4 <update_run_temp_cnt.1861+0x1>
    22fa:	80 93 c3 02 	sts	0x02C3, r24	; 0x8002c3 <update_run_temp_cnt.1861>
    22fe:	63 c0       	rjmp	.+198    	; 0x23c6 <__vector_16+0x17c>

		if (update_run_temp_cnt >= 200)
		{
			update_run_temp_cnt = 0;
    2300:	10 92 c4 02 	sts	0x02C4, r1	; 0x8002c4 <update_run_temp_cnt.1861+0x1>
    2304:	10 92 c3 02 	sts	0x02C3, r1	; 0x8002c3 <update_run_temp_cnt.1861>

			if (run_temp_page)
    2308:	80 91 bb 02 	lds	r24, 0x02BB	; 0x8002bb <run_temp_page>
    230c:	88 23       	and	r24, r24
    230e:	41 f1       	breq	.+80     	; 0x2360 <__vector_16+0x116>
			{
				send_variables(SINGLE_RUNTEMP_ADDR, run_temp[set_num] + temp_unit * ((run_temp[set_num] * 8 / 10) + 32)); //单独设定界面更新运行温度
    2310:	e0 91 b5 02 	lds	r30, 0x02B5	; 0x8002b5 <set_num>
    2314:	f0 e0       	ldi	r31, 0x00	; 0
    2316:	ee 0f       	add	r30, r30
    2318:	ff 1f       	adc	r31, r31
    231a:	ed 5c       	subi	r30, 0xCD	; 205
    231c:	fd 4f       	sbci	r31, 0xFD	; 253
    231e:	20 81       	ld	r18, Z
    2320:	31 81       	ldd	r19, Z+1	; 0x01
    2322:	c9 01       	movw	r24, r18
    2324:	88 0f       	add	r24, r24
    2326:	99 1f       	adc	r25, r25
    2328:	88 0f       	add	r24, r24
    232a:	99 1f       	adc	r25, r25
    232c:	88 0f       	add	r24, r24
    232e:	99 1f       	adc	r25, r25
    2330:	6a e0       	ldi	r22, 0x0A	; 10
    2332:	70 e0       	ldi	r23, 0x00	; 0
    2334:	0e 94 8f 16 	call	0x2d1e	; 0x2d1e <__divmodhi4>
    2338:	cb 01       	movw	r24, r22
    233a:	80 96       	adiw	r24, 0x20	; 32
    233c:	40 91 9b 01 	lds	r20, 0x019B	; 0x80019b <temp_unit>
    2340:	50 91 9c 01 	lds	r21, 0x019C	; 0x80019c <temp_unit+0x1>
    2344:	84 9f       	mul	r24, r20
    2346:	b0 01       	movw	r22, r0
    2348:	85 9f       	mul	r24, r21
    234a:	70 0d       	add	r23, r0
    234c:	94 9f       	mul	r25, r20
    234e:	70 0d       	add	r23, r0
    2350:	11 24       	eor	r1, r1
    2352:	62 0f       	add	r22, r18
    2354:	73 1f       	adc	r23, r19
    2356:	82 e3       	ldi	r24, 0x32	; 50
    2358:	90 e0       	ldi	r25, 0x00	; 0
    235a:	0e 94 cb 04 	call	0x996	; 0x996 <send_variables>
    235e:	33 c0       	rjmp	.+102    	; 0x23c6 <__vector_16+0x17c>
			}
			else
			{
				send_variables(CURVE_PAGE_RUNTEMP_ADDR, run_temp[curve_page_num] +
    2360:	e0 91 b3 02 	lds	r30, 0x02B3	; 0x8002b3 <curve_page_num>
    2364:	ee 0f       	add	r30, r30
    2366:	ff 0b       	sbc	r31, r31
    2368:	ed 5c       	subi	r30, 0xCD	; 205
    236a:	fd 4f       	sbci	r31, 0xFD	; 253
    236c:	20 81       	ld	r18, Z
    236e:	31 81       	ldd	r19, Z+1	; 0x01
    2370:	c9 01       	movw	r24, r18
    2372:	88 0f       	add	r24, r24
    2374:	99 1f       	adc	r25, r25
    2376:	88 0f       	add	r24, r24
    2378:	99 1f       	adc	r25, r25
    237a:	88 0f       	add	r24, r24
    237c:	99 1f       	adc	r25, r25
    237e:	6a e0       	ldi	r22, 0x0A	; 10
    2380:	70 e0       	ldi	r23, 0x00	; 0
    2382:	0e 94 8f 16 	call	0x2d1e	; 0x2d1e <__divmodhi4>
    2386:	cb 01       	movw	r24, r22
    2388:	80 96       	adiw	r24, 0x20	; 32
    238a:	40 91 9b 01 	lds	r20, 0x019B	; 0x80019b <temp_unit>
    238e:	50 91 9c 01 	lds	r21, 0x019C	; 0x80019c <temp_unit+0x1>
    2392:	84 9f       	mul	r24, r20
    2394:	b0 01       	movw	r22, r0
    2396:	85 9f       	mul	r24, r21
    2398:	70 0d       	add	r23, r0
    239a:	94 9f       	mul	r25, r20
    239c:	70 0d       	add	r23, r0
    239e:	11 24       	eor	r1, r1
    23a0:	62 0f       	add	r22, r18
    23a2:	73 1f       	adc	r23, r19
    23a4:	8e e3       	ldi	r24, 0x3E	; 62
    23a6:	90 e0       	ldi	r25, 0x00	; 0
    23a8:	0e 94 cb 04 	call	0x996	; 0x996 <send_variables>
				temp_unit * (run_temp[curve_page_num] * 8 / 10 + 32)); //曲线界面更新运行温度

				send_variables(CURVE_PAGE_OUTRATE_ADDR, output_rate[curve_page_num]); //曲线界面更新输出比例
    23ac:	e0 91 b3 02 	lds	r30, 0x02B3	; 0x8002b3 <curve_page_num>
    23b0:	0e 2e       	mov	r0, r30
    23b2:	00 0c       	add	r0, r0
    23b4:	ff 0b       	sbc	r31, r31
    23b6:	ed 56       	subi	r30, 0x6D	; 109
    23b8:	fd 4f       	sbci	r31, 0xFD	; 253
    23ba:	60 81       	ld	r22, Z
    23bc:	70 e0       	ldi	r23, 0x00	; 0
    23be:	82 e4       	ldi	r24, 0x42	; 66
    23c0:	90 e0       	ldi	r25, 0x00	; 0
    23c2:	0e 94 cb 04 	call	0x996	; 0x996 <send_variables>
			}
		}
	}

	if (usart1_rx_cnt != pre_usart1_rx_cnt)
    23c6:	80 91 fb 03 	lds	r24, 0x03FB	; 0x8003fb <usart1_rx_cnt>
    23ca:	90 91 c2 02 	lds	r25, 0x02C2	; 0x8002c2 <pre_usart1_rx_cnt.1858>
    23ce:	89 17       	cp	r24, r25
    23d0:	29 f0       	breq	.+10     	; 0x23dc <__vector_16+0x192>
	{
		pre_usart1_rx_cnt = usart1_rx_cnt;
    23d2:	80 93 c2 02 	sts	0x02C2, r24	; 0x8002c2 <pre_usart1_rx_cnt.1858>
		usart1_cnt = 0;
    23d6:	10 92 c1 02 	sts	0x02C1, r1	; 0x8002c1 <usart1_cnt.1857>
    23da:	14 c0       	rjmp	.+40     	; 0x2404 <__vector_16+0x1ba>
	} //如果usart1当前接收计数与上次计数不一样 表示有数据接收  清除时间计数
	else
	{
		if (usart1_rx_cnt != 0) //如果usart1接收计数为0 认为没有开始接收数据  则不进行超时计数
    23dc:	88 23       	and	r24, r24
    23de:	91 f0       	breq	.+36     	; 0x2404 <__vector_16+0x1ba>
		{
			usart1_cnt++;
    23e0:	90 91 c1 02 	lds	r25, 0x02C1	; 0x8002c1 <usart1_cnt.1857>
    23e4:	9f 5f       	subi	r25, 0xFF	; 255
    23e6:	90 93 c1 02 	sts	0x02C1, r25	; 0x8002c1 <usart1_cnt.1857>

			if (usart1_cnt >= 4)
    23ea:	94 30       	cpi	r25, 0x04	; 4
    23ec:	58 f0       	brcs	.+22     	; 0x2404 <__vector_16+0x1ba>
			{
				usart1_rx_lenth = usart1_rx_cnt;
    23ee:	80 93 fc 03 	sts	0x03FC, r24	; 0x8003fc <usart1_rx_lenth>
				usart1_rx_end = 1;
    23f2:	81 e0       	ldi	r24, 0x01	; 1
    23f4:	80 93 fd 03 	sts	0x03FD, r24	; 0x8003fd <usart1_rx_end>

				usart1_rx_cnt = 0;
    23f8:	10 92 fb 03 	sts	0x03FB, r1	; 0x8003fb <usart1_rx_cnt>
				pre_usart1_rx_cnt = 0;
    23fc:	10 92 c2 02 	sts	0x02C2, r1	; 0x8002c2 <pre_usart1_rx_cnt.1858>

				usart1_cnt = 0;
    2400:	10 92 c1 02 	sts	0x02C1, r1	; 0x8002c1 <usart1_cnt.1857>
			}
		}
	} //如果大于21毫秒没有数据接收  认为完成一次数据的接收      清除时间计数

	if (usart0_rx_cnt != pre_usart0_rx_cnt)
    2404:	80 91 8e 05 	lds	r24, 0x058E	; 0x80058e <usart0_rx_cnt>
    2408:	90 91 c0 02 	lds	r25, 0x02C0	; 0x8002c0 <pre_usart0_rx_cnt.1860>
    240c:	89 17       	cp	r24, r25
    240e:	29 f0       	breq	.+10     	; 0x241a <__vector_16+0x1d0>
	{
		pre_usart0_rx_cnt = usart0_rx_cnt;
    2410:	80 93 c0 02 	sts	0x02C0, r24	; 0x8002c0 <pre_usart0_rx_cnt.1860>
		usart0_cnt = 0;
    2414:	10 92 bf 02 	sts	0x02BF, r1	; 0x8002bf <usart0_cnt.1859>
    2418:	14 c0       	rjmp	.+40     	; 0x2442 <__vector_16+0x1f8>
	} //如果usart0当前接收计数与上次计数不一样 表示有数据接收  清除时间计数
	else
	{
		if (usart0_rx_cnt != 0) //如果usart0接收计数为0   认为没有开始接收数据  则不进行超时计数
    241a:	88 23       	and	r24, r24
    241c:	91 f0       	breq	.+36     	; 0x2442 <__vector_16+0x1f8>
		{
			usart0_cnt++;
    241e:	90 91 bf 02 	lds	r25, 0x02BF	; 0x8002bf <usart0_cnt.1859>
    2422:	9f 5f       	subi	r25, 0xFF	; 255
    2424:	90 93 bf 02 	sts	0x02BF, r25	; 0x8002bf <usart0_cnt.1859>

			if (usart0_cnt >= 4)
    2428:	94 30       	cpi	r25, 0x04	; 4
    242a:	58 f0       	brcs	.+22     	; 0x2442 <__vector_16+0x1f8>
			{
				usart0_rx_lenth = usart0_rx_cnt;
    242c:	80 93 8f 05 	sts	0x058F, r24	; 0x80058f <usart0_rx_lenth>
				usart0_rx_end = 1;
    2430:	81 e0       	ldi	r24, 0x01	; 1
    2432:	80 93 90 05 	sts	0x0590, r24	; 0x800590 <usart0_rx_end>

				usart0_rx_cnt = 0;
    2436:	10 92 8e 05 	sts	0x058E, r1	; 0x80058e <usart0_rx_cnt>
				pre_usart0_rx_cnt = 0;
    243a:	10 92 c0 02 	sts	0x02C0, r1	; 0x8002c0 <pre_usart0_rx_cnt.1860>

				usart0_cnt = 0;
    243e:	10 92 bf 02 	sts	0x02BF, r1	; 0x8002bf <usart0_cnt.1859>
			}
		}
	} //如果大于21毫秒没有数据接收  认为完成一次数据的接收      清除时间计数
}
    2442:	ff 91       	pop	r31
    2444:	ef 91       	pop	r30
    2446:	bf 91       	pop	r27
    2448:	af 91       	pop	r26
    244a:	9f 91       	pop	r25
    244c:	8f 91       	pop	r24
    244e:	7f 91       	pop	r23
    2450:	6f 91       	pop	r22
    2452:	5f 91       	pop	r21
    2454:	4f 91       	pop	r20
    2456:	3f 91       	pop	r19
    2458:	2f 91       	pop	r18
    245a:	0f 90       	pop	r0
    245c:	0f be       	out	0x3f, r0	; 63
    245e:	0f 90       	pop	r0
    2460:	1f 90       	pop	r1
    2462:	18 95       	reti

00002464 <__vector_12>:

/*射胶阀时间控制相关程序 
**现把此功能独立成单独电路板
*/
ISR(TIMER1_COMPA_vect)
{
    2464:	1f 92       	push	r1
    2466:	0f 92       	push	r0
    2468:	0f b6       	in	r0, 0x3f	; 63
    246a:	0f 92       	push	r0
    246c:	11 24       	eor	r1, r1
	}
	}
	}
	}
	*/
}
    246e:	0f 90       	pop	r0
    2470:	0f be       	out	0x3f, r0	; 63
    2472:	0f 90       	pop	r0
    2474:	1f 90       	pop	r1
    2476:	18 95       	reti

00002478 <__vector_10>:

/*更新温度曲线 在曲线显示界面时才会更新*/
ISR(TIMER2_OVF_vect)
{
    2478:	1f 92       	push	r1
    247a:	0f 92       	push	r0
    247c:	0f b6       	in	r0, 0x3f	; 63
    247e:	0f 92       	push	r0
    2480:	11 24       	eor	r1, r1
    2482:	2f 93       	push	r18
    2484:	3f 93       	push	r19
    2486:	4f 93       	push	r20
    2488:	5f 93       	push	r21
    248a:	6f 93       	push	r22
    248c:	7f 93       	push	r23
    248e:	8f 93       	push	r24
    2490:	9f 93       	push	r25
    2492:	af 93       	push	r26
    2494:	bf 93       	push	r27
    2496:	cf 93       	push	r28
    2498:	df 93       	push	r29
    249a:	ef 93       	push	r30
    249c:	ff 93       	push	r31
	static uint8_t time_cnt = 0;
	int16_t temp_differ = 0;

	EN_INTERRUPT;
    249e:	8f b7       	in	r24, 0x3f	; 63
    24a0:	80 68       	ori	r24, 0x80	; 128
    24a2:	8f bf       	out	0x3f, r24	; 63
	TCNT2 = 0xB2;
    24a4:	82 eb       	ldi	r24, 0xB2	; 178
    24a6:	84 bd       	out	0x24, r24	; 36
	// temp_differ = (run_temp[curve_page_num] - set_temp[curve_page_num]) + 100;

	/*温度转换 计算不同单位下的温度数值  run_temp[] 存储的是摄氏度 
	**set_temp[]存储的是设定温度数值，与温度单位无关 发送温度设定时需转换成相应单位的数值进行发送
	*/
	temp_differ = run_temp[curve_page_num]
    24a8:	80 91 b3 02 	lds	r24, 0x02B3	; 0x8002b3 <curve_page_num>
    24ac:	88 0f       	add	r24, r24
    24ae:	99 0b       	sbc	r25, r25
    24b0:	fc 01       	movw	r30, r24
    24b2:	ed 5c       	subi	r30, 0xCD	; 205
    24b4:	fd 4f       	sbci	r31, 0xFD	; 253
    24b6:	20 81       	ld	r18, Z
    24b8:	31 81       	ldd	r19, Z+1	; 0x01
				+ temp_unit * (run_temp[curve_page_num] * 8 / 10 + 32)
    24ba:	e0 91 9b 01 	lds	r30, 0x019B	; 0x80019b <temp_unit>
    24be:	f0 91 9c 01 	lds	r31, 0x019C	; 0x80019c <temp_unit+0x1>
				- set_temp[curve_page_num] + 100;
    24c2:	dc 01       	movw	r26, r24
    24c4:	a3 56       	subi	r26, 0x63	; 99
    24c6:	b6 4f       	sbci	r27, 0xF6	; 246
    24c8:	cd 91       	ld	r28, X+
    24ca:	dc 91       	ld	r29, X

	time_cnt++;
    24cc:	80 91 be 02 	lds	r24, 0x02BE	; 0x8002be <time_cnt.1873>
    24d0:	8f 5f       	subi	r24, 0xFF	; 255
    24d2:	80 93 be 02 	sts	0x02BE, r24	; 0x8002be <time_cnt.1873>
	if (time_cnt >= timer2_ovf)
    24d6:	90 91 cd 02 	lds	r25, 0x02CD	; 0x8002cd <timer2_ovf>
    24da:	89 17       	cp	r24, r25
    24dc:	f8 f0       	brcs	.+62     	; 0x251c <__vector_10+0xa4>
	{
		time_cnt = 0;
    24de:	10 92 be 02 	sts	0x02BE, r1	; 0x8002be <time_cnt.1873>
		send_to_channel(CHANNEL0, temp_differ);
    24e2:	c9 01       	movw	r24, r18
    24e4:	88 0f       	add	r24, r24
    24e6:	99 1f       	adc	r25, r25
    24e8:	88 0f       	add	r24, r24
    24ea:	99 1f       	adc	r25, r25
    24ec:	88 0f       	add	r24, r24
    24ee:	99 1f       	adc	r25, r25
    24f0:	6a e0       	ldi	r22, 0x0A	; 10
    24f2:	70 e0       	ldi	r23, 0x00	; 0
    24f4:	0e 94 8f 16 	call	0x2d1e	; 0x2d1e <__divmodhi4>
    24f8:	cb 01       	movw	r24, r22
    24fa:	80 96       	adiw	r24, 0x20	; 32
    24fc:	8e 9f       	mul	r24, r30
    24fe:	b0 01       	movw	r22, r0
    2500:	8f 9f       	mul	r24, r31
    2502:	70 0d       	add	r23, r0
    2504:	9e 9f       	mul	r25, r30
    2506:	70 0d       	add	r23, r0
    2508:	11 24       	eor	r1, r1
    250a:	2c 59       	subi	r18, 0x9C	; 156
    250c:	3f 4f       	sbci	r19, 0xFF	; 255
    250e:	2c 1b       	sub	r18, r28
    2510:	3d 0b       	sbc	r19, r29
    2512:	62 0f       	add	r22, r18
    2514:	73 1f       	adc	r23, r19
    2516:	81 e0       	ldi	r24, 0x01	; 1
    2518:	0e 94 a2 09 	call	0x1344	; 0x1344 <send_to_channel>
	}
}
    251c:	ff 91       	pop	r31
    251e:	ef 91       	pop	r30
    2520:	df 91       	pop	r29
    2522:	cf 91       	pop	r28
    2524:	bf 91       	pop	r27
    2526:	af 91       	pop	r26
    2528:	9f 91       	pop	r25
    252a:	8f 91       	pop	r24
    252c:	7f 91       	pop	r23
    252e:	6f 91       	pop	r22
    2530:	5f 91       	pop	r21
    2532:	4f 91       	pop	r20
    2534:	3f 91       	pop	r19
    2536:	2f 91       	pop	r18
    2538:	0f 90       	pop	r0
    253a:	0f be       	out	0x3f, r0	; 63
    253c:	0f 90       	pop	r0
    253e:	1f 90       	pop	r1
    2540:	18 95       	reti

00002542 <__vector_26>:
/*IO口模拟usart发送*/
ISR(TIMER3_COMPA_vect)
{
    2542:	1f 92       	push	r1
    2544:	0f 92       	push	r0
    2546:	0f b6       	in	r0, 0x3f	; 63
    2548:	0f 92       	push	r0
    254a:	11 24       	eor	r1, r1
    254c:	2f 93       	push	r18
    254e:	3f 93       	push	r19
    2550:	4f 93       	push	r20
    2552:	8f 93       	push	r24
    2554:	9f 93       	push	r25
    2556:	ef 93       	push	r30
    2558:	ff 93       	push	r31
	static uint8_t cnt = 0;
	static uint8_t pos = 0; //当前发送数据BIt 的位置

	cnt++;
    255a:	80 91 bd 02 	lds	r24, 0x02BD	; 0x8002bd <cnt.1880>
    255e:	8f 5f       	subi	r24, 0xFF	; 255
    2560:	80 93 bd 02 	sts	0x02BD, r24	; 0x8002bd <cnt.1880>

	if (usart2_sta == USART2_IN_TX)
    2564:	90 91 fd 09 	lds	r25, 0x09FD	; 0x8009fd <usart2_sta>
    2568:	91 11       	cpse	r25, r1
    256a:	36 c0       	rjmp	.+108    	; 0x25d8 <__vector_26+0x96>
	{
		if (cnt <= 8)
    256c:	89 30       	cpi	r24, 0x09	; 9
    256e:	f8 f4       	brcc	.+62     	; 0x25ae <__vector_26+0x6c>
		{
			if (((usart2_buff & (1 << pos)) >> pos) == 1)
    2570:	40 91 bc 02 	lds	r20, 0x02BC	; 0x8002bc <pos.1881>
    2574:	80 91 32 03 	lds	r24, 0x0332	; 0x800332 <usart2_buff>
    2578:	28 2f       	mov	r18, r24
    257a:	30 e0       	ldi	r19, 0x00	; 0
    257c:	81 e0       	ldi	r24, 0x01	; 1
    257e:	90 e0       	ldi	r25, 0x00	; 0
    2580:	04 2e       	mov	r0, r20
    2582:	02 c0       	rjmp	.+4      	; 0x2588 <__vector_26+0x46>
    2584:	88 0f       	add	r24, r24
    2586:	99 1f       	adc	r25, r25
    2588:	0a 94       	dec	r0
    258a:	e2 f7       	brpl	.-8      	; 0x2584 <__vector_26+0x42>
    258c:	82 23       	and	r24, r18
    258e:	93 23       	and	r25, r19
    2590:	02 c0       	rjmp	.+4      	; 0x2596 <__vector_26+0x54>
    2592:	95 95       	asr	r25
    2594:	87 95       	ror	r24
    2596:	4a 95       	dec	r20
    2598:	e2 f7       	brpl	.-8      	; 0x2592 <__vector_26+0x50>
    259a:	01 97       	sbiw	r24, 0x01	; 1
    259c:	11 f4       	brne	.+4      	; 0x25a2 <__vector_26+0x60>
			{
				USART2_TX_PIN_SET;
    259e:	af 9a       	sbi	0x15, 7	; 21
    25a0:	01 c0       	rjmp	.+2      	; 0x25a4 <__vector_26+0x62>
			}
			else
			{
				USART2_TX_PIN_RESET;
    25a2:	af 98       	cbi	0x15, 7	; 21
			}
			pos++;
    25a4:	80 91 bc 02 	lds	r24, 0x02BC	; 0x8002bc <pos.1881>
    25a8:	8f 5f       	subi	r24, 0xFF	; 255
    25aa:	80 93 bc 02 	sts	0x02BC, r24	; 0x8002bc <pos.1881>
		}

		if (cnt == 9)
    25ae:	80 91 bd 02 	lds	r24, 0x02BD	; 0x8002bd <cnt.1880>
    25b2:	89 30       	cpi	r24, 0x09	; 9
    25b4:	19 f4       	brne	.+6      	; 0x25bc <__vector_26+0x7a>
		{
			pos = 0;		   //数据发送完成，发送位置恢复1
    25b6:	10 92 bc 02 	sts	0x02BC, r1	; 0x8002bc <pos.1881>
			USART2_TX_PIN_SET; //停止位
    25ba:	af 9a       	sbi	0x15, 7	; 21
		}

		if (cnt == 10)
    25bc:	80 91 bd 02 	lds	r24, 0x02BD	; 0x8002bd <cnt.1880>
    25c0:	8a 30       	cpi	r24, 0x0A	; 10
    25c2:	51 f4       	brne	.+20     	; 0x25d8 <__vector_26+0x96>
		{
			cnt = 0;
    25c4:	10 92 bd 02 	sts	0x02BD, r1	; 0x8002bd <cnt.1880>
			usart2_sta = USART2_TX_END; //更改USART2状态为发送完成
    25c8:	83 e0       	ldi	r24, 0x03	; 3
    25ca:	80 93 fd 09 	sts	0x09FD, r24	; 0x8009fd <usart2_sta>
			TCCR3B &= 0xF8;				//关闭关闭定时器
    25ce:	ea e8       	ldi	r30, 0x8A	; 138
    25d0:	f0 e0       	ldi	r31, 0x00	; 0
    25d2:	80 81       	ld	r24, Z
    25d4:	88 7f       	andi	r24, 0xF8	; 248
    25d6:	80 83       	st	Z, r24
		}
	}
}
    25d8:	ff 91       	pop	r31
    25da:	ef 91       	pop	r30
    25dc:	9f 91       	pop	r25
    25de:	8f 91       	pop	r24
    25e0:	4f 91       	pop	r20
    25e2:	3f 91       	pop	r19
    25e4:	2f 91       	pop	r18
    25e6:	0f 90       	pop	r0
    25e8:	0f be       	out	0x3f, r0	; 63
    25ea:	0f 90       	pop	r0
    25ec:	1f 90       	pop	r1
    25ee:	18 95       	reti

000025f0 <timer0_init>:

void timer0_init()
{
	TCCR0 &= 0xF8; //关闭定时器0
    25f0:	83 b7       	in	r24, 0x33	; 51
    25f2:	88 7f       	andi	r24, 0xF8	; 248
    25f4:	83 bf       	out	0x33, r24	; 51

	TCNT0 = 0xB2; //定时5ms
    25f6:	82 eb       	ldi	r24, 0xB2	; 178
    25f8:	82 bf       	out	0x32, r24	; 50

	TIMSK &= 0xFC;
    25fa:	87 b7       	in	r24, 0x37	; 55
    25fc:	8c 7f       	andi	r24, 0xFC	; 252
    25fe:	87 bf       	out	0x37, r24	; 55
	TIMSK |= 0x01; //使能定时器0溢出中断
    2600:	87 b7       	in	r24, 0x37	; 55
    2602:	81 60       	ori	r24, 0x01	; 1
    2604:	87 bf       	out	0x37, r24	; 55

	TCCR0 |= 0x07; //开启定时器0 正常模式TOP:0xFF, OC0不输出信号, clk/1024
    2606:	83 b7       	in	r24, 0x33	; 51
    2608:	87 60       	ori	r24, 0x07	; 7
    260a:	83 bf       	out	0x33, r24	; 51
    260c:	08 95       	ret

0000260e <timer1_init>:
}

void timer1_init()
{
	TCCR1B |= 0x08; //WGM12位置1
    260e:	8e b5       	in	r24, 0x2e	; 46
    2610:	88 60       	ori	r24, 0x08	; 8
    2612:	8e bd       	out	0x2e, r24	; 46
	TCCR1B &= 0xF8; //关闭定时器（清除时钟选择位 CS10 CS11 CS12）
    2614:	8e b5       	in	r24, 0x2e	; 46
    2616:	88 7f       	andi	r24, 0xF8	; 248
    2618:	8e bd       	out	0x2e, r24	; 46

	OCR1AH = 0x09; //定时10ms
    261a:	89 e0       	ldi	r24, 0x09	; 9
    261c:	8b bd       	out	0x2b, r24	; 43
	OCR1AL = 0xC4;
    261e:	84 ec       	ldi	r24, 0xC4	; 196
    2620:	8a bd       	out	0x2a, r24	; 42

	TIMSK |= 0x10; //定时器1 A输出比较中断使能
    2622:	87 b7       	in	r24, 0x37	; 55
    2624:	80 61       	ori	r24, 0x10	; 16
    2626:	87 bf       	out	0x37, r24	; 55

	TCCR1B |= 0x03; //开启定时器1 CTC模式 top:OCR1A, OC1A OC1B OC1C DISCONNECT,CLK/64
    2628:	8e b5       	in	r24, 0x2e	; 46
    262a:	83 60       	ori	r24, 0x03	; 3
    262c:	8e bd       	out	0x2e, r24	; 46
    262e:	08 95       	ret

00002630 <timer2_init>:
}

void timer2_init()
{
	TCCR2 &= 0xF8; //关闭定时器
    2630:	85 b5       	in	r24, 0x25	; 37
    2632:	88 7f       	andi	r24, 0xF8	; 248
    2634:	85 bd       	out	0x25, r24	; 37

	TCNT2 = 0xB2; //定时5ms
    2636:	82 eb       	ldi	r24, 0xB2	; 178
    2638:	84 bd       	out	0x24, r24	; 36

	TIMSK &= 0x3F;
    263a:	87 b7       	in	r24, 0x37	; 55
    263c:	8f 73       	andi	r24, 0x3F	; 63
    263e:	87 bf       	out	0x37, r24	; 55
	TIMSK |= 0x40; //使能定时器2溢出中断
    2640:	87 b7       	in	r24, 0x37	; 55
    2642:	80 64       	ori	r24, 0x40	; 64
    2644:	87 bf       	out	0x37, r24	; 55

	TCCR2 |= 0x05; //开启定时器2 正常模式TOP:0xFF, OC0不输出信号, clk/1024
    2646:	85 b5       	in	r24, 0x25	; 37
    2648:	85 60       	ori	r24, 0x05	; 5
    264a:	85 bd       	out	0x25, r24	; 37
	TCCR2 &= 0xF8;
    264c:	85 b5       	in	r24, 0x25	; 37
    264e:	88 7f       	andi	r24, 0xF8	; 248
    2650:	85 bd       	out	0x25, r24	; 37
    2652:	08 95       	ret

00002654 <__vector_18>:
uint16_t d_value_buff = 100;

uint16_t time_ctrl_value_buff[4][8][4];

ISR(USART0_RX_vect)
{
    2654:	1f 92       	push	r1
    2656:	0f 92       	push	r0
    2658:	0f b6       	in	r0, 0x3f	; 63
    265a:	0f 92       	push	r0
    265c:	11 24       	eor	r1, r1
    265e:	8f 93       	push	r24
    2660:	9f 93       	push	r25
    2662:	ef 93       	push	r30
    2664:	ff 93       	push	r31
	usart0_rx_buff[usart0_rx_cnt++] = UDR0;
    2666:	e0 91 8e 05 	lds	r30, 0x058E	; 0x80058e <usart0_rx_cnt>
    266a:	81 e0       	ldi	r24, 0x01	; 1
    266c:	8e 0f       	add	r24, r30
    266e:	80 93 8e 05 	sts	0x058E, r24	; 0x80058e <usart0_rx_cnt>
    2672:	9c b1       	in	r25, 0x0c	; 12
    2674:	f0 e0       	ldi	r31, 0x00	; 0
    2676:	e7 5a       	subi	r30, 0xA7	; 167
    2678:	f9 4f       	sbci	r31, 0xF9	; 249
    267a:	90 83       	st	Z, r25

	if (usart0_rx_cnt >= 200)
    267c:	88 3c       	cpi	r24, 0xC8	; 200
    267e:	20 f0       	brcs	.+8      	; 0x2688 <__vector_18+0x34>
	{
		usart0_rx_lenth = usart0_rx_cnt;
    2680:	80 93 8f 05 	sts	0x058F, r24	; 0x80058f <usart0_rx_lenth>
		usart0_rx_cnt = 0;
    2684:	10 92 8e 05 	sts	0x058E, r1	; 0x80058e <usart0_rx_cnt>
	}
}
    2688:	ff 91       	pop	r31
    268a:	ef 91       	pop	r30
    268c:	9f 91       	pop	r25
    268e:	8f 91       	pop	r24
    2690:	0f 90       	pop	r0
    2692:	0f be       	out	0x3f, r0	; 63
    2694:	0f 90       	pop	r0
    2696:	1f 90       	pop	r1
    2698:	18 95       	reti

0000269a <__vector_30>:

ISR(USART1_RX_vect)
{
    269a:	1f 92       	push	r1
    269c:	0f 92       	push	r0
    269e:	0f b6       	in	r0, 0x3f	; 63
    26a0:	0f 92       	push	r0
    26a2:	11 24       	eor	r1, r1
    26a4:	8f 93       	push	r24
    26a6:	9f 93       	push	r25
    26a8:	ef 93       	push	r30
    26aa:	ff 93       	push	r31
	usart1_rx_buff[usart1_rx_cnt++] = UDR1;
    26ac:	e0 91 fb 03 	lds	r30, 0x03FB	; 0x8003fb <usart1_rx_cnt>
    26b0:	81 e0       	ldi	r24, 0x01	; 1
    26b2:	8e 0f       	add	r24, r30
    26b4:	80 93 fb 03 	sts	0x03FB, r24	; 0x8003fb <usart1_rx_cnt>
    26b8:	90 91 9c 00 	lds	r25, 0x009C	; 0x80009c <__TEXT_REGION_LENGTH__+0x7e009c>
    26bc:	f0 e0       	ldi	r31, 0x00	; 0
    26be:	ea 53       	subi	r30, 0x3A	; 58
    26c0:	fb 4f       	sbci	r31, 0xFB	; 251
    26c2:	90 83       	st	Z, r25

	if (usart1_rx_cnt >= 200)
    26c4:	88 3c       	cpi	r24, 0xC8	; 200
    26c6:	20 f0       	brcs	.+8      	; 0x26d0 <__vector_30+0x36>
	{
		usart1_rx_lenth = usart1_rx_cnt;
    26c8:	80 93 fc 03 	sts	0x03FC, r24	; 0x8003fc <usart1_rx_lenth>
		usart1_rx_cnt = 0;
    26cc:	10 92 fb 03 	sts	0x03FB, r1	; 0x8003fb <usart1_rx_cnt>
	}
}
    26d0:	ff 91       	pop	r31
    26d2:	ef 91       	pop	r30
    26d4:	9f 91       	pop	r25
    26d6:	8f 91       	pop	r24
    26d8:	0f 90       	pop	r0
    26da:	0f be       	out	0x3f, r0	; 63
    26dc:	0f 90       	pop	r0
    26de:	1f 90       	pop	r1
    26e0:	18 95       	reti

000026e2 <usart1_deal>:
	uint16_t crc_data = 0;

	crc_data = usart1_rx_buff[usart1_rx_lenth - 1];
	crc_data = (crc_data << 8) + usart1_rx_buff[usart1_rx_lenth - 2];

	if ((usart1_rx_buff[0] != 0xA5) || (usart1_rx_buff[1] != 0x5A))
    26e2:	80 91 c6 04 	lds	r24, 0x04C6	; 0x8004c6 <usart1_rx_buff>
    26e6:	85 3a       	cpi	r24, 0xA5	; 165
    26e8:	21 f4       	brne	.+8      	; 0x26f2 <usart1_deal+0x10>
    26ea:	80 91 c7 04 	lds	r24, 0x04C7	; 0x8004c7 <usart1_rx_buff+0x1>
    26ee:	8a 35       	cpi	r24, 0x5A	; 90
    26f0:	19 f0       	breq	.+6      	; 0x26f8 <usart1_deal+0x16>
	{
		usart1_rx_end = 0;
    26f2:	10 92 fd 03 	sts	0x03FD, r1	; 0x8003fd <usart1_rx_end>
		return 0;
    26f6:	1a c0       	rjmp	.+52     	; 0x272c <usart1_deal+0x4a>
	}

	if ((usart1_rx_buff[2] + 5) != usart1_rx_lenth)
    26f8:	20 91 fc 03 	lds	r18, 0x03FC	; 0x8003fc <usart1_rx_lenth>
    26fc:	30 e0       	ldi	r19, 0x00	; 0
    26fe:	80 91 c8 04 	lds	r24, 0x04C8	; 0x8004c8 <usart1_rx_buff+0x2>
    2702:	90 e0       	ldi	r25, 0x00	; 0
    2704:	05 96       	adiw	r24, 0x05	; 5
    2706:	28 17       	cp	r18, r24
    2708:	39 07       	cpc	r19, r25
    270a:	19 f0       	breq	.+6      	; 0x2712 <usart1_deal+0x30>
	{
		usart1_rx_end = 0;
    270c:	10 92 fd 03 	sts	0x03FD, r1	; 0x8003fd <usart1_rx_end>
		return 0;
    2710:	0d c0       	rjmp	.+26     	; 0x272c <usart1_deal+0x4a>
// 	{
// 		usart1_rx_end = 0;
// 		return 0;
// 	}

	if (RX1_COMMAND == READ_DATA_ALL)
    2712:	80 91 c9 04 	lds	r24, 0x04C9	; 0x8004c9 <usart1_rx_buff+0x3>
    2716:	81 30       	cpi	r24, 0x01	; 1
    2718:	19 f4       	brne	.+6      	; 0x2720 <usart1_deal+0x3e>
	{
		get_data_all();
    271a:	0e 94 88 0b 	call	0x1710	; 0x1710 <get_data_all>
    271e:	06 c0       	rjmp	.+12     	; 0x272c <usart1_deal+0x4a>
	}
	else if (RX1_COMMAND == READ_SETTING_DATA)
    2720:	87 30       	cpi	r24, 0x07	; 7
    2722:	21 f4       	brne	.+8      	; 0x272c <usart1_deal+0x4a>
	{
		get_setting_data(usart1_rx_buff[4]);
    2724:	80 91 ca 04 	lds	r24, 0x04CA	; 0x8004ca <usart1_rx_buff+0x4>
    2728:	0e 94 bb 0a 	call	0x1576	; 0x1576 <get_setting_data>
	}

	return 0;
}
    272c:	80 e0       	ldi	r24, 0x00	; 0
    272e:	90 e0       	ldi	r25, 0x00	; 0
    2730:	08 95       	ret

00002732 <usart0_send_char>:

void usart0_send_char(uint8_t data)
{
	while (!(UCSR0A & (1 << UDRE0)))
    2732:	5d 9b       	sbis	0x0b, 5	; 11
    2734:	fe cf       	rjmp	.-4      	; 0x2732 <usart0_send_char>
		;
	UDR0 = data;
    2736:	8c b9       	out	0x0c, r24	; 12
    2738:	08 95       	ret

0000273a <usart0_send_str>:
}

void usart0_send_str(uint8_t *str, uint8_t data_size)
{
    273a:	0f 93       	push	r16
    273c:	1f 93       	push	r17
    273e:	cf 93       	push	r28
    2740:	df 93       	push	r29
	uint8_t i = 0;

	for (i = 0; i < data_size; i++)
    2742:	66 23       	and	r22, r22
    2744:	71 f0       	breq	.+28     	; 0x2762 <usart0_send_str+0x28>
    2746:	ec 01       	movw	r28, r24
    2748:	61 50       	subi	r22, 0x01	; 1
    274a:	06 2f       	mov	r16, r22
    274c:	10 e0       	ldi	r17, 0x00	; 0
    274e:	0f 5f       	subi	r16, 0xFF	; 255
    2750:	1f 4f       	sbci	r17, 0xFF	; 255
    2752:	08 0f       	add	r16, r24
    2754:	19 1f       	adc	r17, r25
	{
		usart0_send_char(*str++);
    2756:	89 91       	ld	r24, Y+
    2758:	0e 94 99 13 	call	0x2732	; 0x2732 <usart0_send_char>

void usart0_send_str(uint8_t *str, uint8_t data_size)
{
	uint8_t i = 0;

	for (i = 0; i < data_size; i++)
    275c:	c0 17       	cp	r28, r16
    275e:	d1 07       	cpc	r29, r17
    2760:	d1 f7       	brne	.-12     	; 0x2756 <usart0_send_str+0x1c>
	{
		usart0_send_char(*str++);
	}
}
    2762:	df 91       	pop	r29
    2764:	cf 91       	pop	r28
    2766:	1f 91       	pop	r17
    2768:	0f 91       	pop	r16
    276a:	08 95       	ret

0000276c <usart1_send_char>:

void usart1_send_char(uint8_t data)
{
	while (!(UCSR1A & (1 << UDRE1)))
    276c:	eb e9       	ldi	r30, 0x9B	; 155
    276e:	f0 e0       	ldi	r31, 0x00	; 0
    2770:	90 81       	ld	r25, Z
    2772:	95 ff       	sbrs	r25, 5
    2774:	fd cf       	rjmp	.-6      	; 0x2770 <usart1_send_char+0x4>
		; //等待发送寄存器为空
	UDR1 = data;
    2776:	80 93 9c 00 	sts	0x009C, r24	; 0x80009c <__TEXT_REGION_LENGTH__+0x7e009c>
    277a:	08 95       	ret

0000277c <usart1_send_str>:
}

void usart1_send_str(uint8_t *str, uint8_t data_size)
{
    277c:	0f 93       	push	r16
    277e:	1f 93       	push	r17
    2780:	cf 93       	push	r28
    2782:	df 93       	push	r29
	uint8_t i = 0;

	for (i = 0; i < data_size; i++)
    2784:	66 23       	and	r22, r22
    2786:	71 f0       	breq	.+28     	; 0x27a4 <usart1_send_str+0x28>
    2788:	ec 01       	movw	r28, r24
    278a:	61 50       	subi	r22, 0x01	; 1
    278c:	06 2f       	mov	r16, r22
    278e:	10 e0       	ldi	r17, 0x00	; 0
    2790:	0f 5f       	subi	r16, 0xFF	; 255
    2792:	1f 4f       	sbci	r17, 0xFF	; 255
    2794:	08 0f       	add	r16, r24
    2796:	19 1f       	adc	r17, r25
	{
		usart1_send_char(*str++);
    2798:	89 91       	ld	r24, Y+
    279a:	0e 94 b6 13 	call	0x276c	; 0x276c <usart1_send_char>

void usart1_send_str(uint8_t *str, uint8_t data_size)
{
	uint8_t i = 0;

	for (i = 0; i < data_size; i++)
    279e:	c0 17       	cp	r28, r16
    27a0:	d1 07       	cpc	r29, r17
    27a2:	d1 f7       	brne	.-12     	; 0x2798 <usart1_send_str+0x1c>
	{
		usart1_send_char(*str++);
	}
}
    27a4:	df 91       	pop	r29
    27a6:	cf 91       	pop	r28
    27a8:	1f 91       	pop	r17
    27aa:	0f 91       	pop	r16
    27ac:	08 95       	ret

000027ae <usart2_send_char>:

void usart2_send_char(uint8_t data)
{
	usart2_buff = data; //把数据保存到发送数据缓冲区
    27ae:	80 93 32 03 	sts	0x0332, r24	; 0x800332 <usart2_buff>

	usart2_sta = USART2_IN_TX; //状态更改为发送状态
    27b2:	10 92 fd 09 	sts	0x09FD, r1	; 0x8009fd <usart2_sta>

	USART2_TX_PIN_RESET; //给起始位
    27b6:	af 98       	cbi	0x15, 7	; 21

	TCNT3 = 0x0000; //定时器3计数器清零
    27b8:	10 92 89 00 	sts	0x0089, r1	; 0x800089 <__TEXT_REGION_LENGTH__+0x7e0089>
    27bc:	10 92 88 00 	sts	0x0088, r1	; 0x800088 <__TEXT_REGION_LENGTH__+0x7e0088>
	TCCR3B |= 0x01; //启动定时器
    27c0:	ea e8       	ldi	r30, 0x8A	; 138
    27c2:	f0 e0       	ldi	r31, 0x00	; 0
    27c4:	80 81       	ld	r24, Z
    27c6:	81 60       	ori	r24, 0x01	; 1
    27c8:	80 83       	st	Z, r24
    27ca:	08 95       	ret

000027cc <usart2_send_str>:
}

void usart2_send_str(uint8_t *str, uint8_t data_size)
{
    27cc:	0f 93       	push	r16
    27ce:	1f 93       	push	r17
    27d0:	cf 93       	push	r28
    27d2:	df 93       	push	r29
	uint8_t i = 0;

	for (i = 0; i < data_size; i++)
    27d4:	66 23       	and	r22, r22
    27d6:	99 f0       	breq	.+38     	; 0x27fe <usart2_send_str+0x32>
    27d8:	8c 01       	movw	r16, r24
    27da:	ec 01       	movw	r28, r24
    27dc:	61 50       	subi	r22, 0x01	; 1
    27de:	26 2f       	mov	r18, r22
    27e0:	30 e0       	ldi	r19, 0x00	; 0
    27e2:	2f 5f       	subi	r18, 0xFF	; 255
    27e4:	3f 4f       	sbci	r19, 0xFF	; 255
    27e6:	02 0f       	add	r16, r18
    27e8:	13 1f       	adc	r17, r19
	{
		usart2_send_char(*str++);
    27ea:	89 91       	ld	r24, Y+
    27ec:	0e 94 d7 13 	call	0x27ae	; 0x27ae <usart2_send_char>
		//		_delay_us(1200);S
		while (usart2_sta != USART2_TX_END)
    27f0:	80 91 fd 09 	lds	r24, 0x09FD	; 0x8009fd <usart2_sta>
    27f4:	83 30       	cpi	r24, 0x03	; 3
    27f6:	f1 f7       	brne	.-4      	; 0x27f4 <usart2_send_str+0x28>

void usart2_send_str(uint8_t *str, uint8_t data_size)
{
	uint8_t i = 0;

	for (i = 0; i < data_size; i++)
    27f8:	c0 17       	cp	r28, r16
    27fa:	d1 07       	cpc	r29, r17
    27fc:	b1 f7       	brne	.-20     	; 0x27ea <usart2_send_str+0x1e>
		usart2_send_char(*str++);
		//		_delay_us(1200);S
		while (usart2_sta != USART2_TX_END)
			;
	}
}
    27fe:	df 91       	pop	r29
    2800:	cf 91       	pop	r28
    2802:	1f 91       	pop	r17
    2804:	0f 91       	pop	r16
    2806:	08 95       	ret

00002808 <crc_check>:

uint16_t crc_check(uint8_t *p, uint8_t data_size)
{
    2808:	dc 01       	movw	r26, r24
	uint16_t crc = 0xFFFF;
	uint8_t i, j;

	for (j = 0; j < (data_size - 5); j++)
    280a:	70 e0       	ldi	r23, 0x00	; 0
    280c:	65 50       	subi	r22, 0x05	; 5
    280e:	71 09       	sbc	r23, r1
    2810:	16 16       	cp	r1, r22
    2812:	17 06       	cpc	r1, r23
    2814:	ec f4       	brge	.+58     	; 0x2850 <crc_check+0x48>
    2816:	30 e0       	ldi	r19, 0x00	; 0
    2818:	8f ef       	ldi	r24, 0xFF	; 255
    281a:	9f ef       	ldi	r25, 0xFF	; 255
	{
		crc = crc ^ *(p + j + 3);
    281c:	fd 01       	movw	r30, r26
    281e:	e3 0f       	add	r30, r19
    2820:	f1 1d       	adc	r31, r1
    2822:	23 81       	ldd	r18, Z+3	; 0x03
    2824:	82 27       	eor	r24, r18
    2826:	28 e0       	ldi	r18, 0x08	; 8
		for (i = 0; i < 8; i++)
		{
			if ((crc & 0x0001) > 0)
    2828:	80 ff       	sbrs	r24, 0
    282a:	07 c0       	rjmp	.+14     	; 0x283a <crc_check+0x32>
			{
				crc >>= 1;
    282c:	96 95       	lsr	r25
    282e:	87 95       	ror	r24
				crc ^= 0xA001;
    2830:	41 e0       	ldi	r20, 0x01	; 1
    2832:	84 27       	eor	r24, r20
    2834:	40 ea       	ldi	r20, 0xA0	; 160
    2836:	94 27       	eor	r25, r20
    2838:	02 c0       	rjmp	.+4      	; 0x283e <crc_check+0x36>
			}
			else
				crc >>= 1;
    283a:	96 95       	lsr	r25
    283c:	87 95       	ror	r24
    283e:	21 50       	subi	r18, 0x01	; 1
	uint8_t i, j;

	for (j = 0; j < (data_size - 5); j++)
	{
		crc = crc ^ *(p + j + 3);
		for (i = 0; i < 8; i++)
    2840:	99 f7       	brne	.-26     	; 0x2828 <crc_check+0x20>
uint16_t crc_check(uint8_t *p, uint8_t data_size)
{
	uint16_t crc = 0xFFFF;
	uint8_t i, j;

	for (j = 0; j < (data_size - 5); j++)
    2842:	3f 5f       	subi	r19, 0xFF	; 255
    2844:	43 2f       	mov	r20, r19
    2846:	50 e0       	ldi	r21, 0x00	; 0
    2848:	46 17       	cp	r20, r22
    284a:	57 07       	cpc	r21, r23
    284c:	3c f3       	brlt	.-50     	; 0x281c <crc_check+0x14>
    284e:	08 95       	ret
	}
}

uint16_t crc_check(uint8_t *p, uint8_t data_size)
{
	uint16_t crc = 0xFFFF;
    2850:	8f ef       	ldi	r24, 0xFF	; 255
    2852:	9f ef       	ldi	r25, 0xFF	; 255
				crc >>= 1;
		}
	}

	return crc;
}
    2854:	08 95       	ret

00002856 <usart0_deal>:
		usart1_rx_cnt = 0;
	}
}

int usart0_deal(void)
{
    2856:	cf 93       	push	r28
    2858:	df 93       	push	r29
	variable_addr = (variable_addr << 8) | usart0_rx_buff[5]; //读取变量地址

	variable = usart0_rx_buff[usart0_rx_lenth - 4];
	variable = (variable << 8) | usart0_rx_buff[usart0_rx_lenth - 3]; //读取变量值

	if ((usart0_rx_buff[0] != 0xA5) || (usart0_rx_buff[1] != 0x5A)) //判断数据头是否正确
    285a:	80 91 59 06 	lds	r24, 0x0659	; 0x800659 <usart0_rx_buff>
    285e:	85 3a       	cpi	r24, 0xA5	; 165
    2860:	21 f4       	brne	.+8      	; 0x286a <usart0_deal+0x14>
    2862:	80 91 5a 06 	lds	r24, 0x065A	; 0x80065a <usart0_rx_buff+0x1>
    2866:	8a 35       	cpi	r24, 0x5A	; 90
    2868:	19 f0       	breq	.+6      	; 0x2870 <usart0_deal+0x1a>
	{
		usart0_rx_end = 0;
    286a:	10 92 90 05 	sts	0x0590, r1	; 0x800590 <usart0_rx_end>
		return 0;
    286e:	18 c2       	rjmp	.+1072   	; 0x2ca0 <usart0_deal+0x44a>
	uint16_t crc_data = 0;

	uint16_t variable_addr = 0;
	uint16_t variable = 0;

	crc_data = usart0_rx_buff[usart0_rx_lenth - 1];
    2870:	60 91 8f 05 	lds	r22, 0x058F	; 0x80058f <usart0_rx_lenth>
    2874:	c6 2f       	mov	r28, r22
    2876:	d0 e0       	ldi	r29, 0x00	; 0
	{
		usart0_rx_end = 0;
		return 0;
	}

	if ((usart0_rx_buff[2] + 5) != usart0_rx_lenth) //判断数据长度是否正确
    2878:	80 91 5b 06 	lds	r24, 0x065B	; 0x80065b <usart0_rx_buff+0x2>
    287c:	90 e0       	ldi	r25, 0x00	; 0
    287e:	05 96       	adiw	r24, 0x05	; 5
    2880:	c8 17       	cp	r28, r24
    2882:	d9 07       	cpc	r29, r25
    2884:	19 f0       	breq	.+6      	; 0x288c <usart0_deal+0x36>
	{
		usart0_rx_end = 0;
    2886:	10 92 90 05 	sts	0x0590, r1	; 0x800590 <usart0_rx_end>
		return 0;
    288a:	0a c2       	rjmp	.+1044   	; 0x2ca0 <usart0_deal+0x44a>
	}

	if (crc_data != crc_check(usart0_rx_buff, usart0_rx_lenth)) //判断crc校验是否正确
    288c:	89 e5       	ldi	r24, 0x59	; 89
    288e:	96 e0       	ldi	r25, 0x06	; 6
    2890:	0e 94 04 14 	call	0x2808	; 0x2808 <crc_check>
	uint16_t crc_data = 0;

	uint16_t variable_addr = 0;
	uint16_t variable = 0;

	crc_data = usart0_rx_buff[usart0_rx_lenth - 1];
    2894:	ae 01       	movw	r20, r28
    2896:	47 5a       	subi	r20, 0xA7	; 167
    2898:	59 4f       	sbci	r21, 0xF9	; 249
    289a:	fa 01       	movw	r30, r20
    289c:	31 97       	sbiw	r30, 0x01	; 1
	crc_data = (crc_data << 8) + usart0_rx_buff[usart0_rx_lenth - 2]; //读取接收数据后两个字节的校验值
    289e:	20 81       	ld	r18, Z
    28a0:	30 e0       	ldi	r19, 0x00	; 0
    28a2:	32 2f       	mov	r19, r18
    28a4:	22 27       	eor	r18, r18
    28a6:	31 97       	sbiw	r30, 0x01	; 1
	{
		usart0_rx_end = 0;
		return 0;
	}

	if (crc_data != crc_check(usart0_rx_buff, usart0_rx_lenth)) //判断crc校验是否正确
    28a8:	40 81       	ld	r20, Z
    28aa:	24 0f       	add	r18, r20
    28ac:	31 1d       	adc	r19, r1
    28ae:	28 17       	cp	r18, r24
    28b0:	39 07       	cpc	r19, r25
    28b2:	19 f0       	breq	.+6      	; 0x28ba <usart0_deal+0x64>
	{
		usart0_rx_end = 0;
    28b4:	10 92 90 05 	sts	0x0590, r1	; 0x800590 <usart0_rx_end>
		return 0;
    28b8:	f3 c1       	rjmp	.+998    	; 0x2ca0 <usart0_deal+0x44a>
	}

	if (RX0_COMMAND == ACCESS_VARIABLE)
    28ba:	80 91 5c 06 	lds	r24, 0x065C	; 0x80065c <usart0_rx_buff+0x3>
    28be:	83 38       	cpi	r24, 0x83	; 131
    28c0:	09 f0       	breq	.+2      	; 0x28c4 <usart0_deal+0x6e>
    28c2:	ee c1       	rjmp	.+988    	; 0x2ca0 <usart0_deal+0x44a>
	crc_data = (crc_data << 8) + usart0_rx_buff[usart0_rx_lenth - 2]; //读取接收数据后两个字节的校验值

	variable_addr = usart0_rx_buff[4];
	variable_addr = (variable_addr << 8) | usart0_rx_buff[5]; //读取变量地址

	variable = usart0_rx_buff[usart0_rx_lenth - 4];
    28c4:	a9 e5       	ldi	r26, 0x59	; 89
    28c6:	b6 e0       	ldi	r27, 0x06	; 6
    28c8:	c7 5a       	subi	r28, 0xA7	; 167
    28ca:	d9 4f       	sbci	r29, 0xF9	; 249
    28cc:	fe 01       	movw	r30, r28
    28ce:	34 97       	sbiw	r30, 0x04	; 4
	variable = (variable << 8) | usart0_rx_buff[usart0_rx_lenth - 3]; //读取变量值
    28d0:	80 81       	ld	r24, Z
    28d2:	90 e0       	ldi	r25, 0x00	; 0
    28d4:	98 2f       	mov	r25, r24
    28d6:	88 27       	eor	r24, r24
    28d8:	23 97       	sbiw	r28, 0x03	; 3
    28da:	28 81       	ld	r18, Y
    28dc:	82 2b       	or	r24, r18

	crc_data = usart0_rx_buff[usart0_rx_lenth - 1];
	crc_data = (crc_data << 8) + usart0_rx_buff[usart0_rx_lenth - 2]; //读取接收数据后两个字节的校验值

	variable_addr = usart0_rx_buff[4];
	variable_addr = (variable_addr << 8) | usart0_rx_buff[5]; //读取变量地址
    28de:	14 96       	adiw	r26, 0x04	; 4
    28e0:	ec 91       	ld	r30, X
    28e2:	14 97       	sbiw	r26, 0x04	; 4
    28e4:	f0 e0       	ldi	r31, 0x00	; 0
    28e6:	fe 2f       	mov	r31, r30
    28e8:	ee 27       	eor	r30, r30
		return 0;
	}

	if (RX0_COMMAND == ACCESS_VARIABLE)
	{
		switch (variable_addr)
    28ea:	15 96       	adiw	r26, 0x05	; 5
    28ec:	2c 91       	ld	r18, X
    28ee:	e2 2b       	or	r30, r18
    28f0:	e0 54       	subi	r30, 0x40	; 64
    28f2:	f1 40       	sbci	r31, 0x01	; 1
    28f4:	e0 3c       	cpi	r30, 0xC0	; 192
    28f6:	f1 05       	cpc	r31, r1
    28f8:	08 f0       	brcs	.+2      	; 0x28fc <usart0_deal+0xa6>
    28fa:	d2 c1       	rjmp	.+932    	; 0x2ca0 <usart0_deal+0x44a>
    28fc:	ef 58       	subi	r30, 0x8F	; 143
    28fe:	ff 4f       	sbci	r31, 0xFF	; 255
    2900:	0c 94 c5 16 	jmp	0x2d8a	; 0x2d8a <__tablejump2__>
		{
		case KEY_ADDR:
			key_action(variable);
    2904:	0e 94 a6 0d 	call	0x1b4c	; 0x1b4c <key_action>
			break; //如果变量地址为按键变量地址  执行按键动作
    2908:	cb c1       	rjmp	.+918    	; 0x2ca0 <usart0_deal+0x44a>
		case MASTER_SWITCH:
			switch_all_sensor(variable);
    290a:	0e 94 16 03 	call	0x62c	; 0x62c <switch_all_sensor>
			break;
    290e:	c8 c1       	rjmp	.+912    	; 0x2ca0 <usart0_deal+0x44a>
		case SINGLE_SET_FOLLOW:
			follow_sta_buff[set_num] = variable;
    2910:	e0 91 b5 02 	lds	r30, 0x02B5	; 0x8002b5 <set_num>
    2914:	f0 e0       	ldi	r31, 0x00	; 0
    2916:	e1 56       	subi	r30, 0x61	; 97
    2918:	fe 4f       	sbci	r31, 0xFE	; 254
    291a:	80 83       	st	Z, r24
			break;
    291c:	c1 c1       	rjmp	.+898    	; 0x2ca0 <usart0_deal+0x44a>
		case SINGLE_SET_SENSOR_TYPE:
			sensor_type_buff[set_num] = variable;
    291e:	e0 91 b5 02 	lds	r30, 0x02B5	; 0x8002b5 <set_num>
    2922:	f0 e0       	ldi	r31, 0x00	; 0
    2924:	ee 0f       	add	r30, r30
    2926:	ff 1f       	adc	r31, r31
    2928:	e2 53       	subi	r30, 0x32	; 50
    292a:	fd 4f       	sbci	r31, 0xFD	; 253
    292c:	91 83       	std	Z+1, r25	; 0x01
    292e:	80 83       	st	Z, r24
			send_variables(SINGLE_SENSORTYPE_ADDR,
    2930:	86 5b       	subi	r24, 0xB6	; 182
    2932:	9f 4f       	sbci	r25, 0xFF	; 255
    2934:	60 e0       	ldi	r22, 0x00	; 0
    2936:	78 2f       	mov	r23, r24
    2938:	80 e9       	ldi	r24, 0x90	; 144
    293a:	92 e0       	ldi	r25, 0x02	; 2
    293c:	0e 94 cb 04 	call	0x996	; 0x996 <send_variables>
						   TYPE_J + (sensor_type_buff[set_num] * TYPE_K));
			break;
    2940:	af c1       	rjmp	.+862    	; 0x2ca0 <usart0_deal+0x44a>
		case SINGLE_SET_SWITCH:
			switch_sensor_buff[set_num] = variable;
    2942:	e0 91 b5 02 	lds	r30, 0x02B5	; 0x8002b5 <set_num>
    2946:	f0 e0       	ldi	r31, 0x00	; 0
    2948:	ee 0f       	add	r30, r30
    294a:	ff 1f       	adc	r31, r31
    294c:	e2 50       	subi	r30, 0x02	; 2
    294e:	fd 4f       	sbci	r31, 0xFD	; 253
    2950:	91 83       	std	Z+1, r25	; 0x01
    2952:	80 83       	st	Z, r24
			break;
    2954:	a5 c1       	rjmp	.+842    	; 0x2ca0 <usart0_deal+0x44a>
		case SINGLE_SET_TEMP:
			set_temp_buff[set_num] = variable;
    2956:	e0 91 b5 02 	lds	r30, 0x02B5	; 0x8002b5 <set_num>
    295a:	f0 e0       	ldi	r31, 0x00	; 0
    295c:	ee 0f       	add	r30, r30
    295e:	ff 1f       	adc	r31, r31
    2960:	e3 53       	subi	r30, 0x33	; 51
    2962:	f6 4f       	sbci	r31, 0xF6	; 246
    2964:	91 83       	std	Z+1, r25	; 0x01
    2966:	80 83       	st	Z, r24
			break;
    2968:	9b c1       	rjmp	.+822    	; 0x2ca0 <usart0_deal+0x44a>
		case SINGLE_SET_NAME:
			get_set_name();
    296a:	0e 94 5f 03 	call	0x6be	; 0x6be <get_set_name>
			break;
    296e:	98 c1       	rjmp	.+816    	; 0x2ca0 <usart0_deal+0x44a>
		case ALL_SET_TEMP:
			all_temp_buff = variable;
    2970:	90 93 81 01 	sts	0x0181, r25	; 0x800181 <all_temp_buff+0x1>
    2974:	80 93 80 01 	sts	0x0180, r24	; 0x800180 <all_temp_buff>
			break;
    2978:	93 c1       	rjmp	.+806    	; 0x2ca0 <usart0_deal+0x44a>
		case SET_PREHEAT_TIME:
			preheat_time_buff = variable;
    297a:	90 93 7f 01 	sts	0x017F, r25	; 0x80017f <preheat_time_buff+0x1>
    297e:	80 93 7e 01 	sts	0x017E, r24	; 0x80017e <preheat_time_buff>
			break;
    2982:	8e c1       	rjmp	.+796    	; 0x2ca0 <usart0_deal+0x44a>
		case ALL_SET_SENSOR_TYPE:
			all_sensor_type_buff = variable;
    2984:	90 93 31 03 	sts	0x0331, r25	; 0x800331 <all_sensor_type_buff+0x1>
    2988:	80 93 30 03 	sts	0x0330, r24	; 0x800330 <all_sensor_type_buff>
			send_variables(ALL_SENSOR_TYPE_ADDR,
    298c:	86 5b       	subi	r24, 0xB6	; 182
    298e:	9f 4f       	sbci	r25, 0xFF	; 255
    2990:	60 e0       	ldi	r22, 0x00	; 0
    2992:	78 2f       	mov	r23, r24
    2994:	84 e9       	ldi	r24, 0x94	; 148
    2996:	92 e0       	ldi	r25, 0x02	; 2
    2998:	0e 94 cb 04 	call	0x996	; 0x996 <send_variables>
						   TYPE_J + (all_sensor_type_buff * TYPE_K));
			break;
    299c:	81 c1       	rjmp	.+770    	; 0x2ca0 <usart0_deal+0x44a>
		case SET_TEMP_UNIT:
			temp_unit_buff = variable;
    299e:	90 93 2f 03 	sts	0x032F, r25	; 0x80032f <temp_unit_buff+0x1>
    29a2:	80 93 2e 03 	sts	0x032E, r24	; 0x80032e <temp_unit_buff>
			send_variables(TEMP_UINT_ADDR,
    29a6:	20 e0       	ldi	r18, 0x00	; 0
    29a8:	33 e0       	ldi	r19, 0x03	; 3
    29aa:	82 9f       	mul	r24, r18
    29ac:	b0 01       	movw	r22, r0
    29ae:	83 9f       	mul	r24, r19
    29b0:	70 0d       	add	r23, r0
    29b2:	92 9f       	mul	r25, r18
    29b4:	70 0d       	add	r23, r0
    29b6:	11 24       	eor	r1, r1
    29b8:	7d 5b       	subi	r23, 0xBD	; 189
    29ba:	8c e3       	ldi	r24, 0x3C	; 60
    29bc:	92 e0       	ldi	r25, 0x02	; 2
    29be:	0e 94 cb 04 	call	0x996	; 0x996 <send_variables>
						   (CELSIUS + temp_unit_buff * FAHRENHEIT));
			break;
    29c2:	6e c1       	rjmp	.+732    	; 0x2ca0 <usart0_deal+0x44a>
//		case PID_CHANNEL:
//			update_pid_page(variable);	//更改屏幕最大为24来改变最大通道数（最好改为按键返回）
//			break;
		case PID_P:
			p_value_buff = variable;
    29c4:	90 93 7d 01 	sts	0x017D, r25	; 0x80017d <p_value_buff+0x1>
    29c8:	80 93 7c 01 	sts	0x017C, r24	; 0x80017c <p_value_buff>
			break;
    29cc:	69 c1       	rjmp	.+722    	; 0x2ca0 <usart0_deal+0x44a>
		case PID_I:
			i_value_buff = variable;
    29ce:	90 93 7b 01 	sts	0x017B, r25	; 0x80017b <i_value_buff+0x1>
    29d2:	80 93 7a 01 	sts	0x017A, r24	; 0x80017a <i_value_buff>
			break;
    29d6:	64 c1       	rjmp	.+712    	; 0x2ca0 <usart0_deal+0x44a>
		case PID_D:
			d_value_buff = variable;
    29d8:	90 93 79 01 	sts	0x0179, r25	; 0x800179 <d_value_buff+0x1>
    29dc:	80 93 78 01 	sts	0x0178, r24	; 0x800178 <d_value_buff>
			break;
    29e0:	5f c1       	rjmp	.+702    	; 0x2ca0 <usart0_deal+0x44a>

		case IQR1_T1:
			time_ctrl_value_buff[module_num - 1][0][0] = variable;
    29e2:	e0 91 71 01 	lds	r30, 0x0171	; 0x800171 <module_num>
    29e6:	20 e4       	ldi	r18, 0x40	; 64
    29e8:	e2 9f       	mul	r30, r18
    29ea:	f0 01       	movw	r30, r0
    29ec:	11 24       	eor	r1, r1
    29ee:	e2 54       	subi	r30, 0x42	; 66
    29f0:	f6 4f       	sbci	r31, 0xF6	; 246
    29f2:	91 83       	std	Z+1, r25	; 0x01
    29f4:	80 83       	st	Z, r24
			break;
    29f6:	54 c1       	rjmp	.+680    	; 0x2ca0 <usart0_deal+0x44a>
		case IQR1_T2:
			time_ctrl_value_buff[module_num - 1][0][1] = variable;
    29f8:	e0 91 71 01 	lds	r30, 0x0171	; 0x800171 <module_num>
    29fc:	20 e4       	ldi	r18, 0x40	; 64
    29fe:	e2 9f       	mul	r30, r18
    2a00:	f0 01       	movw	r30, r0
    2a02:	11 24       	eor	r1, r1
    2a04:	e2 54       	subi	r30, 0x42	; 66
    2a06:	f6 4f       	sbci	r31, 0xF6	; 246
    2a08:	93 83       	std	Z+3, r25	; 0x03
    2a0a:	82 83       	std	Z+2, r24	; 0x02
			break;
    2a0c:	49 c1       	rjmp	.+658    	; 0x2ca0 <usart0_deal+0x44a>
		case IQR1_T3:
			time_ctrl_value_buff[module_num - 1][0][2] = variable;
    2a0e:	e0 91 71 01 	lds	r30, 0x0171	; 0x800171 <module_num>
    2a12:	20 e4       	ldi	r18, 0x40	; 64
    2a14:	e2 9f       	mul	r30, r18
    2a16:	f0 01       	movw	r30, r0
    2a18:	11 24       	eor	r1, r1
    2a1a:	e2 54       	subi	r30, 0x42	; 66
    2a1c:	f6 4f       	sbci	r31, 0xF6	; 246
    2a1e:	95 83       	std	Z+5, r25	; 0x05
    2a20:	84 83       	std	Z+4, r24	; 0x04
			break;
    2a22:	3e c1       	rjmp	.+636    	; 0x2ca0 <usart0_deal+0x44a>
		case IQR1_T4:
			time_ctrl_value_buff[module_num - 1][0][3] = variable;
    2a24:	e0 91 71 01 	lds	r30, 0x0171	; 0x800171 <module_num>
    2a28:	20 e4       	ldi	r18, 0x40	; 64
    2a2a:	e2 9f       	mul	r30, r18
    2a2c:	f0 01       	movw	r30, r0
    2a2e:	11 24       	eor	r1, r1
    2a30:	e2 54       	subi	r30, 0x42	; 66
    2a32:	f6 4f       	sbci	r31, 0xF6	; 246
    2a34:	97 83       	std	Z+7, r25	; 0x07
    2a36:	86 83       	std	Z+6, r24	; 0x06
			break;
    2a38:	33 c1       	rjmp	.+614    	; 0x2ca0 <usart0_deal+0x44a>

		case IQR2_T1:
			time_ctrl_value_buff[module_num - 1][1][0] = variable;
    2a3a:	e0 91 71 01 	lds	r30, 0x0171	; 0x800171 <module_num>
    2a3e:	20 e4       	ldi	r18, 0x40	; 64
    2a40:	e2 9f       	mul	r30, r18
    2a42:	f0 01       	movw	r30, r0
    2a44:	11 24       	eor	r1, r1
    2a46:	e2 54       	subi	r30, 0x42	; 66
    2a48:	f6 4f       	sbci	r31, 0xF6	; 246
    2a4a:	91 87       	std	Z+9, r25	; 0x09
    2a4c:	80 87       	std	Z+8, r24	; 0x08
			break;
    2a4e:	28 c1       	rjmp	.+592    	; 0x2ca0 <usart0_deal+0x44a>
		case IQR2_T2:
			time_ctrl_value_buff[module_num - 1][1][1] = variable;
    2a50:	e0 91 71 01 	lds	r30, 0x0171	; 0x800171 <module_num>
    2a54:	20 e4       	ldi	r18, 0x40	; 64
    2a56:	e2 9f       	mul	r30, r18
    2a58:	f0 01       	movw	r30, r0
    2a5a:	11 24       	eor	r1, r1
    2a5c:	e2 54       	subi	r30, 0x42	; 66
    2a5e:	f6 4f       	sbci	r31, 0xF6	; 246
    2a60:	93 87       	std	Z+11, r25	; 0x0b
    2a62:	82 87       	std	Z+10, r24	; 0x0a
			break;
    2a64:	1d c1       	rjmp	.+570    	; 0x2ca0 <usart0_deal+0x44a>
		case IQR2_T3:
			time_ctrl_value_buff[module_num - 1][1][2] = variable;
    2a66:	e0 91 71 01 	lds	r30, 0x0171	; 0x800171 <module_num>
    2a6a:	20 e4       	ldi	r18, 0x40	; 64
    2a6c:	e2 9f       	mul	r30, r18
    2a6e:	f0 01       	movw	r30, r0
    2a70:	11 24       	eor	r1, r1
    2a72:	e2 54       	subi	r30, 0x42	; 66
    2a74:	f6 4f       	sbci	r31, 0xF6	; 246
    2a76:	95 87       	std	Z+13, r25	; 0x0d
    2a78:	84 87       	std	Z+12, r24	; 0x0c
			break;
    2a7a:	12 c1       	rjmp	.+548    	; 0x2ca0 <usart0_deal+0x44a>
		case IQR2_T4:
			time_ctrl_value_buff[module_num - 1][1][3] = variable;
    2a7c:	e0 91 71 01 	lds	r30, 0x0171	; 0x800171 <module_num>
    2a80:	20 e4       	ldi	r18, 0x40	; 64
    2a82:	e2 9f       	mul	r30, r18
    2a84:	f0 01       	movw	r30, r0
    2a86:	11 24       	eor	r1, r1
    2a88:	e2 54       	subi	r30, 0x42	; 66
    2a8a:	f6 4f       	sbci	r31, 0xF6	; 246
    2a8c:	97 87       	std	Z+15, r25	; 0x0f
    2a8e:	86 87       	std	Z+14, r24	; 0x0e
			break;
    2a90:	07 c1       	rjmp	.+526    	; 0x2ca0 <usart0_deal+0x44a>

		case IQR3_T1:
			time_ctrl_value_buff[module_num - 1][2][0] = variable;
    2a92:	e0 91 71 01 	lds	r30, 0x0171	; 0x800171 <module_num>
    2a96:	20 e4       	ldi	r18, 0x40	; 64
    2a98:	e2 9f       	mul	r30, r18
    2a9a:	f0 01       	movw	r30, r0
    2a9c:	11 24       	eor	r1, r1
    2a9e:	e2 54       	subi	r30, 0x42	; 66
    2aa0:	f6 4f       	sbci	r31, 0xF6	; 246
    2aa2:	91 8b       	std	Z+17, r25	; 0x11
    2aa4:	80 8b       	std	Z+16, r24	; 0x10
			break;
    2aa6:	fc c0       	rjmp	.+504    	; 0x2ca0 <usart0_deal+0x44a>
		case IQR3_T2:
			time_ctrl_value_buff[module_num - 1][2][1] = variable;
    2aa8:	e0 91 71 01 	lds	r30, 0x0171	; 0x800171 <module_num>
    2aac:	20 e4       	ldi	r18, 0x40	; 64
    2aae:	e2 9f       	mul	r30, r18
    2ab0:	f0 01       	movw	r30, r0
    2ab2:	11 24       	eor	r1, r1
    2ab4:	e2 54       	subi	r30, 0x42	; 66
    2ab6:	f6 4f       	sbci	r31, 0xF6	; 246
    2ab8:	93 8b       	std	Z+19, r25	; 0x13
    2aba:	82 8b       	std	Z+18, r24	; 0x12
			break;
    2abc:	f1 c0       	rjmp	.+482    	; 0x2ca0 <usart0_deal+0x44a>
		case IQR3_T3:
			time_ctrl_value_buff[module_num - 1][2][2] = variable;
    2abe:	e0 91 71 01 	lds	r30, 0x0171	; 0x800171 <module_num>
    2ac2:	20 e4       	ldi	r18, 0x40	; 64
    2ac4:	e2 9f       	mul	r30, r18
    2ac6:	f0 01       	movw	r30, r0
    2ac8:	11 24       	eor	r1, r1
    2aca:	e2 54       	subi	r30, 0x42	; 66
    2acc:	f6 4f       	sbci	r31, 0xF6	; 246
    2ace:	95 8b       	std	Z+21, r25	; 0x15
    2ad0:	84 8b       	std	Z+20, r24	; 0x14
			break;
    2ad2:	e6 c0       	rjmp	.+460    	; 0x2ca0 <usart0_deal+0x44a>
		case IQR3_T4:
			time_ctrl_value_buff[module_num - 1][2][3] = variable;
    2ad4:	e0 91 71 01 	lds	r30, 0x0171	; 0x800171 <module_num>
    2ad8:	20 e4       	ldi	r18, 0x40	; 64
    2ada:	e2 9f       	mul	r30, r18
    2adc:	f0 01       	movw	r30, r0
    2ade:	11 24       	eor	r1, r1
    2ae0:	e2 54       	subi	r30, 0x42	; 66
    2ae2:	f6 4f       	sbci	r31, 0xF6	; 246
    2ae4:	97 8b       	std	Z+23, r25	; 0x17
    2ae6:	86 8b       	std	Z+22, r24	; 0x16
			break;
    2ae8:	db c0       	rjmp	.+438    	; 0x2ca0 <usart0_deal+0x44a>

		case IQR4_T1:
			time_ctrl_value_buff[module_num - 1][3][0] = variable;
    2aea:	e0 91 71 01 	lds	r30, 0x0171	; 0x800171 <module_num>
    2aee:	20 e4       	ldi	r18, 0x40	; 64
    2af0:	e2 9f       	mul	r30, r18
    2af2:	f0 01       	movw	r30, r0
    2af4:	11 24       	eor	r1, r1
    2af6:	e2 54       	subi	r30, 0x42	; 66
    2af8:	f6 4f       	sbci	r31, 0xF6	; 246
    2afa:	91 8f       	std	Z+25, r25	; 0x19
    2afc:	80 8f       	std	Z+24, r24	; 0x18
			break;
    2afe:	d0 c0       	rjmp	.+416    	; 0x2ca0 <usart0_deal+0x44a>
		case IQR4_T2:
			time_ctrl_value_buff[module_num - 1][3][1] = variable;
    2b00:	e0 91 71 01 	lds	r30, 0x0171	; 0x800171 <module_num>
    2b04:	20 e4       	ldi	r18, 0x40	; 64
    2b06:	e2 9f       	mul	r30, r18
    2b08:	f0 01       	movw	r30, r0
    2b0a:	11 24       	eor	r1, r1
    2b0c:	e2 54       	subi	r30, 0x42	; 66
    2b0e:	f6 4f       	sbci	r31, 0xF6	; 246
    2b10:	93 8f       	std	Z+27, r25	; 0x1b
    2b12:	82 8f       	std	Z+26, r24	; 0x1a
			break;
    2b14:	c5 c0       	rjmp	.+394    	; 0x2ca0 <usart0_deal+0x44a>
		case IQR4_T3:
			time_ctrl_value_buff[module_num - 1][3][2] = variable;
    2b16:	e0 91 71 01 	lds	r30, 0x0171	; 0x800171 <module_num>
    2b1a:	20 e4       	ldi	r18, 0x40	; 64
    2b1c:	e2 9f       	mul	r30, r18
    2b1e:	f0 01       	movw	r30, r0
    2b20:	11 24       	eor	r1, r1
    2b22:	e2 54       	subi	r30, 0x42	; 66
    2b24:	f6 4f       	sbci	r31, 0xF6	; 246
    2b26:	95 8f       	std	Z+29, r25	; 0x1d
    2b28:	84 8f       	std	Z+28, r24	; 0x1c
			break;
    2b2a:	ba c0       	rjmp	.+372    	; 0x2ca0 <usart0_deal+0x44a>
		case IQR4_T4:
			time_ctrl_value_buff[module_num - 1][3][3] = variable;
    2b2c:	e0 91 71 01 	lds	r30, 0x0171	; 0x800171 <module_num>
    2b30:	20 e4       	ldi	r18, 0x40	; 64
    2b32:	e2 9f       	mul	r30, r18
    2b34:	f0 01       	movw	r30, r0
    2b36:	11 24       	eor	r1, r1
    2b38:	e2 54       	subi	r30, 0x42	; 66
    2b3a:	f6 4f       	sbci	r31, 0xF6	; 246
    2b3c:	97 8f       	std	Z+31, r25	; 0x1f
    2b3e:	86 8f       	std	Z+30, r24	; 0x1e
			break;
    2b40:	af c0       	rjmp	.+350    	; 0x2ca0 <usart0_deal+0x44a>

		case IQR5_T1:
			time_ctrl_value_buff[module_num - 1][4][0] = variable;
    2b42:	e0 91 71 01 	lds	r30, 0x0171	; 0x800171 <module_num>
    2b46:	20 e4       	ldi	r18, 0x40	; 64
    2b48:	e2 9f       	mul	r30, r18
    2b4a:	f0 01       	movw	r30, r0
    2b4c:	11 24       	eor	r1, r1
    2b4e:	e2 54       	subi	r30, 0x42	; 66
    2b50:	f6 4f       	sbci	r31, 0xF6	; 246
    2b52:	91 a3       	std	Z+33, r25	; 0x21
    2b54:	80 a3       	std	Z+32, r24	; 0x20
			break;
    2b56:	a4 c0       	rjmp	.+328    	; 0x2ca0 <usart0_deal+0x44a>
		case IQR5_T2:
			time_ctrl_value_buff[module_num - 1][4][1] = variable;
    2b58:	e0 91 71 01 	lds	r30, 0x0171	; 0x800171 <module_num>
    2b5c:	20 e4       	ldi	r18, 0x40	; 64
    2b5e:	e2 9f       	mul	r30, r18
    2b60:	f0 01       	movw	r30, r0
    2b62:	11 24       	eor	r1, r1
    2b64:	e2 54       	subi	r30, 0x42	; 66
    2b66:	f6 4f       	sbci	r31, 0xF6	; 246
    2b68:	93 a3       	std	Z+35, r25	; 0x23
    2b6a:	82 a3       	std	Z+34, r24	; 0x22
			break;
    2b6c:	99 c0       	rjmp	.+306    	; 0x2ca0 <usart0_deal+0x44a>
		case IQR5_T3:
			time_ctrl_value_buff[module_num - 1][4][2] = variable;
    2b6e:	e0 91 71 01 	lds	r30, 0x0171	; 0x800171 <module_num>
    2b72:	20 e4       	ldi	r18, 0x40	; 64
    2b74:	e2 9f       	mul	r30, r18
    2b76:	f0 01       	movw	r30, r0
    2b78:	11 24       	eor	r1, r1
    2b7a:	e2 54       	subi	r30, 0x42	; 66
    2b7c:	f6 4f       	sbci	r31, 0xF6	; 246
    2b7e:	95 a3       	std	Z+37, r25	; 0x25
    2b80:	84 a3       	std	Z+36, r24	; 0x24
			break;
    2b82:	8e c0       	rjmp	.+284    	; 0x2ca0 <usart0_deal+0x44a>
		case IQR5_T4:
			time_ctrl_value_buff[module_num - 1][4][3] = variable;
    2b84:	e0 91 71 01 	lds	r30, 0x0171	; 0x800171 <module_num>
    2b88:	20 e4       	ldi	r18, 0x40	; 64
    2b8a:	e2 9f       	mul	r30, r18
    2b8c:	f0 01       	movw	r30, r0
    2b8e:	11 24       	eor	r1, r1
    2b90:	e2 54       	subi	r30, 0x42	; 66
    2b92:	f6 4f       	sbci	r31, 0xF6	; 246
    2b94:	97 a3       	std	Z+39, r25	; 0x27
    2b96:	86 a3       	std	Z+38, r24	; 0x26
			break;
    2b98:	83 c0       	rjmp	.+262    	; 0x2ca0 <usart0_deal+0x44a>

		case IQR6_T1:
			time_ctrl_value_buff[module_num - 1][5][0] = variable;
    2b9a:	e0 91 71 01 	lds	r30, 0x0171	; 0x800171 <module_num>
    2b9e:	20 e4       	ldi	r18, 0x40	; 64
    2ba0:	e2 9f       	mul	r30, r18
    2ba2:	f0 01       	movw	r30, r0
    2ba4:	11 24       	eor	r1, r1
    2ba6:	e2 54       	subi	r30, 0x42	; 66
    2ba8:	f6 4f       	sbci	r31, 0xF6	; 246
    2baa:	91 a7       	std	Z+41, r25	; 0x29
    2bac:	80 a7       	std	Z+40, r24	; 0x28
			break;
    2bae:	78 c0       	rjmp	.+240    	; 0x2ca0 <usart0_deal+0x44a>
		case IQR6_T2:
			time_ctrl_value_buff[module_num - 1][5][1] = variable;
    2bb0:	e0 91 71 01 	lds	r30, 0x0171	; 0x800171 <module_num>
    2bb4:	20 e4       	ldi	r18, 0x40	; 64
    2bb6:	e2 9f       	mul	r30, r18
    2bb8:	f0 01       	movw	r30, r0
    2bba:	11 24       	eor	r1, r1
    2bbc:	e2 54       	subi	r30, 0x42	; 66
    2bbe:	f6 4f       	sbci	r31, 0xF6	; 246
    2bc0:	93 a7       	std	Z+43, r25	; 0x2b
    2bc2:	82 a7       	std	Z+42, r24	; 0x2a
			break;
    2bc4:	6d c0       	rjmp	.+218    	; 0x2ca0 <usart0_deal+0x44a>
		case IQR6_T3:
			time_ctrl_value_buff[module_num - 1][5][2] = variable;
    2bc6:	e0 91 71 01 	lds	r30, 0x0171	; 0x800171 <module_num>
    2bca:	20 e4       	ldi	r18, 0x40	; 64
    2bcc:	e2 9f       	mul	r30, r18
    2bce:	f0 01       	movw	r30, r0
    2bd0:	11 24       	eor	r1, r1
    2bd2:	e2 54       	subi	r30, 0x42	; 66
    2bd4:	f6 4f       	sbci	r31, 0xF6	; 246
    2bd6:	95 a7       	std	Z+45, r25	; 0x2d
    2bd8:	84 a7       	std	Z+44, r24	; 0x2c
			break;
    2bda:	62 c0       	rjmp	.+196    	; 0x2ca0 <usart0_deal+0x44a>
		case IQR6_T4:
			time_ctrl_value_buff[module_num - 1][5][3] = variable;
    2bdc:	e0 91 71 01 	lds	r30, 0x0171	; 0x800171 <module_num>
    2be0:	20 e4       	ldi	r18, 0x40	; 64
    2be2:	e2 9f       	mul	r30, r18
    2be4:	f0 01       	movw	r30, r0
    2be6:	11 24       	eor	r1, r1
    2be8:	e2 54       	subi	r30, 0x42	; 66
    2bea:	f6 4f       	sbci	r31, 0xF6	; 246
    2bec:	97 a7       	std	Z+47, r25	; 0x2f
    2bee:	86 a7       	std	Z+46, r24	; 0x2e
			break;
    2bf0:	57 c0       	rjmp	.+174    	; 0x2ca0 <usart0_deal+0x44a>

		case IQR7_T1:
			time_ctrl_value_buff[module_num - 1][6][0] = variable;
    2bf2:	e0 91 71 01 	lds	r30, 0x0171	; 0x800171 <module_num>
    2bf6:	20 e4       	ldi	r18, 0x40	; 64
    2bf8:	e2 9f       	mul	r30, r18
    2bfa:	f0 01       	movw	r30, r0
    2bfc:	11 24       	eor	r1, r1
    2bfe:	e2 54       	subi	r30, 0x42	; 66
    2c00:	f6 4f       	sbci	r31, 0xF6	; 246
    2c02:	91 ab       	std	Z+49, r25	; 0x31
    2c04:	80 ab       	std	Z+48, r24	; 0x30
			break;
    2c06:	4c c0       	rjmp	.+152    	; 0x2ca0 <usart0_deal+0x44a>
		case IQR7_T2:
			time_ctrl_value_buff[module_num - 1][6][1] = variable;
    2c08:	e0 91 71 01 	lds	r30, 0x0171	; 0x800171 <module_num>
    2c0c:	20 e4       	ldi	r18, 0x40	; 64
    2c0e:	e2 9f       	mul	r30, r18
    2c10:	f0 01       	movw	r30, r0
    2c12:	11 24       	eor	r1, r1
    2c14:	e2 54       	subi	r30, 0x42	; 66
    2c16:	f6 4f       	sbci	r31, 0xF6	; 246
    2c18:	93 ab       	std	Z+51, r25	; 0x33
    2c1a:	82 ab       	std	Z+50, r24	; 0x32
			break;
    2c1c:	41 c0       	rjmp	.+130    	; 0x2ca0 <usart0_deal+0x44a>
		case IQR7_T3:
			time_ctrl_value_buff[module_num - 1][6][2] = variable;
    2c1e:	e0 91 71 01 	lds	r30, 0x0171	; 0x800171 <module_num>
    2c22:	20 e4       	ldi	r18, 0x40	; 64
    2c24:	e2 9f       	mul	r30, r18
    2c26:	f0 01       	movw	r30, r0
    2c28:	11 24       	eor	r1, r1
    2c2a:	e2 54       	subi	r30, 0x42	; 66
    2c2c:	f6 4f       	sbci	r31, 0xF6	; 246
    2c2e:	95 ab       	std	Z+53, r25	; 0x35
    2c30:	84 ab       	std	Z+52, r24	; 0x34
			break;
    2c32:	36 c0       	rjmp	.+108    	; 0x2ca0 <usart0_deal+0x44a>
		case IQR7_T4:
			time_ctrl_value_buff[module_num - 1][6][3] = variable;
    2c34:	e0 91 71 01 	lds	r30, 0x0171	; 0x800171 <module_num>
    2c38:	20 e4       	ldi	r18, 0x40	; 64
    2c3a:	e2 9f       	mul	r30, r18
    2c3c:	f0 01       	movw	r30, r0
    2c3e:	11 24       	eor	r1, r1
    2c40:	e2 54       	subi	r30, 0x42	; 66
    2c42:	f6 4f       	sbci	r31, 0xF6	; 246
    2c44:	97 ab       	std	Z+55, r25	; 0x37
    2c46:	86 ab       	std	Z+54, r24	; 0x36
			break;
    2c48:	2b c0       	rjmp	.+86     	; 0x2ca0 <usart0_deal+0x44a>

		case IQR8_T1:
			time_ctrl_value_buff[module_num - 1][7][0] = variable;
    2c4a:	e0 91 71 01 	lds	r30, 0x0171	; 0x800171 <module_num>
    2c4e:	20 e4       	ldi	r18, 0x40	; 64
    2c50:	e2 9f       	mul	r30, r18
    2c52:	f0 01       	movw	r30, r0
    2c54:	11 24       	eor	r1, r1
    2c56:	e2 54       	subi	r30, 0x42	; 66
    2c58:	f6 4f       	sbci	r31, 0xF6	; 246
    2c5a:	91 af       	std	Z+57, r25	; 0x39
    2c5c:	80 af       	std	Z+56, r24	; 0x38
			break;
    2c5e:	20 c0       	rjmp	.+64     	; 0x2ca0 <usart0_deal+0x44a>
		case IQR8_T2:
			time_ctrl_value_buff[module_num - 1][7][1] = variable;
    2c60:	e0 91 71 01 	lds	r30, 0x0171	; 0x800171 <module_num>
    2c64:	20 e4       	ldi	r18, 0x40	; 64
    2c66:	e2 9f       	mul	r30, r18
    2c68:	f0 01       	movw	r30, r0
    2c6a:	11 24       	eor	r1, r1
    2c6c:	e2 54       	subi	r30, 0x42	; 66
    2c6e:	f6 4f       	sbci	r31, 0xF6	; 246
    2c70:	93 af       	std	Z+59, r25	; 0x3b
    2c72:	82 af       	std	Z+58, r24	; 0x3a
			break;
    2c74:	15 c0       	rjmp	.+42     	; 0x2ca0 <usart0_deal+0x44a>
		case IQR8_T3:
			time_ctrl_value_buff[module_num - 1][7][2] = variable;
    2c76:	e0 91 71 01 	lds	r30, 0x0171	; 0x800171 <module_num>
    2c7a:	20 e4       	ldi	r18, 0x40	; 64
    2c7c:	e2 9f       	mul	r30, r18
    2c7e:	f0 01       	movw	r30, r0
    2c80:	11 24       	eor	r1, r1
    2c82:	e2 54       	subi	r30, 0x42	; 66
    2c84:	f6 4f       	sbci	r31, 0xF6	; 246
    2c86:	95 af       	std	Z+61, r25	; 0x3d
    2c88:	84 af       	std	Z+60, r24	; 0x3c
			break;
    2c8a:	0a c0       	rjmp	.+20     	; 0x2ca0 <usart0_deal+0x44a>
		case IQR8_T4:
			time_ctrl_value_buff[module_num - 1][7][3] = variable;
    2c8c:	e0 91 71 01 	lds	r30, 0x0171	; 0x800171 <module_num>
    2c90:	20 e4       	ldi	r18, 0x40	; 64
    2c92:	e2 9f       	mul	r30, r18
    2c94:	f0 01       	movw	r30, r0
    2c96:	11 24       	eor	r1, r1
    2c98:	e2 54       	subi	r30, 0x42	; 66
    2c9a:	f6 4f       	sbci	r31, 0xF6	; 246
    2c9c:	97 af       	std	Z+63, r25	; 0x3f
    2c9e:	86 af       	std	Z+62, r24	; 0x3e
			break;
		}
	}

	return 0;
}
    2ca0:	80 e0       	ldi	r24, 0x00	; 0
    2ca2:	90 e0       	ldi	r25, 0x00	; 0
    2ca4:	df 91       	pop	r29
    2ca6:	cf 91       	pop	r28
    2ca8:	08 95       	ret

00002caa <usart0_init>:
	return crc;
}

void usart0_init(uint16_t ubrr0) //屏幕通讯使用
{
	USART0_TX_PIN_OUTPUT;
    2caa:	11 9a       	sbi	0x02, 1	; 2
	USART0_RX_PIN_INPUT; //配置引脚方向
    2cac:	10 98       	cbi	0x02, 0	; 2

	UBRR0H = (uint8_t)(ubrr0 >> 8);
    2cae:	90 93 90 00 	sts	0x0090, r25	; 0x800090 <__TEXT_REGION_LENGTH__+0x7e0090>
	UBRR0L = (uint8_t)ubrr0;
    2cb2:	89 b9       	out	0x09, r24	; 9

	//	UBRR0H = 0;
	//	UBRR0L = 103;									//波特率9600，晶振16M
	UCSR0C |= (1 << UCSZ01) | (1 << UCSZ00);			   // Set frame format: 8data, 1stop bit 无校验,异步正常模式
    2cb4:	e5 e9       	ldi	r30, 0x95	; 149
    2cb6:	f0 e0       	ldi	r31, 0x00	; 0
    2cb8:	80 81       	ld	r24, Z
    2cba:	86 60       	ori	r24, 0x06	; 6
    2cbc:	80 83       	st	Z, r24
	UCSR0B |= (1 << RXEN0) | (1 << TXEN0) | (1 << RXCIE0); //使能发送、接收；使能接收中断
    2cbe:	8a b1       	in	r24, 0x0a	; 10
    2cc0:	88 69       	ori	r24, 0x98	; 152
    2cc2:	8a b9       	out	0x0a, r24	; 10
    2cc4:	08 95       	ret

00002cc6 <usart1_init>:
}

void usart1_init(uint16_t ubrr1) //设备通讯使用
{
	USART1_TX_PIN_OUTPUT;
    2cc6:	8b 9a       	sbi	0x11, 3	; 17
	USART1_RX_PIN_INPUT; //配置引脚方向
    2cc8:	8a 98       	cbi	0x11, 2	; 17

	UBRR1H = (uint8_t)(ubrr1 >> 8);
    2cca:	90 93 98 00 	sts	0x0098, r25	; 0x800098 <__TEXT_REGION_LENGTH__+0x7e0098>
	UBRR1L = (uint8_t)ubrr1;
    2cce:	80 93 99 00 	sts	0x0099, r24	; 0x800099 <__TEXT_REGION_LENGTH__+0x7e0099>

	//	UBRR1H = 0;
	//	UBRR1L = 103;						//波特率9600，晶振16M
	UCSR1C = (1 << UCSZ11) | (1 << UCSZ10);				  // Set frame format: 8data, 1stop bit 无校验
    2cd2:	86 e0       	ldi	r24, 0x06	; 6
    2cd4:	80 93 9d 00 	sts	0x009D, r24	; 0x80009d <__TEXT_REGION_LENGTH__+0x7e009d>
	UCSR1B = (1 << RXEN1) | (1 << TXEN1) | (1 << RXCIE1); //使能接收,发送
    2cd8:	88 e9       	ldi	r24, 0x98	; 152
    2cda:	80 93 9a 00 	sts	0x009A, r24	; 0x80009a <__TEXT_REGION_LENGTH__+0x7e009a>
    2cde:	08 95       	ret

00002ce0 <usart2_init>:

/*使用IO口+TIMER3模拟串口*/
void usart2_init(uint16_t baud)
{
	/*io口模拟uart相关IO初始化*/
	USART2_TX_PIN_OUTPUT; //TX脚配置为输出
    2ce0:	a7 9a       	sbi	0x14, 7	; 20
	USART2_RX_PIN_INPUT;
    2ce2:	a6 98       	cbi	0x14, 6	; 20
	USART2_RX_PIN_PULLUP; //RX配置为输入上拉
    2ce4:	ae 9a       	sbi	0x15, 6	; 21

	USART2_TX_PIN_SET; //TX脚输出高
    2ce6:	af 9a       	sbi	0x15, 7	; 21

	TCCR3B |= 0x08; //WGM32位置1
    2ce8:	ea e8       	ldi	r30, 0x8A	; 138
    2cea:	f0 e0       	ldi	r31, 0x00	; 0
    2cec:	20 81       	ld	r18, Z
    2cee:	28 60       	ori	r18, 0x08	; 8
    2cf0:	20 83       	st	Z, r18
	TCCR3B &= 0xF8; //关闭定时器（清除时钟选择位 CS30 CS31 CS32）
    2cf2:	20 81       	ld	r18, Z
    2cf4:	28 7f       	andi	r18, 0xF8	; 248
    2cf6:	20 83       	st	Z, r18

	OCR3A = 16000000UL / baud; //定时时间为波特率的1/2（这里不启动定时器，启动时需要定时器时钟不分频 TCCR3B |= 0x01）
    2cf8:	9c 01       	movw	r18, r24
    2cfa:	40 e0       	ldi	r20, 0x00	; 0
    2cfc:	50 e0       	ldi	r21, 0x00	; 0
    2cfe:	60 e0       	ldi	r22, 0x00	; 0
    2d00:	74 e2       	ldi	r23, 0x24	; 36
    2d02:	84 ef       	ldi	r24, 0xF4	; 244
    2d04:	90 e0       	ldi	r25, 0x00	; 0
    2d06:	0e 94 a3 16 	call	0x2d46	; 0x2d46 <__udivmodsi4>
    2d0a:	30 93 87 00 	sts	0x0087, r19	; 0x800087 <__TEXT_REGION_LENGTH__+0x7e0087>
    2d0e:	20 93 86 00 	sts	0x0086, r18	; 0x800086 <__TEXT_REGION_LENGTH__+0x7e0086>

	ETIMSK |= 0x10; //定时器3 A输出比较中断使能
    2d12:	ed e7       	ldi	r30, 0x7D	; 125
    2d14:	f0 e0       	ldi	r31, 0x00	; 0
    2d16:	80 81       	ld	r24, Z
    2d18:	80 61       	ori	r24, 0x10	; 16
    2d1a:	80 83       	st	Z, r24
    2d1c:	08 95       	ret

00002d1e <__divmodhi4>:
    2d1e:	97 fb       	bst	r25, 7
    2d20:	07 2e       	mov	r0, r23
    2d22:	16 f4       	brtc	.+4      	; 0x2d28 <__divmodhi4+0xa>
    2d24:	00 94       	com	r0
    2d26:	07 d0       	rcall	.+14     	; 0x2d36 <__divmodhi4_neg1>
    2d28:	77 fd       	sbrc	r23, 7
    2d2a:	09 d0       	rcall	.+18     	; 0x2d3e <__divmodhi4_neg2>
    2d2c:	0e 94 e5 16 	call	0x2dca	; 0x2dca <__udivmodhi4>
    2d30:	07 fc       	sbrc	r0, 7
    2d32:	05 d0       	rcall	.+10     	; 0x2d3e <__divmodhi4_neg2>
    2d34:	3e f4       	brtc	.+14     	; 0x2d44 <__divmodhi4_exit>

00002d36 <__divmodhi4_neg1>:
    2d36:	90 95       	com	r25
    2d38:	81 95       	neg	r24
    2d3a:	9f 4f       	sbci	r25, 0xFF	; 255
    2d3c:	08 95       	ret

00002d3e <__divmodhi4_neg2>:
    2d3e:	70 95       	com	r23
    2d40:	61 95       	neg	r22
    2d42:	7f 4f       	sbci	r23, 0xFF	; 255

00002d44 <__divmodhi4_exit>:
    2d44:	08 95       	ret

00002d46 <__udivmodsi4>:
    2d46:	a1 e2       	ldi	r26, 0x21	; 33
    2d48:	1a 2e       	mov	r1, r26
    2d4a:	aa 1b       	sub	r26, r26
    2d4c:	bb 1b       	sub	r27, r27
    2d4e:	fd 01       	movw	r30, r26
    2d50:	0d c0       	rjmp	.+26     	; 0x2d6c <__udivmodsi4_ep>

00002d52 <__udivmodsi4_loop>:
    2d52:	aa 1f       	adc	r26, r26
    2d54:	bb 1f       	adc	r27, r27
    2d56:	ee 1f       	adc	r30, r30
    2d58:	ff 1f       	adc	r31, r31
    2d5a:	a2 17       	cp	r26, r18
    2d5c:	b3 07       	cpc	r27, r19
    2d5e:	e4 07       	cpc	r30, r20
    2d60:	f5 07       	cpc	r31, r21
    2d62:	20 f0       	brcs	.+8      	; 0x2d6c <__udivmodsi4_ep>
    2d64:	a2 1b       	sub	r26, r18
    2d66:	b3 0b       	sbc	r27, r19
    2d68:	e4 0b       	sbc	r30, r20
    2d6a:	f5 0b       	sbc	r31, r21

00002d6c <__udivmodsi4_ep>:
    2d6c:	66 1f       	adc	r22, r22
    2d6e:	77 1f       	adc	r23, r23
    2d70:	88 1f       	adc	r24, r24
    2d72:	99 1f       	adc	r25, r25
    2d74:	1a 94       	dec	r1
    2d76:	69 f7       	brne	.-38     	; 0x2d52 <__udivmodsi4_loop>
    2d78:	60 95       	com	r22
    2d7a:	70 95       	com	r23
    2d7c:	80 95       	com	r24
    2d7e:	90 95       	com	r25
    2d80:	9b 01       	movw	r18, r22
    2d82:	ac 01       	movw	r20, r24
    2d84:	bd 01       	movw	r22, r26
    2d86:	cf 01       	movw	r24, r30
    2d88:	08 95       	ret

00002d8a <__tablejump2__>:
    2d8a:	ee 0f       	add	r30, r30
    2d8c:	ff 1f       	adc	r31, r31
    2d8e:	05 90       	lpm	r0, Z+
    2d90:	f4 91       	lpm	r31, Z
    2d92:	e0 2d       	mov	r30, r0
    2d94:	09 94       	ijmp

00002d96 <__umulhisi3>:
    2d96:	a2 9f       	mul	r26, r18
    2d98:	b0 01       	movw	r22, r0
    2d9a:	b3 9f       	mul	r27, r19
    2d9c:	c0 01       	movw	r24, r0
    2d9e:	a3 9f       	mul	r26, r19
    2da0:	70 0d       	add	r23, r0
    2da2:	81 1d       	adc	r24, r1
    2da4:	11 24       	eor	r1, r1
    2da6:	91 1d       	adc	r25, r1
    2da8:	b2 9f       	mul	r27, r18
    2daa:	70 0d       	add	r23, r0
    2dac:	81 1d       	adc	r24, r1
    2dae:	11 24       	eor	r1, r1
    2db0:	91 1d       	adc	r25, r1
    2db2:	08 95       	ret

00002db4 <__muluhisi3>:
    2db4:	0e 94 cb 16 	call	0x2d96	; 0x2d96 <__umulhisi3>
    2db8:	a5 9f       	mul	r26, r21
    2dba:	90 0d       	add	r25, r0
    2dbc:	b4 9f       	mul	r27, r20
    2dbe:	90 0d       	add	r25, r0
    2dc0:	a4 9f       	mul	r26, r20
    2dc2:	80 0d       	add	r24, r0
    2dc4:	91 1d       	adc	r25, r1
    2dc6:	11 24       	eor	r1, r1
    2dc8:	08 95       	ret

00002dca <__udivmodhi4>:
    2dca:	aa 1b       	sub	r26, r26
    2dcc:	bb 1b       	sub	r27, r27
    2dce:	51 e1       	ldi	r21, 0x11	; 17
    2dd0:	07 c0       	rjmp	.+14     	; 0x2de0 <__udivmodhi4_ep>

00002dd2 <__udivmodhi4_loop>:
    2dd2:	aa 1f       	adc	r26, r26
    2dd4:	bb 1f       	adc	r27, r27
    2dd6:	a6 17       	cp	r26, r22
    2dd8:	b7 07       	cpc	r27, r23
    2dda:	10 f0       	brcs	.+4      	; 0x2de0 <__udivmodhi4_ep>
    2ddc:	a6 1b       	sub	r26, r22
    2dde:	b7 0b       	sbc	r27, r23

00002de0 <__udivmodhi4_ep>:
    2de0:	88 1f       	adc	r24, r24
    2de2:	99 1f       	adc	r25, r25
    2de4:	5a 95       	dec	r21
    2de6:	a9 f7       	brne	.-22     	; 0x2dd2 <__udivmodhi4_loop>
    2de8:	80 95       	com	r24
    2dea:	90 95       	com	r25
    2dec:	bc 01       	movw	r22, r24
    2dee:	cd 01       	movw	r24, r26
    2df0:	08 95       	ret

00002df2 <eeprom_read_byte>:
    2df2:	e1 99       	sbic	0x1c, 1	; 28
    2df4:	fe cf       	rjmp	.-4      	; 0x2df2 <eeprom_read_byte>
    2df6:	9f bb       	out	0x1f, r25	; 31
    2df8:	8e bb       	out	0x1e, r24	; 30
    2dfa:	e0 9a       	sbi	0x1c, 0	; 28
    2dfc:	99 27       	eor	r25, r25
    2dfe:	8d b3       	in	r24, 0x1d	; 29
    2e00:	08 95       	ret

00002e02 <eeprom_read_word>:
    2e02:	a8 e1       	ldi	r26, 0x18	; 24
    2e04:	b0 e0       	ldi	r27, 0x00	; 0
    2e06:	42 e0       	ldi	r20, 0x02	; 2
    2e08:	50 e0       	ldi	r21, 0x00	; 0
    2e0a:	0c 94 1b 17 	jmp	0x2e36	; 0x2e36 <eeprom_read_blraw>

00002e0e <eeprom_write_byte>:
    2e0e:	26 2f       	mov	r18, r22

00002e10 <eeprom_write_r18>:
    2e10:	e1 99       	sbic	0x1c, 1	; 28
    2e12:	fe cf       	rjmp	.-4      	; 0x2e10 <eeprom_write_r18>
    2e14:	9f bb       	out	0x1f, r25	; 31
    2e16:	8e bb       	out	0x1e, r24	; 30
    2e18:	2d bb       	out	0x1d, r18	; 29
    2e1a:	0f b6       	in	r0, 0x3f	; 63
    2e1c:	f8 94       	cli
    2e1e:	e2 9a       	sbi	0x1c, 2	; 28
    2e20:	e1 9a       	sbi	0x1c, 1	; 28
    2e22:	0f be       	out	0x3f, r0	; 63
    2e24:	01 96       	adiw	r24, 0x01	; 1
    2e26:	08 95       	ret

00002e28 <eeprom_write_word>:
    2e28:	0e 94 07 17 	call	0x2e0e	; 0x2e0e <eeprom_write_byte>
    2e2c:	27 2f       	mov	r18, r23
    2e2e:	0c 94 08 17 	jmp	0x2e10	; 0x2e10 <eeprom_write_r18>

00002e32 <eeprom_read_block>:
    2e32:	dc 01       	movw	r26, r24
    2e34:	cb 01       	movw	r24, r22

00002e36 <eeprom_read_blraw>:
    2e36:	fc 01       	movw	r30, r24
    2e38:	e1 99       	sbic	0x1c, 1	; 28
    2e3a:	fe cf       	rjmp	.-4      	; 0x2e38 <eeprom_read_blraw+0x2>
    2e3c:	06 c0       	rjmp	.+12     	; 0x2e4a <eeprom_read_blraw+0x14>
    2e3e:	ff bb       	out	0x1f, r31	; 31
    2e40:	ee bb       	out	0x1e, r30	; 30
    2e42:	e0 9a       	sbi	0x1c, 0	; 28
    2e44:	31 96       	adiw	r30, 0x01	; 1
    2e46:	0d b2       	in	r0, 0x1d	; 29
    2e48:	0d 92       	st	X+, r0
    2e4a:	41 50       	subi	r20, 0x01	; 1
    2e4c:	50 40       	sbci	r21, 0x00	; 0
    2e4e:	b8 f7       	brcc	.-18     	; 0x2e3e <eeprom_read_blraw+0x8>
    2e50:	08 95       	ret

00002e52 <_exit>:
    2e52:	f8 94       	cli

00002e54 <__stop_program>:
    2e54:	ff cf       	rjmp	.-2      	; 0x2e54 <__stop_program>
