
TempCtrlBoxCoreBoard.elf:     file format elf32-avr

Sections:
Idx Name          Size      VMA       LMA       File off  Algn
  0 .data         00000096  00800100  0000515c  000051f0  2**0
                  CONTENTS, ALLOC, LOAD, DATA
  1 .text         0000515c  00000000  00000000  00000094  2**1
                  CONTENTS, ALLOC, LOAD, READONLY, CODE
  2 .bss          00000a9e  00800196  00800196  00005286  2**0
                  ALLOC
  3 .comment      00000030  00000000  00000000  00005286  2**0
                  CONTENTS, READONLY
  4 .note.gnu.avr.deviceinfo 0000003c  00000000  00000000  000052b8  2**2
                  CONTENTS, READONLY
  5 .debug_aranges 000003b0  00000000  00000000  000052f8  2**3
                  CONTENTS, READONLY, DEBUGGING
  6 .debug_info   0000299a  00000000  00000000  000056a8  2**0
                  CONTENTS, READONLY, DEBUGGING
  7 .debug_abbrev 00000f09  00000000  00000000  00008042  2**0
                  CONTENTS, READONLY, DEBUGGING
  8 .debug_line   00002d90  00000000  00000000  00008f4b  2**0
                  CONTENTS, READONLY, DEBUGGING
  9 .debug_frame  00000b4c  00000000  00000000  0000bcdc  2**2
                  CONTENTS, READONLY, DEBUGGING
 10 .debug_str    00000e50  00000000  00000000  0000c828  2**0
                  CONTENTS, READONLY, DEBUGGING
 11 .debug_loc    00001789  00000000  00000000  0000d678  2**0
                  CONTENTS, READONLY, DEBUGGING
 12 .debug_ranges 00000290  00000000  00000000  0000ee01  2**0
                  CONTENTS, READONLY, DEBUGGING

Disassembly of section .text:

00000000 <__vectors>:
       0:	0c 94 32 01 	jmp	0x264	; 0x264 <__ctors_end>
       4:	0c 94 4f 01 	jmp	0x29e	; 0x29e <__bad_interrupt>
       8:	0c 94 4f 01 	jmp	0x29e	; 0x29e <__bad_interrupt>
       c:	0c 94 4f 01 	jmp	0x29e	; 0x29e <__bad_interrupt>
      10:	0c 94 4f 01 	jmp	0x29e	; 0x29e <__bad_interrupt>
      14:	0c 94 4f 01 	jmp	0x29e	; 0x29e <__bad_interrupt>
      18:	0c 94 4f 01 	jmp	0x29e	; 0x29e <__bad_interrupt>
      1c:	0c 94 4f 01 	jmp	0x29e	; 0x29e <__bad_interrupt>
      20:	0c 94 4f 01 	jmp	0x29e	; 0x29e <__bad_interrupt>
      24:	0c 94 4f 01 	jmp	0x29e	; 0x29e <__bad_interrupt>
      28:	0c 94 07 1f 	jmp	0x3e0e	; 0x3e0e <__vector_10>
      2c:	0c 94 4f 01 	jmp	0x29e	; 0x29e <__bad_interrupt>
      30:	0c 94 f4 1e 	jmp	0x3de8	; 0x3de8 <__vector_12>
      34:	0c 94 4f 01 	jmp	0x29e	; 0x29e <__bad_interrupt>
      38:	0c 94 4f 01 	jmp	0x29e	; 0x29e <__bad_interrupt>
      3c:	0c 94 4f 01 	jmp	0x29e	; 0x29e <__bad_interrupt>
      40:	0c 94 97 1d 	jmp	0x3b2e	; 0x3b2e <__vector_16>
      44:	0c 94 4f 01 	jmp	0x29e	; 0x29e <__bad_interrupt>
      48:	0c 94 1a 21 	jmp	0x4234	; 0x4234 <__vector_18>
      4c:	0c 94 4f 01 	jmp	0x29e	; 0x29e <__bad_interrupt>
      50:	0c 94 4f 01 	jmp	0x29e	; 0x29e <__bad_interrupt>
      54:	0c 94 4f 01 	jmp	0x29e	; 0x29e <__bad_interrupt>
      58:	0c 94 4f 01 	jmp	0x29e	; 0x29e <__bad_interrupt>
      5c:	0c 94 4f 01 	jmp	0x29e	; 0x29e <__bad_interrupt>
      60:	0c 94 4f 01 	jmp	0x29e	; 0x29e <__bad_interrupt>
      64:	0c 94 4f 01 	jmp	0x29e	; 0x29e <__bad_interrupt>
      68:	0c 94 9e 1f 	jmp	0x3f3c	; 0x3f3c <__vector_26>
      6c:	0c 94 4f 01 	jmp	0x29e	; 0x29e <__bad_interrupt>
      70:	0c 94 4f 01 	jmp	0x29e	; 0x29e <__bad_interrupt>
      74:	0c 94 4f 01 	jmp	0x29e	; 0x29e <__bad_interrupt>
      78:	0c 94 53 21 	jmp	0x42a6	; 0x42a6 <__vector_30>
      7c:	0c 94 4f 01 	jmp	0x29e	; 0x29e <__bad_interrupt>
      80:	0c 94 4f 01 	jmp	0x29e	; 0x29e <__bad_interrupt>
      84:	0c 94 4f 01 	jmp	0x29e	; 0x29e <__bad_interrupt>
      88:	0c 94 4f 01 	jmp	0x29e	; 0x29e <__bad_interrupt>
      8c:	32 05       	cpc	r19, r2
      8e:	3b 05       	cpc	r19, r11
      90:	45 05       	cpc	r20, r5
      92:	53 05       	cpc	r21, r3
      94:	62 05       	cpc	r22, r2
      96:	6e 05       	cpc	r22, r14
      98:	7b 05       	cpc	r23, r11
      9a:	88 05       	cpc	r24, r8
      9c:	95 05       	cpc	r25, r5
      9e:	a2 05       	cpc	r26, r2
      a0:	af 05       	cpc	r26, r15
      a2:	b2 05       	cpc	r27, r2
      a4:	b5 05       	cpc	r27, r5
      a6:	e2 05       	cpc	r30, r2
      a8:	ea 05       	cpc	r30, r10
      aa:	f2 05       	cpc	r31, r2
      ac:	fa 05       	cpc	r31, r10
      ae:	02 06       	cpc	r0, r18
      b0:	05 06       	cpc	r0, r21
      b2:	16 06       	cpc	r1, r22
      b4:	28 06       	cpc	r2, r24
      b6:	2b 06       	cpc	r2, r27
      b8:	b8 05       	cpc	r27, r8
      ba:	2e 06       	cpc	r2, r30
      bc:	36 06       	cpc	r3, r22
      be:	39 06       	cpc	r3, r25
      c0:	45 06       	cpc	r4, r21
      c2:	48 06       	cpc	r4, r24
      c4:	4e 06       	cpc	r4, r30
      c6:	53 06       	cpc	r5, r19
      c8:	58 06       	cpc	r5, r24
      ca:	5b 06       	cpc	r5, r27
      cc:	63 06       	cpc	r6, r19
      ce:	6b 06       	cpc	r6, r27
      d0:	71 06       	cpc	r7, r17
      d2:	77 06       	cpc	r7, r23
      d4:	7d 06       	cpc	r7, r29
      d6:	83 06       	cpc	r8, r19
      d8:	89 06       	cpc	r8, r25
      da:	8f 06       	cpc	r8, r31
      dc:	95 06       	cpc	r9, r21
      de:	c0 05       	cpc	r28, r0
      e0:	d1 05       	cpc	r29, r1
      e2:	9b 06       	cpc	r9, r27
      e4:	3b 22       	and	r3, r27
      e6:	9c 25       	eor	r25, r12
      e8:	4a 22       	and	r4, r26
      ea:	9c 25       	eor	r25, r12
      ec:	6c 22       	and	r6, r28
      ee:	9c 25       	eor	r25, r12
      f0:	7a 22       	and	r7, r26
      f2:	9c 25       	eor	r25, r12
      f4:	8b 22       	and	r8, r27
      f6:	9c 25       	eor	r25, r12
      f8:	92 22       	and	r9, r18
      fa:	9c 25       	eor	r25, r12
      fc:	99 22       	and	r9, r25
      fe:	9c 25       	eor	r25, r12
     100:	ad 22       	and	r10, r29
     102:	9c 25       	eor	r25, r12
     104:	9c 25       	eor	r25, r12
     106:	9c 25       	eor	r25, r12
     108:	c7 22       	and	r12, r23
     10a:	9c 25       	eor	r25, r12
     10c:	ce 22       	and	r12, r30
     10e:	9c 25       	eor	r25, r12
     110:	d5 22       	and	r13, r21
     112:	9c 25       	eor	r25, r12
     114:	88 22       	and	r8, r24
     116:	9c 25       	eor	r25, r12
     118:	9c 25       	eor	r25, r12
     11a:	9c 25       	eor	r25, r12
     11c:	9c 25       	eor	r25, r12
     11e:	9c 25       	eor	r25, r12
     120:	9c 25       	eor	r25, r12
     122:	9c 25       	eor	r25, r12
     124:	9c 25       	eor	r25, r12
     126:	9c 25       	eor	r25, r12
     128:	dc 22       	and	r13, r28
     12a:	9c 25       	eor	r25, r12
     12c:	f2 22       	and	r15, r18
     12e:	9c 25       	eor	r25, r12
     130:	08 23       	and	r16, r24
     132:	9c 25       	eor	r25, r12
     134:	1e 23       	and	r17, r30
     136:	9c 25       	eor	r25, r12
     138:	34 23       	and	r19, r20
     13a:	9c 25       	eor	r25, r12
     13c:	4a 23       	and	r20, r26
     13e:	9c 25       	eor	r25, r12
     140:	60 23       	and	r22, r16
     142:	9c 25       	eor	r25, r12
     144:	76 23       	and	r23, r22
     146:	9c 25       	eor	r25, r12
     148:	8c 23       	and	r24, r28
     14a:	9c 25       	eor	r25, r12
     14c:	a2 23       	and	r26, r18
     14e:	9c 25       	eor	r25, r12
     150:	b8 23       	and	r27, r24
     152:	9c 25       	eor	r25, r12
     154:	ce 23       	and	r28, r30
     156:	9c 25       	eor	r25, r12
     158:	e4 23       	and	r30, r20
     15a:	9c 25       	eor	r25, r12
     15c:	fa 23       	and	r31, r26
     15e:	9c 25       	eor	r25, r12
     160:	10 24       	eor	r1, r0
     162:	9c 25       	eor	r25, r12
     164:	26 24       	eor	r2, r6
     166:	9c 25       	eor	r25, r12
     168:	3c 24       	eor	r3, r12
     16a:	9c 25       	eor	r25, r12
     16c:	52 24       	eor	r5, r2
     16e:	9c 25       	eor	r25, r12
     170:	68 24       	eor	r6, r8
     172:	9c 25       	eor	r25, r12
     174:	7e 24       	eor	r7, r14
     176:	9c 25       	eor	r25, r12
     178:	94 24       	eor	r9, r4
     17a:	9c 25       	eor	r25, r12
     17c:	aa 24       	eor	r10, r10
     17e:	9c 25       	eor	r25, r12
     180:	c0 24       	eor	r12, r0
     182:	9c 25       	eor	r25, r12
     184:	d6 24       	eor	r13, r6
     186:	9c 25       	eor	r25, r12
     188:	ec 24       	eor	r14, r12
     18a:	9c 25       	eor	r25, r12
     18c:	02 25       	eor	r16, r2
     18e:	9c 25       	eor	r25, r12
     190:	18 25       	eor	r17, r8
     192:	9c 25       	eor	r25, r12
     194:	2e 25       	eor	r18, r14
     196:	9c 25       	eor	r25, r12
     198:	44 25       	eor	r20, r4
     19a:	9c 25       	eor	r25, r12
     19c:	5a 25       	eor	r21, r10
     19e:	9c 25       	eor	r25, r12
     1a0:	70 25       	eor	r23, r0
     1a2:	9c 25       	eor	r25, r12
     1a4:	86 25       	eor	r24, r6
     1a6:	9c 25       	eor	r25, r12
     1a8:	40 22       	and	r4, r16
     1aa:	9c 25       	eor	r25, r12
     1ac:	9c 25       	eor	r25, r12
     1ae:	9c 25       	eor	r25, r12
     1b0:	9c 25       	eor	r25, r12
     1b2:	9c 25       	eor	r25, r12
     1b4:	9c 25       	eor	r25, r12
     1b6:	9c 25       	eor	r25, r12
     1b8:	9c 25       	eor	r25, r12
     1ba:	9c 25       	eor	r25, r12
     1bc:	9c 25       	eor	r25, r12
     1be:	9c 25       	eor	r25, r12
     1c0:	9c 25       	eor	r25, r12
     1c2:	9c 25       	eor	r25, r12
     1c4:	9c 25       	eor	r25, r12
     1c6:	9c 25       	eor	r25, r12
     1c8:	9c 25       	eor	r25, r12
     1ca:	9c 25       	eor	r25, r12
     1cc:	9c 25       	eor	r25, r12
     1ce:	9c 25       	eor	r25, r12
     1d0:	9c 25       	eor	r25, r12
     1d2:	9c 25       	eor	r25, r12
     1d4:	9c 25       	eor	r25, r12
     1d6:	9c 25       	eor	r25, r12
     1d8:	9c 25       	eor	r25, r12
     1da:	9c 25       	eor	r25, r12
     1dc:	9c 25       	eor	r25, r12
     1de:	9c 25       	eor	r25, r12
     1e0:	9c 25       	eor	r25, r12
     1e2:	9c 25       	eor	r25, r12
     1e4:	9c 25       	eor	r25, r12
     1e6:	9c 25       	eor	r25, r12
     1e8:	9c 25       	eor	r25, r12
     1ea:	9c 25       	eor	r25, r12
     1ec:	9c 25       	eor	r25, r12
     1ee:	9c 25       	eor	r25, r12
     1f0:	9c 25       	eor	r25, r12
     1f2:	9c 25       	eor	r25, r12
     1f4:	9c 25       	eor	r25, r12
     1f6:	9c 25       	eor	r25, r12
     1f8:	9c 25       	eor	r25, r12
     1fa:	9c 25       	eor	r25, r12
     1fc:	9c 25       	eor	r25, r12
     1fe:	9c 25       	eor	r25, r12
     200:	9c 25       	eor	r25, r12
     202:	9c 25       	eor	r25, r12
     204:	9c 25       	eor	r25, r12
     206:	9c 25       	eor	r25, r12
     208:	9c 25       	eor	r25, r12
     20a:	9c 25       	eor	r25, r12
     20c:	9c 25       	eor	r25, r12
     20e:	9c 25       	eor	r25, r12
     210:	9c 25       	eor	r25, r12
     212:	9c 25       	eor	r25, r12
     214:	9c 25       	eor	r25, r12
     216:	9c 25       	eor	r25, r12
     218:	9c 25       	eor	r25, r12
     21a:	9c 25       	eor	r25, r12
     21c:	9c 25       	eor	r25, r12
     21e:	9c 25       	eor	r25, r12
     220:	9c 25       	eor	r25, r12
     222:	9c 25       	eor	r25, r12
     224:	9c 25       	eor	r25, r12
     226:	9c 25       	eor	r25, r12
     228:	9c 25       	eor	r25, r12
     22a:	9c 25       	eor	r25, r12
     22c:	9c 25       	eor	r25, r12
     22e:	9c 25       	eor	r25, r12
     230:	9c 25       	eor	r25, r12
     232:	9c 25       	eor	r25, r12
     234:	9c 25       	eor	r25, r12
     236:	9c 25       	eor	r25, r12
     238:	9c 25       	eor	r25, r12
     23a:	9c 25       	eor	r25, r12
     23c:	9c 25       	eor	r25, r12
     23e:	9c 25       	eor	r25, r12
     240:	9c 25       	eor	r25, r12
     242:	9c 25       	eor	r25, r12
     244:	9c 25       	eor	r25, r12
     246:	9c 25       	eor	r25, r12
     248:	9c 25       	eor	r25, r12
     24a:	9c 25       	eor	r25, r12
     24c:	9c 25       	eor	r25, r12
     24e:	9c 25       	eor	r25, r12
     250:	9c 25       	eor	r25, r12
     252:	9c 25       	eor	r25, r12
     254:	9c 25       	eor	r25, r12
     256:	9c 25       	eor	r25, r12
     258:	9c 25       	eor	r25, r12
     25a:	9c 25       	eor	r25, r12
     25c:	9c 25       	eor	r25, r12
     25e:	9c 25       	eor	r25, r12
     260:	9c 25       	eor	r25, r12
     262:	36 22       	and	r3, r22

00000264 <__ctors_end>:
     264:	11 24       	eor	r1, r1
     266:	1f be       	out	0x3f, r1	; 63
     268:	cf ef       	ldi	r28, 0xFF	; 255
     26a:	d0 e1       	ldi	r29, 0x10	; 16
     26c:	de bf       	out	0x3e, r29	; 62
     26e:	cd bf       	out	0x3d, r28	; 61

00000270 <__do_copy_data>:
     270:	11 e0       	ldi	r17, 0x01	; 1
     272:	a0 e0       	ldi	r26, 0x00	; 0
     274:	b1 e0       	ldi	r27, 0x01	; 1
     276:	ec e5       	ldi	r30, 0x5C	; 92
     278:	f1 e5       	ldi	r31, 0x51	; 81
     27a:	02 c0       	rjmp	.+4      	; 0x280 <__do_copy_data+0x10>
     27c:	05 90       	lpm	r0, Z+
     27e:	0d 92       	st	X+, r0
     280:	a6 39       	cpi	r26, 0x96	; 150
     282:	b1 07       	cpc	r27, r17
     284:	d9 f7       	brne	.-10     	; 0x27c <__do_copy_data+0xc>

00000286 <__do_clear_bss>:
     286:	2c e0       	ldi	r18, 0x0C	; 12
     288:	a6 e9       	ldi	r26, 0x96	; 150
     28a:	b1 e0       	ldi	r27, 0x01	; 1
     28c:	01 c0       	rjmp	.+2      	; 0x290 <.do_clear_bss_start>

0000028e <.do_clear_bss_loop>:
     28e:	1d 92       	st	X+, r1

00000290 <.do_clear_bss_start>:
     290:	a4 33       	cpi	r26, 0x34	; 52
     292:	b2 07       	cpc	r27, r18
     294:	e1 f7       	brne	.-8      	; 0x28e <.do_clear_bss_loop>
     296:	0e 94 f0 1c 	call	0x39e0	; 0x39e0 <main>
     29a:	0c 94 ac 28 	jmp	0x5158	; 0x5158 <_exit>

0000029e <__bad_interrupt>:
     29e:	0c 94 00 00 	jmp	0	; 0x0 <__vectors>

000002a2 <_delay_ms>:
{
	while (--nus)
	{
		_delay_1us();
	}
}
     2a2:	cf 93       	push	r28
     2a4:	df 93       	push	r29
     2a6:	cd b7       	in	r28, 0x3d	; 61
     2a8:	de b7       	in	r29, 0x3e	; 62
     2aa:	28 97       	sbiw	r28, 0x08	; 8
     2ac:	0f b6       	in	r0, 0x3f	; 63
     2ae:	f8 94       	cli
     2b0:	de bf       	out	0x3e, r29	; 62
     2b2:	0f be       	out	0x3f, r0	; 63
     2b4:	cd bf       	out	0x3d, r28	; 61
     2b6:	6d 83       	std	Y+5, r22	; 0x05
     2b8:	7e 83       	std	Y+6, r23	; 0x06
     2ba:	8f 83       	std	Y+7, r24	; 0x07
     2bc:	98 87       	std	Y+8, r25	; 0x08
     2be:	2d 81       	ldd	r18, Y+5	; 0x05
     2c0:	3e 81       	ldd	r19, Y+6	; 0x06
     2c2:	4f 81       	ldd	r20, Y+7	; 0x07
     2c4:	58 85       	ldd	r21, Y+8	; 0x08
     2c6:	88 ee       	ldi	r24, 0xE8	; 232
     2c8:	93 e0       	ldi	r25, 0x03	; 3
     2ca:	dc 01       	movw	r26, r24
     2cc:	0e 94 5d 28 	call	0x50ba	; 0x50ba <__muluhisi3>
     2d0:	dc 01       	movw	r26, r24
     2d2:	cb 01       	movw	r24, r22
     2d4:	89 83       	std	Y+1, r24	; 0x01
     2d6:	9a 83       	std	Y+2, r25	; 0x02
     2d8:	ab 83       	std	Y+3, r26	; 0x03
     2da:	bc 83       	std	Y+4, r27	; 0x04
     2dc:	02 c0       	rjmp	.+4      	; 0x2e2 <_delay_ms+0x40>
     2de:	0e 94 8e 01 	call	0x31c	; 0x31c <_delay_1us>
     2e2:	89 81       	ldd	r24, Y+1	; 0x01
     2e4:	9a 81       	ldd	r25, Y+2	; 0x02
     2e6:	ab 81       	ldd	r26, Y+3	; 0x03
     2e8:	bc 81       	ldd	r27, Y+4	; 0x04
     2ea:	01 97       	sbiw	r24, 0x01	; 1
     2ec:	a1 09       	sbc	r26, r1
     2ee:	b1 09       	sbc	r27, r1
     2f0:	89 83       	std	Y+1, r24	; 0x01
     2f2:	9a 83       	std	Y+2, r25	; 0x02
     2f4:	ab 83       	std	Y+3, r26	; 0x03
     2f6:	bc 83       	std	Y+4, r27	; 0x04
     2f8:	89 81       	ldd	r24, Y+1	; 0x01
     2fa:	9a 81       	ldd	r25, Y+2	; 0x02
     2fc:	ab 81       	ldd	r26, Y+3	; 0x03
     2fe:	bc 81       	ldd	r27, Y+4	; 0x04
     300:	89 2b       	or	r24, r25
     302:	8a 2b       	or	r24, r26
     304:	8b 2b       	or	r24, r27
     306:	59 f7       	brne	.-42     	; 0x2de <_delay_ms+0x3c>
     308:	00 00       	nop
     30a:	28 96       	adiw	r28, 0x08	; 8
     30c:	0f b6       	in	r0, 0x3f	; 63
     30e:	f8 94       	cli
     310:	de bf       	out	0x3e, r29	; 62
     312:	0f be       	out	0x3f, r0	; 63
     314:	cd bf       	out	0x3d, r28	; 61
     316:	df 91       	pop	r29
     318:	cf 91       	pop	r28
     31a:	08 95       	ret

0000031c <_delay_1us>:

void _delay_1us()
{
     31c:	cf 93       	push	r28
     31e:	df 93       	push	r29
     320:	1f 92       	push	r1
     322:	cd b7       	in	r28, 0x3d	; 61
     324:	de b7       	in	r29, 0x3e	; 62
	uint8_t ticks;

	ticks = F_CPU / 1000000UL;
     326:	80 e1       	ldi	r24, 0x10	; 16
     328:	89 83       	std	Y+1, r24	; 0x01

	while (--ticks)
     32a:	01 c0       	rjmp	.+2      	; 0x32e <_delay_1us+0x12>
	{
		_nop();
     32c:	00 00       	nop
{
	uint8_t ticks;

	ticks = F_CPU / 1000000UL;

	while (--ticks)
     32e:	89 81       	ldd	r24, Y+1	; 0x01
     330:	81 50       	subi	r24, 0x01	; 1
     332:	89 83       	std	Y+1, r24	; 0x01
     334:	89 81       	ldd	r24, Y+1	; 0x01
     336:	88 23       	and	r24, r24
     338:	c9 f7       	brne	.-14     	; 0x32c <_delay_1us+0x10>
	{
		_nop();
	}
     33a:	00 00       	nop
     33c:	0f 90       	pop	r0
     33e:	df 91       	pop	r29
     340:	cf 91       	pop	r28
     342:	08 95       	ret

00000344 <init_variable>:
	{0xBC, 0xD3, 0xC8, 0xC8, 0xC6, 0xF7, 0xB6, 0xCF, 0xBF, 0xAA}, //加热器断开
	{0xBC, 0xD3, 0xC8, 0xC8, 0xC6, 0xF7, 0xB6, 0xCC, 0xC2, 0xB7}, //加热器短路
};

void init_variable(void)
{
     344:	cf 93       	push	r28
     346:	df 93       	push	r29
     348:	00 d0       	rcall	.+0      	; 0x34a <init_variable+0x6>
     34a:	00 d0       	rcall	.+0      	; 0x34c <init_variable+0x8>
     34c:	00 d0       	rcall	.+0      	; 0x34e <init_variable+0xa>
     34e:	cd b7       	in	r28, 0x3d	; 61
     350:	de b7       	in	r29, 0x3e	; 62
	uint8_t i, j, k;
	uint8_t name1=0, name2=0, name3=0;
     352:	1c 82       	std	Y+4, r1	; 0x04
     354:	1d 82       	std	Y+5, r1	; 0x05
     356:	1e 82       	std	Y+6, r1	; 0x06

	for (i = 0; i < 4; i++)
     358:	19 82       	std	Y+1, r1	; 0x01
     35a:	55 c0       	rjmp	.+170    	; 0x406 <__LOCK_REGION_LENGTH__+0x6>
	{
		for (j = 0; j < 8; j++)
     35c:	1a 82       	std	Y+2, r1	; 0x02
     35e:	4c c0       	rjmp	.+152    	; 0x3f8 <init_variable+0xb4>
		{
			for (k = 0; k < 4; k++)
     360:	1b 82       	std	Y+3, r1	; 0x03
     362:	43 c0       	rjmp	.+134    	; 0x3ea <init_variable+0xa6>
			{
				time_ctrl_value[i][j][k] = 500; //射胶控制时间所有数据初始化为
     364:	89 81       	ldd	r24, Y+1	; 0x01
     366:	48 2f       	mov	r20, r24
     368:	50 e0       	ldi	r21, 0x00	; 0
     36a:	8a 81       	ldd	r24, Y+2	; 0x02
     36c:	28 2f       	mov	r18, r24
     36e:	30 e0       	ldi	r19, 0x00	; 0
     370:	8b 81       	ldd	r24, Y+3	; 0x03
     372:	88 2f       	mov	r24, r24
     374:	90 e0       	ldi	r25, 0x00	; 0
     376:	44 0f       	add	r20, r20
     378:	55 1f       	adc	r21, r21
     37a:	44 0f       	add	r20, r20
     37c:	55 1f       	adc	r21, r21
     37e:	44 0f       	add	r20, r20
     380:	55 1f       	adc	r21, r21
     382:	24 0f       	add	r18, r20
     384:	35 1f       	adc	r19, r21
     386:	22 0f       	add	r18, r18
     388:	33 1f       	adc	r19, r19
     38a:	22 0f       	add	r18, r18
     38c:	33 1f       	adc	r19, r19
     38e:	82 0f       	add	r24, r18
     390:	93 1f       	adc	r25, r19
     392:	88 0f       	add	r24, r24
     394:	99 1f       	adc	r25, r25
     396:	8e 5d       	subi	r24, 0xDE	; 222
     398:	98 4f       	sbci	r25, 0xF8	; 248
     39a:	24 ef       	ldi	r18, 0xF4	; 244
     39c:	31 e0       	ldi	r19, 0x01	; 1
     39e:	fc 01       	movw	r30, r24
     3a0:	31 83       	std	Z+1, r19	; 0x01
     3a2:	20 83       	st	Z, r18
				time_ctrl_value_buff[i][j][k] = 500;
     3a4:	89 81       	ldd	r24, Y+1	; 0x01
     3a6:	48 2f       	mov	r20, r24
     3a8:	50 e0       	ldi	r21, 0x00	; 0
     3aa:	8a 81       	ldd	r24, Y+2	; 0x02
     3ac:	28 2f       	mov	r18, r24
     3ae:	30 e0       	ldi	r19, 0x00	; 0
     3b0:	8b 81       	ldd	r24, Y+3	; 0x03
     3b2:	88 2f       	mov	r24, r24
     3b4:	90 e0       	ldi	r25, 0x00	; 0
     3b6:	44 0f       	add	r20, r20
     3b8:	55 1f       	adc	r21, r21
     3ba:	44 0f       	add	r20, r20
     3bc:	55 1f       	adc	r21, r21
     3be:	44 0f       	add	r20, r20
     3c0:	55 1f       	adc	r21, r21
     3c2:	24 0f       	add	r18, r20
     3c4:	35 1f       	adc	r19, r21
     3c6:	22 0f       	add	r18, r18
     3c8:	33 1f       	adc	r19, r19
     3ca:	22 0f       	add	r18, r18
     3cc:	33 1f       	adc	r19, r19
     3ce:	82 0f       	add	r24, r18
     3d0:	93 1f       	adc	r25, r19
     3d2:	88 0f       	add	r24, r24
     3d4:	99 1f       	adc	r25, r25
     3d6:	8c 5c       	subi	r24, 0xCC	; 204
     3d8:	94 4f       	sbci	r25, 0xF4	; 244
     3da:	24 ef       	ldi	r18, 0xF4	; 244
     3dc:	31 e0       	ldi	r19, 0x01	; 1
     3de:	fc 01       	movw	r30, r24
     3e0:	31 83       	std	Z+1, r19	; 0x01
     3e2:	20 83       	st	Z, r18

	for (i = 0; i < 4; i++)
	{
		for (j = 0; j < 8; j++)
		{
			for (k = 0; k < 4; k++)
     3e4:	8b 81       	ldd	r24, Y+3	; 0x03
     3e6:	8f 5f       	subi	r24, 0xFF	; 255
     3e8:	8b 83       	std	Y+3, r24	; 0x03
     3ea:	8b 81       	ldd	r24, Y+3	; 0x03
     3ec:	84 30       	cpi	r24, 0x04	; 4
     3ee:	08 f4       	brcc	.+2      	; 0x3f2 <init_variable+0xae>
     3f0:	b9 cf       	rjmp	.-142    	; 0x364 <init_variable+0x20>
	uint8_t i, j, k;
	uint8_t name1=0, name2=0, name3=0;

	for (i = 0; i < 4; i++)
	{
		for (j = 0; j < 8; j++)
     3f2:	8a 81       	ldd	r24, Y+2	; 0x02
     3f4:	8f 5f       	subi	r24, 0xFF	; 255
     3f6:	8a 83       	std	Y+2, r24	; 0x02
     3f8:	8a 81       	ldd	r24, Y+2	; 0x02
     3fa:	88 30       	cpi	r24, 0x08	; 8
     3fc:	08 f4       	brcc	.+2      	; 0x400 <__LOCK_REGION_LENGTH__>
     3fe:	b0 cf       	rjmp	.-160    	; 0x360 <init_variable+0x1c>
void init_variable(void)
{
	uint8_t i, j, k;
	uint8_t name1=0, name2=0, name3=0;

	for (i = 0; i < 4; i++)
     400:	89 81       	ldd	r24, Y+1	; 0x01
     402:	8f 5f       	subi	r24, 0xFF	; 255
     404:	89 83       	std	Y+1, r24	; 0x01
     406:	89 81       	ldd	r24, Y+1	; 0x01
     408:	84 30       	cpi	r24, 0x04	; 4
     40a:	08 f4       	brcc	.+2      	; 0x40e <__LOCK_REGION_LENGTH__+0xe>
     40c:	a7 cf       	rjmp	.-178    	; 0x35c <init_variable+0x18>
				time_ctrl_value_buff[i][j][k] = 500;
			}
		}
	}

	for (i = 0; i < MAX_IQR_QUANTITY; i++)
     40e:	19 82       	std	Y+1, r1	; 0x01
     410:	33 c1       	rjmp	.+614    	; 0x678 <__LOCK_REGION_LENGTH__+0x278>
	{
		set_temp[i] = 100;
     412:	89 81       	ldd	r24, Y+1	; 0x01
     414:	88 2f       	mov	r24, r24
     416:	90 e0       	ldi	r25, 0x00	; 0
     418:	88 0f       	add	r24, r24
     41a:	99 1f       	adc	r25, r25
     41c:	8d 52       	subi	r24, 0x2D	; 45
     41e:	95 4f       	sbci	r25, 0xF5	; 245
     420:	24 e6       	ldi	r18, 0x64	; 100
     422:	30 e0       	ldi	r19, 0x00	; 0
     424:	fc 01       	movw	r30, r24
     426:	31 83       	std	Z+1, r19	; 0x01
     428:	20 83       	st	Z, r18
		set_temp_buff[i] = 100;
     42a:	89 81       	ldd	r24, Y+1	; 0x01
     42c:	88 2f       	mov	r24, r24
     42e:	90 e0       	ldi	r25, 0x00	; 0
     430:	88 0f       	add	r24, r24
     432:	99 1f       	adc	r25, r25
     434:	8d 5f       	subi	r24, 0xFD	; 253
     436:	94 4f       	sbci	r25, 0xF4	; 244
     438:	24 e6       	ldi	r18, 0x64	; 100
     43a:	30 e0       	ldi	r19, 0x00	; 0
     43c:	fc 01       	movw	r30, r24
     43e:	31 83       	std	Z+1, r19	; 0x01
     440:	20 83       	st	Z, r18
		p_value[i] = 100;
     442:	89 81       	ldd	r24, Y+1	; 0x01
     444:	88 2f       	mov	r24, r24
     446:	90 e0       	ldi	r25, 0x00	; 0
     448:	88 0f       	add	r24, r24
     44a:	99 1f       	adc	r25, r25
     44c:	8e 5a       	subi	r24, 0xAE	; 174
     44e:	97 4f       	sbci	r25, 0xF7	; 247
     450:	24 e6       	ldi	r18, 0x64	; 100
     452:	30 e0       	ldi	r19, 0x00	; 0
     454:	fc 01       	movw	r30, r24
     456:	31 83       	std	Z+1, r19	; 0x01
     458:	20 83       	st	Z, r18
		i_value[i] = 100;
     45a:	89 81       	ldd	r24, Y+1	; 0x01
     45c:	88 2f       	mov	r24, r24
     45e:	90 e0       	ldi	r25, 0x00	; 0
     460:	88 0f       	add	r24, r24
     462:	99 1f       	adc	r25, r25
     464:	8e 57       	subi	r24, 0x7E	; 126
     466:	97 4f       	sbci	r25, 0xF7	; 247
     468:	24 e6       	ldi	r18, 0x64	; 100
     46a:	30 e0       	ldi	r19, 0x00	; 0
     46c:	fc 01       	movw	r30, r24
     46e:	31 83       	std	Z+1, r19	; 0x01
     470:	20 83       	st	Z, r18
		d_value[i] = 100;
     472:	89 81       	ldd	r24, Y+1	; 0x01
     474:	88 2f       	mov	r24, r24
     476:	90 e0       	ldi	r25, 0x00	; 0
     478:	88 0f       	add	r24, r24
     47a:	99 1f       	adc	r25, r25
     47c:	8e 5d       	subi	r24, 0xDE	; 222
     47e:	97 4f       	sbci	r25, 0xF7	; 247
     480:	24 e6       	ldi	r18, 0x64	; 100
     482:	30 e0       	ldi	r19, 0x00	; 0
     484:	fc 01       	movw	r30, r24
     486:	31 83       	std	Z+1, r19	; 0x01
     488:	20 83       	st	Z, r18

		if (i < 9)
     48a:	89 81       	ldd	r24, Y+1	; 0x01
     48c:	89 30       	cpi	r24, 0x09	; 9
     48e:	70 f4       	brcc	.+28     	; 0x4ac <__LOCK_REGION_LENGTH__+0xac>
		{
			name3 = (i + 1) % 10 + 0x30;
     490:	89 81       	ldd	r24, Y+1	; 0x01
     492:	88 2f       	mov	r24, r24
     494:	90 e0       	ldi	r25, 0x00	; 0
     496:	01 96       	adiw	r24, 0x01	; 1
     498:	2a e0       	ldi	r18, 0x0A	; 10
     49a:	30 e0       	ldi	r19, 0x00	; 0
     49c:	b9 01       	movw	r22, r18
     49e:	0e 94 12 28 	call	0x5024	; 0x5024 <__divmodhi4>
     4a2:	80 5d       	subi	r24, 0xD0	; 208
     4a4:	8e 83       	std	Y+6, r24	; 0x06
			name2 = 0;
     4a6:	1d 82       	std	Y+5, r1	; 0x05
			name1 = 0;
     4a8:	1c 82       	std	Y+4, r1	; 0x04
     4aa:	48 c0       	rjmp	.+144    	; 0x53c <__LOCK_REGION_LENGTH__+0x13c>
		}
		else if (i >= 9 && i < 99)
     4ac:	89 81       	ldd	r24, Y+1	; 0x01
     4ae:	89 30       	cpi	r24, 0x09	; 9
     4b0:	e0 f0       	brcs	.+56     	; 0x4ea <__LOCK_REGION_LENGTH__+0xea>
     4b2:	89 81       	ldd	r24, Y+1	; 0x01
     4b4:	83 36       	cpi	r24, 0x63	; 99
     4b6:	c8 f4       	brcc	.+50     	; 0x4ea <__LOCK_REGION_LENGTH__+0xea>
		{
			name3 = (i + 1) / 10 + 0x30;
     4b8:	89 81       	ldd	r24, Y+1	; 0x01
     4ba:	88 2f       	mov	r24, r24
     4bc:	90 e0       	ldi	r25, 0x00	; 0
     4be:	01 96       	adiw	r24, 0x01	; 1
     4c0:	2a e0       	ldi	r18, 0x0A	; 10
     4c2:	30 e0       	ldi	r19, 0x00	; 0
     4c4:	b9 01       	movw	r22, r18
     4c6:	0e 94 12 28 	call	0x5024	; 0x5024 <__divmodhi4>
     4ca:	cb 01       	movw	r24, r22
     4cc:	80 5d       	subi	r24, 0xD0	; 208
     4ce:	8e 83       	std	Y+6, r24	; 0x06
			name2 = (i + 1) % 10 + 0x30;
     4d0:	89 81       	ldd	r24, Y+1	; 0x01
     4d2:	88 2f       	mov	r24, r24
     4d4:	90 e0       	ldi	r25, 0x00	; 0
     4d6:	01 96       	adiw	r24, 0x01	; 1
     4d8:	2a e0       	ldi	r18, 0x0A	; 10
     4da:	30 e0       	ldi	r19, 0x00	; 0
     4dc:	b9 01       	movw	r22, r18
     4de:	0e 94 12 28 	call	0x5024	; 0x5024 <__divmodhi4>
     4e2:	80 5d       	subi	r24, 0xD0	; 208
     4e4:	8d 83       	std	Y+5, r24	; 0x05
			name1 = 0;
     4e6:	1c 82       	std	Y+4, r1	; 0x04
     4e8:	29 c0       	rjmp	.+82     	; 0x53c <__LOCK_REGION_LENGTH__+0x13c>
		}
		else if (i >= 99 && i < 199)
     4ea:	89 81       	ldd	r24, Y+1	; 0x01
     4ec:	83 36       	cpi	r24, 0x63	; 99
     4ee:	30 f1       	brcs	.+76     	; 0x53c <__LOCK_REGION_LENGTH__+0x13c>
     4f0:	89 81       	ldd	r24, Y+1	; 0x01
     4f2:	87 3c       	cpi	r24, 0xC7	; 199
     4f4:	18 f5       	brcc	.+70     	; 0x53c <__LOCK_REGION_LENGTH__+0x13c>
		{
			name3 = (i + 1) / 100 + 0x30;
     4f6:	89 81       	ldd	r24, Y+1	; 0x01
     4f8:	88 2f       	mov	r24, r24
     4fa:	90 e0       	ldi	r25, 0x00	; 0
     4fc:	01 96       	adiw	r24, 0x01	; 1
     4fe:	24 e6       	ldi	r18, 0x64	; 100
     500:	30 e0       	ldi	r19, 0x00	; 0
     502:	b9 01       	movw	r22, r18
     504:	0e 94 12 28 	call	0x5024	; 0x5024 <__divmodhi4>
     508:	cb 01       	movw	r24, r22
     50a:	80 5d       	subi	r24, 0xD0	; 208
     50c:	8e 83       	std	Y+6, r24	; 0x06
			name2 = (i + 1) / 10 + 0x30;
     50e:	89 81       	ldd	r24, Y+1	; 0x01
     510:	88 2f       	mov	r24, r24
     512:	90 e0       	ldi	r25, 0x00	; 0
     514:	01 96       	adiw	r24, 0x01	; 1
     516:	2a e0       	ldi	r18, 0x0A	; 10
     518:	30 e0       	ldi	r19, 0x00	; 0
     51a:	b9 01       	movw	r22, r18
     51c:	0e 94 12 28 	call	0x5024	; 0x5024 <__divmodhi4>
     520:	cb 01       	movw	r24, r22
     522:	80 5d       	subi	r24, 0xD0	; 208
     524:	8d 83       	std	Y+5, r24	; 0x05
			name1 = (i + 1) % 10 + 0x30;
     526:	89 81       	ldd	r24, Y+1	; 0x01
     528:	88 2f       	mov	r24, r24
     52a:	90 e0       	ldi	r25, 0x00	; 0
     52c:	01 96       	adiw	r24, 0x01	; 1
     52e:	2a e0       	ldi	r18, 0x0A	; 10
     530:	30 e0       	ldi	r19, 0x00	; 0
     532:	b9 01       	movw	r22, r18
     534:	0e 94 12 28 	call	0x5024	; 0x5024 <__divmodhi4>
     538:	80 5d       	subi	r24, 0xD0	; 208
     53a:	8c 83       	std	Y+4, r24	; 0x04
		}
		set_name[i] |= 0x23;		//固定前面显示#
     53c:	89 81       	ldd	r24, Y+1	; 0x01
     53e:	28 2f       	mov	r18, r24
     540:	30 e0       	ldi	r19, 0x00	; 0
     542:	89 81       	ldd	r24, Y+1	; 0x01
     544:	88 2f       	mov	r24, r24
     546:	90 e0       	ldi	r25, 0x00	; 0
     548:	88 0f       	add	r24, r24
     54a:	99 1f       	adc	r25, r25
     54c:	88 0f       	add	r24, r24
     54e:	99 1f       	adc	r25, r25
     550:	82 5c       	subi	r24, 0xC2	; 194
     552:	96 4f       	sbci	r25, 0xF6	; 246
     554:	fc 01       	movw	r30, r24
     556:	80 81       	ld	r24, Z
     558:	91 81       	ldd	r25, Z+1	; 0x01
     55a:	a2 81       	ldd	r26, Z+2	; 0x02
     55c:	b3 81       	ldd	r27, Z+3	; 0x03
     55e:	83 62       	ori	r24, 0x23	; 35
     560:	22 0f       	add	r18, r18
     562:	33 1f       	adc	r19, r19
     564:	22 0f       	add	r18, r18
     566:	33 1f       	adc	r19, r19
     568:	22 5c       	subi	r18, 0xC2	; 194
     56a:	36 4f       	sbci	r19, 0xF6	; 246
     56c:	f9 01       	movw	r30, r18
     56e:	80 83       	st	Z, r24
     570:	91 83       	std	Z+1, r25	; 0x01
     572:	a2 83       	std	Z+2, r26	; 0x02
     574:	b3 83       	std	Z+3, r27	; 0x03
		set_name[i] = (set_name[i] << 8) | name3;
     576:	89 81       	ldd	r24, Y+1	; 0x01
     578:	68 2f       	mov	r22, r24
     57a:	70 e0       	ldi	r23, 0x00	; 0
     57c:	89 81       	ldd	r24, Y+1	; 0x01
     57e:	88 2f       	mov	r24, r24
     580:	90 e0       	ldi	r25, 0x00	; 0
     582:	88 0f       	add	r24, r24
     584:	99 1f       	adc	r25, r25
     586:	88 0f       	add	r24, r24
     588:	99 1f       	adc	r25, r25
     58a:	82 5c       	subi	r24, 0xC2	; 194
     58c:	96 4f       	sbci	r25, 0xF6	; 246
     58e:	fc 01       	movw	r30, r24
     590:	80 81       	ld	r24, Z
     592:	91 81       	ldd	r25, Z+1	; 0x01
     594:	a2 81       	ldd	r26, Z+2	; 0x02
     596:	b3 81       	ldd	r27, Z+3	; 0x03
     598:	22 27       	eor	r18, r18
     59a:	38 2f       	mov	r19, r24
     59c:	49 2f       	mov	r20, r25
     59e:	5a 2f       	mov	r21, r26
     5a0:	8e 81       	ldd	r24, Y+6	; 0x06
     5a2:	88 2f       	mov	r24, r24
     5a4:	90 e0       	ldi	r25, 0x00	; 0
     5a6:	a0 e0       	ldi	r26, 0x00	; 0
     5a8:	b0 e0       	ldi	r27, 0x00	; 0
     5aa:	82 2b       	or	r24, r18
     5ac:	93 2b       	or	r25, r19
     5ae:	a4 2b       	or	r26, r20
     5b0:	b5 2b       	or	r27, r21
     5b2:	9b 01       	movw	r18, r22
     5b4:	22 0f       	add	r18, r18
     5b6:	33 1f       	adc	r19, r19
     5b8:	22 0f       	add	r18, r18
     5ba:	33 1f       	adc	r19, r19
     5bc:	22 5c       	subi	r18, 0xC2	; 194
     5be:	36 4f       	sbci	r19, 0xF6	; 246
     5c0:	f9 01       	movw	r30, r18
     5c2:	80 83       	st	Z, r24
     5c4:	91 83       	std	Z+1, r25	; 0x01
     5c6:	a2 83       	std	Z+2, r26	; 0x02
     5c8:	b3 83       	std	Z+3, r27	; 0x03
		set_name[i] = (set_name[i] << 8) | name2;
     5ca:	89 81       	ldd	r24, Y+1	; 0x01
     5cc:	68 2f       	mov	r22, r24
     5ce:	70 e0       	ldi	r23, 0x00	; 0
     5d0:	89 81       	ldd	r24, Y+1	; 0x01
     5d2:	88 2f       	mov	r24, r24
     5d4:	90 e0       	ldi	r25, 0x00	; 0
     5d6:	88 0f       	add	r24, r24
     5d8:	99 1f       	adc	r25, r25
     5da:	88 0f       	add	r24, r24
     5dc:	99 1f       	adc	r25, r25
     5de:	82 5c       	subi	r24, 0xC2	; 194
     5e0:	96 4f       	sbci	r25, 0xF6	; 246
     5e2:	fc 01       	movw	r30, r24
     5e4:	80 81       	ld	r24, Z
     5e6:	91 81       	ldd	r25, Z+1	; 0x01
     5e8:	a2 81       	ldd	r26, Z+2	; 0x02
     5ea:	b3 81       	ldd	r27, Z+3	; 0x03
     5ec:	22 27       	eor	r18, r18
     5ee:	38 2f       	mov	r19, r24
     5f0:	49 2f       	mov	r20, r25
     5f2:	5a 2f       	mov	r21, r26
     5f4:	8d 81       	ldd	r24, Y+5	; 0x05
     5f6:	88 2f       	mov	r24, r24
     5f8:	90 e0       	ldi	r25, 0x00	; 0
     5fa:	a0 e0       	ldi	r26, 0x00	; 0
     5fc:	b0 e0       	ldi	r27, 0x00	; 0
     5fe:	82 2b       	or	r24, r18
     600:	93 2b       	or	r25, r19
     602:	a4 2b       	or	r26, r20
     604:	b5 2b       	or	r27, r21
     606:	9b 01       	movw	r18, r22
     608:	22 0f       	add	r18, r18
     60a:	33 1f       	adc	r19, r19
     60c:	22 0f       	add	r18, r18
     60e:	33 1f       	adc	r19, r19
     610:	22 5c       	subi	r18, 0xC2	; 194
     612:	36 4f       	sbci	r19, 0xF6	; 246
     614:	f9 01       	movw	r30, r18
     616:	80 83       	st	Z, r24
     618:	91 83       	std	Z+1, r25	; 0x01
     61a:	a2 83       	std	Z+2, r26	; 0x02
     61c:	b3 83       	std	Z+3, r27	; 0x03
		set_name[i] = (set_name[i] << 8) | name1;
     61e:	89 81       	ldd	r24, Y+1	; 0x01
     620:	68 2f       	mov	r22, r24
     622:	70 e0       	ldi	r23, 0x00	; 0
     624:	89 81       	ldd	r24, Y+1	; 0x01
     626:	88 2f       	mov	r24, r24
     628:	90 e0       	ldi	r25, 0x00	; 0
     62a:	88 0f       	add	r24, r24
     62c:	99 1f       	adc	r25, r25
     62e:	88 0f       	add	r24, r24
     630:	99 1f       	adc	r25, r25
     632:	82 5c       	subi	r24, 0xC2	; 194
     634:	96 4f       	sbci	r25, 0xF6	; 246
     636:	fc 01       	movw	r30, r24
     638:	80 81       	ld	r24, Z
     63a:	91 81       	ldd	r25, Z+1	; 0x01
     63c:	a2 81       	ldd	r26, Z+2	; 0x02
     63e:	b3 81       	ldd	r27, Z+3	; 0x03
     640:	22 27       	eor	r18, r18
     642:	38 2f       	mov	r19, r24
     644:	49 2f       	mov	r20, r25
     646:	5a 2f       	mov	r21, r26
     648:	8c 81       	ldd	r24, Y+4	; 0x04
     64a:	88 2f       	mov	r24, r24
     64c:	90 e0       	ldi	r25, 0x00	; 0
     64e:	a0 e0       	ldi	r26, 0x00	; 0
     650:	b0 e0       	ldi	r27, 0x00	; 0
     652:	82 2b       	or	r24, r18
     654:	93 2b       	or	r25, r19
     656:	a4 2b       	or	r26, r20
     658:	b5 2b       	or	r27, r21
     65a:	9b 01       	movw	r18, r22
     65c:	22 0f       	add	r18, r18
     65e:	33 1f       	adc	r19, r19
     660:	22 0f       	add	r18, r18
     662:	33 1f       	adc	r19, r19
     664:	22 5c       	subi	r18, 0xC2	; 194
     666:	36 4f       	sbci	r19, 0xF6	; 246
     668:	f9 01       	movw	r30, r18
     66a:	80 83       	st	Z, r24
     66c:	91 83       	std	Z+1, r25	; 0x01
     66e:	a2 83       	std	Z+2, r26	; 0x02
     670:	b3 83       	std	Z+3, r27	; 0x03
				time_ctrl_value_buff[i][j][k] = 500;
			}
		}
	}

	for (i = 0; i < MAX_IQR_QUANTITY; i++)
     672:	89 81       	ldd	r24, Y+1	; 0x01
     674:	8f 5f       	subi	r24, 0xFF	; 255
     676:	89 83       	std	Y+1, r24	; 0x01
     678:	89 81       	ldd	r24, Y+1	; 0x01
     67a:	88 31       	cpi	r24, 0x18	; 24
     67c:	08 f4       	brcc	.+2      	; 0x680 <__LOCK_REGION_LENGTH__+0x280>
     67e:	c9 ce       	rjmp	.-622    	; 0x412 <__LOCK_REGION_LENGTH__+0x12>
		set_name[i] |= 0x23;		//固定前面显示#
		set_name[i] = (set_name[i] << 8) | name3;
		set_name[i] = (set_name[i] << 8) | name2;
		set_name[i] = (set_name[i] << 8) | name1;
	}
}
     680:	00 00       	nop
     682:	26 96       	adiw	r28, 0x06	; 6
     684:	0f b6       	in	r0, 0x3f	; 63
     686:	f8 94       	cli
     688:	de bf       	out	0x3e, r29	; 62
     68a:	0f be       	out	0x3f, r0	; 63
     68c:	cd bf       	out	0x3d, r28	; 61
     68e:	df 91       	pop	r29
     690:	cf 91       	pop	r28
     692:	08 95       	ret

00000694 <update_main_page>:
// 		}
// 	}
// }

void update_main_page(void)
{
     694:	cf 93       	push	r28
     696:	df 93       	push	r29
     698:	1f 92       	push	r1
     69a:	cd b7       	in	r28, 0x3d	; 61
     69c:	de b7       	in	r29, 0x3e	; 62
	uint8_t i = 0;
     69e:	19 82       	std	Y+1, r1	; 0x01

	for (i = 0; i < IQR_QUANTITY_PER_PAGE; i++)
     6a0:	19 82       	std	Y+1, r1	; 0x01
     6a2:	84 c1       	rjmp	.+776    	; 0x9ac <update_main_page+0x318>
	{
		send_variables(MAINPAGE_NUM1_ADDR + (i * 2), (i + (pre_main_page * IQR_QUANTITY_PER_PAGE) + 1));		//主页面传感器序号显示
     6a4:	89 81       	ldd	r24, Y+1	; 0x01
     6a6:	48 2f       	mov	r20, r24
     6a8:	50 e0       	ldi	r21, 0x00	; 0
     6aa:	80 91 99 01 	lds	r24, 0x0199	; 0x800199 <pre_main_page>
     6ae:	28 2f       	mov	r18, r24
     6b0:	88 0f       	add	r24, r24
     6b2:	33 0b       	sbc	r19, r19
     6b4:	c9 01       	movw	r24, r18
     6b6:	88 0f       	add	r24, r24
     6b8:	99 1f       	adc	r25, r25
     6ba:	82 0f       	add	r24, r18
     6bc:	93 1f       	adc	r25, r19
     6be:	88 0f       	add	r24, r24
     6c0:	99 1f       	adc	r25, r25
     6c2:	84 0f       	add	r24, r20
     6c4:	95 1f       	adc	r25, r21
     6c6:	01 96       	adiw	r24, 0x01	; 1
     6c8:	9c 01       	movw	r18, r24
     6ca:	89 81       	ldd	r24, Y+1	; 0x01
     6cc:	88 2f       	mov	r24, r24
     6ce:	90 e0       	ldi	r25, 0x00	; 0
     6d0:	88 0f       	add	r24, r24
     6d2:	99 1f       	adc	r25, r25
     6d4:	b9 01       	movw	r22, r18
     6d6:	0e 94 bc 12 	call	0x2578	; 0x2578 <send_variables>
		send_variables(MAIN_OUTRATE1_ADDR + (i * 2), output_rate[i + (pre_main_page * IQR_QUANTITY_PER_PAGE)]); //传感器输出比例
     6da:	89 81       	ldd	r24, Y+1	; 0x01
     6dc:	48 2f       	mov	r20, r24
     6de:	50 e0       	ldi	r21, 0x00	; 0
     6e0:	80 91 99 01 	lds	r24, 0x0199	; 0x800199 <pre_main_page>
     6e4:	28 2f       	mov	r18, r24
     6e6:	88 0f       	add	r24, r24
     6e8:	33 0b       	sbc	r19, r19
     6ea:	c9 01       	movw	r24, r18
     6ec:	88 0f       	add	r24, r24
     6ee:	99 1f       	adc	r25, r25
     6f0:	82 0f       	add	r24, r18
     6f2:	93 1f       	adc	r25, r19
     6f4:	88 0f       	add	r24, r24
     6f6:	99 1f       	adc	r25, r25
     6f8:	84 0f       	add	r24, r20
     6fa:	95 1f       	adc	r25, r21
     6fc:	89 55       	subi	r24, 0x59	; 89
     6fe:	9e 4f       	sbci	r25, 0xFE	; 254
     700:	dc 01       	movw	r26, r24
     702:	8c 91       	ld	r24, X
     704:	28 2f       	mov	r18, r24
     706:	30 e0       	ldi	r19, 0x00	; 0
     708:	89 81       	ldd	r24, Y+1	; 0x01
     70a:	88 2f       	mov	r24, r24
     70c:	90 e0       	ldi	r25, 0x00	; 0
     70e:	06 96       	adiw	r24, 0x06	; 6
     710:	88 0f       	add	r24, r24
     712:	99 1f       	adc	r25, r25
     714:	b9 01       	movw	r22, r18
     716:	0e 94 bc 12 	call	0x2578	; 0x2578 <send_variables>
		send_variables(MAIN_RUNTEMP1_ADDR + (i * 2), run_temp[i + (pre_main_page * IQR_QUANTITY_PER_PAGE)] +
     71a:	89 81       	ldd	r24, Y+1	; 0x01
     71c:	48 2f       	mov	r20, r24
     71e:	50 e0       	ldi	r21, 0x00	; 0
     720:	80 91 99 01 	lds	r24, 0x0199	; 0x800199 <pre_main_page>
     724:	28 2f       	mov	r18, r24
     726:	88 0f       	add	r24, r24
     728:	33 0b       	sbc	r19, r19
     72a:	c9 01       	movw	r24, r18
     72c:	88 0f       	add	r24, r24
     72e:	99 1f       	adc	r25, r25
     730:	82 0f       	add	r24, r18
     732:	93 1f       	adc	r25, r19
     734:	88 0f       	add	r24, r24
     736:	99 1f       	adc	r25, r25
     738:	84 0f       	add	r24, r20
     73a:	95 1f       	adc	r25, r21
     73c:	88 0f       	add	r24, r24
     73e:	99 1f       	adc	r25, r25
     740:	81 51       	subi	r24, 0x11	; 17
     742:	9e 4f       	sbci	r25, 0xFE	; 254
     744:	fc 01       	movw	r30, r24
     746:	80 81       	ld	r24, Z
     748:	91 81       	ldd	r25, Z+1	; 0x01
     74a:	fc 01       	movw	r30, r24
														 temp_unit * (run_temp[i + (pre_main_page * IQR_QUANTITY_PER_PAGE)] * 8 / 10 + 32)); //运行温度
     74c:	89 81       	ldd	r24, Y+1	; 0x01
     74e:	48 2f       	mov	r20, r24
     750:	50 e0       	ldi	r21, 0x00	; 0
     752:	80 91 99 01 	lds	r24, 0x0199	; 0x800199 <pre_main_page>
     756:	28 2f       	mov	r18, r24
     758:	88 0f       	add	r24, r24
     75a:	33 0b       	sbc	r19, r19
     75c:	c9 01       	movw	r24, r18
     75e:	88 0f       	add	r24, r24
     760:	99 1f       	adc	r25, r25
     762:	82 0f       	add	r24, r18
     764:	93 1f       	adc	r25, r19
     766:	88 0f       	add	r24, r24
     768:	99 1f       	adc	r25, r25
     76a:	84 0f       	add	r24, r20
     76c:	95 1f       	adc	r25, r21
     76e:	88 0f       	add	r24, r24
     770:	99 1f       	adc	r25, r25
     772:	81 51       	subi	r24, 0x11	; 17
     774:	9e 4f       	sbci	r25, 0xFE	; 254
     776:	dc 01       	movw	r26, r24
     778:	8d 91       	ld	r24, X+
     77a:	9c 91       	ld	r25, X
     77c:	88 0f       	add	r24, r24
     77e:	99 1f       	adc	r25, r25
     780:	88 0f       	add	r24, r24
     782:	99 1f       	adc	r25, r25
     784:	88 0f       	add	r24, r24
     786:	99 1f       	adc	r25, r25
     788:	2a e0       	ldi	r18, 0x0A	; 10
     78a:	30 e0       	ldi	r19, 0x00	; 0
     78c:	b9 01       	movw	r22, r18
     78e:	0e 94 12 28 	call	0x5024	; 0x5024 <__divmodhi4>
     792:	cb 01       	movw	r24, r22
     794:	80 96       	adiw	r24, 0x20	; 32
     796:	ac 01       	movw	r20, r24
     798:	20 91 b5 02 	lds	r18, 0x02B5	; 0x8002b5 <temp_unit>
     79c:	30 91 b6 02 	lds	r19, 0x02B6	; 0x8002b6 <temp_unit+0x1>
     7a0:	42 9f       	mul	r20, r18
     7a2:	c0 01       	movw	r24, r0
     7a4:	43 9f       	mul	r20, r19
     7a6:	90 0d       	add	r25, r0
     7a8:	52 9f       	mul	r21, r18
     7aa:	90 0d       	add	r25, r0
     7ac:	11 24       	eor	r1, r1

	for (i = 0; i < IQR_QUANTITY_PER_PAGE; i++)
	{
		send_variables(MAINPAGE_NUM1_ADDR + (i * 2), (i + (pre_main_page * IQR_QUANTITY_PER_PAGE) + 1));		//主页面传感器序号显示
		send_variables(MAIN_OUTRATE1_ADDR + (i * 2), output_rate[i + (pre_main_page * IQR_QUANTITY_PER_PAGE)]); //传感器输出比例
		send_variables(MAIN_RUNTEMP1_ADDR + (i * 2), run_temp[i + (pre_main_page * IQR_QUANTITY_PER_PAGE)] +
     7ae:	9f 01       	movw	r18, r30
     7b0:	28 0f       	add	r18, r24
     7b2:	39 1f       	adc	r19, r25
     7b4:	89 81       	ldd	r24, Y+1	; 0x01
     7b6:	88 2f       	mov	r24, r24
     7b8:	90 e0       	ldi	r25, 0x00	; 0
     7ba:	0c 96       	adiw	r24, 0x0c	; 12
     7bc:	88 0f       	add	r24, r24
     7be:	99 1f       	adc	r25, r25
     7c0:	b9 01       	movw	r22, r18
     7c2:	0e 94 bc 12 	call	0x2578	; 0x2578 <send_variables>
														 temp_unit * (run_temp[i + (pre_main_page * IQR_QUANTITY_PER_PAGE)] * 8 / 10 + 32)); //运行温度
		send_variables(MAIN_SETTEMP1_ADDR + (i * 2), set_temp[i + (pre_main_page * IQR_QUANTITY_PER_PAGE)]);								 //设定温度
     7c6:	89 81       	ldd	r24, Y+1	; 0x01
     7c8:	48 2f       	mov	r20, r24
     7ca:	50 e0       	ldi	r21, 0x00	; 0
     7cc:	80 91 99 01 	lds	r24, 0x0199	; 0x800199 <pre_main_page>
     7d0:	28 2f       	mov	r18, r24
     7d2:	88 0f       	add	r24, r24
     7d4:	33 0b       	sbc	r19, r19
     7d6:	c9 01       	movw	r24, r18
     7d8:	88 0f       	add	r24, r24
     7da:	99 1f       	adc	r25, r25
     7dc:	82 0f       	add	r24, r18
     7de:	93 1f       	adc	r25, r19
     7e0:	88 0f       	add	r24, r24
     7e2:	99 1f       	adc	r25, r25
     7e4:	84 0f       	add	r24, r20
     7e6:	95 1f       	adc	r25, r21
     7e8:	88 0f       	add	r24, r24
     7ea:	99 1f       	adc	r25, r25
     7ec:	8d 52       	subi	r24, 0x2D	; 45
     7ee:	95 4f       	sbci	r25, 0xF5	; 245
     7f0:	fc 01       	movw	r30, r24
     7f2:	80 81       	ld	r24, Z
     7f4:	91 81       	ldd	r25, Z+1	; 0x01
     7f6:	9c 01       	movw	r18, r24
     7f8:	89 81       	ldd	r24, Y+1	; 0x01
     7fa:	88 2f       	mov	r24, r24
     7fc:	90 e0       	ldi	r25, 0x00	; 0
     7fe:	42 96       	adiw	r24, 0x12	; 18
     800:	88 0f       	add	r24, r24
     802:	99 1f       	adc	r25, r25
     804:	b9 01       	movw	r22, r18
     806:	0e 94 bc 12 	call	0x2578	; 0x2578 <send_variables>
		send_variables(MAIN_SENSOR1_TYPE_ADDR + (i * 2), TYPE_J + (sensor_type[i + (pre_main_page * IQR_QUANTITY_PER_PAGE)]) * TYPE_K);
     80a:	89 81       	ldd	r24, Y+1	; 0x01
     80c:	48 2f       	mov	r20, r24
     80e:	50 e0       	ldi	r21, 0x00	; 0
     810:	80 91 99 01 	lds	r24, 0x0199	; 0x800199 <pre_main_page>
     814:	28 2f       	mov	r18, r24
     816:	88 0f       	add	r24, r24
     818:	33 0b       	sbc	r19, r19
     81a:	c9 01       	movw	r24, r18
     81c:	88 0f       	add	r24, r24
     81e:	99 1f       	adc	r25, r25
     820:	82 0f       	add	r24, r18
     822:	93 1f       	adc	r25, r19
     824:	88 0f       	add	r24, r24
     826:	99 1f       	adc	r25, r25
     828:	84 0f       	add	r24, r20
     82a:	95 1f       	adc	r25, r21
     82c:	88 0f       	add	r24, r24
     82e:	99 1f       	adc	r25, r25
     830:	81 5b       	subi	r24, 0xB1	; 177
     832:	9d 4f       	sbci	r25, 0xFD	; 253
     834:	dc 01       	movw	r26, r24
     836:	8d 91       	ld	r24, X+
     838:	9c 91       	ld	r25, X
     83a:	86 5b       	subi	r24, 0xB6	; 182
     83c:	9f 4f       	sbci	r25, 0xFF	; 255
     83e:	38 2f       	mov	r19, r24
     840:	22 27       	eor	r18, r18
     842:	89 81       	ldd	r24, Y+1	; 0x01
     844:	88 2f       	mov	r24, r24
     846:	90 e0       	ldi	r25, 0x00	; 0
     848:	88 5e       	subi	r24, 0xE8	; 232
     84a:	9e 4f       	sbci	r25, 0xFE	; 254
     84c:	88 0f       	add	r24, r24
     84e:	99 1f       	adc	r25, r25
     850:	b9 01       	movw	r22, r18
     852:	0e 94 bc 12 	call	0x2578	; 0x2578 <send_variables>

		send_name(MAIN_NAME1_ADDR + (i * 8), set_name[i + (pre_main_page * IQR_QUANTITY_PER_PAGE)]);
     856:	89 81       	ldd	r24, Y+1	; 0x01
     858:	48 2f       	mov	r20, r24
     85a:	50 e0       	ldi	r21, 0x00	; 0
     85c:	80 91 99 01 	lds	r24, 0x0199	; 0x800199 <pre_main_page>
     860:	28 2f       	mov	r18, r24
     862:	88 0f       	add	r24, r24
     864:	33 0b       	sbc	r19, r19
     866:	c9 01       	movw	r24, r18
     868:	88 0f       	add	r24, r24
     86a:	99 1f       	adc	r25, r25
     86c:	82 0f       	add	r24, r18
     86e:	93 1f       	adc	r25, r19
     870:	88 0f       	add	r24, r24
     872:	99 1f       	adc	r25, r25
     874:	84 0f       	add	r24, r20
     876:	95 1f       	adc	r25, r21
     878:	88 0f       	add	r24, r24
     87a:	99 1f       	adc	r25, r25
     87c:	88 0f       	add	r24, r24
     87e:	99 1f       	adc	r25, r25
     880:	82 5c       	subi	r24, 0xC2	; 194
     882:	96 4f       	sbci	r25, 0xF6	; 246
     884:	fc 01       	movw	r30, r24
     886:	80 81       	ld	r24, Z
     888:	91 81       	ldd	r25, Z+1	; 0x01
     88a:	a2 81       	ldd	r26, Z+2	; 0x02
     88c:	b3 81       	ldd	r27, Z+3	; 0x03
     88e:	29 81       	ldd	r18, Y+1	; 0x01
     890:	22 2f       	mov	r18, r18
     892:	30 e0       	ldi	r19, 0x00	; 0
     894:	20 5c       	subi	r18, 0xC0	; 192
     896:	3f 4f       	sbci	r19, 0xFF	; 255
     898:	22 0f       	add	r18, r18
     89a:	33 1f       	adc	r19, r19
     89c:	22 0f       	add	r18, r18
     89e:	33 1f       	adc	r19, r19
     8a0:	22 0f       	add	r18, r18
     8a2:	33 1f       	adc	r19, r19
     8a4:	ac 01       	movw	r20, r24
     8a6:	bd 01       	movw	r22, r26
     8a8:	c9 01       	movw	r24, r18
     8aa:	0e 94 06 13 	call	0x260c	; 0x260c <send_name>

		/*更新传感状态图标 sensor_sta >= 3 时显示告警 0~2：关闭 开启 跟随*/
		/*更新告警类型图标 sensor_sta >= 3 时显示对应各种告警类型  0~2：显示运行正常*/
		if (sensor_sta[i + (pre_main_page * IQR_QUANTITY_PER_PAGE)] >= 3)
     8ae:	89 81       	ldd	r24, Y+1	; 0x01
     8b0:	48 2f       	mov	r20, r24
     8b2:	50 e0       	ldi	r21, 0x00	; 0
     8b4:	80 91 99 01 	lds	r24, 0x0199	; 0x800199 <pre_main_page>
     8b8:	28 2f       	mov	r18, r24
     8ba:	88 0f       	add	r24, r24
     8bc:	33 0b       	sbc	r19, r19
     8be:	c9 01       	movw	r24, r18
     8c0:	88 0f       	add	r24, r24
     8c2:	99 1f       	adc	r25, r25
     8c4:	82 0f       	add	r24, r18
     8c6:	93 1f       	adc	r25, r19
     8c8:	88 0f       	add	r24, r24
     8ca:	99 1f       	adc	r25, r25
     8cc:	84 0f       	add	r24, r20
     8ce:	95 1f       	adc	r25, r21
     8d0:	81 54       	subi	r24, 0x41	; 65
     8d2:	9e 4f       	sbci	r25, 0xFE	; 254
     8d4:	dc 01       	movw	r26, r24
     8d6:	8c 91       	ld	r24, X
     8d8:	83 30       	cpi	r24, 0x03	; 3
     8da:	98 f1       	brcs	.+102    	; 0x942 <update_main_page+0x2ae>
		{
			send_variables(MAIN_STA1_ADDR + (i * 4), 3);
     8dc:	89 81       	ldd	r24, Y+1	; 0x01
     8de:	88 2f       	mov	r24, r24
     8e0:	90 e0       	ldi	r25, 0x00	; 0
     8e2:	84 56       	subi	r24, 0x64	; 100
     8e4:	9f 4f       	sbci	r25, 0xFF	; 255
     8e6:	88 0f       	add	r24, r24
     8e8:	99 1f       	adc	r25, r25
     8ea:	88 0f       	add	r24, r24
     8ec:	99 1f       	adc	r25, r25
     8ee:	63 e0       	ldi	r22, 0x03	; 3
     8f0:	70 e0       	ldi	r23, 0x00	; 0
     8f2:	0e 94 bc 12 	call	0x2578	; 0x2578 <send_variables>
			send_variables(MAIN_ALARM1_ADDR + (i * 8), sensor_sta[i + (pre_main_page * IQR_QUANTITY_PER_PAGE)]);
     8f6:	89 81       	ldd	r24, Y+1	; 0x01
     8f8:	48 2f       	mov	r20, r24
     8fa:	50 e0       	ldi	r21, 0x00	; 0
     8fc:	80 91 99 01 	lds	r24, 0x0199	; 0x800199 <pre_main_page>
     900:	28 2f       	mov	r18, r24
     902:	88 0f       	add	r24, r24
     904:	33 0b       	sbc	r19, r19
     906:	c9 01       	movw	r24, r18
     908:	88 0f       	add	r24, r24
     90a:	99 1f       	adc	r25, r25
     90c:	82 0f       	add	r24, r18
     90e:	93 1f       	adc	r25, r19
     910:	88 0f       	add	r24, r24
     912:	99 1f       	adc	r25, r25
     914:	84 0f       	add	r24, r20
     916:	95 1f       	adc	r25, r21
     918:	81 54       	subi	r24, 0x41	; 65
     91a:	9e 4f       	sbci	r25, 0xFE	; 254
     91c:	fc 01       	movw	r30, r24
     91e:	80 81       	ld	r24, Z
     920:	28 2f       	mov	r18, r24
     922:	30 e0       	ldi	r19, 0x00	; 0
     924:	89 81       	ldd	r24, Y+1	; 0x01
     926:	88 2f       	mov	r24, r24
     928:	90 e0       	ldi	r25, 0x00	; 0
     92a:	88 5b       	subi	r24, 0xB8	; 184
     92c:	9f 4f       	sbci	r25, 0xFF	; 255
     92e:	88 0f       	add	r24, r24
     930:	99 1f       	adc	r25, r25
     932:	88 0f       	add	r24, r24
     934:	99 1f       	adc	r25, r25
     936:	88 0f       	add	r24, r24
     938:	99 1f       	adc	r25, r25
     93a:	b9 01       	movw	r22, r18
     93c:	0e 94 bc 12 	call	0x2578	; 0x2578 <send_variables>
     940:	32 c0       	rjmp	.+100    	; 0x9a6 <update_main_page+0x312>
		}
		else
		{
			send_variables(MAIN_STA1_ADDR + (i * 4), sensor_sta[i + (pre_main_page * IQR_QUANTITY_PER_PAGE)]);
     942:	89 81       	ldd	r24, Y+1	; 0x01
     944:	48 2f       	mov	r20, r24
     946:	50 e0       	ldi	r21, 0x00	; 0
     948:	80 91 99 01 	lds	r24, 0x0199	; 0x800199 <pre_main_page>
     94c:	28 2f       	mov	r18, r24
     94e:	88 0f       	add	r24, r24
     950:	33 0b       	sbc	r19, r19
     952:	c9 01       	movw	r24, r18
     954:	88 0f       	add	r24, r24
     956:	99 1f       	adc	r25, r25
     958:	82 0f       	add	r24, r18
     95a:	93 1f       	adc	r25, r19
     95c:	88 0f       	add	r24, r24
     95e:	99 1f       	adc	r25, r25
     960:	84 0f       	add	r24, r20
     962:	95 1f       	adc	r25, r21
     964:	81 54       	subi	r24, 0x41	; 65
     966:	9e 4f       	sbci	r25, 0xFE	; 254
     968:	dc 01       	movw	r26, r24
     96a:	8c 91       	ld	r24, X
     96c:	28 2f       	mov	r18, r24
     96e:	30 e0       	ldi	r19, 0x00	; 0
     970:	89 81       	ldd	r24, Y+1	; 0x01
     972:	88 2f       	mov	r24, r24
     974:	90 e0       	ldi	r25, 0x00	; 0
     976:	84 56       	subi	r24, 0x64	; 100
     978:	9f 4f       	sbci	r25, 0xFF	; 255
     97a:	88 0f       	add	r24, r24
     97c:	99 1f       	adc	r25, r25
     97e:	88 0f       	add	r24, r24
     980:	99 1f       	adc	r25, r25
     982:	b9 01       	movw	r22, r18
     984:	0e 94 bc 12 	call	0x2578	; 0x2578 <send_variables>
			send_variables(MAIN_ALARM1_ADDR + (i * 8), 2);
     988:	89 81       	ldd	r24, Y+1	; 0x01
     98a:	88 2f       	mov	r24, r24
     98c:	90 e0       	ldi	r25, 0x00	; 0
     98e:	88 5b       	subi	r24, 0xB8	; 184
     990:	9f 4f       	sbci	r25, 0xFF	; 255
     992:	88 0f       	add	r24, r24
     994:	99 1f       	adc	r25, r25
     996:	88 0f       	add	r24, r24
     998:	99 1f       	adc	r25, r25
     99a:	88 0f       	add	r24, r24
     99c:	99 1f       	adc	r25, r25
     99e:	62 e0       	ldi	r22, 0x02	; 2
     9a0:	70 e0       	ldi	r23, 0x00	; 0
     9a2:	0e 94 bc 12 	call	0x2578	; 0x2578 <send_variables>

void update_main_page(void)
{
	uint8_t i = 0;

	for (i = 0; i < IQR_QUANTITY_PER_PAGE; i++)
     9a6:	89 81       	ldd	r24, Y+1	; 0x01
     9a8:	8f 5f       	subi	r24, 0xFF	; 255
     9aa:	89 83       	std	Y+1, r24	; 0x01
     9ac:	89 81       	ldd	r24, Y+1	; 0x01
     9ae:	86 30       	cpi	r24, 0x06	; 6
     9b0:	08 f4       	brcc	.+2      	; 0x9b4 <update_main_page+0x320>
     9b2:	78 ce       	rjmp	.-784    	; 0x6a4 <update_main_page+0x10>
		{
			send_variables(MAIN_STA1_ADDR + (i * 4), sensor_sta[i + (pre_main_page * IQR_QUANTITY_PER_PAGE)]);
			send_variables(MAIN_ALARM1_ADDR + (i * 8), 2);
		}
	}
}
     9b4:	00 00       	nop
     9b6:	0f 90       	pop	r0
     9b8:	df 91       	pop	r29
     9ba:	cf 91       	pop	r28
     9bc:	08 95       	ret

000009be <key_action>:

void key_action(uint16_t key_code)
{
     9be:	cf 93       	push	r28
     9c0:	df 93       	push	r29
     9c2:	00 d0       	rcall	.+0      	; 0x9c4 <key_action+0x6>
     9c4:	1f 92       	push	r1
     9c6:	cd b7       	in	r28, 0x3d	; 61
     9c8:	de b7       	in	r29, 0x3e	; 62
     9ca:	9b 83       	std	Y+3, r25	; 0x03
     9cc:	8a 83       	std	Y+2, r24	; 0x02
	static uint8_t alarm_page_num = 1;
	uint8_t max_alarm_page_num;

	if (alarm_cnt == 0)
     9ce:	80 91 bb 02 	lds	r24, 0x02BB	; 0x8002bb <alarm_cnt>
     9d2:	88 23       	and	r24, r24
     9d4:	19 f4       	brne	.+6      	; 0x9dc <key_action+0x1e>
	{
		max_alarm_page_num = 1;
     9d6:	81 e0       	ldi	r24, 0x01	; 1
     9d8:	89 83       	std	Y+1, r24	; 0x01
     9da:	30 c0       	rjmp	.+96     	; 0xa3c <key_action+0x7e>
	}
	else if (alarm_cnt % 7 == 0)
     9dc:	20 91 bb 02 	lds	r18, 0x02BB	; 0x8002bb <alarm_cnt>
     9e0:	85 e2       	ldi	r24, 0x25	; 37
     9e2:	28 9f       	mul	r18, r24
     9e4:	81 2d       	mov	r24, r1
     9e6:	11 24       	eor	r1, r1
     9e8:	92 2f       	mov	r25, r18
     9ea:	98 1b       	sub	r25, r24
     9ec:	96 95       	lsr	r25
     9ee:	89 0f       	add	r24, r25
     9f0:	98 2f       	mov	r25, r24
     9f2:	96 95       	lsr	r25
     9f4:	96 95       	lsr	r25
     9f6:	89 2f       	mov	r24, r25
     9f8:	88 0f       	add	r24, r24
     9fa:	88 0f       	add	r24, r24
     9fc:	88 0f       	add	r24, r24
     9fe:	89 1b       	sub	r24, r25
     a00:	92 2f       	mov	r25, r18
     a02:	98 1b       	sub	r25, r24
     a04:	99 23       	and	r25, r25
     a06:	69 f4       	brne	.+26     	; 0xa22 <key_action+0x64>
	{
		max_alarm_page_num = alarm_cnt / 7;
     a08:	90 91 bb 02 	lds	r25, 0x02BB	; 0x8002bb <alarm_cnt>
     a0c:	85 e2       	ldi	r24, 0x25	; 37
     a0e:	98 9f       	mul	r25, r24
     a10:	81 2d       	mov	r24, r1
     a12:	11 24       	eor	r1, r1
     a14:	98 1b       	sub	r25, r24
     a16:	96 95       	lsr	r25
     a18:	89 0f       	add	r24, r25
     a1a:	86 95       	lsr	r24
     a1c:	86 95       	lsr	r24
     a1e:	89 83       	std	Y+1, r24	; 0x01
     a20:	0d c0       	rjmp	.+26     	; 0xa3c <key_action+0x7e>
	}
	else
	{
		max_alarm_page_num = alarm_cnt / 7 + 1;
     a22:	90 91 bb 02 	lds	r25, 0x02BB	; 0x8002bb <alarm_cnt>
     a26:	85 e2       	ldi	r24, 0x25	; 37
     a28:	98 9f       	mul	r25, r24
     a2a:	81 2d       	mov	r24, r1
     a2c:	11 24       	eor	r1, r1
     a2e:	98 1b       	sub	r25, r24
     a30:	96 95       	lsr	r25
     a32:	89 0f       	add	r24, r25
     a34:	86 95       	lsr	r24
     a36:	86 95       	lsr	r24
     a38:	8f 5f       	subi	r24, 0xFF	; 255
     a3a:	89 83       	std	Y+1, r24	; 0x01
	}

	switch (key_code)
     a3c:	8a 81       	ldd	r24, Y+2	; 0x02
     a3e:	9b 81       	ldd	r25, Y+3	; 0x03
     a40:	cc 01       	movw	r24, r24
     a42:	a0 e0       	ldi	r26, 0x00	; 0
     a44:	b0 e0       	ldi	r27, 0x00	; 0
     a46:	40 e0       	ldi	r20, 0x00	; 0
     a48:	50 e0       	ldi	r21, 0x00	; 0
     a4a:	2b e2       	ldi	r18, 0x2B	; 43
     a4c:	30 e0       	ldi	r19, 0x00	; 0
     a4e:	84 1b       	sub	r24, r20
     a50:	95 0b       	sbc	r25, r21
     a52:	28 17       	cp	r18, r24
     a54:	39 07       	cpc	r19, r25
     a56:	08 f4       	brcc	.+2      	; 0xa5a <key_action+0x9c>
     a58:	72 c1       	rjmp	.+740    	; 0xd3e <key_action+0x380>
     a5a:	8a 5b       	subi	r24, 0xBA	; 186
     a5c:	9f 4f       	sbci	r25, 0xFF	; 255
     a5e:	fc 01       	movw	r30, r24
     a60:	0c 94 48 28 	jmp	0x5090	; 0x5090 <__tablejump2__>
	{
	case SWITCH_LANGUAGE:
		pre_language ^= 0x01;
     a64:	90 91 98 01 	lds	r25, 0x0198	; 0x800198 <pre_language>
     a68:	81 e0       	ldi	r24, 0x01	; 1
     a6a:	89 27       	eor	r24, r25
     a6c:	80 93 98 01 	sts	0x0198, r24	; 0x800198 <pre_language>
		switch_language();
     a70:	0e 94 69 12 	call	0x24d2	; 0x24d2 <switch_language>
		break;
     a74:	65 c1       	rjmp	.+714    	; 0xd40 <key_action+0x382>
	case CLEAR_ALARM_SOUND:
		ALARM_OFF;
     a76:	82 e3       	ldi	r24, 0x32	; 50
     a78:	90 e0       	ldi	r25, 0x00	; 0
     a7a:	22 e3       	ldi	r18, 0x32	; 50
     a7c:	30 e0       	ldi	r19, 0x00	; 0
     a7e:	f9 01       	movw	r30, r18
     a80:	20 81       	ld	r18, Z
     a82:	2f 7e       	andi	r18, 0xEF	; 239
     a84:	fc 01       	movw	r30, r24
     a86:	20 83       	st	Z, r18
		break;
     a88:	5b c1       	rjmp	.+694    	; 0xd40 <key_action+0x382>
	case MAIN_PAGE_UP:
		if (--pre_main_page <= 0)
     a8a:	80 91 99 01 	lds	r24, 0x0199	; 0x800199 <pre_main_page>
     a8e:	81 50       	subi	r24, 0x01	; 1
     a90:	80 93 99 01 	sts	0x0199, r24	; 0x800199 <pre_main_page>
     a94:	80 91 99 01 	lds	r24, 0x0199	; 0x800199 <pre_main_page>
     a98:	18 16       	cp	r1, r24
     a9a:	14 f0       	brlt	.+4      	; 0xaa0 <key_action+0xe2>
			pre_main_page = 0;
     a9c:	10 92 99 01 	sts	0x0199, r1	; 0x800199 <pre_main_page>
		update_main_page();
     aa0:	0e 94 4a 03 	call	0x694	; 0x694 <update_main_page>
		break;
     aa4:	4d c1       	rjmp	.+666    	; 0xd40 <key_action+0x382>
	case MAIN_PAGE_DOWN:
		if (++pre_main_page >= MAX_PAGE_QUANTITY-1)
     aa6:	80 91 99 01 	lds	r24, 0x0199	; 0x800199 <pre_main_page>
     aaa:	8f 5f       	subi	r24, 0xFF	; 255
     aac:	80 93 99 01 	sts	0x0199, r24	; 0x800199 <pre_main_page>
     ab0:	80 91 99 01 	lds	r24, 0x0199	; 0x800199 <pre_main_page>
     ab4:	83 30       	cpi	r24, 0x03	; 3
     ab6:	1c f0       	brlt	.+6      	; 0xabe <key_action+0x100>
			pre_main_page = MAX_PAGE_QUANTITY-1;
     ab8:	83 e0       	ldi	r24, 0x03	; 3
     aba:	80 93 99 01 	sts	0x0199, r24	; 0x800199 <pre_main_page>
		update_main_page();
     abe:	0e 94 4a 03 	call	0x694	; 0x694 <update_main_page>
		break;
     ac2:	3e c1       	rjmp	.+636    	; 0xd40 <key_action+0x382>
	case MAIN_SENSOR1_SET:
		set_num = 0 + (pre_main_page * IQR_QUANTITY_PER_PAGE);
     ac4:	80 91 99 01 	lds	r24, 0x0199	; 0x800199 <pre_main_page>
     ac8:	98 2f       	mov	r25, r24
     aca:	89 2f       	mov	r24, r25
     acc:	88 0f       	add	r24, r24
     ace:	89 0f       	add	r24, r25
     ad0:	88 0f       	add	r24, r24
     ad2:	80 93 9c 01 	sts	0x019C, r24	; 0x80019c <set_num>
		update_single_set_page();
     ad6:	0e 94 39 0c 	call	0x1872	; 0x1872 <update_single_set_page>
		break;
     ada:	32 c1       	rjmp	.+612    	; 0xd40 <key_action+0x382>
	case MAIN_SENSOR2_SET:
		set_num = 1 + (pre_main_page * IQR_QUANTITY_PER_PAGE);
     adc:	80 91 99 01 	lds	r24, 0x0199	; 0x800199 <pre_main_page>
     ae0:	98 2f       	mov	r25, r24
     ae2:	89 2f       	mov	r24, r25
     ae4:	88 0f       	add	r24, r24
     ae6:	89 0f       	add	r24, r25
     ae8:	88 0f       	add	r24, r24
     aea:	8f 5f       	subi	r24, 0xFF	; 255
     aec:	80 93 9c 01 	sts	0x019C, r24	; 0x80019c <set_num>
		update_single_set_page();
     af0:	0e 94 39 0c 	call	0x1872	; 0x1872 <update_single_set_page>
		break;
     af4:	25 c1       	rjmp	.+586    	; 0xd40 <key_action+0x382>
	case MAIN_SENSOR3_SET:
		set_num = 2 + (pre_main_page * IQR_QUANTITY_PER_PAGE);
     af6:	80 91 99 01 	lds	r24, 0x0199	; 0x800199 <pre_main_page>
     afa:	98 2f       	mov	r25, r24
     afc:	89 2f       	mov	r24, r25
     afe:	88 0f       	add	r24, r24
     b00:	89 0f       	add	r24, r25
     b02:	88 0f       	add	r24, r24
     b04:	8e 5f       	subi	r24, 0xFE	; 254
     b06:	80 93 9c 01 	sts	0x019C, r24	; 0x80019c <set_num>
		update_single_set_page();
     b0a:	0e 94 39 0c 	call	0x1872	; 0x1872 <update_single_set_page>
		break;
     b0e:	18 c1       	rjmp	.+560    	; 0xd40 <key_action+0x382>
	case MAIN_SENSOR4_SET:
		set_num = 3 + (pre_main_page * IQR_QUANTITY_PER_PAGE);
     b10:	80 91 99 01 	lds	r24, 0x0199	; 0x800199 <pre_main_page>
     b14:	98 2f       	mov	r25, r24
     b16:	89 2f       	mov	r24, r25
     b18:	88 0f       	add	r24, r24
     b1a:	89 0f       	add	r24, r25
     b1c:	88 0f       	add	r24, r24
     b1e:	8d 5f       	subi	r24, 0xFD	; 253
     b20:	80 93 9c 01 	sts	0x019C, r24	; 0x80019c <set_num>
		update_single_set_page();
     b24:	0e 94 39 0c 	call	0x1872	; 0x1872 <update_single_set_page>
		break;
     b28:	0b c1       	rjmp	.+534    	; 0xd40 <key_action+0x382>
	case MAIN_SENSOR5_SET:
		set_num = 4 + (pre_main_page * IQR_QUANTITY_PER_PAGE);
     b2a:	80 91 99 01 	lds	r24, 0x0199	; 0x800199 <pre_main_page>
     b2e:	98 2f       	mov	r25, r24
     b30:	89 2f       	mov	r24, r25
     b32:	88 0f       	add	r24, r24
     b34:	89 0f       	add	r24, r25
     b36:	88 0f       	add	r24, r24
     b38:	8c 5f       	subi	r24, 0xFC	; 252
     b3a:	80 93 9c 01 	sts	0x019C, r24	; 0x80019c <set_num>
		update_single_set_page();
     b3e:	0e 94 39 0c 	call	0x1872	; 0x1872 <update_single_set_page>
		break;
     b42:	fe c0       	rjmp	.+508    	; 0xd40 <key_action+0x382>
	case MAIN_SENSOR6_SET:
		set_num = 5 + (pre_main_page * IQR_QUANTITY_PER_PAGE);
     b44:	80 91 99 01 	lds	r24, 0x0199	; 0x800199 <pre_main_page>
     b48:	98 2f       	mov	r25, r24
     b4a:	89 2f       	mov	r24, r25
     b4c:	88 0f       	add	r24, r24
     b4e:	89 0f       	add	r24, r25
     b50:	88 0f       	add	r24, r24
     b52:	8b 5f       	subi	r24, 0xFB	; 251
     b54:	80 93 9c 01 	sts	0x019C, r24	; 0x80019c <set_num>
		update_single_set_page();
     b58:	0e 94 39 0c 	call	0x1872	; 0x1872 <update_single_set_page>
		break;
     b5c:	f1 c0       	rjmp	.+482    	; 0xd40 <key_action+0x382>
	case SINGLE_SET_OK:
		single_set_ok();
     b5e:	0e 94 a7 06 	call	0xd4e	; 0xd4e <single_set_ok>
		break;
     b62:	ee c0       	rjmp	.+476    	; 0xd40 <key_action+0x382>
	case ALL_SET_OK:
		all_set_ok();
     b64:	0e 94 95 07 	call	0xf2a	; 0xf2a <all_set_ok>
		break;
     b68:	eb c0       	rjmp	.+470    	; 0xd40 <key_action+0x382>
	case PID_SET_OK:
		pid_set_ok();
     b6a:	0e 94 25 08 	call	0x104a	; 0x104a <pid_set_ok>
		break;
     b6e:	e8 c0       	rjmp	.+464    	; 0xd40 <key_action+0x382>
	case PID_PAGE_ENTER:
		pid_page_num = 1;
     b70:	81 e0       	ldi	r24, 0x01	; 1
     b72:	80 93 a0 01 	sts	0x01A0, r24	; 0x8001a0 <pid_page_num>
		update_pid_page(pid_page_num);
     b76:	80 91 a0 01 	lds	r24, 0x01A0	; 0x8001a0 <pid_page_num>
     b7a:	0e 94 0f 0d 	call	0x1a1e	; 0x1a1e <update_pid_page>
		break;
     b7e:	e0 c0       	rjmp	.+448    	; 0xd40 <key_action+0x382>
	case PID_PAGE_UP:
		if(--pid_page_num < 1)
     b80:	80 91 a0 01 	lds	r24, 0x01A0	; 0x8001a0 <pid_page_num>
     b84:	81 50       	subi	r24, 0x01	; 1
     b86:	80 93 a0 01 	sts	0x01A0, r24	; 0x8001a0 <pid_page_num>
     b8a:	80 91 a0 01 	lds	r24, 0x01A0	; 0x8001a0 <pid_page_num>
     b8e:	88 23       	and	r24, r24
     b90:	19 f4       	brne	.+6      	; 0xb98 <key_action+0x1da>
			pid_page_num = MAX_IQR_QUANTITY;
     b92:	88 e1       	ldi	r24, 0x18	; 24
     b94:	80 93 a0 01 	sts	0x01A0, r24	; 0x8001a0 <pid_page_num>
		update_pid_page(pid_page_num);
     b98:	80 91 a0 01 	lds	r24, 0x01A0	; 0x8001a0 <pid_page_num>
     b9c:	0e 94 0f 0d 	call	0x1a1e	; 0x1a1e <update_pid_page>
		break;
     ba0:	cf c0       	rjmp	.+414    	; 0xd40 <key_action+0x382>
	case PID_PAGE_DOWN:
		if(++pid_page_num > MAX_IQR_QUANTITY)
     ba2:	80 91 a0 01 	lds	r24, 0x01A0	; 0x8001a0 <pid_page_num>
     ba6:	8f 5f       	subi	r24, 0xFF	; 255
     ba8:	80 93 a0 01 	sts	0x01A0, r24	; 0x8001a0 <pid_page_num>
     bac:	80 91 a0 01 	lds	r24, 0x01A0	; 0x8001a0 <pid_page_num>
     bb0:	89 31       	cpi	r24, 0x19	; 25
     bb2:	18 f0       	brcs	.+6      	; 0xbba <key_action+0x1fc>
			pid_page_num = 1;
     bb4:	81 e0       	ldi	r24, 0x01	; 1
     bb6:	80 93 a0 01 	sts	0x01A0, r24	; 0x8001a0 <pid_page_num>
		update_pid_page(pid_page_num); 
     bba:	80 91 a0 01 	lds	r24, 0x01A0	; 0x8001a0 <pid_page_num>
     bbe:	0e 94 0f 0d 	call	0x1a1e	; 0x1a1e <update_pid_page>
		break;
     bc2:	be c0       	rjmp	.+380    	; 0xd40 <key_action+0x382>
	case CURVE_ZOOM_OUT:
		curve_time_level--;
     bc4:	80 91 9f 01 	lds	r24, 0x019F	; 0x80019f <curve_time_level>
     bc8:	81 50       	subi	r24, 0x01	; 1
     bca:	80 93 9f 01 	sts	0x019F, r24	; 0x80019f <curve_time_level>
		update_curve_page();
     bce:	0e 94 b2 0d 	call	0x1b64	; 0x1b64 <update_curve_page>
		break;
     bd2:	b6 c0       	rjmp	.+364    	; 0xd40 <key_action+0x382>
	case CURVE_ZOOM_IN:
		curve_time_level++;
     bd4:	80 91 9f 01 	lds	r24, 0x019F	; 0x80019f <curve_time_level>
     bd8:	8f 5f       	subi	r24, 0xFF	; 255
     bda:	80 93 9f 01 	sts	0x019F, r24	; 0x80019f <curve_time_level>
		update_curve_page();
     bde:	0e 94 b2 0d 	call	0x1b64	; 0x1b64 <update_curve_page>
		break;
     be2:	ae c0       	rjmp	.+348    	; 0xd40 <key_action+0x382>
	case CURVE_PAGE_UP:
		curve_page_num--;
     be4:	80 91 9e 01 	lds	r24, 0x019E	; 0x80019e <curve_page_num>
     be8:	81 50       	subi	r24, 0x01	; 1
     bea:	80 93 9e 01 	sts	0x019E, r24	; 0x80019e <curve_page_num>
		update_curve_page();
     bee:	0e 94 b2 0d 	call	0x1b64	; 0x1b64 <update_curve_page>
		break;
     bf2:	a6 c0       	rjmp	.+332    	; 0xd40 <key_action+0x382>
	case CURVE_PAGE_DOWN:
		curve_page_num++;
     bf4:	80 91 9e 01 	lds	r24, 0x019E	; 0x80019e <curve_page_num>
     bf8:	8f 5f       	subi	r24, 0xFF	; 255
     bfa:	80 93 9e 01 	sts	0x019E, r24	; 0x80019e <curve_page_num>
		update_curve_page();
     bfe:	0e 94 b2 0d 	call	0x1b64	; 0x1b64 <update_curve_page>
		break;
     c02:	9e c0       	rjmp	.+316    	; 0xd40 <key_action+0x382>
	case CLEAR_ALARM_MSG:
		clear_all_alarm_msg();
     c04:	0e 94 4a 19 	call	0x3294	; 0x3294 <clear_all_alarm_msg>
		break;
     c08:	9b c0       	rjmp	.+310    	; 0xd40 <key_action+0x382>
	case ALARM_PAGE_UP:
		if (--alarm_page_num <= 0)
     c0a:	80 91 76 01 	lds	r24, 0x0176	; 0x800176 <alarm_page_num.1938>
     c0e:	81 50       	subi	r24, 0x01	; 1
     c10:	80 93 76 01 	sts	0x0176, r24	; 0x800176 <alarm_page_num.1938>
     c14:	80 91 76 01 	lds	r24, 0x0176	; 0x800176 <alarm_page_num.1938>
     c18:	88 23       	and	r24, r24
     c1a:	19 f4       	brne	.+6      	; 0xc22 <key_action+0x264>
			alarm_page_num = 1;
     c1c:	81 e0       	ldi	r24, 0x01	; 1
     c1e:	80 93 76 01 	sts	0x0176, r24	; 0x800176 <alarm_page_num.1938>
		update_alarm_page(alarm_page_num);
     c22:	80 91 76 01 	lds	r24, 0x0176	; 0x800176 <alarm_page_num.1938>
     c26:	0e 94 e8 11 	call	0x23d0	; 0x23d0 <update_alarm_page>
		break;
     c2a:	8a c0       	rjmp	.+276    	; 0xd40 <key_action+0x382>
	case ALARM_PAGE_DOWN:
		if (++alarm_page_num >= max_alarm_page_num)
     c2c:	80 91 76 01 	lds	r24, 0x0176	; 0x800176 <alarm_page_num.1938>
     c30:	8f 5f       	subi	r24, 0xFF	; 255
     c32:	80 93 76 01 	sts	0x0176, r24	; 0x800176 <alarm_page_num.1938>
     c36:	90 91 76 01 	lds	r25, 0x0176	; 0x800176 <alarm_page_num.1938>
     c3a:	89 81       	ldd	r24, Y+1	; 0x01
     c3c:	98 17       	cp	r25, r24
     c3e:	18 f0       	brcs	.+6      	; 0xc46 <key_action+0x288>
			alarm_page_num = max_alarm_page_num;
     c40:	89 81       	ldd	r24, Y+1	; 0x01
     c42:	80 93 76 01 	sts	0x0176, r24	; 0x800176 <alarm_page_num.1938>
		update_alarm_page(alarm_page_num);
     c46:	80 91 76 01 	lds	r24, 0x0176	; 0x800176 <alarm_page_num.1938>
     c4a:	0e 94 e8 11 	call	0x23d0	; 0x23d0 <update_alarm_page>
		break;
     c4e:	78 c0       	rjmp	.+240    	; 0xd40 <key_action+0x382>
	case SINGLE_SET_BACK:
		single_set_back();
     c50:	0e 94 21 09 	call	0x1242	; 0x1242 <single_set_back>
		break;
     c54:	75 c0       	rjmp	.+234    	; 0xd40 <key_action+0x382>
	case ALL_SET_BACK:
		all_set_back();
     c56:	0e 94 bb 09 	call	0x1376	; 0x1376 <all_set_back>
		break;
     c5a:	72 c0       	rjmp	.+228    	; 0xd40 <key_action+0x382>
	case ALARM_PAGE_ENTER:
		alarm_page_num = 1;
     c5c:	81 e0       	ldi	r24, 0x01	; 1
     c5e:	80 93 76 01 	sts	0x0176, r24	; 0x800176 <alarm_page_num.1938>
		update_alarm_page(alarm_page_num);
     c62:	80 91 76 01 	lds	r24, 0x0176	; 0x800176 <alarm_page_num.1938>
     c66:	0e 94 e8 11 	call	0x23d0	; 0x23d0 <update_alarm_page>
		break;
     c6a:	6a c0       	rjmp	.+212    	; 0xd40 <key_action+0x382>
	case CURVE_PAGE_ENTER:
		update_curve_page();
     c6c:	0e 94 b2 0d 	call	0x1b64	; 0x1b64 <update_curve_page>
		break;
     c70:	67 c0       	rjmp	.+206    	; 0xd40 <key_action+0x382>
	case CURVE_PAGE_BACK:
		CLOSE_CURVE;
     c72:	85 e4       	ldi	r24, 0x45	; 69
     c74:	90 e0       	ldi	r25, 0x00	; 0
     c76:	25 e4       	ldi	r18, 0x45	; 69
     c78:	30 e0       	ldi	r19, 0x00	; 0
     c7a:	f9 01       	movw	r30, r18
     c7c:	20 81       	ld	r18, Z
     c7e:	28 7f       	andi	r18, 0xF8	; 248
     c80:	fc 01       	movw	r30, r24
     c82:	20 83       	st	Z, r18
		update_run_temp_flag = 0;
     c84:	10 92 97 01 	sts	0x0197, r1	; 0x800197 <update_run_temp_flag>
		break;
     c88:	5b c0       	rjmp	.+182    	; 0xd40 <key_action+0x382>
	case MENU_PAGE_ENTER:
		in_main_page = 0;
     c8a:	10 92 00 01 	sts	0x0100, r1	; 0x800100 <__data_start>
		break;
     c8e:	58 c0       	rjmp	.+176    	; 0xd40 <key_action+0x382>
	case TIME_CTRL_ENTER:
		module_num = 1;
     c90:	81 e0       	ldi	r24, 0x01	; 1
     c92:	80 93 05 01 	sts	0x0105, r24	; 0x800105 <module_num>
		update_time_ctrl_page();
     c96:	0e 94 f7 0e 	call	0x1dee	; 0x1dee <update_time_ctrl_page>
		break;
     c9a:	52 c0       	rjmp	.+164    	; 0xd40 <key_action+0x382>
	case TIME_CTRL_STOP:
		stop_time_ctrl(module_num);
     c9c:	80 91 05 01 	lds	r24, 0x0105	; 0x800105 <module_num>
     ca0:	0e 94 84 11 	call	0x2308	; 0x2308 <stop_time_ctrl>
		break;
     ca4:	4d c0       	rjmp	.+154    	; 0xd40 <key_action+0x382>
	case TIME_CTRL_START:
		start_time_ctrl(module_num);
     ca6:	80 91 05 01 	lds	r24, 0x0105	; 0x800105 <module_num>
     caa:	0e 94 0f 10 	call	0x201e	; 0x201e <start_time_ctrl>
		break;
     cae:	48 c0       	rjmp	.+144    	; 0xd40 <key_action+0x382>
	case TIME_CTRL_SAVEDAT:
		save_time_ctrl_data();
     cb0:	0e 94 6b 0f 	call	0x1ed6	; 0x1ed6 <save_time_ctrl_data>
		break;
     cb4:	45 c0       	rjmp	.+138    	; 0xd40 <key_action+0x382>
	case TIME_CTRL_PAGEUP:
		module_num -= 1;
     cb6:	80 91 05 01 	lds	r24, 0x0105	; 0x800105 <module_num>
     cba:	81 50       	subi	r24, 0x01	; 1
     cbc:	80 93 05 01 	sts	0x0105, r24	; 0x800105 <module_num>
		update_time_ctrl_page();
     cc0:	0e 94 f7 0e 	call	0x1dee	; 0x1dee <update_time_ctrl_page>
		break;
     cc4:	3d c0       	rjmp	.+122    	; 0xd40 <key_action+0x382>
	case TIME_CTRL_PAGEDOWN:
		module_num += 1;
     cc6:	80 91 05 01 	lds	r24, 0x0105	; 0x800105 <module_num>
     cca:	8f 5f       	subi	r24, 0xFF	; 255
     ccc:	80 93 05 01 	sts	0x0105, r24	; 0x800105 <module_num>
		update_time_ctrl_page();
     cd0:	0e 94 f7 0e 	call	0x1dee	; 0x1dee <update_time_ctrl_page>
		break;
     cd4:	35 c0       	rjmp	.+106    	; 0xd40 <key_action+0x382>
	case IQR1_TEST:
		time_ctrl_test(module_num, IQR1_TEST);
     cd6:	80 91 05 01 	lds	r24, 0x0105	; 0x800105 <module_num>
     cda:	61 e2       	ldi	r22, 0x21	; 33
     cdc:	0e 94 e3 10 	call	0x21c6	; 0x21c6 <time_ctrl_test>
		break;
     ce0:	2f c0       	rjmp	.+94     	; 0xd40 <key_action+0x382>
	case IQR2_TEST:
		time_ctrl_test(module_num, IQR2_TEST);
     ce2:	80 91 05 01 	lds	r24, 0x0105	; 0x800105 <module_num>
     ce6:	62 e2       	ldi	r22, 0x22	; 34
     ce8:	0e 94 e3 10 	call	0x21c6	; 0x21c6 <time_ctrl_test>
		break;
     cec:	29 c0       	rjmp	.+82     	; 0xd40 <key_action+0x382>
	case IQR3_TEST:
		time_ctrl_test(module_num, IQR3_TEST);
     cee:	80 91 05 01 	lds	r24, 0x0105	; 0x800105 <module_num>
     cf2:	63 e2       	ldi	r22, 0x23	; 35
     cf4:	0e 94 e3 10 	call	0x21c6	; 0x21c6 <time_ctrl_test>
		break;
     cf8:	23 c0       	rjmp	.+70     	; 0xd40 <key_action+0x382>
	case IQR4_TEST:
		time_ctrl_test(module_num, IQR4_TEST);
     cfa:	80 91 05 01 	lds	r24, 0x0105	; 0x800105 <module_num>
     cfe:	64 e2       	ldi	r22, 0x24	; 36
     d00:	0e 94 e3 10 	call	0x21c6	; 0x21c6 <time_ctrl_test>
		break;
     d04:	1d c0       	rjmp	.+58     	; 0xd40 <key_action+0x382>
	case IQR5_TEST:
		time_ctrl_test(module_num, IQR5_TEST);
     d06:	80 91 05 01 	lds	r24, 0x0105	; 0x800105 <module_num>
     d0a:	65 e2       	ldi	r22, 0x25	; 37
     d0c:	0e 94 e3 10 	call	0x21c6	; 0x21c6 <time_ctrl_test>
		break;
     d10:	17 c0       	rjmp	.+46     	; 0xd40 <key_action+0x382>
	case IQR6_TEST:
		time_ctrl_test(module_num, IQR6_TEST);
     d12:	80 91 05 01 	lds	r24, 0x0105	; 0x800105 <module_num>
     d16:	66 e2       	ldi	r22, 0x26	; 38
     d18:	0e 94 e3 10 	call	0x21c6	; 0x21c6 <time_ctrl_test>
		break;
     d1c:	11 c0       	rjmp	.+34     	; 0xd40 <key_action+0x382>
	case IQR7_TEST:
		time_ctrl_test(module_num, IQR7_TEST);
     d1e:	80 91 05 01 	lds	r24, 0x0105	; 0x800105 <module_num>
     d22:	67 e2       	ldi	r22, 0x27	; 39
     d24:	0e 94 e3 10 	call	0x21c6	; 0x21c6 <time_ctrl_test>
		break;
     d28:	0b c0       	rjmp	.+22     	; 0xd40 <key_action+0x382>
	case IQR8_TEST:
		time_ctrl_test(module_num, IQR8_TEST);
     d2a:	80 91 05 01 	lds	r24, 0x0105	; 0x800105 <module_num>
     d2e:	68 e2       	ldi	r22, 0x28	; 40
     d30:	0e 94 e3 10 	call	0x21c6	; 0x21c6 <time_ctrl_test>
		break;
     d34:	05 c0       	rjmp	.+10     	; 0xd40 <key_action+0x382>
	default:
		break;
	case TEMPLATE_PAGE_ENTER:
		update_template_page(1);
     d36:	81 e0       	ldi	r24, 0x01	; 1
     d38:	0e 94 a1 1a 	call	0x3542	; 0x3542 <update_template_page>
		break;
     d3c:	01 c0       	rjmp	.+2      	; 0xd40 <key_action+0x382>
		break;
	case IQR8_TEST:
		time_ctrl_test(module_num, IQR8_TEST);
		break;
	default:
		break;
     d3e:	00 00       	nop
	case TEMPLATE_PAGE_ENTER:
		update_template_page(1);
		break;
	}
}
     d40:	00 00       	nop
     d42:	0f 90       	pop	r0
     d44:	0f 90       	pop	r0
     d46:	0f 90       	pop	r0
     d48:	df 91       	pop	r29
     d4a:	cf 91       	pop	r28
     d4c:	08 95       	ret

00000d4e <single_set_ok>:

void single_set_ok(void)
{
     d4e:	cf 93       	push	r28
     d50:	df 93       	push	r29
     d52:	cd b7       	in	r28, 0x3d	; 61
     d54:	de b7       	in	r29, 0x3e	; 62
	if (set_temp_buff[set_num] != set_temp[set_num])
     d56:	80 91 9c 01 	lds	r24, 0x019C	; 0x80019c <set_num>
     d5a:	88 2f       	mov	r24, r24
     d5c:	90 e0       	ldi	r25, 0x00	; 0
     d5e:	88 0f       	add	r24, r24
     d60:	99 1f       	adc	r25, r25
     d62:	8d 5f       	subi	r24, 0xFD	; 253
     d64:	94 4f       	sbci	r25, 0xF4	; 244
     d66:	fc 01       	movw	r30, r24
     d68:	80 81       	ld	r24, Z
     d6a:	91 81       	ldd	r25, Z+1	; 0x01
     d6c:	20 91 9c 01 	lds	r18, 0x019C	; 0x80019c <set_num>
     d70:	22 2f       	mov	r18, r18
     d72:	30 e0       	ldi	r19, 0x00	; 0
     d74:	22 0f       	add	r18, r18
     d76:	33 1f       	adc	r19, r19
     d78:	2d 52       	subi	r18, 0x2D	; 45
     d7a:	35 4f       	sbci	r19, 0xF5	; 245
     d7c:	f9 01       	movw	r30, r18
     d7e:	20 81       	ld	r18, Z
     d80:	31 81       	ldd	r19, Z+1	; 0x01
     d82:	82 17       	cp	r24, r18
     d84:	93 07       	cpc	r25, r19
     d86:	29 f1       	breq	.+74     	; 0xdd2 <single_set_ok+0x84>
	{
		set_temp[set_num] = set_temp_buff[set_num];
     d88:	80 91 9c 01 	lds	r24, 0x019C	; 0x80019c <set_num>
     d8c:	88 2f       	mov	r24, r24
     d8e:	90 e0       	ldi	r25, 0x00	; 0
     d90:	20 91 9c 01 	lds	r18, 0x019C	; 0x80019c <set_num>
     d94:	22 2f       	mov	r18, r18
     d96:	30 e0       	ldi	r19, 0x00	; 0
     d98:	22 0f       	add	r18, r18
     d9a:	33 1f       	adc	r19, r19
     d9c:	2d 5f       	subi	r18, 0xFD	; 253
     d9e:	34 4f       	sbci	r19, 0xF4	; 244
     da0:	f9 01       	movw	r30, r18
     da2:	20 81       	ld	r18, Z
     da4:	31 81       	ldd	r19, Z+1	; 0x01
     da6:	88 0f       	add	r24, r24
     da8:	99 1f       	adc	r25, r25
     daa:	8d 52       	subi	r24, 0x2D	; 45
     dac:	95 4f       	sbci	r25, 0xF5	; 245
     dae:	fc 01       	movw	r30, r24
     db0:	31 83       	std	Z+1, r19	; 0x01
     db2:	20 83       	st	Z, r18
		single_set(TEMP, set_temp[set_num]);
     db4:	80 91 9c 01 	lds	r24, 0x019C	; 0x80019c <set_num>
     db8:	88 2f       	mov	r24, r24
     dba:	90 e0       	ldi	r25, 0x00	; 0
     dbc:	88 0f       	add	r24, r24
     dbe:	99 1f       	adc	r25, r25
     dc0:	8d 52       	subi	r24, 0x2D	; 45
     dc2:	95 4f       	sbci	r25, 0xF5	; 245
     dc4:	fc 01       	movw	r30, r24
     dc6:	80 81       	ld	r24, Z
     dc8:	91 81       	ldd	r25, Z+1	; 0x01
     dca:	bc 01       	movw	r22, r24
     dcc:	83 e0       	ldi	r24, 0x03	; 3
     dce:	0e 94 32 0b 	call	0x1664	; 0x1664 <single_set>
		// 		eeprom_write(SINGLE_SETTEMP_EEADDR + (set_num * 2), set_temp[set_num]);
		// 		eeprom_write(SINGLE_SETTEMP_EEADDR + (set_num * 2) + 1, set_temp[set_num] >> 8);
	}

	if (switch_sensor_buff[set_num] != switch_sensor[set_num])
     dd2:	80 91 9c 01 	lds	r24, 0x019C	; 0x80019c <set_num>
     dd6:	88 2f       	mov	r24, r24
     dd8:	90 e0       	ldi	r25, 0x00	; 0
     dda:	88 0f       	add	r24, r24
     ddc:	99 1f       	adc	r25, r25
     dde:	8e 53       	subi	r24, 0x3E	; 62
     de0:	99 4f       	sbci	r25, 0xF9	; 249
     de2:	fc 01       	movw	r30, r24
     de4:	20 81       	ld	r18, Z
     de6:	31 81       	ldd	r19, Z+1	; 0x01
     de8:	80 91 9c 01 	lds	r24, 0x019C	; 0x80019c <set_num>
     dec:	88 2f       	mov	r24, r24
     dee:	90 e0       	ldi	r25, 0x00	; 0
     df0:	88 0f       	add	r24, r24
     df2:	99 1f       	adc	r25, r25
     df4:	81 5e       	subi	r24, 0xE1	; 225
     df6:	9d 4f       	sbci	r25, 0xFD	; 253
     df8:	fc 01       	movw	r30, r24
     dfa:	80 81       	ld	r24, Z
     dfc:	91 81       	ldd	r25, Z+1	; 0x01
     dfe:	28 17       	cp	r18, r24
     e00:	39 07       	cpc	r19, r25
     e02:	29 f1       	breq	.+74     	; 0xe4e <single_set_ok+0x100>
	{
		switch_sensor[set_num] = switch_sensor_buff[set_num];
     e04:	80 91 9c 01 	lds	r24, 0x019C	; 0x80019c <set_num>
     e08:	88 2f       	mov	r24, r24
     e0a:	90 e0       	ldi	r25, 0x00	; 0
     e0c:	20 91 9c 01 	lds	r18, 0x019C	; 0x80019c <set_num>
     e10:	22 2f       	mov	r18, r18
     e12:	30 e0       	ldi	r19, 0x00	; 0
     e14:	22 0f       	add	r18, r18
     e16:	33 1f       	adc	r19, r19
     e18:	2e 53       	subi	r18, 0x3E	; 62
     e1a:	39 4f       	sbci	r19, 0xF9	; 249
     e1c:	f9 01       	movw	r30, r18
     e1e:	20 81       	ld	r18, Z
     e20:	31 81       	ldd	r19, Z+1	; 0x01
     e22:	88 0f       	add	r24, r24
     e24:	99 1f       	adc	r25, r25
     e26:	81 5e       	subi	r24, 0xE1	; 225
     e28:	9d 4f       	sbci	r25, 0xFD	; 253
     e2a:	fc 01       	movw	r30, r24
     e2c:	31 83       	std	Z+1, r19	; 0x01
     e2e:	20 83       	st	Z, r18
		single_set(SWITCH_SENSOR, switch_sensor[set_num]);
     e30:	80 91 9c 01 	lds	r24, 0x019C	; 0x80019c <set_num>
     e34:	88 2f       	mov	r24, r24
     e36:	90 e0       	ldi	r25, 0x00	; 0
     e38:	88 0f       	add	r24, r24
     e3a:	99 1f       	adc	r25, r25
     e3c:	81 5e       	subi	r24, 0xE1	; 225
     e3e:	9d 4f       	sbci	r25, 0xFD	; 253
     e40:	fc 01       	movw	r30, r24
     e42:	80 81       	ld	r24, Z
     e44:	91 81       	ldd	r25, Z+1	; 0x01
     e46:	bc 01       	movw	r22, r24
     e48:	86 e0       	ldi	r24, 0x06	; 6
     e4a:	0e 94 32 0b 	call	0x1664	; 0x1664 <single_set>
	// 		sensor_type[set_num] = sensor_type_buff[set_num];
	// 		ctrl_command = SENSOR_TYPE;
	// //		eeprom_write(SINGLE_SENSORTYPE_EEADDR + set_num, sensor_type[set_num]);
	// 	}

	if (follow_sta_buff[set_num] != follow_sta[set_num])
     e4e:	80 91 9c 01 	lds	r24, 0x019C	; 0x80019c <set_num>
     e52:	88 2f       	mov	r24, r24
     e54:	90 e0       	ldi	r25, 0x00	; 0
     e56:	85 56       	subi	r24, 0x65	; 101
     e58:	9d 4f       	sbci	r25, 0xFD	; 253
     e5a:	fc 01       	movw	r30, r24
     e5c:	20 81       	ld	r18, Z
     e5e:	80 91 9c 01 	lds	r24, 0x019C	; 0x80019c <set_num>
     e62:	88 2f       	mov	r24, r24
     e64:	90 e0       	ldi	r25, 0x00	; 0
     e66:	8d 57       	subi	r24, 0x7D	; 125
     e68:	9d 4f       	sbci	r25, 0xFD	; 253
     e6a:	fc 01       	movw	r30, r24
     e6c:	80 81       	ld	r24, Z
     e6e:	28 17       	cp	r18, r24
     e70:	f1 f0       	breq	.+60     	; 0xeae <single_set_ok+0x160>
	{
		follow_sta[set_num] = follow_sta_buff[set_num];
     e72:	80 91 9c 01 	lds	r24, 0x019C	; 0x80019c <set_num>
     e76:	88 2f       	mov	r24, r24
     e78:	90 e0       	ldi	r25, 0x00	; 0
     e7a:	20 91 9c 01 	lds	r18, 0x019C	; 0x80019c <set_num>
     e7e:	22 2f       	mov	r18, r18
     e80:	30 e0       	ldi	r19, 0x00	; 0
     e82:	25 56       	subi	r18, 0x65	; 101
     e84:	3d 4f       	sbci	r19, 0xFD	; 253
     e86:	f9 01       	movw	r30, r18
     e88:	20 81       	ld	r18, Z
     e8a:	8d 57       	subi	r24, 0x7D	; 125
     e8c:	9d 4f       	sbci	r25, 0xFD	; 253
     e8e:	fc 01       	movw	r30, r24
     e90:	20 83       	st	Z, r18
		single_set(SET_FOLLOW, follow_sta[set_num]);
     e92:	80 91 9c 01 	lds	r24, 0x019C	; 0x80019c <set_num>
     e96:	88 2f       	mov	r24, r24
     e98:	90 e0       	ldi	r25, 0x00	; 0
     e9a:	8d 57       	subi	r24, 0x7D	; 125
     e9c:	9d 4f       	sbci	r25, 0xFD	; 253
     e9e:	fc 01       	movw	r30, r24
     ea0:	80 81       	ld	r24, Z
     ea2:	88 2f       	mov	r24, r24
     ea4:	90 e0       	ldi	r25, 0x00	; 0
     ea6:	bc 01       	movw	r22, r24
     ea8:	88 e0       	ldi	r24, 0x08	; 8
     eaa:	0e 94 32 0b 	call	0x1664	; 0x1664 <single_set>
	}

	if (set_name_buff != set_name[set_num])
     eae:	80 91 9c 01 	lds	r24, 0x019C	; 0x80019c <set_num>
     eb2:	88 2f       	mov	r24, r24
     eb4:	90 e0       	ldi	r25, 0x00	; 0
     eb6:	88 0f       	add	r24, r24
     eb8:	99 1f       	adc	r25, r25
     eba:	88 0f       	add	r24, r24
     ebc:	99 1f       	adc	r25, r25
     ebe:	82 5c       	subi	r24, 0xC2	; 194
     ec0:	96 4f       	sbci	r25, 0xF6	; 246
     ec2:	fc 01       	movw	r30, r24
     ec4:	20 81       	ld	r18, Z
     ec6:	31 81       	ldd	r19, Z+1	; 0x01
     ec8:	42 81       	ldd	r20, Z+2	; 0x02
     eca:	53 81       	ldd	r21, Z+3	; 0x03
     ecc:	80 91 7f 02 	lds	r24, 0x027F	; 0x80027f <set_name_buff>
     ed0:	90 91 80 02 	lds	r25, 0x0280	; 0x800280 <set_name_buff+0x1>
     ed4:	a0 91 81 02 	lds	r26, 0x0281	; 0x800281 <set_name_buff+0x2>
     ed8:	b0 91 82 02 	lds	r27, 0x0282	; 0x800282 <set_name_buff+0x3>
     edc:	28 17       	cp	r18, r24
     ede:	39 07       	cpc	r19, r25
     ee0:	4a 07       	cpc	r20, r26
     ee2:	5b 07       	cpc	r21, r27
     ee4:	b9 f0       	breq	.+46     	; 0xf14 <single_set_ok+0x1c6>
	{
		set_name[set_num] = set_name_buff;
     ee6:	80 91 9c 01 	lds	r24, 0x019C	; 0x80019c <set_num>
     eea:	28 2f       	mov	r18, r24
     eec:	30 e0       	ldi	r19, 0x00	; 0
     eee:	80 91 7f 02 	lds	r24, 0x027F	; 0x80027f <set_name_buff>
     ef2:	90 91 80 02 	lds	r25, 0x0280	; 0x800280 <set_name_buff+0x1>
     ef6:	a0 91 81 02 	lds	r26, 0x0281	; 0x800281 <set_name_buff+0x2>
     efa:	b0 91 82 02 	lds	r27, 0x0282	; 0x800282 <set_name_buff+0x3>
     efe:	22 0f       	add	r18, r18
     f00:	33 1f       	adc	r19, r19
     f02:	22 0f       	add	r18, r18
     f04:	33 1f       	adc	r19, r19
     f06:	22 5c       	subi	r18, 0xC2	; 194
     f08:	36 4f       	sbci	r19, 0xF6	; 246
     f0a:	f9 01       	movw	r30, r18
     f0c:	80 83       	st	Z, r24
     f0e:	91 83       	std	Z+1, r25	; 0x01
     f10:	a2 83       	std	Z+2, r26	; 0x02
     f12:	b3 83       	std	Z+3, r27	; 0x03
		// 		eeprom_write(SET_NAME_EEADDR + (set_num * 4) + 1, set_name[set_num] >> 8);
		// 		eeprom_write(SET_NAME_EEADDR + (set_num * 4) + 2, set_name[set_num] >> 16);
		// 		eeprom_write(SET_NAME_EEADDR + (set_num * 4) + 3, set_name[set_num] >> 24);
	}

	update_main_page();
     f14:	0e 94 4a 03 	call	0x694	; 0x694 <update_main_page>
	in_main_page = 1;
     f18:	81 e0       	ldi	r24, 0x01	; 1
     f1a:	80 93 00 01 	sts	0x0100, r24	; 0x800100 <__data_start>
	update_run_temp_flag = 0;
     f1e:	10 92 97 01 	sts	0x0197, r1	; 0x800197 <update_run_temp_flag>
}
     f22:	00 00       	nop
     f24:	df 91       	pop	r29
     f26:	cf 91       	pop	r28
     f28:	08 95       	ret

00000f2a <all_set_ok>:

void all_set_ok(void)
{
     f2a:	cf 93       	push	r28
     f2c:	df 93       	push	r29
     f2e:	1f 92       	push	r1
     f30:	cd b7       	in	r28, 0x3d	; 61
     f32:	de b7       	in	r29, 0x3e	; 62
	uint8_t i = 0;
     f34:	19 82       	std	Y+1, r1	; 0x01

	all_temp = all_temp_buff;
     f36:	80 91 78 01 	lds	r24, 0x0178	; 0x800178 <all_temp_buff>
     f3a:	90 91 79 01 	lds	r25, 0x0179	; 0x800179 <all_temp_buff+0x1>
     f3e:	90 93 04 01 	sts	0x0104, r25	; 0x800104 <all_temp+0x1>
     f42:	80 93 03 01 	sts	0x0103, r24	; 0x800103 <all_temp>

	for (i = 0; i < MAX_IQR_QUANTITY; i++)
     f46:	19 82       	std	Y+1, r1	; 0x01
     f48:	1f c0       	rjmp	.+62     	; 0xf88 <all_set_ok+0x5e>
	{
		set_temp[i] = all_temp;
     f4a:	89 81       	ldd	r24, Y+1	; 0x01
     f4c:	88 2f       	mov	r24, r24
     f4e:	90 e0       	ldi	r25, 0x00	; 0
     f50:	20 91 03 01 	lds	r18, 0x0103	; 0x800103 <all_temp>
     f54:	30 91 04 01 	lds	r19, 0x0104	; 0x800104 <all_temp+0x1>
     f58:	88 0f       	add	r24, r24
     f5a:	99 1f       	adc	r25, r25
     f5c:	8d 52       	subi	r24, 0x2D	; 45
     f5e:	95 4f       	sbci	r25, 0xF5	; 245
     f60:	fc 01       	movw	r30, r24
     f62:	31 83       	std	Z+1, r19	; 0x01
     f64:	20 83       	st	Z, r18
		set_temp_buff[i] = all_temp;
     f66:	89 81       	ldd	r24, Y+1	; 0x01
     f68:	88 2f       	mov	r24, r24
     f6a:	90 e0       	ldi	r25, 0x00	; 0
     f6c:	20 91 03 01 	lds	r18, 0x0103	; 0x800103 <all_temp>
     f70:	30 91 04 01 	lds	r19, 0x0104	; 0x800104 <all_temp+0x1>
     f74:	88 0f       	add	r24, r24
     f76:	99 1f       	adc	r25, r25
     f78:	8d 5f       	subi	r24, 0xFD	; 253
     f7a:	94 4f       	sbci	r25, 0xF4	; 244
     f7c:	fc 01       	movw	r30, r24
     f7e:	31 83       	std	Z+1, r19	; 0x01
     f80:	20 83       	st	Z, r18
{
	uint8_t i = 0;

	all_temp = all_temp_buff;

	for (i = 0; i < MAX_IQR_QUANTITY; i++)
     f82:	89 81       	ldd	r24, Y+1	; 0x01
     f84:	8f 5f       	subi	r24, 0xFF	; 255
     f86:	89 83       	std	Y+1, r24	; 0x01
     f88:	89 81       	ldd	r24, Y+1	; 0x01
     f8a:	88 31       	cpi	r24, 0x18	; 24
     f8c:	f0 f2       	brcs	.-68     	; 0xf4a <all_set_ok+0x20>
		// 		eeprom_write(SINGLE_SETTEMP_EEADDR + (i * 2) + 1, set_temp[i] >> 8);
	}

	// 	if (temp_unit_buff != temp_unit)
	// 	{
	temp_unit = temp_unit_buff;
     f8e:	80 91 c0 06 	lds	r24, 0x06C0	; 0x8006c0 <temp_unit_buff>
     f92:	90 91 c1 06 	lds	r25, 0x06C1	; 0x8006c1 <temp_unit_buff+0x1>
     f96:	90 93 b6 02 	sts	0x02B6, r25	; 0x8002b6 <temp_unit+0x1>
     f9a:	80 93 b5 02 	sts	0x02B5, r24	; 0x8002b5 <temp_unit>
	//
	// 		//发送给控制板卡  保存数据
	// 		/*		eeprom_write(TEMP_UNIT_EEADDR, temp_unit);*/
	// 	}

	preheat_time = preheat_time_buff;
     f9e:	80 91 7a 01 	lds	r24, 0x017A	; 0x80017a <preheat_time_buff>
     fa2:	90 91 7b 01 	lds	r25, 0x017B	; 0x80017b <preheat_time_buff+0x1>
     fa6:	90 93 02 01 	sts	0x0102, r25	; 0x800102 <preheat_time+0x1>
     faa:	80 93 01 01 	sts	0x0101, r24	; 0x800101 <preheat_time>

	all_sensor_type = all_sensor_type_buff;
     fae:	80 91 be 06 	lds	r24, 0x06BE	; 0x8006be <all_sensor_type_buff>
     fb2:	90 91 bf 06 	lds	r25, 0x06BF	; 0x8006bf <all_sensor_type_buff+0x1>
     fb6:	90 93 b4 02 	sts	0x02B4, r25	; 0x8002b4 <all_sensor_type+0x1>
     fba:	80 93 b3 02 	sts	0x02B3, r24	; 0x8002b3 <all_sensor_type>

	for (i = 0; i < MAX_IQR_QUANTITY; i++)
     fbe:	19 82       	std	Y+1, r1	; 0x01
     fc0:	1f c0       	rjmp	.+62     	; 0x1000 <all_set_ok+0xd6>
	{
		sensor_type[i] = all_sensor_type;
     fc2:	89 81       	ldd	r24, Y+1	; 0x01
     fc4:	88 2f       	mov	r24, r24
     fc6:	90 e0       	ldi	r25, 0x00	; 0
     fc8:	20 91 b3 02 	lds	r18, 0x02B3	; 0x8002b3 <all_sensor_type>
     fcc:	30 91 b4 02 	lds	r19, 0x02B4	; 0x8002b4 <all_sensor_type+0x1>
     fd0:	88 0f       	add	r24, r24
     fd2:	99 1f       	adc	r25, r25
     fd4:	81 5b       	subi	r24, 0xB1	; 177
     fd6:	9d 4f       	sbci	r25, 0xFD	; 253
     fd8:	fc 01       	movw	r30, r24
     fda:	31 83       	std	Z+1, r19	; 0x01
     fdc:	20 83       	st	Z, r18
		sensor_type_buff[i] = all_sensor_type;
     fde:	89 81       	ldd	r24, Y+1	; 0x01
     fe0:	88 2f       	mov	r24, r24
     fe2:	90 e0       	ldi	r25, 0x00	; 0
     fe4:	20 91 b3 02 	lds	r18, 0x02B3	; 0x8002b3 <all_sensor_type>
     fe8:	30 91 b4 02 	lds	r19, 0x02B4	; 0x8002b4 <all_sensor_type+0x1>
     fec:	88 0f       	add	r24, r24
     fee:	99 1f       	adc	r25, r25
     ff0:	8e 50       	subi	r24, 0x0E	; 14
     ff2:	99 4f       	sbci	r25, 0xF9	; 249
     ff4:	fc 01       	movw	r30, r24
     ff6:	31 83       	std	Z+1, r19	; 0x01
     ff8:	20 83       	st	Z, r18

	preheat_time = preheat_time_buff;

	all_sensor_type = all_sensor_type_buff;

	for (i = 0; i < MAX_IQR_QUANTITY; i++)
     ffa:	89 81       	ldd	r24, Y+1	; 0x01
     ffc:	8f 5f       	subi	r24, 0xFF	; 255
     ffe:	89 83       	std	Y+1, r24	; 0x01
    1000:	89 81       	ldd	r24, Y+1	; 0x01
    1002:	88 31       	cpi	r24, 0x18	; 24
    1004:	f0 f2       	brcs	.-68     	; 0xfc2 <all_set_ok+0x98>
		sensor_type_buff[i] = all_sensor_type;
		//			eeprom_write(SINGLE_SENSORTYPE_EEADDR + i, sensor_type[i]);
	}
	//	send_variables(ALL_SENSOR_TYPE_ADDR, TYPE_J + (all_sensor_type * TYPE_K));

	update_main_page();
    1006:	0e 94 4a 03 	call	0x694	; 0x694 <update_main_page>

	all_set(TEMP, all_temp);
    100a:	80 91 03 01 	lds	r24, 0x0103	; 0x800103 <all_temp>
    100e:	90 91 04 01 	lds	r25, 0x0104	; 0x800104 <all_temp+0x1>
    1012:	bc 01       	movw	r22, r24
    1014:	83 e0       	ldi	r24, 0x03	; 3
    1016:	0e 94 ba 0b 	call	0x1774	; 0x1774 <all_set>
	all_set(PREHEAT_TIME, preheat_time);
    101a:	80 91 01 01 	lds	r24, 0x0101	; 0x800101 <preheat_time>
    101e:	90 91 02 01 	lds	r25, 0x0102	; 0x800102 <preheat_time+0x1>
    1022:	bc 01       	movw	r22, r24
    1024:	84 e0       	ldi	r24, 0x04	; 4
    1026:	0e 94 ba 0b 	call	0x1774	; 0x1774 <all_set>
	all_set(SENSOR_TYPE, all_sensor_type);
    102a:	80 91 b3 02 	lds	r24, 0x02B3	; 0x8002b3 <all_sensor_type>
    102e:	90 91 b4 02 	lds	r25, 0x02B4	; 0x8002b4 <all_sensor_type+0x1>
    1032:	bc 01       	movw	r22, r24
    1034:	85 e0       	ldi	r24, 0x05	; 5
    1036:	0e 94 ba 0b 	call	0x1774	; 0x1774 <all_set>
	// //			eeprom_write(SINGLE_SENSORTYPE_EEADDR + i, sensor_type[i]);
	// 		}
	// 		send_variables(ALL_SENSOR_TYPE_ADDR, TYPE_J + (all_sensor_type * TYPE_K));
	// 	}
	//
	in_main_page = 1;
    103a:	81 e0       	ldi	r24, 0x01	; 1
    103c:	80 93 00 01 	sts	0x0100, r24	; 0x800100 <__data_start>
}
    1040:	00 00       	nop
    1042:	0f 90       	pop	r0
    1044:	df 91       	pop	r29
    1046:	cf 91       	pop	r28
    1048:	08 95       	ret

0000104a <pid_set_ok>:

void pid_set_ok(void)
{
    104a:	cf 93       	push	r28
    104c:	df 93       	push	r29
    104e:	cd b7       	in	r28, 0x3d	; 61
    1050:	de b7       	in	r29, 0x3e	; 62
	p_value[set_pid_channel - 1] = p_value_buff;
    1052:	80 91 9d 01 	lds	r24, 0x019D	; 0x80019d <set_pid_channel>
    1056:	88 2f       	mov	r24, r24
    1058:	90 e0       	ldi	r25, 0x00	; 0
    105a:	01 97       	sbiw	r24, 0x01	; 1
    105c:	20 91 7c 01 	lds	r18, 0x017C	; 0x80017c <p_value_buff>
    1060:	30 91 7d 01 	lds	r19, 0x017D	; 0x80017d <p_value_buff+0x1>
    1064:	88 0f       	add	r24, r24
    1066:	99 1f       	adc	r25, r25
    1068:	8e 5a       	subi	r24, 0xAE	; 174
    106a:	97 4f       	sbci	r25, 0xF7	; 247
    106c:	fc 01       	movw	r30, r24
    106e:	31 83       	std	Z+1, r19	; 0x01
    1070:	20 83       	st	Z, r18
	i_value[set_pid_channel - 1] = i_value_buff;
    1072:	80 91 9d 01 	lds	r24, 0x019D	; 0x80019d <set_pid_channel>
    1076:	88 2f       	mov	r24, r24
    1078:	90 e0       	ldi	r25, 0x00	; 0
    107a:	01 97       	sbiw	r24, 0x01	; 1
    107c:	20 91 7e 01 	lds	r18, 0x017E	; 0x80017e <i_value_buff>
    1080:	30 91 7f 01 	lds	r19, 0x017F	; 0x80017f <i_value_buff+0x1>
    1084:	88 0f       	add	r24, r24
    1086:	99 1f       	adc	r25, r25
    1088:	8e 57       	subi	r24, 0x7E	; 126
    108a:	97 4f       	sbci	r25, 0xF7	; 247
    108c:	fc 01       	movw	r30, r24
    108e:	31 83       	std	Z+1, r19	; 0x01
    1090:	20 83       	st	Z, r18
	d_value[set_pid_channel - 1] = d_value_buff;
    1092:	80 91 9d 01 	lds	r24, 0x019D	; 0x80019d <set_pid_channel>
    1096:	88 2f       	mov	r24, r24
    1098:	90 e0       	ldi	r25, 0x00	; 0
    109a:	01 97       	sbiw	r24, 0x01	; 1
    109c:	20 91 80 01 	lds	r18, 0x0180	; 0x800180 <d_value_buff>
    10a0:	30 91 81 01 	lds	r19, 0x0181	; 0x800181 <d_value_buff+0x1>
    10a4:	88 0f       	add	r24, r24
    10a6:	99 1f       	adc	r25, r25
    10a8:	8e 5d       	subi	r24, 0xDE	; 222
    10aa:	97 4f       	sbci	r25, 0xF7	; 247
    10ac:	fc 01       	movw	r30, r24
    10ae:	31 83       	std	Z+1, r19	; 0x01
    10b0:	20 83       	st	Z, r18
	// 	eeprom_write(PID_I_EEADDR + ((set_pid_channel - 1) * 2) + 1, i_value[set_pid_channel - 1] >> 8);
	//
	// 	eeprom_write(PID_D_EEADDR + ((set_pid_channel - 1) * 2), d_value[set_pid_channel - 1]);
	// 	eeprom_write(PID_D_EEADDR + ((set_pid_channel - 1) * 2) + 1, d_value[set_pid_channel - 1] >> 8);

	send_variables(PID_P_ADDR, p_value[set_pid_channel - 1]);
    10b2:	80 91 9d 01 	lds	r24, 0x019D	; 0x80019d <set_pid_channel>
    10b6:	88 2f       	mov	r24, r24
    10b8:	90 e0       	ldi	r25, 0x00	; 0
    10ba:	01 97       	sbiw	r24, 0x01	; 1
    10bc:	88 0f       	add	r24, r24
    10be:	99 1f       	adc	r25, r25
    10c0:	8e 5a       	subi	r24, 0xAE	; 174
    10c2:	97 4f       	sbci	r25, 0xF7	; 247
    10c4:	fc 01       	movw	r30, r24
    10c6:	80 81       	ld	r24, Z
    10c8:	91 81       	ldd	r25, Z+1	; 0x01
    10ca:	bc 01       	movw	r22, r24
    10cc:	86 e3       	ldi	r24, 0x36	; 54
    10ce:	90 e0       	ldi	r25, 0x00	; 0
    10d0:	0e 94 bc 12 	call	0x2578	; 0x2578 <send_variables>
	send_variables(PID_I_ADDR, i_value[set_pid_channel - 1]);
    10d4:	80 91 9d 01 	lds	r24, 0x019D	; 0x80019d <set_pid_channel>
    10d8:	88 2f       	mov	r24, r24
    10da:	90 e0       	ldi	r25, 0x00	; 0
    10dc:	01 97       	sbiw	r24, 0x01	; 1
    10de:	88 0f       	add	r24, r24
    10e0:	99 1f       	adc	r25, r25
    10e2:	8e 57       	subi	r24, 0x7E	; 126
    10e4:	97 4f       	sbci	r25, 0xF7	; 247
    10e6:	fc 01       	movw	r30, r24
    10e8:	80 81       	ld	r24, Z
    10ea:	91 81       	ldd	r25, Z+1	; 0x01
    10ec:	bc 01       	movw	r22, r24
    10ee:	88 e3       	ldi	r24, 0x38	; 56
    10f0:	90 e0       	ldi	r25, 0x00	; 0
    10f2:	0e 94 bc 12 	call	0x2578	; 0x2578 <send_variables>
	send_variables(PID_D_ADDR, d_value[set_pid_channel - 1]);
    10f6:	80 91 9d 01 	lds	r24, 0x019D	; 0x80019d <set_pid_channel>
    10fa:	88 2f       	mov	r24, r24
    10fc:	90 e0       	ldi	r25, 0x00	; 0
    10fe:	01 97       	sbiw	r24, 0x01	; 1
    1100:	88 0f       	add	r24, r24
    1102:	99 1f       	adc	r25, r25
    1104:	8e 5d       	subi	r24, 0xDE	; 222
    1106:	97 4f       	sbci	r25, 0xF7	; 247
    1108:	fc 01       	movw	r30, r24
    110a:	80 81       	ld	r24, Z
    110c:	91 81       	ldd	r25, Z+1	; 0x01
    110e:	bc 01       	movw	r22, r24
    1110:	8a e3       	ldi	r24, 0x3A	; 58
    1112:	90 e0       	ldi	r25, 0x00	; 0
    1114:	0e 94 bc 12 	call	0x2578	; 0x2578 <send_variables>

	set_pid();
    1118:	0e 94 92 08 	call	0x1124	; 0x1124 <set_pid>
}
    111c:	00 00       	nop
    111e:	df 91       	pop	r29
    1120:	cf 91       	pop	r28
    1122:	08 95       	ret

00001124 <set_pid>:

/*
**设置PID参数，通过串口1发送到控制办卡
*/
void set_pid(void)
{
    1124:	cf 93       	push	r28
    1126:	df 93       	push	r29
    1128:	00 d0       	rcall	.+0      	; 0x112a <set_pid+0x6>
    112a:	1f 92       	push	r1
    112c:	cd b7       	in	r28, 0x3d	; 61
    112e:	de b7       	in	r29, 0x3e	; 62
	uint16_t crc = 0;
    1130:	1a 82       	std	Y+2, r1	; 0x02
    1132:	19 82       	std	Y+1, r1	; 0x01
	uint8_t addr = 0;
    1134:	1b 82       	std	Y+3, r1	; 0x03

	/*计算地址，前四位代表示板卡号，后四位表示*/
	addr = (set_pid_channel - 1) / 4 + 1;
    1136:	80 91 9d 01 	lds	r24, 0x019D	; 0x80019d <set_pid_channel>
    113a:	88 2f       	mov	r24, r24
    113c:	90 e0       	ldi	r25, 0x00	; 0
    113e:	01 97       	sbiw	r24, 0x01	; 1
    1140:	99 23       	and	r25, r25
    1142:	0c f4       	brge	.+2      	; 0x1146 <set_pid+0x22>
    1144:	03 96       	adiw	r24, 0x03	; 3
    1146:	95 95       	asr	r25
    1148:	87 95       	ror	r24
    114a:	95 95       	asr	r25
    114c:	87 95       	ror	r24
    114e:	8f 5f       	subi	r24, 0xFF	; 255
    1150:	8b 83       	std	Y+3, r24	; 0x03
	addr = (addr << 4) + ((set_pid_channel - 1) % 4) + 1;
    1152:	8b 81       	ldd	r24, Y+3	; 0x03
    1154:	28 2f       	mov	r18, r24
    1156:	22 95       	swap	r18
    1158:	20 7f       	andi	r18, 0xF0	; 240
    115a:	80 91 9d 01 	lds	r24, 0x019D	; 0x80019d <set_pid_channel>
    115e:	88 2f       	mov	r24, r24
    1160:	90 e0       	ldi	r25, 0x00	; 0
    1162:	01 97       	sbiw	r24, 0x01	; 1
    1164:	83 70       	andi	r24, 0x03	; 3
    1166:	90 78       	andi	r25, 0x80	; 128
    1168:	99 23       	and	r25, r25
    116a:	24 f4       	brge	.+8      	; 0x1174 <set_pid+0x50>
    116c:	01 97       	sbiw	r24, 0x01	; 1
    116e:	8c 6f       	ori	r24, 0xFC	; 252
    1170:	9f 6f       	ori	r25, 0xFF	; 255
    1172:	01 96       	adiw	r24, 0x01	; 1
    1174:	82 0f       	add	r24, r18
    1176:	8f 5f       	subi	r24, 0xFF	; 255
    1178:	8b 83       	std	Y+3, r24	; 0x03

	usart1_tx_buff[0] = 0xA5;
    117a:	85 ea       	ldi	r24, 0xA5	; 165
    117c:	80 93 2a 05 	sts	0x052A, r24	; 0x80052a <usart1_tx_buff>
	usart1_tx_buff[1] = 0x5A;
    1180:	8a e5       	ldi	r24, 0x5A	; 90
    1182:	80 93 2b 05 	sts	0x052B, r24	; 0x80052b <usart1_tx_buff+0x1>
	usart1_tx_buff[2] = 0x08;
    1186:	88 e0       	ldi	r24, 0x08	; 8
    1188:	80 93 2c 05 	sts	0x052C, r24	; 0x80052c <usart1_tx_buff+0x2>
	usart1_tx_buff[3] = PID;
    118c:	82 e0       	ldi	r24, 0x02	; 2
    118e:	80 93 2d 05 	sts	0x052D, r24	; 0x80052d <usart1_tx_buff+0x3>
	usart1_tx_buff[4] = addr;
    1192:	8b 81       	ldd	r24, Y+3	; 0x03
    1194:	80 93 2e 05 	sts	0x052E, r24	; 0x80052e <usart1_tx_buff+0x4>

	usart1_tx_buff[5] = (uint8_t)(p_value_buff >> 8);
    1198:	80 91 7c 01 	lds	r24, 0x017C	; 0x80017c <p_value_buff>
    119c:	90 91 7d 01 	lds	r25, 0x017D	; 0x80017d <p_value_buff+0x1>
    11a0:	89 2f       	mov	r24, r25
    11a2:	99 27       	eor	r25, r25
    11a4:	80 93 2f 05 	sts	0x052F, r24	; 0x80052f <usart1_tx_buff+0x5>
	usart1_tx_buff[6] = (uint8_t)(p_value_buff);
    11a8:	80 91 7c 01 	lds	r24, 0x017C	; 0x80017c <p_value_buff>
    11ac:	90 91 7d 01 	lds	r25, 0x017D	; 0x80017d <p_value_buff+0x1>
    11b0:	80 93 30 05 	sts	0x0530, r24	; 0x800530 <usart1_tx_buff+0x6>

	usart1_tx_buff[7] = (uint8_t)(i_value_buff >> 8);
    11b4:	80 91 7e 01 	lds	r24, 0x017E	; 0x80017e <i_value_buff>
    11b8:	90 91 7f 01 	lds	r25, 0x017F	; 0x80017f <i_value_buff+0x1>
    11bc:	89 2f       	mov	r24, r25
    11be:	99 27       	eor	r25, r25
    11c0:	80 93 31 05 	sts	0x0531, r24	; 0x800531 <usart1_tx_buff+0x7>
	usart1_tx_buff[8] = (uint8_t)(i_value_buff);
    11c4:	80 91 7e 01 	lds	r24, 0x017E	; 0x80017e <i_value_buff>
    11c8:	90 91 7f 01 	lds	r25, 0x017F	; 0x80017f <i_value_buff+0x1>
    11cc:	80 93 32 05 	sts	0x0532, r24	; 0x800532 <usart1_tx_buff+0x8>

	usart1_tx_buff[9] = (uint8_t)(d_value_buff >> 8);
    11d0:	80 91 80 01 	lds	r24, 0x0180	; 0x800180 <d_value_buff>
    11d4:	90 91 81 01 	lds	r25, 0x0181	; 0x800181 <d_value_buff+0x1>
    11d8:	89 2f       	mov	r24, r25
    11da:	99 27       	eor	r25, r25
    11dc:	80 93 33 05 	sts	0x0533, r24	; 0x800533 <usart1_tx_buff+0x9>
	usart1_tx_buff[10] = (uint8_t)(d_value_buff);
    11e0:	80 91 80 01 	lds	r24, 0x0180	; 0x800180 <d_value_buff>
    11e4:	90 91 81 01 	lds	r25, 0x0181	; 0x800181 <d_value_buff+0x1>
    11e8:	80 93 34 05 	sts	0x0534, r24	; 0x800534 <usart1_tx_buff+0xa>

	crc = crc_check(usart1_tx_buff, 13);
    11ec:	6d e0       	ldi	r22, 0x0D	; 13
    11ee:	8a e2       	ldi	r24, 0x2A	; 42
    11f0:	95 e0       	ldi	r25, 0x05	; 5
    11f2:	0e 94 d9 26 	call	0x4db2	; 0x4db2 <crc_check>
    11f6:	9a 83       	std	Y+2, r25	; 0x02
    11f8:	89 83       	std	Y+1, r24	; 0x01

	usart1_tx_buff[11] = crc & 0x00FF;
    11fa:	89 81       	ldd	r24, Y+1	; 0x01
    11fc:	80 93 35 05 	sts	0x0535, r24	; 0x800535 <usart1_tx_buff+0xb>
	usart1_tx_buff[12] = crc >> 8;
    1200:	89 81       	ldd	r24, Y+1	; 0x01
    1202:	9a 81       	ldd	r25, Y+2	; 0x02
    1204:	89 2f       	mov	r24, r25
    1206:	99 27       	eor	r25, r25
    1208:	80 93 36 05 	sts	0x0536, r24	; 0x800536 <usart1_tx_buff+0xc>

	ctrl_command = PID;
    120c:	82 e0       	ldi	r24, 0x02	; 2
    120e:	80 93 77 01 	sts	0x0177, r24	; 0x800177 <ctrl_command>

	while (usart1_tx_overtime_mask != 1)
    1212:	00 00       	nop
    1214:	80 91 c1 02 	lds	r24, 0x02C1	; 0x8002c1 <usart1_tx_overtime_mask>
    1218:	81 30       	cpi	r24, 0x01	; 1
    121a:	e1 f7       	brne	.-8      	; 0x1214 <set_pid+0xf0>
		;
	usart1_tx_overtime_mask = 0;
    121c:	10 92 c1 02 	sts	0x02C1, r1	; 0x8002c1 <usart1_tx_overtime_mask>
	usart1_tx_timecnt = 0;
    1220:	10 92 c0 02 	sts	0x02C0, r1	; 0x8002c0 <usart1_tx_timecnt>

	usart1_send_str(usart1_tx_buff, 13);
    1224:	6d e0       	ldi	r22, 0x0D	; 13
    1226:	8a e2       	ldi	r24, 0x2A	; 42
    1228:	95 e0       	ldi	r25, 0x05	; 5
    122a:	0e 94 61 26 	call	0x4cc2	; 0x4cc2 <usart1_send_str>

	ctrl_command = READ_DATA_ALL;
    122e:	81 e0       	ldi	r24, 0x01	; 1
    1230:	80 93 77 01 	sts	0x0177, r24	; 0x800177 <ctrl_command>
}
    1234:	00 00       	nop
    1236:	0f 90       	pop	r0
    1238:	0f 90       	pop	r0
    123a:	0f 90       	pop	r0
    123c:	df 91       	pop	r29
    123e:	cf 91       	pop	r28
    1240:	08 95       	ret

00001242 <single_set_back>:

void single_set_back(void)
{
    1242:	cf 93       	push	r28
    1244:	df 93       	push	r29
    1246:	cd b7       	in	r28, 0x3d	; 61
    1248:	de b7       	in	r29, 0x3e	; 62
	if (set_temp_buff[set_num] != set_temp[set_num])
    124a:	80 91 9c 01 	lds	r24, 0x019C	; 0x80019c <set_num>
    124e:	88 2f       	mov	r24, r24
    1250:	90 e0       	ldi	r25, 0x00	; 0
    1252:	88 0f       	add	r24, r24
    1254:	99 1f       	adc	r25, r25
    1256:	8d 5f       	subi	r24, 0xFD	; 253
    1258:	94 4f       	sbci	r25, 0xF4	; 244
    125a:	fc 01       	movw	r30, r24
    125c:	80 81       	ld	r24, Z
    125e:	91 81       	ldd	r25, Z+1	; 0x01
    1260:	20 91 9c 01 	lds	r18, 0x019C	; 0x80019c <set_num>
    1264:	22 2f       	mov	r18, r18
    1266:	30 e0       	ldi	r19, 0x00	; 0
    1268:	22 0f       	add	r18, r18
    126a:	33 1f       	adc	r19, r19
    126c:	2d 52       	subi	r18, 0x2D	; 45
    126e:	35 4f       	sbci	r19, 0xF5	; 245
    1270:	f9 01       	movw	r30, r18
    1272:	20 81       	ld	r18, Z
    1274:	31 81       	ldd	r19, Z+1	; 0x01
    1276:	82 17       	cp	r24, r18
    1278:	93 07       	cpc	r25, r19
    127a:	b1 f0       	breq	.+44     	; 0x12a8 <single_set_back+0x66>
	{
		set_temp_buff[set_num] = set_temp[set_num];
    127c:	80 91 9c 01 	lds	r24, 0x019C	; 0x80019c <set_num>
    1280:	88 2f       	mov	r24, r24
    1282:	90 e0       	ldi	r25, 0x00	; 0
    1284:	20 91 9c 01 	lds	r18, 0x019C	; 0x80019c <set_num>
    1288:	22 2f       	mov	r18, r18
    128a:	30 e0       	ldi	r19, 0x00	; 0
    128c:	22 0f       	add	r18, r18
    128e:	33 1f       	adc	r19, r19
    1290:	2d 52       	subi	r18, 0x2D	; 45
    1292:	35 4f       	sbci	r19, 0xF5	; 245
    1294:	f9 01       	movw	r30, r18
    1296:	20 81       	ld	r18, Z
    1298:	31 81       	ldd	r19, Z+1	; 0x01
    129a:	88 0f       	add	r24, r24
    129c:	99 1f       	adc	r25, r25
    129e:	8d 5f       	subi	r24, 0xFD	; 253
    12a0:	94 4f       	sbci	r25, 0xF4	; 244
    12a2:	fc 01       	movw	r30, r24
    12a4:	31 83       	std	Z+1, r19	; 0x01
    12a6:	20 83       	st	Z, r18
	}

	if (switch_sensor_buff[set_num] != switch_sensor[set_num])
    12a8:	80 91 9c 01 	lds	r24, 0x019C	; 0x80019c <set_num>
    12ac:	88 2f       	mov	r24, r24
    12ae:	90 e0       	ldi	r25, 0x00	; 0
    12b0:	88 0f       	add	r24, r24
    12b2:	99 1f       	adc	r25, r25
    12b4:	8e 53       	subi	r24, 0x3E	; 62
    12b6:	99 4f       	sbci	r25, 0xF9	; 249
    12b8:	fc 01       	movw	r30, r24
    12ba:	20 81       	ld	r18, Z
    12bc:	31 81       	ldd	r19, Z+1	; 0x01
    12be:	80 91 9c 01 	lds	r24, 0x019C	; 0x80019c <set_num>
    12c2:	88 2f       	mov	r24, r24
    12c4:	90 e0       	ldi	r25, 0x00	; 0
    12c6:	88 0f       	add	r24, r24
    12c8:	99 1f       	adc	r25, r25
    12ca:	81 5e       	subi	r24, 0xE1	; 225
    12cc:	9d 4f       	sbci	r25, 0xFD	; 253
    12ce:	fc 01       	movw	r30, r24
    12d0:	80 81       	ld	r24, Z
    12d2:	91 81       	ldd	r25, Z+1	; 0x01
    12d4:	28 17       	cp	r18, r24
    12d6:	39 07       	cpc	r19, r25
    12d8:	b1 f0       	breq	.+44     	; 0x1306 <single_set_back+0xc4>
	{
		switch_sensor_buff[set_num] = switch_sensor[set_num];
    12da:	80 91 9c 01 	lds	r24, 0x019C	; 0x80019c <set_num>
    12de:	88 2f       	mov	r24, r24
    12e0:	90 e0       	ldi	r25, 0x00	; 0
    12e2:	20 91 9c 01 	lds	r18, 0x019C	; 0x80019c <set_num>
    12e6:	22 2f       	mov	r18, r18
    12e8:	30 e0       	ldi	r19, 0x00	; 0
    12ea:	22 0f       	add	r18, r18
    12ec:	33 1f       	adc	r19, r19
    12ee:	21 5e       	subi	r18, 0xE1	; 225
    12f0:	3d 4f       	sbci	r19, 0xFD	; 253
    12f2:	f9 01       	movw	r30, r18
    12f4:	20 81       	ld	r18, Z
    12f6:	31 81       	ldd	r19, Z+1	; 0x01
    12f8:	88 0f       	add	r24, r24
    12fa:	99 1f       	adc	r25, r25
    12fc:	8e 53       	subi	r24, 0x3E	; 62
    12fe:	99 4f       	sbci	r25, 0xF9	; 249
    1300:	fc 01       	movw	r30, r24
    1302:	31 83       	std	Z+1, r19	; 0x01
    1304:	20 83       	st	Z, r18
	}

	if (sensor_type_buff[set_num] != sensor_type[set_num])
    1306:	80 91 9c 01 	lds	r24, 0x019C	; 0x80019c <set_num>
    130a:	88 2f       	mov	r24, r24
    130c:	90 e0       	ldi	r25, 0x00	; 0
    130e:	88 0f       	add	r24, r24
    1310:	99 1f       	adc	r25, r25
    1312:	8e 50       	subi	r24, 0x0E	; 14
    1314:	99 4f       	sbci	r25, 0xF9	; 249
    1316:	fc 01       	movw	r30, r24
    1318:	20 81       	ld	r18, Z
    131a:	31 81       	ldd	r19, Z+1	; 0x01
    131c:	80 91 9c 01 	lds	r24, 0x019C	; 0x80019c <set_num>
    1320:	88 2f       	mov	r24, r24
    1322:	90 e0       	ldi	r25, 0x00	; 0
    1324:	88 0f       	add	r24, r24
    1326:	99 1f       	adc	r25, r25
    1328:	81 5b       	subi	r24, 0xB1	; 177
    132a:	9d 4f       	sbci	r25, 0xFD	; 253
    132c:	fc 01       	movw	r30, r24
    132e:	80 81       	ld	r24, Z
    1330:	91 81       	ldd	r25, Z+1	; 0x01
    1332:	28 17       	cp	r18, r24
    1334:	39 07       	cpc	r19, r25
    1336:	b1 f0       	breq	.+44     	; 0x1364 <single_set_back+0x122>
	{
		sensor_type_buff[set_num] = sensor_type[set_num];
    1338:	80 91 9c 01 	lds	r24, 0x019C	; 0x80019c <set_num>
    133c:	88 2f       	mov	r24, r24
    133e:	90 e0       	ldi	r25, 0x00	; 0
    1340:	20 91 9c 01 	lds	r18, 0x019C	; 0x80019c <set_num>
    1344:	22 2f       	mov	r18, r18
    1346:	30 e0       	ldi	r19, 0x00	; 0
    1348:	22 0f       	add	r18, r18
    134a:	33 1f       	adc	r19, r19
    134c:	21 5b       	subi	r18, 0xB1	; 177
    134e:	3d 4f       	sbci	r19, 0xFD	; 253
    1350:	f9 01       	movw	r30, r18
    1352:	20 81       	ld	r18, Z
    1354:	31 81       	ldd	r19, Z+1	; 0x01
    1356:	88 0f       	add	r24, r24
    1358:	99 1f       	adc	r25, r25
    135a:	8e 50       	subi	r24, 0x0E	; 14
    135c:	99 4f       	sbci	r25, 0xF9	; 249
    135e:	fc 01       	movw	r30, r24
    1360:	31 83       	std	Z+1, r19	; 0x01
    1362:	20 83       	st	Z, r18
	}

	in_main_page = 1;
    1364:	81 e0       	ldi	r24, 0x01	; 1
    1366:	80 93 00 01 	sts	0x0100, r24	; 0x800100 <__data_start>
	update_run_temp_flag = 0;
    136a:	10 92 97 01 	sts	0x0197, r1	; 0x800197 <update_run_temp_flag>
}
    136e:	00 00       	nop
    1370:	df 91       	pop	r29
    1372:	cf 91       	pop	r28
    1374:	08 95       	ret

00001376 <all_set_back>:

void all_set_back(void)
{
    1376:	cf 93       	push	r28
    1378:	df 93       	push	r29
    137a:	cd b7       	in	r28, 0x3d	; 61
    137c:	de b7       	in	r29, 0x3e	; 62
	if (all_temp_buff != all_temp)
    137e:	20 91 78 01 	lds	r18, 0x0178	; 0x800178 <all_temp_buff>
    1382:	30 91 79 01 	lds	r19, 0x0179	; 0x800179 <all_temp_buff+0x1>
    1386:	80 91 03 01 	lds	r24, 0x0103	; 0x800103 <all_temp>
    138a:	90 91 04 01 	lds	r25, 0x0104	; 0x800104 <all_temp+0x1>
    138e:	28 17       	cp	r18, r24
    1390:	39 07       	cpc	r19, r25
    1392:	89 f0       	breq	.+34     	; 0x13b6 <all_set_back+0x40>
	{
		all_temp_buff = all_temp;
    1394:	80 91 03 01 	lds	r24, 0x0103	; 0x800103 <all_temp>
    1398:	90 91 04 01 	lds	r25, 0x0104	; 0x800104 <all_temp+0x1>
    139c:	90 93 79 01 	sts	0x0179, r25	; 0x800179 <all_temp_buff+0x1>
    13a0:	80 93 78 01 	sts	0x0178, r24	; 0x800178 <all_temp_buff>
		send_variables(ALL_SET_TEMP, all_temp);
    13a4:	80 91 03 01 	lds	r24, 0x0103	; 0x800103 <all_temp>
    13a8:	90 91 04 01 	lds	r25, 0x0104	; 0x800104 <all_temp+0x1>
    13ac:	bc 01       	movw	r22, r24
    13ae:	88 e4       	ldi	r24, 0x48	; 72
    13b0:	91 e0       	ldi	r25, 0x01	; 1
    13b2:	0e 94 bc 12 	call	0x2578	; 0x2578 <send_variables>
	}

	if (preheat_time_buff != preheat_time)
    13b6:	20 91 7a 01 	lds	r18, 0x017A	; 0x80017a <preheat_time_buff>
    13ba:	30 91 7b 01 	lds	r19, 0x017B	; 0x80017b <preheat_time_buff+0x1>
    13be:	80 91 01 01 	lds	r24, 0x0101	; 0x800101 <preheat_time>
    13c2:	90 91 02 01 	lds	r25, 0x0102	; 0x800102 <preheat_time+0x1>
    13c6:	28 17       	cp	r18, r24
    13c8:	39 07       	cpc	r19, r25
    13ca:	89 f0       	breq	.+34     	; 0x13ee <all_set_back+0x78>
	{
		preheat_time_buff = preheat_time;
    13cc:	80 91 01 01 	lds	r24, 0x0101	; 0x800101 <preheat_time>
    13d0:	90 91 02 01 	lds	r25, 0x0102	; 0x800102 <preheat_time+0x1>
    13d4:	90 93 7b 01 	sts	0x017B, r25	; 0x80017b <preheat_time_buff+0x1>
    13d8:	80 93 7a 01 	sts	0x017A, r24	; 0x80017a <preheat_time_buff>
		send_variables(SET_PREHEAT_TIME, preheat_time);
    13dc:	80 91 01 01 	lds	r24, 0x0101	; 0x800101 <preheat_time>
    13e0:	90 91 02 01 	lds	r25, 0x0102	; 0x800102 <preheat_time+0x1>
    13e4:	bc 01       	movw	r22, r24
    13e6:	8a e4       	ldi	r24, 0x4A	; 74
    13e8:	91 e0       	ldi	r25, 0x01	; 1
    13ea:	0e 94 bc 12 	call	0x2578	; 0x2578 <send_variables>
	}

	if (all_sensor_type_buff != all_sensor_type)
    13ee:	20 91 be 06 	lds	r18, 0x06BE	; 0x8006be <all_sensor_type_buff>
    13f2:	30 91 bf 06 	lds	r19, 0x06BF	; 0x8006bf <all_sensor_type_buff+0x1>
    13f6:	80 91 b3 02 	lds	r24, 0x02B3	; 0x8002b3 <all_sensor_type>
    13fa:	90 91 b4 02 	lds	r25, 0x02B4	; 0x8002b4 <all_sensor_type+0x1>
    13fe:	28 17       	cp	r18, r24
    1400:	39 07       	cpc	r19, r25
    1402:	a9 f0       	breq	.+42     	; 0x142e <all_set_back+0xb8>
	{
		all_sensor_type_buff = all_sensor_type;
    1404:	80 91 b3 02 	lds	r24, 0x02B3	; 0x8002b3 <all_sensor_type>
    1408:	90 91 b4 02 	lds	r25, 0x02B4	; 0x8002b4 <all_sensor_type+0x1>
    140c:	90 93 bf 06 	sts	0x06BF, r25	; 0x8006bf <all_sensor_type_buff+0x1>
    1410:	80 93 be 06 	sts	0x06BE, r24	; 0x8006be <all_sensor_type_buff>
		send_variables(ALL_SENSOR_TYPE_ADDR, TYPE_J + (all_sensor_type * TYPE_K));
    1414:	80 91 b3 02 	lds	r24, 0x02B3	; 0x8002b3 <all_sensor_type>
    1418:	90 91 b4 02 	lds	r25, 0x02B4	; 0x8002b4 <all_sensor_type+0x1>
    141c:	86 5b       	subi	r24, 0xB6	; 182
    141e:	9f 4f       	sbci	r25, 0xFF	; 255
    1420:	98 2f       	mov	r25, r24
    1422:	88 27       	eor	r24, r24
    1424:	bc 01       	movw	r22, r24
    1426:	84 e9       	ldi	r24, 0x94	; 148
    1428:	92 e0       	ldi	r25, 0x02	; 2
    142a:	0e 94 bc 12 	call	0x2578	; 0x2578 <send_variables>
	}

	if (temp_unit_buff != temp_unit)
    142e:	20 91 c0 06 	lds	r18, 0x06C0	; 0x8006c0 <temp_unit_buff>
    1432:	30 91 c1 06 	lds	r19, 0x06C1	; 0x8006c1 <temp_unit_buff+0x1>
    1436:	80 91 b5 02 	lds	r24, 0x02B5	; 0x8002b5 <temp_unit>
    143a:	90 91 b6 02 	lds	r25, 0x02B6	; 0x8002b6 <temp_unit+0x1>
    143e:	28 17       	cp	r18, r24
    1440:	39 07       	cpc	r19, r25
    1442:	d9 f0       	breq	.+54     	; 0x147a <all_set_back+0x104>
	{
		temp_unit_buff = temp_unit;
    1444:	80 91 b5 02 	lds	r24, 0x02B5	; 0x8002b5 <temp_unit>
    1448:	90 91 b6 02 	lds	r25, 0x02B6	; 0x8002b6 <temp_unit+0x1>
    144c:	90 93 c1 06 	sts	0x06C1, r25	; 0x8006c1 <temp_unit_buff+0x1>
    1450:	80 93 c0 06 	sts	0x06C0, r24	; 0x8006c0 <temp_unit_buff>
		send_variables(TEMP_UINT_ADDR, (CELSIUS + temp_unit * FAHRENHEIT));
    1454:	40 91 b5 02 	lds	r20, 0x02B5	; 0x8002b5 <temp_unit>
    1458:	50 91 b6 02 	lds	r21, 0x02B6	; 0x8002b6 <temp_unit+0x1>
    145c:	20 e0       	ldi	r18, 0x00	; 0
    145e:	33 e0       	ldi	r19, 0x03	; 3
    1460:	42 9f       	mul	r20, r18
    1462:	c0 01       	movw	r24, r0
    1464:	43 9f       	mul	r20, r19
    1466:	90 0d       	add	r25, r0
    1468:	52 9f       	mul	r21, r18
    146a:	90 0d       	add	r25, r0
    146c:	11 24       	eor	r1, r1
    146e:	9d 5b       	subi	r25, 0xBD	; 189
    1470:	bc 01       	movw	r22, r24
    1472:	8c e3       	ldi	r24, 0x3C	; 60
    1474:	92 e0       	ldi	r25, 0x02	; 2
    1476:	0e 94 bc 12 	call	0x2578	; 0x2578 <send_variables>
	}

	in_main_page = 1;
    147a:	81 e0       	ldi	r24, 0x01	; 1
    147c:	80 93 00 01 	sts	0x0100, r24	; 0x800100 <__data_start>
}
    1480:	00 00       	nop
    1482:	df 91       	pop	r29
    1484:	cf 91       	pop	r28
    1486:	08 95       	ret

00001488 <switch_all_sensor>:

void switch_all_sensor(uint16_t sta)
{
    1488:	cf 93       	push	r28
    148a:	df 93       	push	r29
    148c:	00 d0       	rcall	.+0      	; 0x148e <switch_all_sensor+0x6>
    148e:	00 d0       	rcall	.+0      	; 0x1490 <switch_all_sensor+0x8>
    1490:	00 d0       	rcall	.+0      	; 0x1492 <switch_all_sensor+0xa>
    1492:	cd b7       	in	r28, 0x3d	; 61
    1494:	de b7       	in	r29, 0x3e	; 62
    1496:	9e 83       	std	Y+6, r25	; 0x06
    1498:	8d 83       	std	Y+5, r24	; 0x05
	uint8_t i = 0;
    149a:	19 82       	std	Y+1, r1	; 0x01
	uint16_t crc = 0;
    149c:	1c 82       	std	Y+4, r1	; 0x04
    149e:	1b 82       	std	Y+3, r1	; 0x03
	uint8_t slave_num = 1;
    14a0:	81 e0       	ldi	r24, 0x01	; 1
    14a2:	8a 83       	std	Y+2, r24	; 0x02

	ctrl_command = 0; //不是READ_DATA_ALL 就ok
    14a4:	10 92 77 01 	sts	0x0177, r1	; 0x800177 <ctrl_command>

	usart1_tx_buff[0] = 0xA5;
    14a8:	85 ea       	ldi	r24, 0xA5	; 165
    14aa:	80 93 2a 05 	sts	0x052A, r24	; 0x80052a <usart1_tx_buff>
	usart1_tx_buff[1] = 0x5A;
    14ae:	8a e5       	ldi	r24, 0x5A	; 90
    14b0:	80 93 2b 05 	sts	0x052B, r24	; 0x80052b <usart1_tx_buff+0x1>
	usart1_tx_buff[2] = 0x04;
    14b4:	84 e0       	ldi	r24, 0x04	; 4
    14b6:	80 93 2c 05 	sts	0x052C, r24	; 0x80052c <usart1_tx_buff+0x2>
	usart1_tx_buff[3] = 0x06;
    14ba:	86 e0       	ldi	r24, 0x06	; 6
    14bc:	80 93 2d 05 	sts	0x052D, r24	; 0x80052d <usart1_tx_buff+0x3>
	usart1_tx_buff[5] = 0x00;
    14c0:	10 92 2f 05 	sts	0x052F, r1	; 0x80052f <usart1_tx_buff+0x5>
	usart1_tx_buff[6] = sta;
    14c4:	8d 81       	ldd	r24, Y+5	; 0x05
    14c6:	80 93 30 05 	sts	0x0530, r24	; 0x800530 <usart1_tx_buff+0x6>

	pre_system_sta = sta;
    14ca:	8d 81       	ldd	r24, Y+5	; 0x05
    14cc:	9e 81       	ldd	r25, Y+6	; 0x06
    14ce:	90 93 9b 01 	sts	0x019B, r25	; 0x80019b <pre_system_sta+0x1>
    14d2:	80 93 9a 01 	sts	0x019A, r24	; 0x80019a <pre_system_sta>

	for (i = 0; i < MAX_IQR_QUANTITY; i++)
    14d6:	19 82       	std	Y+1, r1	; 0x01
    14d8:	1b c0       	rjmp	.+54     	; 0x1510 <switch_all_sensor+0x88>
	{
		switch_sensor[i] = sta;
    14da:	89 81       	ldd	r24, Y+1	; 0x01
    14dc:	88 2f       	mov	r24, r24
    14de:	90 e0       	ldi	r25, 0x00	; 0
    14e0:	88 0f       	add	r24, r24
    14e2:	99 1f       	adc	r25, r25
    14e4:	81 5e       	subi	r24, 0xE1	; 225
    14e6:	9d 4f       	sbci	r25, 0xFD	; 253
    14e8:	2d 81       	ldd	r18, Y+5	; 0x05
    14ea:	3e 81       	ldd	r19, Y+6	; 0x06
    14ec:	fc 01       	movw	r30, r24
    14ee:	31 83       	std	Z+1, r19	; 0x01
    14f0:	20 83       	st	Z, r18
		switch_sensor_buff[i] = sta;
    14f2:	89 81       	ldd	r24, Y+1	; 0x01
    14f4:	88 2f       	mov	r24, r24
    14f6:	90 e0       	ldi	r25, 0x00	; 0
    14f8:	88 0f       	add	r24, r24
    14fa:	99 1f       	adc	r25, r25
    14fc:	8e 53       	subi	r24, 0x3E	; 62
    14fe:	99 4f       	sbci	r25, 0xF9	; 249
    1500:	2d 81       	ldd	r18, Y+5	; 0x05
    1502:	3e 81       	ldd	r19, Y+6	; 0x06
    1504:	fc 01       	movw	r30, r24
    1506:	31 83       	std	Z+1, r19	; 0x01
    1508:	20 83       	st	Z, r18
	usart1_tx_buff[5] = 0x00;
	usart1_tx_buff[6] = sta;

	pre_system_sta = sta;

	for (i = 0; i < MAX_IQR_QUANTITY; i++)
    150a:	89 81       	ldd	r24, Y+1	; 0x01
    150c:	8f 5f       	subi	r24, 0xFF	; 255
    150e:	89 83       	std	Y+1, r24	; 0x01
    1510:	89 81       	ldd	r24, Y+1	; 0x01
    1512:	88 31       	cpi	r24, 0x18	; 24
    1514:	10 f3       	brcs	.-60     	; 0x14da <switch_all_sensor+0x52>
		switch_sensor[i] = sta;
		switch_sensor_buff[i] = sta;
		// 		eeprom_write(SINGLE_SWSENSOR_EEADDR+i, switch_sensor[i]);
	}

	for (; slave_num <= TEMP_CTRL_BOARD_QUANTITY; slave_num++)
    1516:	26 c0       	rjmp	.+76     	; 0x1564 <switch_all_sensor+0xdc>
	{
		usart1_tx_buff[4] = slave_num << 4;
    1518:	8a 81       	ldd	r24, Y+2	; 0x02
    151a:	82 95       	swap	r24
    151c:	80 7f       	andi	r24, 0xF0	; 240
    151e:	80 93 2e 05 	sts	0x052E, r24	; 0x80052e <usart1_tx_buff+0x4>

		crc = crc_check(usart1_tx_buff, 9);
    1522:	69 e0       	ldi	r22, 0x09	; 9
    1524:	8a e2       	ldi	r24, 0x2A	; 42
    1526:	95 e0       	ldi	r25, 0x05	; 5
    1528:	0e 94 d9 26 	call	0x4db2	; 0x4db2 <crc_check>
    152c:	9c 83       	std	Y+4, r25	; 0x04
    152e:	8b 83       	std	Y+3, r24	; 0x03

		usart1_tx_buff[7] = crc & 0x00FF;
    1530:	8b 81       	ldd	r24, Y+3	; 0x03
    1532:	80 93 31 05 	sts	0x0531, r24	; 0x800531 <usart1_tx_buff+0x7>
		usart1_tx_buff[8] = crc >> 8;
    1536:	8b 81       	ldd	r24, Y+3	; 0x03
    1538:	9c 81       	ldd	r25, Y+4	; 0x04
    153a:	89 2f       	mov	r24, r25
    153c:	99 27       	eor	r25, r25
    153e:	80 93 32 05 	sts	0x0532, r24	; 0x800532 <usart1_tx_buff+0x8>

		while (usart1_tx_overtime_mask != 1)
    1542:	00 00       	nop
    1544:	80 91 c1 02 	lds	r24, 0x02C1	; 0x8002c1 <usart1_tx_overtime_mask>
    1548:	81 30       	cpi	r24, 0x01	; 1
    154a:	e1 f7       	brne	.-8      	; 0x1544 <switch_all_sensor+0xbc>
			;
		usart1_tx_overtime_mask = 0;
    154c:	10 92 c1 02 	sts	0x02C1, r1	; 0x8002c1 <usart1_tx_overtime_mask>
		usart1_tx_timecnt = 0;
    1550:	10 92 c0 02 	sts	0x02C0, r1	; 0x8002c0 <usart1_tx_timecnt>

		usart1_send_str(usart1_tx_buff, 9);
    1554:	69 e0       	ldi	r22, 0x09	; 9
    1556:	8a e2       	ldi	r24, 0x2A	; 42
    1558:	95 e0       	ldi	r25, 0x05	; 5
    155a:	0e 94 61 26 	call	0x4cc2	; 0x4cc2 <usart1_send_str>
		switch_sensor[i] = sta;
		switch_sensor_buff[i] = sta;
		// 		eeprom_write(SINGLE_SWSENSOR_EEADDR+i, switch_sensor[i]);
	}

	for (; slave_num <= TEMP_CTRL_BOARD_QUANTITY; slave_num++)
    155e:	8a 81       	ldd	r24, Y+2	; 0x02
    1560:	8f 5f       	subi	r24, 0xFF	; 255
    1562:	8a 83       	std	Y+2, r24	; 0x02
    1564:	8a 81       	ldd	r24, Y+2	; 0x02
    1566:	87 30       	cpi	r24, 0x07	; 7
    1568:	b8 f2       	brcs	.-82     	; 0x1518 <switch_all_sensor+0x90>
		usart1_tx_timecnt = 0;

		usart1_send_str(usart1_tx_buff, 9);
	}

	ctrl_command = READ_DATA_ALL;
    156a:	81 e0       	ldi	r24, 0x01	; 1
    156c:	80 93 77 01 	sts	0x0177, r24	; 0x800177 <ctrl_command>
}
    1570:	00 00       	nop
    1572:	26 96       	adiw	r28, 0x06	; 6
    1574:	0f b6       	in	r0, 0x3f	; 63
    1576:	f8 94       	cli
    1578:	de bf       	out	0x3e, r29	; 62
    157a:	0f be       	out	0x3f, r0	; 63
    157c:	cd bf       	out	0x3d, r28	; 61
    157e:	df 91       	pop	r29
    1580:	cf 91       	pop	r28
    1582:	08 95       	ret

00001584 <get_set_name>:

void get_set_name(void)
{
    1584:	cf 93       	push	r28
    1586:	df 93       	push	r29
    1588:	cd b7       	in	r28, 0x3d	; 61
    158a:	de b7       	in	r29, 0x3e	; 62
	set_name_buff = usart0_rx_buff[7];
    158c:	80 91 d6 02 	lds	r24, 0x02D6	; 0x8002d6 <usart0_rx_buff+0x7>
    1590:	88 2f       	mov	r24, r24
    1592:	90 e0       	ldi	r25, 0x00	; 0
    1594:	a0 e0       	ldi	r26, 0x00	; 0
    1596:	b0 e0       	ldi	r27, 0x00	; 0
    1598:	80 93 7f 02 	sts	0x027F, r24	; 0x80027f <set_name_buff>
    159c:	90 93 80 02 	sts	0x0280, r25	; 0x800280 <set_name_buff+0x1>
    15a0:	a0 93 81 02 	sts	0x0281, r26	; 0x800281 <set_name_buff+0x2>
    15a4:	b0 93 82 02 	sts	0x0282, r27	; 0x800282 <set_name_buff+0x3>
	set_name_buff = (set_name_buff << 8) | usart0_rx_buff[8];
    15a8:	80 91 7f 02 	lds	r24, 0x027F	; 0x80027f <set_name_buff>
    15ac:	90 91 80 02 	lds	r25, 0x0280	; 0x800280 <set_name_buff+0x1>
    15b0:	a0 91 81 02 	lds	r26, 0x0281	; 0x800281 <set_name_buff+0x2>
    15b4:	b0 91 82 02 	lds	r27, 0x0282	; 0x800282 <set_name_buff+0x3>
    15b8:	22 27       	eor	r18, r18
    15ba:	38 2f       	mov	r19, r24
    15bc:	49 2f       	mov	r20, r25
    15be:	5a 2f       	mov	r21, r26
    15c0:	80 91 d7 02 	lds	r24, 0x02D7	; 0x8002d7 <usart0_rx_buff+0x8>
    15c4:	88 2f       	mov	r24, r24
    15c6:	90 e0       	ldi	r25, 0x00	; 0
    15c8:	a0 e0       	ldi	r26, 0x00	; 0
    15ca:	b0 e0       	ldi	r27, 0x00	; 0
    15cc:	82 2b       	or	r24, r18
    15ce:	93 2b       	or	r25, r19
    15d0:	a4 2b       	or	r26, r20
    15d2:	b5 2b       	or	r27, r21
    15d4:	80 93 7f 02 	sts	0x027F, r24	; 0x80027f <set_name_buff>
    15d8:	90 93 80 02 	sts	0x0280, r25	; 0x800280 <set_name_buff+0x1>
    15dc:	a0 93 81 02 	sts	0x0281, r26	; 0x800281 <set_name_buff+0x2>
    15e0:	b0 93 82 02 	sts	0x0282, r27	; 0x800282 <set_name_buff+0x3>
	set_name_buff = (set_name_buff << 8) | usart0_rx_buff[9];
    15e4:	80 91 7f 02 	lds	r24, 0x027F	; 0x80027f <set_name_buff>
    15e8:	90 91 80 02 	lds	r25, 0x0280	; 0x800280 <set_name_buff+0x1>
    15ec:	a0 91 81 02 	lds	r26, 0x0281	; 0x800281 <set_name_buff+0x2>
    15f0:	b0 91 82 02 	lds	r27, 0x0282	; 0x800282 <set_name_buff+0x3>
    15f4:	22 27       	eor	r18, r18
    15f6:	38 2f       	mov	r19, r24
    15f8:	49 2f       	mov	r20, r25
    15fa:	5a 2f       	mov	r21, r26
    15fc:	80 91 d8 02 	lds	r24, 0x02D8	; 0x8002d8 <usart0_rx_buff+0x9>
    1600:	88 2f       	mov	r24, r24
    1602:	90 e0       	ldi	r25, 0x00	; 0
    1604:	a0 e0       	ldi	r26, 0x00	; 0
    1606:	b0 e0       	ldi	r27, 0x00	; 0
    1608:	82 2b       	or	r24, r18
    160a:	93 2b       	or	r25, r19
    160c:	a4 2b       	or	r26, r20
    160e:	b5 2b       	or	r27, r21
    1610:	80 93 7f 02 	sts	0x027F, r24	; 0x80027f <set_name_buff>
    1614:	90 93 80 02 	sts	0x0280, r25	; 0x800280 <set_name_buff+0x1>
    1618:	a0 93 81 02 	sts	0x0281, r26	; 0x800281 <set_name_buff+0x2>
    161c:	b0 93 82 02 	sts	0x0282, r27	; 0x800282 <set_name_buff+0x3>
	set_name_buff = (set_name_buff << 8) | usart0_rx_buff[10];
    1620:	80 91 7f 02 	lds	r24, 0x027F	; 0x80027f <set_name_buff>
    1624:	90 91 80 02 	lds	r25, 0x0280	; 0x800280 <set_name_buff+0x1>
    1628:	a0 91 81 02 	lds	r26, 0x0281	; 0x800281 <set_name_buff+0x2>
    162c:	b0 91 82 02 	lds	r27, 0x0282	; 0x800282 <set_name_buff+0x3>
    1630:	22 27       	eor	r18, r18
    1632:	38 2f       	mov	r19, r24
    1634:	49 2f       	mov	r20, r25
    1636:	5a 2f       	mov	r21, r26
    1638:	80 91 d9 02 	lds	r24, 0x02D9	; 0x8002d9 <usart0_rx_buff+0xa>
    163c:	88 2f       	mov	r24, r24
    163e:	90 e0       	ldi	r25, 0x00	; 0
    1640:	a0 e0       	ldi	r26, 0x00	; 0
    1642:	b0 e0       	ldi	r27, 0x00	; 0
    1644:	82 2b       	or	r24, r18
    1646:	93 2b       	or	r25, r19
    1648:	a4 2b       	or	r26, r20
    164a:	b5 2b       	or	r27, r21
    164c:	80 93 7f 02 	sts	0x027F, r24	; 0x80027f <set_name_buff>
    1650:	90 93 80 02 	sts	0x0280, r25	; 0x800280 <set_name_buff+0x1>
    1654:	a0 93 81 02 	sts	0x0281, r26	; 0x800281 <set_name_buff+0x2>
    1658:	b0 93 82 02 	sts	0x0282, r27	; 0x800282 <set_name_buff+0x3>
}
    165c:	00 00       	nop
    165e:	df 91       	pop	r29
    1660:	cf 91       	pop	r28
    1662:	08 95       	ret

00001664 <single_set>:

void single_set(uint8_t command, uint16_t value)
{
    1664:	cf 93       	push	r28
    1666:	df 93       	push	r29
    1668:	00 d0       	rcall	.+0      	; 0x166a <single_set+0x6>
    166a:	00 d0       	rcall	.+0      	; 0x166c <single_set+0x8>
    166c:	00 d0       	rcall	.+0      	; 0x166e <single_set+0xa>
    166e:	cd b7       	in	r28, 0x3d	; 61
    1670:	de b7       	in	r29, 0x3e	; 62
    1672:	8c 83       	std	Y+4, r24	; 0x04
    1674:	7e 83       	std	Y+6, r23	; 0x06
    1676:	6d 83       	std	Y+5, r22	; 0x05
	uint16_t crc = 0;
    1678:	1a 82       	std	Y+2, r1	; 0x02
    167a:	19 82       	std	Y+1, r1	; 0x01
	uint8_t addr = 0;
    167c:	1b 82       	std	Y+3, r1	; 0x03

	ctrl_command = 0; // 不是READ_DATA_ALL 就OK
    167e:	10 92 77 01 	sts	0x0177, r1	; 0x800177 <ctrl_command>

	if (temp_unit_buff == 1)
    1682:	80 91 c0 06 	lds	r24, 0x06C0	; 0x8006c0 <temp_unit_buff>
    1686:	90 91 c1 06 	lds	r25, 0x06C1	; 0x8006c1 <temp_unit_buff+0x1>
    168a:	01 97       	sbiw	r24, 0x01	; 1
    168c:	d1 f4       	brne	.+52     	; 0x16c2 <single_set+0x5e>
	{
		value = ((value - 32) * 10 / 18);
    168e:	8d 81       	ldd	r24, Y+5	; 0x05
    1690:	9e 81       	ldd	r25, Y+6	; 0x06
    1692:	88 0f       	add	r24, r24
    1694:	99 1f       	adc	r25, r25
    1696:	9c 01       	movw	r18, r24
    1698:	22 0f       	add	r18, r18
    169a:	33 1f       	adc	r19, r19
    169c:	22 0f       	add	r18, r18
    169e:	33 1f       	adc	r19, r19
    16a0:	82 0f       	add	r24, r18
    16a2:	93 1f       	adc	r25, r19
    16a4:	80 54       	subi	r24, 0x40	; 64
    16a6:	91 40       	sbci	r25, 0x01	; 1
    16a8:	9c 01       	movw	r18, r24
    16aa:	af e8       	ldi	r26, 0x8F	; 143
    16ac:	b3 ee       	ldi	r27, 0xE3	; 227
    16ae:	0e 94 4e 28 	call	0x509c	; 0x509c <__umulhisi3>
    16b2:	92 95       	swap	r25
    16b4:	82 95       	swap	r24
    16b6:	8f 70       	andi	r24, 0x0F	; 15
    16b8:	89 27       	eor	r24, r25
    16ba:	9f 70       	andi	r25, 0x0F	; 15
    16bc:	89 27       	eor	r24, r25
    16be:	9e 83       	std	Y+6, r25	; 0x06
    16c0:	8d 83       	std	Y+5, r24	; 0x05
	}

	addr = (set_num / 4) + 1;
    16c2:	80 91 9c 01 	lds	r24, 0x019C	; 0x80019c <set_num>
    16c6:	86 95       	lsr	r24
    16c8:	86 95       	lsr	r24
    16ca:	8f 5f       	subi	r24, 0xFF	; 255
    16cc:	8b 83       	std	Y+3, r24	; 0x03
	addr = (addr << 4) | ((set_num % 4) + 1);
    16ce:	8b 81       	ldd	r24, Y+3	; 0x03
    16d0:	88 2f       	mov	r24, r24
    16d2:	90 e0       	ldi	r25, 0x00	; 0
    16d4:	82 95       	swap	r24
    16d6:	92 95       	swap	r25
    16d8:	90 7f       	andi	r25, 0xF0	; 240
    16da:	98 27       	eor	r25, r24
    16dc:	80 7f       	andi	r24, 0xF0	; 240
    16de:	98 27       	eor	r25, r24
    16e0:	98 2f       	mov	r25, r24
    16e2:	80 91 9c 01 	lds	r24, 0x019C	; 0x80019c <set_num>
    16e6:	83 70       	andi	r24, 0x03	; 3
    16e8:	8f 5f       	subi	r24, 0xFF	; 255
    16ea:	89 2b       	or	r24, r25
    16ec:	8b 83       	std	Y+3, r24	; 0x03

	usart1_tx_buff[0] = 0xA5;
    16ee:	85 ea       	ldi	r24, 0xA5	; 165
    16f0:	80 93 2a 05 	sts	0x052A, r24	; 0x80052a <usart1_tx_buff>
	usart1_tx_buff[1] = 0x5A;
    16f4:	8a e5       	ldi	r24, 0x5A	; 90
    16f6:	80 93 2b 05 	sts	0x052B, r24	; 0x80052b <usart1_tx_buff+0x1>
	usart1_tx_buff[2] = 0x04;
    16fa:	84 e0       	ldi	r24, 0x04	; 4
    16fc:	80 93 2c 05 	sts	0x052C, r24	; 0x80052c <usart1_tx_buff+0x2>
	usart1_tx_buff[3] = command;
    1700:	8c 81       	ldd	r24, Y+4	; 0x04
    1702:	80 93 2d 05 	sts	0x052D, r24	; 0x80052d <usart1_tx_buff+0x3>
	usart1_tx_buff[4] = addr;
    1706:	8b 81       	ldd	r24, Y+3	; 0x03
    1708:	80 93 2e 05 	sts	0x052E, r24	; 0x80052e <usart1_tx_buff+0x4>
	usart1_tx_buff[5] = (value >> 8);
    170c:	8d 81       	ldd	r24, Y+5	; 0x05
    170e:	9e 81       	ldd	r25, Y+6	; 0x06
    1710:	89 2f       	mov	r24, r25
    1712:	99 27       	eor	r25, r25
    1714:	80 93 2f 05 	sts	0x052F, r24	; 0x80052f <usart1_tx_buff+0x5>
	usart1_tx_buff[6] = value;
    1718:	8d 81       	ldd	r24, Y+5	; 0x05
    171a:	80 93 30 05 	sts	0x0530, r24	; 0x800530 <usart1_tx_buff+0x6>

	crc = crc_check(usart1_tx_buff, 9);
    171e:	69 e0       	ldi	r22, 0x09	; 9
    1720:	8a e2       	ldi	r24, 0x2A	; 42
    1722:	95 e0       	ldi	r25, 0x05	; 5
    1724:	0e 94 d9 26 	call	0x4db2	; 0x4db2 <crc_check>
    1728:	9a 83       	std	Y+2, r25	; 0x02
    172a:	89 83       	std	Y+1, r24	; 0x01

	usart1_tx_buff[7] = crc & 0x00FF;
    172c:	89 81       	ldd	r24, Y+1	; 0x01
    172e:	80 93 31 05 	sts	0x0531, r24	; 0x800531 <usart1_tx_buff+0x7>
	usart1_tx_buff[8] = crc >> 8;
    1732:	89 81       	ldd	r24, Y+1	; 0x01
    1734:	9a 81       	ldd	r25, Y+2	; 0x02
    1736:	89 2f       	mov	r24, r25
    1738:	99 27       	eor	r25, r25
    173a:	80 93 32 05 	sts	0x0532, r24	; 0x800532 <usart1_tx_buff+0x8>

	while (usart1_tx_overtime_mask != 1)
    173e:	00 00       	nop
    1740:	80 91 c1 02 	lds	r24, 0x02C1	; 0x8002c1 <usart1_tx_overtime_mask>
    1744:	81 30       	cpi	r24, 0x01	; 1
    1746:	e1 f7       	brne	.-8      	; 0x1740 <single_set+0xdc>
		;
	usart1_tx_overtime_mask = 0;
    1748:	10 92 c1 02 	sts	0x02C1, r1	; 0x8002c1 <usart1_tx_overtime_mask>
	usart1_tx_timecnt = 0;
    174c:	10 92 c0 02 	sts	0x02C0, r1	; 0x8002c0 <usart1_tx_timecnt>

	usart1_send_str(usart1_tx_buff, 9);
    1750:	69 e0       	ldi	r22, 0x09	; 9
    1752:	8a e2       	ldi	r24, 0x2A	; 42
    1754:	95 e0       	ldi	r25, 0x05	; 5
    1756:	0e 94 61 26 	call	0x4cc2	; 0x4cc2 <usart1_send_str>

	ctrl_command = READ_DATA_ALL;
    175a:	81 e0       	ldi	r24, 0x01	; 1
    175c:	80 93 77 01 	sts	0x0177, r24	; 0x800177 <ctrl_command>
}
    1760:	00 00       	nop
    1762:	26 96       	adiw	r28, 0x06	; 6
    1764:	0f b6       	in	r0, 0x3f	; 63
    1766:	f8 94       	cli
    1768:	de bf       	out	0x3e, r29	; 62
    176a:	0f be       	out	0x3f, r0	; 63
    176c:	cd bf       	out	0x3d, r28	; 61
    176e:	df 91       	pop	r29
    1770:	cf 91       	pop	r28
    1772:	08 95       	ret

00001774 <all_set>:

void all_set(uint8_t command, uint16_t value)
{
    1774:	cf 93       	push	r28
    1776:	df 93       	push	r29
    1778:	00 d0       	rcall	.+0      	; 0x177a <all_set+0x6>
    177a:	00 d0       	rcall	.+0      	; 0x177c <all_set+0x8>
    177c:	00 d0       	rcall	.+0      	; 0x177e <all_set+0xa>
    177e:	cd b7       	in	r28, 0x3d	; 61
    1780:	de b7       	in	r29, 0x3e	; 62
    1782:	8c 83       	std	Y+4, r24	; 0x04
    1784:	7e 83       	std	Y+6, r23	; 0x06
    1786:	6d 83       	std	Y+5, r22	; 0x05
	uint16_t crc = 0;
    1788:	1b 82       	std	Y+3, r1	; 0x03
    178a:	1a 82       	std	Y+2, r1	; 0x02
	uint8_t slave_num = 1;
    178c:	81 e0       	ldi	r24, 0x01	; 1
    178e:	89 83       	std	Y+1, r24	; 0x01

	ctrl_command = 0; //不是READ_DATA_ALL 就ok
    1790:	10 92 77 01 	sts	0x0177, r1	; 0x800177 <ctrl_command>

	if (command == TEMP)
    1794:	8c 81       	ldd	r24, Y+4	; 0x04
    1796:	83 30       	cpi	r24, 0x03	; 3
    1798:	01 f5       	brne	.+64     	; 0x17da <all_set+0x66>
	{
		if (temp_unit_buff == 1)
    179a:	80 91 c0 06 	lds	r24, 0x06C0	; 0x8006c0 <temp_unit_buff>
    179e:	90 91 c1 06 	lds	r25, 0x06C1	; 0x8006c1 <temp_unit_buff+0x1>
    17a2:	01 97       	sbiw	r24, 0x01	; 1
    17a4:	d1 f4       	brne	.+52     	; 0x17da <all_set+0x66>
		{
			value = ((value - 32) * 10 / 18);
    17a6:	8d 81       	ldd	r24, Y+5	; 0x05
    17a8:	9e 81       	ldd	r25, Y+6	; 0x06
    17aa:	88 0f       	add	r24, r24
    17ac:	99 1f       	adc	r25, r25
    17ae:	9c 01       	movw	r18, r24
    17b0:	22 0f       	add	r18, r18
    17b2:	33 1f       	adc	r19, r19
    17b4:	22 0f       	add	r18, r18
    17b6:	33 1f       	adc	r19, r19
    17b8:	82 0f       	add	r24, r18
    17ba:	93 1f       	adc	r25, r19
    17bc:	80 54       	subi	r24, 0x40	; 64
    17be:	91 40       	sbci	r25, 0x01	; 1
    17c0:	9c 01       	movw	r18, r24
    17c2:	af e8       	ldi	r26, 0x8F	; 143
    17c4:	b3 ee       	ldi	r27, 0xE3	; 227
    17c6:	0e 94 4e 28 	call	0x509c	; 0x509c <__umulhisi3>
    17ca:	92 95       	swap	r25
    17cc:	82 95       	swap	r24
    17ce:	8f 70       	andi	r24, 0x0F	; 15
    17d0:	89 27       	eor	r24, r25
    17d2:	9f 70       	andi	r25, 0x0F	; 15
    17d4:	89 27       	eor	r24, r25
    17d6:	9e 83       	std	Y+6, r25	; 0x06
    17d8:	8d 83       	std	Y+5, r24	; 0x05
		}
	}

	usart1_tx_buff[0] = 0xA5;
    17da:	85 ea       	ldi	r24, 0xA5	; 165
    17dc:	80 93 2a 05 	sts	0x052A, r24	; 0x80052a <usart1_tx_buff>
	usart1_tx_buff[1] = 0x5A;
    17e0:	8a e5       	ldi	r24, 0x5A	; 90
    17e2:	80 93 2b 05 	sts	0x052B, r24	; 0x80052b <usart1_tx_buff+0x1>
	usart1_tx_buff[2] = 0x04;
    17e6:	84 e0       	ldi	r24, 0x04	; 4
    17e8:	80 93 2c 05 	sts	0x052C, r24	; 0x80052c <usart1_tx_buff+0x2>
	usart1_tx_buff[3] = command;
    17ec:	8c 81       	ldd	r24, Y+4	; 0x04
    17ee:	80 93 2d 05 	sts	0x052D, r24	; 0x80052d <usart1_tx_buff+0x3>
	usart1_tx_buff[5] = (value >> 8);
    17f2:	8d 81       	ldd	r24, Y+5	; 0x05
    17f4:	9e 81       	ldd	r25, Y+6	; 0x06
    17f6:	89 2f       	mov	r24, r25
    17f8:	99 27       	eor	r25, r25
    17fa:	80 93 2f 05 	sts	0x052F, r24	; 0x80052f <usart1_tx_buff+0x5>
	usart1_tx_buff[6] = value;
    17fe:	8d 81       	ldd	r24, Y+5	; 0x05
    1800:	80 93 30 05 	sts	0x0530, r24	; 0x800530 <usart1_tx_buff+0x6>

	for (; slave_num <= TEMP_CTRL_BOARD_QUANTITY; slave_num++)
    1804:	26 c0       	rjmp	.+76     	; 0x1852 <all_set+0xde>
	{
		usart1_tx_buff[4] = slave_num << 4;
    1806:	89 81       	ldd	r24, Y+1	; 0x01
    1808:	82 95       	swap	r24
    180a:	80 7f       	andi	r24, 0xF0	; 240
    180c:	80 93 2e 05 	sts	0x052E, r24	; 0x80052e <usart1_tx_buff+0x4>

		crc = crc_check(usart1_tx_buff, 9);
    1810:	69 e0       	ldi	r22, 0x09	; 9
    1812:	8a e2       	ldi	r24, 0x2A	; 42
    1814:	95 e0       	ldi	r25, 0x05	; 5
    1816:	0e 94 d9 26 	call	0x4db2	; 0x4db2 <crc_check>
    181a:	9b 83       	std	Y+3, r25	; 0x03
    181c:	8a 83       	std	Y+2, r24	; 0x02

		usart1_tx_buff[7] = crc & 0x00FF;
    181e:	8a 81       	ldd	r24, Y+2	; 0x02
    1820:	80 93 31 05 	sts	0x0531, r24	; 0x800531 <usart1_tx_buff+0x7>
		usart1_tx_buff[8] = crc >> 8;
    1824:	8a 81       	ldd	r24, Y+2	; 0x02
    1826:	9b 81       	ldd	r25, Y+3	; 0x03
    1828:	89 2f       	mov	r24, r25
    182a:	99 27       	eor	r25, r25
    182c:	80 93 32 05 	sts	0x0532, r24	; 0x800532 <usart1_tx_buff+0x8>

		while (usart1_tx_overtime_mask != 1)
    1830:	00 00       	nop
    1832:	80 91 c1 02 	lds	r24, 0x02C1	; 0x8002c1 <usart1_tx_overtime_mask>
    1836:	81 30       	cpi	r24, 0x01	; 1
    1838:	e1 f7       	brne	.-8      	; 0x1832 <all_set+0xbe>
			;
		usart1_tx_overtime_mask = 0;
    183a:	10 92 c1 02 	sts	0x02C1, r1	; 0x8002c1 <usart1_tx_overtime_mask>
		usart1_tx_timecnt = 0;
    183e:	10 92 c0 02 	sts	0x02C0, r1	; 0x8002c0 <usart1_tx_timecnt>

		usart1_send_str(usart1_tx_buff, 9);
    1842:	69 e0       	ldi	r22, 0x09	; 9
    1844:	8a e2       	ldi	r24, 0x2A	; 42
    1846:	95 e0       	ldi	r25, 0x05	; 5
    1848:	0e 94 61 26 	call	0x4cc2	; 0x4cc2 <usart1_send_str>
	usart1_tx_buff[2] = 0x04;
	usart1_tx_buff[3] = command;
	usart1_tx_buff[5] = (value >> 8);
	usart1_tx_buff[6] = value;

	for (; slave_num <= TEMP_CTRL_BOARD_QUANTITY; slave_num++)
    184c:	89 81       	ldd	r24, Y+1	; 0x01
    184e:	8f 5f       	subi	r24, 0xFF	; 255
    1850:	89 83       	std	Y+1, r24	; 0x01
    1852:	89 81       	ldd	r24, Y+1	; 0x01
    1854:	87 30       	cpi	r24, 0x07	; 7
    1856:	b8 f2       	brcs	.-82     	; 0x1806 <all_set+0x92>
		usart1_tx_timecnt = 0;

		usart1_send_str(usart1_tx_buff, 9);
	}

	ctrl_command = READ_DATA_ALL;
    1858:	81 e0       	ldi	r24, 0x01	; 1
    185a:	80 93 77 01 	sts	0x0177, r24	; 0x800177 <ctrl_command>
}
    185e:	00 00       	nop
    1860:	26 96       	adiw	r28, 0x06	; 6
    1862:	0f b6       	in	r0, 0x3f	; 63
    1864:	f8 94       	cli
    1866:	de bf       	out	0x3e, r29	; 62
    1868:	0f be       	out	0x3f, r0	; 63
    186a:	cd bf       	out	0x3d, r28	; 61
    186c:	df 91       	pop	r29
    186e:	cf 91       	pop	r28
    1870:	08 95       	ret

00001872 <update_single_set_page>:

void update_single_set_page(void)
{
    1872:	cf 93       	push	r28
    1874:	df 93       	push	r29
    1876:	cd b7       	in	r28, 0x3d	; 61
    1878:	de b7       	in	r29, 0x3e	; 62
	in_main_page = 0;
    187a:	10 92 00 01 	sts	0x0100, r1	; 0x800100 <__data_start>

	update_run_temp_flag = 1;
    187e:	81 e0       	ldi	r24, 0x01	; 1
    1880:	80 93 97 01 	sts	0x0197, r24	; 0x800197 <update_run_temp_flag>
	run_temp_page = 1;
    1884:	81 e0       	ldi	r24, 0x01	; 1
    1886:	80 93 96 01 	sts	0x0196, r24	; 0x800196 <__data_end>

	send_variables(SINGLE_NUM_ADDR, set_num + 1);															  //序号显示
    188a:	80 91 9c 01 	lds	r24, 0x019C	; 0x80019c <set_num>
    188e:	88 2f       	mov	r24, r24
    1890:	90 e0       	ldi	r25, 0x00	; 0
    1892:	01 96       	adiw	r24, 0x01	; 1
    1894:	bc 01       	movw	r22, r24
    1896:	80 e3       	ldi	r24, 0x30	; 48
    1898:	90 e0       	ldi	r25, 0x00	; 0
    189a:	0e 94 bc 12 	call	0x2578	; 0x2578 <send_variables>
	send_variables(SINGLE_RUNTEMP_ADDR, run_temp[set_num] + temp_unit * ((run_temp[set_num] * 8 / 10) + 32)); //运行温度显示
    189e:	80 91 9c 01 	lds	r24, 0x019C	; 0x80019c <set_num>
    18a2:	88 2f       	mov	r24, r24
    18a4:	90 e0       	ldi	r25, 0x00	; 0
    18a6:	88 0f       	add	r24, r24
    18a8:	99 1f       	adc	r25, r25
    18aa:	81 51       	subi	r24, 0x11	; 17
    18ac:	9e 4f       	sbci	r25, 0xFE	; 254
    18ae:	dc 01       	movw	r26, r24
    18b0:	8d 91       	ld	r24, X+
    18b2:	9c 91       	ld	r25, X
    18b4:	fc 01       	movw	r30, r24
    18b6:	80 91 9c 01 	lds	r24, 0x019C	; 0x80019c <set_num>
    18ba:	88 2f       	mov	r24, r24
    18bc:	90 e0       	ldi	r25, 0x00	; 0
    18be:	88 0f       	add	r24, r24
    18c0:	99 1f       	adc	r25, r25
    18c2:	81 51       	subi	r24, 0x11	; 17
    18c4:	9e 4f       	sbci	r25, 0xFE	; 254
    18c6:	dc 01       	movw	r26, r24
    18c8:	8d 91       	ld	r24, X+
    18ca:	9c 91       	ld	r25, X
    18cc:	88 0f       	add	r24, r24
    18ce:	99 1f       	adc	r25, r25
    18d0:	88 0f       	add	r24, r24
    18d2:	99 1f       	adc	r25, r25
    18d4:	88 0f       	add	r24, r24
    18d6:	99 1f       	adc	r25, r25
    18d8:	2a e0       	ldi	r18, 0x0A	; 10
    18da:	30 e0       	ldi	r19, 0x00	; 0
    18dc:	b9 01       	movw	r22, r18
    18de:	0e 94 12 28 	call	0x5024	; 0x5024 <__divmodhi4>
    18e2:	cb 01       	movw	r24, r22
    18e4:	80 96       	adiw	r24, 0x20	; 32
    18e6:	ac 01       	movw	r20, r24
    18e8:	20 91 b5 02 	lds	r18, 0x02B5	; 0x8002b5 <temp_unit>
    18ec:	30 91 b6 02 	lds	r19, 0x02B6	; 0x8002b6 <temp_unit+0x1>
    18f0:	42 9f       	mul	r20, r18
    18f2:	c0 01       	movw	r24, r0
    18f4:	43 9f       	mul	r20, r19
    18f6:	90 0d       	add	r25, r0
    18f8:	52 9f       	mul	r21, r18
    18fa:	90 0d       	add	r25, r0
    18fc:	11 24       	eor	r1, r1
    18fe:	8e 0f       	add	r24, r30
    1900:	9f 1f       	adc	r25, r31
    1902:	bc 01       	movw	r22, r24
    1904:	82 e3       	ldi	r24, 0x32	; 50
    1906:	90 e0       	ldi	r25, 0x00	; 0
    1908:	0e 94 bc 12 	call	0x2578	; 0x2578 <send_variables>
	send_variables(SINGLE_SETTEMP_ADDR, set_temp[set_num]);													  //设定温度显示
    190c:	80 91 9c 01 	lds	r24, 0x019C	; 0x80019c <set_num>
    1910:	88 2f       	mov	r24, r24
    1912:	90 e0       	ldi	r25, 0x00	; 0
    1914:	88 0f       	add	r24, r24
    1916:	99 1f       	adc	r25, r25
    1918:	8d 52       	subi	r24, 0x2D	; 45
    191a:	95 4f       	sbci	r25, 0xF5	; 245
    191c:	fc 01       	movw	r30, r24
    191e:	80 81       	ld	r24, Z
    1920:	91 81       	ldd	r25, Z+1	; 0x01
    1922:	bc 01       	movw	r22, r24
    1924:	84 e3       	ldi	r24, 0x34	; 52
    1926:	90 e0       	ldi	r25, 0x00	; 0
    1928:	0e 94 bc 12 	call	0x2578	; 0x2578 <send_variables>
	send_variables(SINGLE_SET_TEMP, set_temp[set_num]);														  //温度设定输入框显示
    192c:	80 91 9c 01 	lds	r24, 0x019C	; 0x80019c <set_num>
    1930:	88 2f       	mov	r24, r24
    1932:	90 e0       	ldi	r25, 0x00	; 0
    1934:	88 0f       	add	r24, r24
    1936:	99 1f       	adc	r25, r25
    1938:	8d 52       	subi	r24, 0x2D	; 45
    193a:	95 4f       	sbci	r25, 0xF5	; 245
    193c:	dc 01       	movw	r26, r24
    193e:	8d 91       	ld	r24, X+
    1940:	9c 91       	ld	r25, X
    1942:	bc 01       	movw	r22, r24
    1944:	86 e4       	ldi	r24, 0x46	; 70
    1946:	91 e0       	ldi	r25, 0x01	; 1
    1948:	0e 94 bc 12 	call	0x2578	; 0x2578 <send_variables>
	send_variables(SINGLE_SET_SWITCH, switch_sensor[set_num]);												  //传感器开启/关闭状态
    194c:	80 91 9c 01 	lds	r24, 0x019C	; 0x80019c <set_num>
    1950:	88 2f       	mov	r24, r24
    1952:	90 e0       	ldi	r25, 0x00	; 0
    1954:	88 0f       	add	r24, r24
    1956:	99 1f       	adc	r25, r25
    1958:	81 5e       	subi	r24, 0xE1	; 225
    195a:	9d 4f       	sbci	r25, 0xFD	; 253
    195c:	fc 01       	movw	r30, r24
    195e:	80 81       	ld	r24, Z
    1960:	91 81       	ldd	r25, Z+1	; 0x01
    1962:	bc 01       	movw	r22, r24
    1964:	84 e4       	ldi	r24, 0x44	; 68
    1966:	91 e0       	ldi	r25, 0x01	; 1
    1968:	0e 94 bc 12 	call	0x2578	; 0x2578 <send_variables>
	send_variables(SINGLE_SENSORTYPE_ADDR, TYPE_J + (sensor_type[set_num] * TYPE_K));						  //DANDUPAGE传感器类型选择显示
    196c:	80 91 9c 01 	lds	r24, 0x019C	; 0x80019c <set_num>
    1970:	88 2f       	mov	r24, r24
    1972:	90 e0       	ldi	r25, 0x00	; 0
    1974:	88 0f       	add	r24, r24
    1976:	99 1f       	adc	r25, r25
    1978:	81 5b       	subi	r24, 0xB1	; 177
    197a:	9d 4f       	sbci	r25, 0xFD	; 253
    197c:	dc 01       	movw	r26, r24
    197e:	8d 91       	ld	r24, X+
    1980:	9c 91       	ld	r25, X
    1982:	86 5b       	subi	r24, 0xB6	; 182
    1984:	9f 4f       	sbci	r25, 0xFF	; 255
    1986:	98 2f       	mov	r25, r24
    1988:	88 27       	eor	r24, r24
    198a:	bc 01       	movw	r22, r24
    198c:	80 e9       	ldi	r24, 0x90	; 144
    198e:	92 e0       	ldi	r25, 0x02	; 2
    1990:	0e 94 bc 12 	call	0x2578	; 0x2578 <send_variables>

	send_name(SINGLE_NAME_ADDR, set_name[set_num]);
    1994:	80 91 9c 01 	lds	r24, 0x019C	; 0x80019c <set_num>
    1998:	88 2f       	mov	r24, r24
    199a:	90 e0       	ldi	r25, 0x00	; 0
    199c:	88 0f       	add	r24, r24
    199e:	99 1f       	adc	r25, r25
    19a0:	88 0f       	add	r24, r24
    19a2:	99 1f       	adc	r25, r25
    19a4:	82 5c       	subi	r24, 0xC2	; 194
    19a6:	96 4f       	sbci	r25, 0xF6	; 246
    19a8:	fc 01       	movw	r30, r24
    19aa:	80 81       	ld	r24, Z
    19ac:	91 81       	ldd	r25, Z+1	; 0x01
    19ae:	a2 81       	ldd	r26, Z+2	; 0x02
    19b0:	b3 81       	ldd	r27, Z+3	; 0x03
    19b2:	ac 01       	movw	r20, r24
    19b4:	bd 01       	movw	r22, r26
    19b6:	88 e8       	ldi	r24, 0x88	; 136
    19b8:	92 e0       	ldi	r25, 0x02	; 2
    19ba:	0e 94 06 13 	call	0x260c	; 0x260c <send_name>

	send_name(SINGLE_SET_NAME, set_name[set_num]);
    19be:	80 91 9c 01 	lds	r24, 0x019C	; 0x80019c <set_num>
    19c2:	88 2f       	mov	r24, r24
    19c4:	90 e0       	ldi	r25, 0x00	; 0
    19c6:	88 0f       	add	r24, r24
    19c8:	99 1f       	adc	r25, r25
    19ca:	88 0f       	add	r24, r24
    19cc:	99 1f       	adc	r25, r25
    19ce:	82 5c       	subi	r24, 0xC2	; 194
    19d0:	96 4f       	sbci	r25, 0xF6	; 246
    19d2:	fc 01       	movw	r30, r24
    19d4:	80 81       	ld	r24, Z
    19d6:	91 81       	ldd	r25, Z+1	; 0x01
    19d8:	a2 81       	ldd	r26, Z+2	; 0x02
    19da:	b3 81       	ldd	r27, Z+3	; 0x03
    19dc:	ac 01       	movw	r20, r24
    19de:	bd 01       	movw	r22, r26
    19e0:	88 e5       	ldi	r24, 0x58	; 88
    19e2:	91 e0       	ldi	r25, 0x01	; 1
    19e4:	0e 94 06 13 	call	0x260c	; 0x260c <send_name>

	set_name_buff = set_name[set_num];
    19e8:	80 91 9c 01 	lds	r24, 0x019C	; 0x80019c <set_num>
    19ec:	88 2f       	mov	r24, r24
    19ee:	90 e0       	ldi	r25, 0x00	; 0
    19f0:	88 0f       	add	r24, r24
    19f2:	99 1f       	adc	r25, r25
    19f4:	88 0f       	add	r24, r24
    19f6:	99 1f       	adc	r25, r25
    19f8:	82 5c       	subi	r24, 0xC2	; 194
    19fa:	96 4f       	sbci	r25, 0xF6	; 246
    19fc:	fc 01       	movw	r30, r24
    19fe:	80 81       	ld	r24, Z
    1a00:	91 81       	ldd	r25, Z+1	; 0x01
    1a02:	a2 81       	ldd	r26, Z+2	; 0x02
    1a04:	b3 81       	ldd	r27, Z+3	; 0x03
    1a06:	80 93 7f 02 	sts	0x027F, r24	; 0x80027f <set_name_buff>
    1a0a:	90 93 80 02 	sts	0x0280, r25	; 0x800280 <set_name_buff+0x1>
    1a0e:	a0 93 81 02 	sts	0x0281, r26	; 0x800281 <set_name_buff+0x2>
    1a12:	b0 93 82 02 	sts	0x0282, r27	; 0x800282 <set_name_buff+0x3>
}
    1a16:	00 00       	nop
    1a18:	df 91       	pop	r29
    1a1a:	cf 91       	pop	r28
    1a1c:	08 95       	ret

00001a1e <update_pid_page>:

void update_pid_page(uint8_t channel)
{
    1a1e:	cf 93       	push	r28
    1a20:	df 93       	push	r29
    1a22:	1f 92       	push	r1
    1a24:	cd b7       	in	r28, 0x3d	; 61
    1a26:	de b7       	in	r29, 0x3e	; 62
    1a28:	89 83       	std	Y+1, r24	; 0x01
	set_pid_channel = channel;
    1a2a:	89 81       	ldd	r24, Y+1	; 0x01
    1a2c:	80 93 9d 01 	sts	0x019D, r24	; 0x80019d <set_pid_channel>

	send_variables(PID_CHANNEL, channel);
    1a30:	89 81       	ldd	r24, Y+1	; 0x01
    1a32:	88 2f       	mov	r24, r24
    1a34:	90 e0       	ldi	r25, 0x00	; 0
    1a36:	bc 01       	movw	r22, r24
    1a38:	80 e5       	ldi	r24, 0x50	; 80
    1a3a:	91 e0       	ldi	r25, 0x01	; 1
    1a3c:	0e 94 bc 12 	call	0x2578	; 0x2578 <send_variables>

	send_variables(PID_P_ADDR, p_value[channel - 1]);
    1a40:	89 81       	ldd	r24, Y+1	; 0x01
    1a42:	88 2f       	mov	r24, r24
    1a44:	90 e0       	ldi	r25, 0x00	; 0
    1a46:	01 97       	sbiw	r24, 0x01	; 1
    1a48:	88 0f       	add	r24, r24
    1a4a:	99 1f       	adc	r25, r25
    1a4c:	8e 5a       	subi	r24, 0xAE	; 174
    1a4e:	97 4f       	sbci	r25, 0xF7	; 247
    1a50:	fc 01       	movw	r30, r24
    1a52:	80 81       	ld	r24, Z
    1a54:	91 81       	ldd	r25, Z+1	; 0x01
    1a56:	bc 01       	movw	r22, r24
    1a58:	86 e3       	ldi	r24, 0x36	; 54
    1a5a:	90 e0       	ldi	r25, 0x00	; 0
    1a5c:	0e 94 bc 12 	call	0x2578	; 0x2578 <send_variables>
	send_variables(PID_I_ADDR, i_value[channel - 1]);
    1a60:	89 81       	ldd	r24, Y+1	; 0x01
    1a62:	88 2f       	mov	r24, r24
    1a64:	90 e0       	ldi	r25, 0x00	; 0
    1a66:	01 97       	sbiw	r24, 0x01	; 1
    1a68:	88 0f       	add	r24, r24
    1a6a:	99 1f       	adc	r25, r25
    1a6c:	8e 57       	subi	r24, 0x7E	; 126
    1a6e:	97 4f       	sbci	r25, 0xF7	; 247
    1a70:	fc 01       	movw	r30, r24
    1a72:	80 81       	ld	r24, Z
    1a74:	91 81       	ldd	r25, Z+1	; 0x01
    1a76:	bc 01       	movw	r22, r24
    1a78:	88 e3       	ldi	r24, 0x38	; 56
    1a7a:	90 e0       	ldi	r25, 0x00	; 0
    1a7c:	0e 94 bc 12 	call	0x2578	; 0x2578 <send_variables>
	send_variables(PID_D_ADDR, d_value[channel - 1]);
    1a80:	89 81       	ldd	r24, Y+1	; 0x01
    1a82:	88 2f       	mov	r24, r24
    1a84:	90 e0       	ldi	r25, 0x00	; 0
    1a86:	01 97       	sbiw	r24, 0x01	; 1
    1a88:	88 0f       	add	r24, r24
    1a8a:	99 1f       	adc	r25, r25
    1a8c:	8e 5d       	subi	r24, 0xDE	; 222
    1a8e:	97 4f       	sbci	r25, 0xF7	; 247
    1a90:	fc 01       	movw	r30, r24
    1a92:	80 81       	ld	r24, Z
    1a94:	91 81       	ldd	r25, Z+1	; 0x01
    1a96:	bc 01       	movw	r22, r24
    1a98:	8a e3       	ldi	r24, 0x3A	; 58
    1a9a:	90 e0       	ldi	r25, 0x00	; 0
    1a9c:	0e 94 bc 12 	call	0x2578	; 0x2578 <send_variables>

	send_variables(PID_P, p_value[channel - 1]);
    1aa0:	89 81       	ldd	r24, Y+1	; 0x01
    1aa2:	88 2f       	mov	r24, r24
    1aa4:	90 e0       	ldi	r25, 0x00	; 0
    1aa6:	01 97       	sbiw	r24, 0x01	; 1
    1aa8:	88 0f       	add	r24, r24
    1aaa:	99 1f       	adc	r25, r25
    1aac:	8e 5a       	subi	r24, 0xAE	; 174
    1aae:	97 4f       	sbci	r25, 0xF7	; 247
    1ab0:	fc 01       	movw	r30, r24
    1ab2:	80 81       	ld	r24, Z
    1ab4:	91 81       	ldd	r25, Z+1	; 0x01
    1ab6:	bc 01       	movw	r22, r24
    1ab8:	82 e5       	ldi	r24, 0x52	; 82
    1aba:	91 e0       	ldi	r25, 0x01	; 1
    1abc:	0e 94 bc 12 	call	0x2578	; 0x2578 <send_variables>
	send_variables(PID_I, i_value[channel - 1]);
    1ac0:	89 81       	ldd	r24, Y+1	; 0x01
    1ac2:	88 2f       	mov	r24, r24
    1ac4:	90 e0       	ldi	r25, 0x00	; 0
    1ac6:	01 97       	sbiw	r24, 0x01	; 1
    1ac8:	88 0f       	add	r24, r24
    1aca:	99 1f       	adc	r25, r25
    1acc:	8e 57       	subi	r24, 0x7E	; 126
    1ace:	97 4f       	sbci	r25, 0xF7	; 247
    1ad0:	fc 01       	movw	r30, r24
    1ad2:	80 81       	ld	r24, Z
    1ad4:	91 81       	ldd	r25, Z+1	; 0x01
    1ad6:	bc 01       	movw	r22, r24
    1ad8:	84 e5       	ldi	r24, 0x54	; 84
    1ada:	91 e0       	ldi	r25, 0x01	; 1
    1adc:	0e 94 bc 12 	call	0x2578	; 0x2578 <send_variables>
	send_variables(PID_D, d_value[channel - 1]);
    1ae0:	89 81       	ldd	r24, Y+1	; 0x01
    1ae2:	88 2f       	mov	r24, r24
    1ae4:	90 e0       	ldi	r25, 0x00	; 0
    1ae6:	01 97       	sbiw	r24, 0x01	; 1
    1ae8:	88 0f       	add	r24, r24
    1aea:	99 1f       	adc	r25, r25
    1aec:	8e 5d       	subi	r24, 0xDE	; 222
    1aee:	97 4f       	sbci	r25, 0xF7	; 247
    1af0:	fc 01       	movw	r30, r24
    1af2:	80 81       	ld	r24, Z
    1af4:	91 81       	ldd	r25, Z+1	; 0x01
    1af6:	bc 01       	movw	r22, r24
    1af8:	86 e5       	ldi	r24, 0x56	; 86
    1afa:	91 e0       	ldi	r25, 0x01	; 1
    1afc:	0e 94 bc 12 	call	0x2578	; 0x2578 <send_variables>

	p_value_buff = p_value[channel - 1];
    1b00:	89 81       	ldd	r24, Y+1	; 0x01
    1b02:	88 2f       	mov	r24, r24
    1b04:	90 e0       	ldi	r25, 0x00	; 0
    1b06:	01 97       	sbiw	r24, 0x01	; 1
    1b08:	88 0f       	add	r24, r24
    1b0a:	99 1f       	adc	r25, r25
    1b0c:	8e 5a       	subi	r24, 0xAE	; 174
    1b0e:	97 4f       	sbci	r25, 0xF7	; 247
    1b10:	fc 01       	movw	r30, r24
    1b12:	80 81       	ld	r24, Z
    1b14:	91 81       	ldd	r25, Z+1	; 0x01
    1b16:	90 93 7d 01 	sts	0x017D, r25	; 0x80017d <p_value_buff+0x1>
    1b1a:	80 93 7c 01 	sts	0x017C, r24	; 0x80017c <p_value_buff>
	i_value_buff = i_value[channel - 1];
    1b1e:	89 81       	ldd	r24, Y+1	; 0x01
    1b20:	88 2f       	mov	r24, r24
    1b22:	90 e0       	ldi	r25, 0x00	; 0
    1b24:	01 97       	sbiw	r24, 0x01	; 1
    1b26:	88 0f       	add	r24, r24
    1b28:	99 1f       	adc	r25, r25
    1b2a:	8e 57       	subi	r24, 0x7E	; 126
    1b2c:	97 4f       	sbci	r25, 0xF7	; 247
    1b2e:	fc 01       	movw	r30, r24
    1b30:	80 81       	ld	r24, Z
    1b32:	91 81       	ldd	r25, Z+1	; 0x01
    1b34:	90 93 7f 01 	sts	0x017F, r25	; 0x80017f <i_value_buff+0x1>
    1b38:	80 93 7e 01 	sts	0x017E, r24	; 0x80017e <i_value_buff>
	d_value_buff = d_value[channel - 1];
    1b3c:	89 81       	ldd	r24, Y+1	; 0x01
    1b3e:	88 2f       	mov	r24, r24
    1b40:	90 e0       	ldi	r25, 0x00	; 0
    1b42:	01 97       	sbiw	r24, 0x01	; 1
    1b44:	88 0f       	add	r24, r24
    1b46:	99 1f       	adc	r25, r25
    1b48:	8e 5d       	subi	r24, 0xDE	; 222
    1b4a:	97 4f       	sbci	r25, 0xF7	; 247
    1b4c:	fc 01       	movw	r30, r24
    1b4e:	80 81       	ld	r24, Z
    1b50:	91 81       	ldd	r25, Z+1	; 0x01
    1b52:	90 93 81 01 	sts	0x0181, r25	; 0x800181 <d_value_buff+0x1>
    1b56:	80 93 80 01 	sts	0x0180, r24	; 0x800180 <d_value_buff>
}
    1b5a:	00 00       	nop
    1b5c:	0f 90       	pop	r0
    1b5e:	df 91       	pop	r29
    1b60:	cf 91       	pop	r28
    1b62:	08 95       	ret

00001b64 <update_curve_page>:

void update_curve_page(void)
{
    1b64:	cf 93       	push	r28
    1b66:	df 93       	push	r29
    1b68:	cd b7       	in	r28, 0x3d	; 61
    1b6a:	de b7       	in	r29, 0x3e	; 62
    1b6c:	66 97       	sbiw	r28, 0x16	; 22
    1b6e:	0f b6       	in	r0, 0x3f	; 63
    1b70:	f8 94       	cli
    1b72:	de bf       	out	0x3e, r29	; 62
    1b74:	0f be       	out	0x3f, r0	; 63
    1b76:	cd bf       	out	0x3d, r28	; 61
	uint8_t i = 0;
    1b78:	19 82       	std	Y+1, r1	; 0x01
	uint8_t count = 0;
    1b7a:	1a 82       	std	Y+2, r1	; 0x02
	uint16_t time_line[10] = {2, 4, 6, 8, 10, 12, 14, 16, 18, 20};
    1b7c:	84 e1       	ldi	r24, 0x14	; 20
    1b7e:	e2 e8       	ldi	r30, 0x82	; 130
    1b80:	f1 e0       	ldi	r31, 0x01	; 1
    1b82:	de 01       	movw	r26, r28
    1b84:	13 96       	adiw	r26, 0x03	; 3
    1b86:	01 90       	ld	r0, Z+
    1b88:	0d 92       	st	X+, r0
    1b8a:	8a 95       	dec	r24
    1b8c:	e1 f7       	brne	.-8      	; 0x1b86 <update_curve_page+0x22>

	update_run_temp_flag = 1;
    1b8e:	81 e0       	ldi	r24, 0x01	; 1
    1b90:	80 93 97 01 	sts	0x0197, r24	; 0x800197 <update_run_temp_flag>
	run_temp_page = 0;
    1b94:	10 92 96 01 	sts	0x0196, r1	; 0x800196 <__data_end>

	if (curve_time_level >= 4)
    1b98:	80 91 9f 01 	lds	r24, 0x019F	; 0x80019f <curve_time_level>
    1b9c:	84 30       	cpi	r24, 0x04	; 4
    1b9e:	24 f0       	brlt	.+8      	; 0x1ba8 <update_curve_page+0x44>
	{
		curve_time_level = 3;
    1ba0:	83 e0       	ldi	r24, 0x03	; 3
    1ba2:	80 93 9f 01 	sts	0x019F, r24	; 0x80019f <curve_time_level>
    1ba6:	06 c0       	rjmp	.+12     	; 0x1bb4 <update_curve_page+0x50>
	}
	else if (curve_time_level < 0)
    1ba8:	80 91 9f 01 	lds	r24, 0x019F	; 0x80019f <curve_time_level>
    1bac:	88 23       	and	r24, r24
    1bae:	14 f4       	brge	.+4      	; 0x1bb4 <update_curve_page+0x50>
	{
		curve_time_level = 0;
    1bb0:	10 92 9f 01 	sts	0x019F, r1	; 0x80019f <curve_time_level>
	}

	if (curve_page_num >= MAX_IQR_QUANTITY)
    1bb4:	80 91 9e 01 	lds	r24, 0x019E	; 0x80019e <curve_page_num>
    1bb8:	88 31       	cpi	r24, 0x18	; 24
    1bba:	1c f0       	brlt	.+6      	; 0x1bc2 <update_curve_page+0x5e>
	{
		curve_page_num = 0;
    1bbc:	10 92 9e 01 	sts	0x019E, r1	; 0x80019e <curve_page_num>
    1bc0:	07 c0       	rjmp	.+14     	; 0x1bd0 <update_curve_page+0x6c>
	}
	else if (curve_page_num < 0)
    1bc2:	80 91 9e 01 	lds	r24, 0x019E	; 0x80019e <curve_page_num>
    1bc6:	88 23       	and	r24, r24
    1bc8:	1c f4       	brge	.+6      	; 0x1bd0 <update_curve_page+0x6c>
	{
		curve_page_num = MAX_IQR_QUANTITY - 1;
    1bca:	87 e1       	ldi	r24, 0x17	; 23
    1bcc:	80 93 9e 01 	sts	0x019E, r24	; 0x80019e <curve_page_num>
	}

	count = 10 * (curve_time_level + 1);
    1bd0:	80 91 9f 01 	lds	r24, 0x019F	; 0x80019f <curve_time_level>
    1bd4:	08 2e       	mov	r0, r24
    1bd6:	00 0c       	add	r0, r0
    1bd8:	99 0b       	sbc	r25, r25
    1bda:	01 96       	adiw	r24, 0x01	; 1
    1bdc:	88 0f       	add	r24, r24
    1bde:	98 2f       	mov	r25, r24
    1be0:	99 0f       	add	r25, r25
    1be2:	99 0f       	add	r25, r25
    1be4:	89 0f       	add	r24, r25
    1be6:	8a 83       	std	Y+2, r24	; 0x02

	CLOSE_CURVE;
    1be8:	85 e4       	ldi	r24, 0x45	; 69
    1bea:	90 e0       	ldi	r25, 0x00	; 0
    1bec:	25 e4       	ldi	r18, 0x45	; 69
    1bee:	30 e0       	ldi	r19, 0x00	; 0
    1bf0:	d9 01       	movw	r26, r18
    1bf2:	2c 91       	ld	r18, X
    1bf4:	28 7f       	andi	r18, 0xF8	; 248
    1bf6:	fc 01       	movw	r30, r24
    1bf8:	20 83       	st	Z, r18
	clear_curve_buff(CHANNEL0_BUFF);
    1bfa:	8a e5       	ldi	r24, 0x5A	; 90
    1bfc:	0e 94 6b 19 	call	0x32d6	; 0x32d6 <clear_curve_buff>

	for (i = 0; i < 10; i++)
    1c00:	19 82       	std	Y+1, r1	; 0x01
    1c02:	46 c0       	rjmp	.+140    	; 0x1c90 <update_curve_page+0x12c>
	{
		time_line[i] *= (curve_time_level + 1);
    1c04:	89 81       	ldd	r24, Y+1	; 0x01
    1c06:	88 2f       	mov	r24, r24
    1c08:	90 e0       	ldi	r25, 0x00	; 0
    1c0a:	29 81       	ldd	r18, Y+1	; 0x01
    1c0c:	22 2f       	mov	r18, r18
    1c0e:	30 e0       	ldi	r19, 0x00	; 0
    1c10:	22 0f       	add	r18, r18
    1c12:	33 1f       	adc	r19, r19
    1c14:	ae 01       	movw	r20, r28
    1c16:	4f 5f       	subi	r20, 0xFF	; 255
    1c18:	5f 4f       	sbci	r21, 0xFF	; 255
    1c1a:	24 0f       	add	r18, r20
    1c1c:	35 1f       	adc	r19, r21
    1c1e:	2e 5f       	subi	r18, 0xFE	; 254
    1c20:	3f 4f       	sbci	r19, 0xFF	; 255
    1c22:	d9 01       	movw	r26, r18
    1c24:	4d 91       	ld	r20, X+
    1c26:	5c 91       	ld	r21, X
    1c28:	20 91 9f 01 	lds	r18, 0x019F	; 0x80019f <curve_time_level>
    1c2c:	02 2e       	mov	r0, r18
    1c2e:	00 0c       	add	r0, r0
    1c30:	33 0b       	sbc	r19, r19
    1c32:	2f 5f       	subi	r18, 0xFF	; 255
    1c34:	3f 4f       	sbci	r19, 0xFF	; 255
    1c36:	b9 01       	movw	r22, r18
    1c38:	46 9f       	mul	r20, r22
    1c3a:	90 01       	movw	r18, r0
    1c3c:	47 9f       	mul	r20, r23
    1c3e:	30 0d       	add	r19, r0
    1c40:	56 9f       	mul	r21, r22
    1c42:	30 0d       	add	r19, r0
    1c44:	11 24       	eor	r1, r1
    1c46:	88 0f       	add	r24, r24
    1c48:	99 1f       	adc	r25, r25
    1c4a:	ae 01       	movw	r20, r28
    1c4c:	4f 5f       	subi	r20, 0xFF	; 255
    1c4e:	5f 4f       	sbci	r21, 0xFF	; 255
    1c50:	84 0f       	add	r24, r20
    1c52:	95 1f       	adc	r25, r21
    1c54:	02 96       	adiw	r24, 0x02	; 2
    1c56:	fc 01       	movw	r30, r24
    1c58:	31 83       	std	Z+1, r19	; 0x01
    1c5a:	20 83       	st	Z, r18
		send_variables(CURVE_TIMELINE_ADDR + (i * 2), time_line[i]);
    1c5c:	89 81       	ldd	r24, Y+1	; 0x01
    1c5e:	88 2f       	mov	r24, r24
    1c60:	90 e0       	ldi	r25, 0x00	; 0
    1c62:	88 0f       	add	r24, r24
    1c64:	99 1f       	adc	r25, r25
    1c66:	9e 01       	movw	r18, r28
    1c68:	2f 5f       	subi	r18, 0xFF	; 255
    1c6a:	3f 4f       	sbci	r19, 0xFF	; 255
    1c6c:	82 0f       	add	r24, r18
    1c6e:	93 1f       	adc	r25, r19
    1c70:	02 96       	adiw	r24, 0x02	; 2
    1c72:	dc 01       	movw	r26, r24
    1c74:	2d 91       	ld	r18, X+
    1c76:	3c 91       	ld	r19, X
    1c78:	89 81       	ldd	r24, Y+1	; 0x01
    1c7a:	88 2f       	mov	r24, r24
    1c7c:	90 e0       	ldi	r25, 0x00	; 0
    1c7e:	89 96       	adiw	r24, 0x29	; 41
    1c80:	88 0f       	add	r24, r24
    1c82:	99 1f       	adc	r25, r25
    1c84:	b9 01       	movw	r22, r18
    1c86:	0e 94 bc 12 	call	0x2578	; 0x2578 <send_variables>
	count = 10 * (curve_time_level + 1);

	CLOSE_CURVE;
	clear_curve_buff(CHANNEL0_BUFF);

	for (i = 0; i < 10; i++)
    1c8a:	89 81       	ldd	r24, Y+1	; 0x01
    1c8c:	8f 5f       	subi	r24, 0xFF	; 255
    1c8e:	89 83       	std	Y+1, r24	; 0x01
    1c90:	89 81       	ldd	r24, Y+1	; 0x01
    1c92:	8a 30       	cpi	r24, 0x0A	; 10
    1c94:	08 f4       	brcc	.+2      	; 0x1c98 <update_curve_page+0x134>
    1c96:	b6 cf       	rjmp	.-148    	; 0x1c04 <update_curve_page+0xa0>
	{
		time_line[i] *= (curve_time_level + 1);
		send_variables(CURVE_TIMELINE_ADDR + (i * 2), time_line[i]);
	}

	send_variables(CURVE_PAGE_NUM_ADDR, curve_page_num + 1);
    1c98:	80 91 9e 01 	lds	r24, 0x019E	; 0x80019e <curve_page_num>
    1c9c:	08 2e       	mov	r0, r24
    1c9e:	00 0c       	add	r0, r0
    1ca0:	99 0b       	sbc	r25, r25
    1ca2:	01 96       	adiw	r24, 0x01	; 1
    1ca4:	bc 01       	movw	r22, r24
    1ca6:	8c e3       	ldi	r24, 0x3C	; 60
    1ca8:	90 e0       	ldi	r25, 0x00	; 0
    1caa:	0e 94 bc 12 	call	0x2578	; 0x2578 <send_variables>
	send_variables(CURVE_PAGE_RUNTEMP_ADDR, run_temp[curve_page_num] +
    1cae:	80 91 9e 01 	lds	r24, 0x019E	; 0x80019e <curve_page_num>
    1cb2:	08 2e       	mov	r0, r24
    1cb4:	00 0c       	add	r0, r0
    1cb6:	99 0b       	sbc	r25, r25
    1cb8:	88 0f       	add	r24, r24
    1cba:	99 1f       	adc	r25, r25
    1cbc:	81 51       	subi	r24, 0x11	; 17
    1cbe:	9e 4f       	sbci	r25, 0xFE	; 254
    1cc0:	fc 01       	movw	r30, r24
    1cc2:	80 81       	ld	r24, Z
    1cc4:	91 81       	ldd	r25, Z+1	; 0x01
    1cc6:	fc 01       	movw	r30, r24
												temp_unit * (run_temp[curve_page_num] * 8 / 10 + 32)); //运行温度
    1cc8:	80 91 9e 01 	lds	r24, 0x019E	; 0x80019e <curve_page_num>
    1ccc:	08 2e       	mov	r0, r24
    1cce:	00 0c       	add	r0, r0
    1cd0:	99 0b       	sbc	r25, r25
    1cd2:	88 0f       	add	r24, r24
    1cd4:	99 1f       	adc	r25, r25
    1cd6:	81 51       	subi	r24, 0x11	; 17
    1cd8:	9e 4f       	sbci	r25, 0xFE	; 254
    1cda:	dc 01       	movw	r26, r24
    1cdc:	8d 91       	ld	r24, X+
    1cde:	9c 91       	ld	r25, X
    1ce0:	88 0f       	add	r24, r24
    1ce2:	99 1f       	adc	r25, r25
    1ce4:	88 0f       	add	r24, r24
    1ce6:	99 1f       	adc	r25, r25
    1ce8:	88 0f       	add	r24, r24
    1cea:	99 1f       	adc	r25, r25
    1cec:	2a e0       	ldi	r18, 0x0A	; 10
    1cee:	30 e0       	ldi	r19, 0x00	; 0
    1cf0:	b9 01       	movw	r22, r18
    1cf2:	0e 94 12 28 	call	0x5024	; 0x5024 <__divmodhi4>
    1cf6:	cb 01       	movw	r24, r22
    1cf8:	80 96       	adiw	r24, 0x20	; 32
    1cfa:	ac 01       	movw	r20, r24
    1cfc:	20 91 b5 02 	lds	r18, 0x02B5	; 0x8002b5 <temp_unit>
    1d00:	30 91 b6 02 	lds	r19, 0x02B6	; 0x8002b6 <temp_unit+0x1>
    1d04:	42 9f       	mul	r20, r18
    1d06:	c0 01       	movw	r24, r0
    1d08:	43 9f       	mul	r20, r19
    1d0a:	90 0d       	add	r25, r0
    1d0c:	52 9f       	mul	r21, r18
    1d0e:	90 0d       	add	r25, r0
    1d10:	11 24       	eor	r1, r1
		time_line[i] *= (curve_time_level + 1);
		send_variables(CURVE_TIMELINE_ADDR + (i * 2), time_line[i]);
	}

	send_variables(CURVE_PAGE_NUM_ADDR, curve_page_num + 1);
	send_variables(CURVE_PAGE_RUNTEMP_ADDR, run_temp[curve_page_num] +
    1d12:	8e 0f       	add	r24, r30
    1d14:	9f 1f       	adc	r25, r31
    1d16:	bc 01       	movw	r22, r24
    1d18:	8e e3       	ldi	r24, 0x3E	; 62
    1d1a:	90 e0       	ldi	r25, 0x00	; 0
    1d1c:	0e 94 bc 12 	call	0x2578	; 0x2578 <send_variables>
												temp_unit * (run_temp[curve_page_num] * 8 / 10 + 32)); //运行温度
	send_variables(CURVE_PAGE_SETTEMP_ADDR, set_temp[curve_page_num]);								   //设定温度
    1d20:	80 91 9e 01 	lds	r24, 0x019E	; 0x80019e <curve_page_num>
    1d24:	08 2e       	mov	r0, r24
    1d26:	00 0c       	add	r0, r0
    1d28:	99 0b       	sbc	r25, r25
    1d2a:	88 0f       	add	r24, r24
    1d2c:	99 1f       	adc	r25, r25
    1d2e:	8d 52       	subi	r24, 0x2D	; 45
    1d30:	95 4f       	sbci	r25, 0xF5	; 245
    1d32:	fc 01       	movw	r30, r24
    1d34:	80 81       	ld	r24, Z
    1d36:	91 81       	ldd	r25, Z+1	; 0x01
    1d38:	bc 01       	movw	r22, r24
    1d3a:	80 e4       	ldi	r24, 0x40	; 64
    1d3c:	90 e0       	ldi	r25, 0x00	; 0
    1d3e:	0e 94 bc 12 	call	0x2578	; 0x2578 <send_variables>
	send_variables(CURVE_PAGE_OUTRATE_ADDR, output_rate[curve_page_num]);
    1d42:	80 91 9e 01 	lds	r24, 0x019E	; 0x80019e <curve_page_num>
    1d46:	08 2e       	mov	r0, r24
    1d48:	00 0c       	add	r0, r0
    1d4a:	99 0b       	sbc	r25, r25
    1d4c:	89 55       	subi	r24, 0x59	; 89
    1d4e:	9e 4f       	sbci	r25, 0xFE	; 254
    1d50:	dc 01       	movw	r26, r24
    1d52:	8c 91       	ld	r24, X
    1d54:	88 2f       	mov	r24, r24
    1d56:	90 e0       	ldi	r25, 0x00	; 0
    1d58:	bc 01       	movw	r22, r24
    1d5a:	82 e4       	ldi	r24, 0x42	; 66
    1d5c:	90 e0       	ldi	r25, 0x00	; 0
    1d5e:	0e 94 bc 12 	call	0x2578	; 0x2578 <send_variables>
	send_variables(CURVE_PAGE_SENSORTYPE_ADDR, TYPE_J + (sensor_type[curve_page_num] * TYPE_K));
    1d62:	80 91 9e 01 	lds	r24, 0x019E	; 0x80019e <curve_page_num>
    1d66:	08 2e       	mov	r0, r24
    1d68:	00 0c       	add	r0, r0
    1d6a:	99 0b       	sbc	r25, r25
    1d6c:	88 0f       	add	r24, r24
    1d6e:	99 1f       	adc	r25, r25
    1d70:	81 5b       	subi	r24, 0xB1	; 177
    1d72:	9d 4f       	sbci	r25, 0xFD	; 253
    1d74:	fc 01       	movw	r30, r24
    1d76:	80 81       	ld	r24, Z
    1d78:	91 81       	ldd	r25, Z+1	; 0x01
    1d7a:	86 5b       	subi	r24, 0xB6	; 182
    1d7c:	9f 4f       	sbci	r25, 0xFF	; 255
    1d7e:	98 2f       	mov	r25, r24
    1d80:	88 27       	eor	r24, r24
    1d82:	bc 01       	movw	r22, r24
    1d84:	80 ea       	ldi	r24, 0xA0	; 160
    1d86:	92 e0       	ldi	r25, 0x02	; 2
    1d88:	0e 94 bc 12 	call	0x2578	; 0x2578 <send_variables>
	send_name(CURVE_PAGE_NAME_ADDR, set_name[curve_page_num]);
    1d8c:	80 91 9e 01 	lds	r24, 0x019E	; 0x80019e <curve_page_num>
    1d90:	08 2e       	mov	r0, r24
    1d92:	00 0c       	add	r0, r0
    1d94:	99 0b       	sbc	r25, r25
    1d96:	88 0f       	add	r24, r24
    1d98:	99 1f       	adc	r25, r25
    1d9a:	88 0f       	add	r24, r24
    1d9c:	99 1f       	adc	r25, r25
    1d9e:	82 5c       	subi	r24, 0xC2	; 194
    1da0:	96 4f       	sbci	r25, 0xF6	; 246
    1da2:	fc 01       	movw	r30, r24
    1da4:	80 81       	ld	r24, Z
    1da6:	91 81       	ldd	r25, Z+1	; 0x01
    1da8:	a2 81       	ldd	r26, Z+2	; 0x02
    1daa:	b3 81       	ldd	r27, Z+3	; 0x03
    1dac:	ac 01       	movw	r20, r24
    1dae:	bd 01       	movw	r22, r26
    1db0:	88 e9       	ldi	r24, 0x98	; 152
    1db2:	92 e0       	ldi	r25, 0x02	; 2
    1db4:	0e 94 06 13 	call	0x260c	; 0x260c <send_name>

	OPEN_CURVE(count);
    1db8:	8a 81       	ldd	r24, Y+2	; 0x02
    1dba:	80 93 bd 02 	sts	0x02BD, r24	; 0x8002bd <timer2_ovf>
    1dbe:	84 e4       	ldi	r24, 0x44	; 68
    1dc0:	90 e0       	ldi	r25, 0x00	; 0
    1dc2:	22 eb       	ldi	r18, 0xB2	; 178
    1dc4:	dc 01       	movw	r26, r24
    1dc6:	2c 93       	st	X, r18
    1dc8:	85 e4       	ldi	r24, 0x45	; 69
    1dca:	90 e0       	ldi	r25, 0x00	; 0
    1dcc:	25 e4       	ldi	r18, 0x45	; 69
    1dce:	30 e0       	ldi	r19, 0x00	; 0
    1dd0:	f9 01       	movw	r30, r18
    1dd2:	20 81       	ld	r18, Z
    1dd4:	25 60       	ori	r18, 0x05	; 5
    1dd6:	dc 01       	movw	r26, r24
    1dd8:	2c 93       	st	X, r18
}
    1dda:	00 00       	nop
    1ddc:	66 96       	adiw	r28, 0x16	; 22
    1dde:	0f b6       	in	r0, 0x3f	; 63
    1de0:	f8 94       	cli
    1de2:	de bf       	out	0x3e, r29	; 62
    1de4:	0f be       	out	0x3f, r0	; 63
    1de6:	cd bf       	out	0x3d, r28	; 61
    1de8:	df 91       	pop	r29
    1dea:	cf 91       	pop	r28
    1dec:	08 95       	ret

00001dee <update_time_ctrl_page>:

/*更新射胶时间控制界面*/
void update_time_ctrl_page(void)
{
    1dee:	cf 93       	push	r28
    1df0:	df 93       	push	r29
    1df2:	00 d0       	rcall	.+0      	; 0x1df4 <update_time_ctrl_page+0x6>
    1df4:	1f 92       	push	r1
    1df6:	cd b7       	in	r28, 0x3d	; 61
    1df8:	de b7       	in	r29, 0x3e	; 62
	uint8_t j, k;
	uint8_t addr_offset = 0x00;
    1dfa:	1b 82       	std	Y+3, r1	; 0x03

	if (module_num < 1)
    1dfc:	80 91 05 01 	lds	r24, 0x0105	; 0x800105 <module_num>
    1e00:	88 23       	and	r24, r24
    1e02:	21 f4       	brne	.+8      	; 0x1e0c <update_time_ctrl_page+0x1e>
	{
		module_num = 1;
    1e04:	81 e0       	ldi	r24, 0x01	; 1
    1e06:	80 93 05 01 	sts	0x0105, r24	; 0x800105 <module_num>
				send_variables(IQR1_T1 + addr_offset, time_ctrl_value[module_num - 1][j][k]);
				addr_offset += 0x02;
			}
		}
	}
}
    1e0a:	5e c0       	rjmp	.+188    	; 0x1ec8 <update_time_ctrl_page+0xda>

	if (module_num < 1)
	{
		module_num = 1;
	}
	else if (module_num > 4)
    1e0c:	80 91 05 01 	lds	r24, 0x0105	; 0x800105 <module_num>
    1e10:	85 30       	cpi	r24, 0x05	; 5
    1e12:	20 f0       	brcs	.+8      	; 0x1e1c <update_time_ctrl_page+0x2e>
	{
		module_num = 4;
    1e14:	84 e0       	ldi	r24, 0x04	; 4
    1e16:	80 93 05 01 	sts	0x0105, r24	; 0x800105 <module_num>
				send_variables(IQR1_T1 + addr_offset, time_ctrl_value[module_num - 1][j][k]);
				addr_offset += 0x02;
			}
		}
	}
}
    1e1a:	56 c0       	rjmp	.+172    	; 0x1ec8 <update_time_ctrl_page+0xda>
	{
		module_num = 4;
	}
	else
	{
		send_variables(MODULE_NUM_ADDR, module_num);
    1e1c:	80 91 05 01 	lds	r24, 0x0105	; 0x800105 <module_num>
    1e20:	88 2f       	mov	r24, r24
    1e22:	90 e0       	ldi	r25, 0x00	; 0
    1e24:	bc 01       	movw	r22, r24
    1e26:	82 e7       	ldi	r24, 0x72	; 114
    1e28:	90 e0       	ldi	r25, 0x00	; 0
    1e2a:	0e 94 bc 12 	call	0x2578	; 0x2578 <send_variables>
		send_variables(MODULE_STATUS_ADDR, module_status[module_num - 1]);
    1e2e:	80 91 05 01 	lds	r24, 0x0105	; 0x800105 <module_num>
    1e32:	88 2f       	mov	r24, r24
    1e34:	90 e0       	ldi	r25, 0x00	; 0
    1e36:	01 97       	sbiw	r24, 0x01	; 1
    1e38:	89 54       	subi	r24, 0x49	; 73
    1e3a:	9d 4f       	sbci	r25, 0xFD	; 253
    1e3c:	fc 01       	movw	r30, r24
    1e3e:	80 81       	ld	r24, Z
    1e40:	88 2f       	mov	r24, r24
    1e42:	90 e0       	ldi	r25, 0x00	; 0
    1e44:	bc 01       	movw	r22, r24
    1e46:	80 e7       	ldi	r24, 0x70	; 112
    1e48:	90 e0       	ldi	r25, 0x00	; 0
    1e4a:	0e 94 bc 12 	call	0x2578	; 0x2578 <send_variables>

		for (j = 0; j < 8; j++)
    1e4e:	19 82       	std	Y+1, r1	; 0x01
    1e50:	38 c0       	rjmp	.+112    	; 0x1ec2 <update_time_ctrl_page+0xd4>
		{
			for (k = 0; k < 4; k++)
    1e52:	1a 82       	std	Y+2, r1	; 0x02
    1e54:	30 c0       	rjmp	.+96     	; 0x1eb6 <update_time_ctrl_page+0xc8>
			{
				send_variables(IQR1_T1 + addr_offset, time_ctrl_value[module_num - 1][j][k]);
    1e56:	80 91 05 01 	lds	r24, 0x0105	; 0x800105 <module_num>
    1e5a:	88 2f       	mov	r24, r24
    1e5c:	90 e0       	ldi	r25, 0x00	; 0
    1e5e:	ac 01       	movw	r20, r24
    1e60:	41 50       	subi	r20, 0x01	; 1
    1e62:	51 09       	sbc	r21, r1
    1e64:	89 81       	ldd	r24, Y+1	; 0x01
    1e66:	28 2f       	mov	r18, r24
    1e68:	30 e0       	ldi	r19, 0x00	; 0
    1e6a:	8a 81       	ldd	r24, Y+2	; 0x02
    1e6c:	88 2f       	mov	r24, r24
    1e6e:	90 e0       	ldi	r25, 0x00	; 0
    1e70:	44 0f       	add	r20, r20
    1e72:	55 1f       	adc	r21, r21
    1e74:	44 0f       	add	r20, r20
    1e76:	55 1f       	adc	r21, r21
    1e78:	44 0f       	add	r20, r20
    1e7a:	55 1f       	adc	r21, r21
    1e7c:	24 0f       	add	r18, r20
    1e7e:	35 1f       	adc	r19, r21
    1e80:	22 0f       	add	r18, r18
    1e82:	33 1f       	adc	r19, r19
    1e84:	22 0f       	add	r18, r18
    1e86:	33 1f       	adc	r19, r19
    1e88:	82 0f       	add	r24, r18
    1e8a:	93 1f       	adc	r25, r19
    1e8c:	88 0f       	add	r24, r24
    1e8e:	99 1f       	adc	r25, r25
    1e90:	8e 5d       	subi	r24, 0xDE	; 222
    1e92:	98 4f       	sbci	r25, 0xF8	; 248
    1e94:	fc 01       	movw	r30, r24
    1e96:	20 81       	ld	r18, Z
    1e98:	31 81       	ldd	r19, Z+1	; 0x01
    1e9a:	8b 81       	ldd	r24, Y+3	; 0x03
    1e9c:	88 2f       	mov	r24, r24
    1e9e:	90 e0       	ldi	r25, 0x00	; 0
    1ea0:	8e 59       	subi	r24, 0x9E	; 158
    1ea2:	9e 4f       	sbci	r25, 0xFE	; 254
    1ea4:	b9 01       	movw	r22, r18
    1ea6:	0e 94 bc 12 	call	0x2578	; 0x2578 <send_variables>
				addr_offset += 0x02;
    1eaa:	8b 81       	ldd	r24, Y+3	; 0x03
    1eac:	8e 5f       	subi	r24, 0xFE	; 254
    1eae:	8b 83       	std	Y+3, r24	; 0x03
		send_variables(MODULE_NUM_ADDR, module_num);
		send_variables(MODULE_STATUS_ADDR, module_status[module_num - 1]);

		for (j = 0; j < 8; j++)
		{
			for (k = 0; k < 4; k++)
    1eb0:	8a 81       	ldd	r24, Y+2	; 0x02
    1eb2:	8f 5f       	subi	r24, 0xFF	; 255
    1eb4:	8a 83       	std	Y+2, r24	; 0x02
    1eb6:	8a 81       	ldd	r24, Y+2	; 0x02
    1eb8:	84 30       	cpi	r24, 0x04	; 4
    1eba:	68 f2       	brcs	.-102    	; 0x1e56 <update_time_ctrl_page+0x68>
	else
	{
		send_variables(MODULE_NUM_ADDR, module_num);
		send_variables(MODULE_STATUS_ADDR, module_status[module_num - 1]);

		for (j = 0; j < 8; j++)
    1ebc:	89 81       	ldd	r24, Y+1	; 0x01
    1ebe:	8f 5f       	subi	r24, 0xFF	; 255
    1ec0:	89 83       	std	Y+1, r24	; 0x01
    1ec2:	89 81       	ldd	r24, Y+1	; 0x01
    1ec4:	88 30       	cpi	r24, 0x08	; 8
    1ec6:	28 f2       	brcs	.-118    	; 0x1e52 <update_time_ctrl_page+0x64>
				send_variables(IQR1_T1 + addr_offset, time_ctrl_value[module_num - 1][j][k]);
				addr_offset += 0x02;
			}
		}
	}
}
    1ec8:	00 00       	nop
    1eca:	0f 90       	pop	r0
    1ecc:	0f 90       	pop	r0
    1ece:	0f 90       	pop	r0
    1ed0:	df 91       	pop	r29
    1ed2:	cf 91       	pop	r28
    1ed4:	08 95       	ret

00001ed6 <save_time_ctrl_data>:

/*按下保存键 保存输入的数据  不按保存直接返回的话  则不保存*/
void save_time_ctrl_data(void)
{
    1ed6:	cf 93       	push	r28
    1ed8:	df 93       	push	r29
    1eda:	00 d0       	rcall	.+0      	; 0x1edc <save_time_ctrl_data+0x6>
    1edc:	cd b7       	in	r28, 0x3d	; 61
    1ede:	de b7       	in	r29, 0x3e	; 62
	uint8_t i, j;

	for (i = 0; i < 8; i++)
    1ee0:	19 82       	std	Y+1, r1	; 0x01
    1ee2:	93 c0       	rjmp	.+294    	; 0x200a <save_time_ctrl_data+0x134>
	{
		for (j = 0; j < 4; j++)
    1ee4:	1a 82       	std	Y+2, r1	; 0x02
    1ee6:	8a c0       	rjmp	.+276    	; 0x1ffc <save_time_ctrl_data+0x126>
		{
			time_ctrl_value[module_num - 1][i][j] = time_ctrl_value_buff[module_num - 1][i][j];
    1ee8:	80 91 05 01 	lds	r24, 0x0105	; 0x800105 <module_num>
    1eec:	88 2f       	mov	r24, r24
    1eee:	90 e0       	ldi	r25, 0x00	; 0
    1ef0:	bc 01       	movw	r22, r24
    1ef2:	61 50       	subi	r22, 0x01	; 1
    1ef4:	71 09       	sbc	r23, r1
    1ef6:	89 81       	ldd	r24, Y+1	; 0x01
    1ef8:	48 2f       	mov	r20, r24
    1efa:	50 e0       	ldi	r21, 0x00	; 0
    1efc:	8a 81       	ldd	r24, Y+2	; 0x02
    1efe:	88 2f       	mov	r24, r24
    1f00:	90 e0       	ldi	r25, 0x00	; 0
    1f02:	20 91 05 01 	lds	r18, 0x0105	; 0x800105 <module_num>
    1f06:	22 2f       	mov	r18, r18
    1f08:	30 e0       	ldi	r19, 0x00	; 0
    1f0a:	d9 01       	movw	r26, r18
    1f0c:	11 97       	sbiw	r26, 0x01	; 1
    1f0e:	29 81       	ldd	r18, Y+1	; 0x01
    1f10:	e2 2f       	mov	r30, r18
    1f12:	f0 e0       	ldi	r31, 0x00	; 0
    1f14:	2a 81       	ldd	r18, Y+2	; 0x02
    1f16:	22 2f       	mov	r18, r18
    1f18:	30 e0       	ldi	r19, 0x00	; 0
    1f1a:	aa 0f       	add	r26, r26
    1f1c:	bb 1f       	adc	r27, r27
    1f1e:	aa 0f       	add	r26, r26
    1f20:	bb 1f       	adc	r27, r27
    1f22:	aa 0f       	add	r26, r26
    1f24:	bb 1f       	adc	r27, r27
    1f26:	ea 0f       	add	r30, r26
    1f28:	fb 1f       	adc	r31, r27
    1f2a:	ee 0f       	add	r30, r30
    1f2c:	ff 1f       	adc	r31, r31
    1f2e:	ee 0f       	add	r30, r30
    1f30:	ff 1f       	adc	r31, r31
    1f32:	2e 0f       	add	r18, r30
    1f34:	3f 1f       	adc	r19, r31
    1f36:	22 0f       	add	r18, r18
    1f38:	33 1f       	adc	r19, r19
    1f3a:	2c 5c       	subi	r18, 0xCC	; 204
    1f3c:	34 4f       	sbci	r19, 0xF4	; 244
    1f3e:	f9 01       	movw	r30, r18
    1f40:	20 81       	ld	r18, Z
    1f42:	31 81       	ldd	r19, Z+1	; 0x01
    1f44:	66 0f       	add	r22, r22
    1f46:	77 1f       	adc	r23, r23
    1f48:	66 0f       	add	r22, r22
    1f4a:	77 1f       	adc	r23, r23
    1f4c:	66 0f       	add	r22, r22
    1f4e:	77 1f       	adc	r23, r23
    1f50:	46 0f       	add	r20, r22
    1f52:	57 1f       	adc	r21, r23
    1f54:	44 0f       	add	r20, r20
    1f56:	55 1f       	adc	r21, r21
    1f58:	44 0f       	add	r20, r20
    1f5a:	55 1f       	adc	r21, r21
    1f5c:	84 0f       	add	r24, r20
    1f5e:	95 1f       	adc	r25, r21
    1f60:	88 0f       	add	r24, r24
    1f62:	99 1f       	adc	r25, r25
    1f64:	8e 5d       	subi	r24, 0xDE	; 222
    1f66:	98 4f       	sbci	r25, 0xF8	; 248
    1f68:	fc 01       	movw	r30, r24
    1f6a:	31 83       	std	Z+1, r19	; 0x01
    1f6c:	20 83       	st	Z, r18
			eeprom_write_word((uint16_t *)(TIME_CTRL_VALUE_EEADDR + ((module_num - 1) * 32 + i * 4 + j) * 2), time_ctrl_value[module_num - 1][i][j]);
    1f6e:	80 91 05 01 	lds	r24, 0x0105	; 0x800105 <module_num>
    1f72:	88 2f       	mov	r24, r24
    1f74:	90 e0       	ldi	r25, 0x00	; 0
    1f76:	ac 01       	movw	r20, r24
    1f78:	41 50       	subi	r20, 0x01	; 1
    1f7a:	51 09       	sbc	r21, r1
    1f7c:	89 81       	ldd	r24, Y+1	; 0x01
    1f7e:	28 2f       	mov	r18, r24
    1f80:	30 e0       	ldi	r19, 0x00	; 0
    1f82:	8a 81       	ldd	r24, Y+2	; 0x02
    1f84:	88 2f       	mov	r24, r24
    1f86:	90 e0       	ldi	r25, 0x00	; 0
    1f88:	44 0f       	add	r20, r20
    1f8a:	55 1f       	adc	r21, r21
    1f8c:	44 0f       	add	r20, r20
    1f8e:	55 1f       	adc	r21, r21
    1f90:	44 0f       	add	r20, r20
    1f92:	55 1f       	adc	r21, r21
    1f94:	24 0f       	add	r18, r20
    1f96:	35 1f       	adc	r19, r21
    1f98:	22 0f       	add	r18, r18
    1f9a:	33 1f       	adc	r19, r19
    1f9c:	22 0f       	add	r18, r18
    1f9e:	33 1f       	adc	r19, r19
    1fa0:	82 0f       	add	r24, r18
    1fa2:	93 1f       	adc	r25, r19
    1fa4:	88 0f       	add	r24, r24
    1fa6:	99 1f       	adc	r25, r25
    1fa8:	8e 5d       	subi	r24, 0xDE	; 222
    1faa:	98 4f       	sbci	r25, 0xF8	; 248
    1fac:	fc 01       	movw	r30, r24
    1fae:	40 81       	ld	r20, Z
    1fb0:	51 81       	ldd	r21, Z+1	; 0x01
    1fb2:	80 91 05 01 	lds	r24, 0x0105	; 0x800105 <module_num>
    1fb6:	88 2f       	mov	r24, r24
    1fb8:	90 e0       	ldi	r25, 0x00	; 0
    1fba:	01 97       	sbiw	r24, 0x01	; 1
    1fbc:	9c 01       	movw	r18, r24
    1fbe:	22 0f       	add	r18, r18
    1fc0:	33 1f       	adc	r19, r19
    1fc2:	22 0f       	add	r18, r18
    1fc4:	33 1f       	adc	r19, r19
    1fc6:	22 0f       	add	r18, r18
    1fc8:	33 1f       	adc	r19, r19
    1fca:	89 81       	ldd	r24, Y+1	; 0x01
    1fcc:	88 2f       	mov	r24, r24
    1fce:	90 e0       	ldi	r25, 0x00	; 0
    1fd0:	82 0f       	add	r24, r18
    1fd2:	93 1f       	adc	r25, r19
    1fd4:	9c 01       	movw	r18, r24
    1fd6:	22 0f       	add	r18, r18
    1fd8:	33 1f       	adc	r19, r19
    1fda:	22 0f       	add	r18, r18
    1fdc:	33 1f       	adc	r19, r19
    1fde:	8a 81       	ldd	r24, Y+2	; 0x02
    1fe0:	88 2f       	mov	r24, r24
    1fe2:	90 e0       	ldi	r25, 0x00	; 0
    1fe4:	82 0f       	add	r24, r18
    1fe6:	93 1f       	adc	r25, r19
    1fe8:	88 0f       	add	r24, r24
    1fea:	99 1f       	adc	r25, r25
    1fec:	81 57       	subi	r24, 0x71	; 113
    1fee:	9f 4f       	sbci	r25, 0xFF	; 255
    1ff0:	ba 01       	movw	r22, r20
    1ff2:	0e 94 97 28 	call	0x512e	; 0x512e <eeprom_write_word>
{
	uint8_t i, j;

	for (i = 0; i < 8; i++)
	{
		for (j = 0; j < 4; j++)
    1ff6:	8a 81       	ldd	r24, Y+2	; 0x02
    1ff8:	8f 5f       	subi	r24, 0xFF	; 255
    1ffa:	8a 83       	std	Y+2, r24	; 0x02
    1ffc:	8a 81       	ldd	r24, Y+2	; 0x02
    1ffe:	84 30       	cpi	r24, 0x04	; 4
    2000:	08 f4       	brcc	.+2      	; 0x2004 <save_time_ctrl_data+0x12e>
    2002:	72 cf       	rjmp	.-284    	; 0x1ee8 <save_time_ctrl_data+0x12>
/*按下保存键 保存输入的数据  不按保存直接返回的话  则不保存*/
void save_time_ctrl_data(void)
{
	uint8_t i, j;

	for (i = 0; i < 8; i++)
    2004:	89 81       	ldd	r24, Y+1	; 0x01
    2006:	8f 5f       	subi	r24, 0xFF	; 255
    2008:	89 83       	std	Y+1, r24	; 0x01
    200a:	89 81       	ldd	r24, Y+1	; 0x01
    200c:	88 30       	cpi	r24, 0x08	; 8
    200e:	08 f4       	brcc	.+2      	; 0x2012 <save_time_ctrl_data+0x13c>
    2010:	69 cf       	rjmp	.-302    	; 0x1ee4 <save_time_ctrl_data+0xe>
		{
			time_ctrl_value[module_num - 1][i][j] = time_ctrl_value_buff[module_num - 1][i][j];
			eeprom_write_word((uint16_t *)(TIME_CTRL_VALUE_EEADDR + ((module_num - 1) * 32 + i * 4 + j) * 2), time_ctrl_value[module_num - 1][i][j]);
		}
	}
}
    2012:	00 00       	nop
    2014:	0f 90       	pop	r0
    2016:	0f 90       	pop	r0
    2018:	df 91       	pop	r29
    201a:	cf 91       	pop	r28
    201c:	08 95       	ret

0000201e <start_time_ctrl>:

/*向时间控制子模块发送开始命令 并发送每个通道的 T1―T4 数据*/
void start_time_ctrl(uint8_t slave_num)
{
    201e:	cf 93       	push	r28
    2020:	df 93       	push	r29
    2022:	00 d0       	rcall	.+0      	; 0x2024 <start_time_ctrl+0x6>
    2024:	00 d0       	rcall	.+0      	; 0x2026 <start_time_ctrl+0x8>
    2026:	00 d0       	rcall	.+0      	; 0x2028 <start_time_ctrl+0xa>
    2028:	cd b7       	in	r28, 0x3d	; 61
    202a:	de b7       	in	r29, 0x3e	; 62
    202c:	8e 83       	std	Y+6, r24	; 0x06
	uint8_t i, j;
	uint8_t cnt = 0; //计数第几个数据
    202e:	1b 82       	std	Y+3, r1	; 0x03
	uint16_t crc = 0;
    2030:	1d 82       	std	Y+5, r1	; 0x05
    2032:	1c 82       	std	Y+4, r1	; 0x04

	usart2_tx_buff[0] = 0xA5;
    2034:	85 ea       	ldi	r24, 0xA5	; 165
    2036:	80 93 f5 05 	sts	0x05F5, r24	; 0x8005f5 <usart2_tx_buff>
	usart2_tx_buff[1] = 0x5A;
    203a:	8a e5       	ldi	r24, 0x5A	; 90
    203c:	80 93 f6 05 	sts	0x05F6, r24	; 0x8005f6 <usart2_tx_buff+0x1>
	usart2_tx_buff[2] = 0x42;
    2040:	82 e4       	ldi	r24, 0x42	; 66
    2042:	80 93 f7 05 	sts	0x05F7, r24	; 0x8005f7 <usart2_tx_buff+0x2>
	usart2_tx_buff[3] = TIME_CTRL_START;
    2046:	8d e1       	ldi	r24, 0x1D	; 29
    2048:	80 93 f8 05 	sts	0x05F8, r24	; 0x8005f8 <usart2_tx_buff+0x3>
	usart2_tx_buff[4] = slave_num - 1;
    204c:	8e 81       	ldd	r24, Y+6	; 0x06
    204e:	81 50       	subi	r24, 0x01	; 1
    2050:	80 93 f9 05 	sts	0x05F9, r24	; 0x8005f9 <usart2_tx_buff+0x4>

	for (i = 0; i < 8; i++)
    2054:	19 82       	std	Y+1, r1	; 0x01
    2056:	63 c0       	rjmp	.+198    	; 0x211e <start_time_ctrl+0x100>
	{
		for (j = 0; j < 4; j++)
    2058:	1a 82       	std	Y+2, r1	; 0x02
    205a:	5a c0       	rjmp	.+180    	; 0x2110 <start_time_ctrl+0xf2>
		{
			usart2_tx_buff[cnt + 5] = time_ctrl_value[slave_num - 1][i][j] >> 8;
    205c:	8b 81       	ldd	r24, Y+3	; 0x03
    205e:	88 2f       	mov	r24, r24
    2060:	90 e0       	ldi	r25, 0x00	; 0
    2062:	05 96       	adiw	r24, 0x05	; 5
    2064:	2e 81       	ldd	r18, Y+6	; 0x06
    2066:	22 2f       	mov	r18, r18
    2068:	30 e0       	ldi	r19, 0x00	; 0
    206a:	b9 01       	movw	r22, r18
    206c:	61 50       	subi	r22, 0x01	; 1
    206e:	71 09       	sbc	r23, r1
    2070:	29 81       	ldd	r18, Y+1	; 0x01
    2072:	42 2f       	mov	r20, r18
    2074:	50 e0       	ldi	r21, 0x00	; 0
    2076:	2a 81       	ldd	r18, Y+2	; 0x02
    2078:	22 2f       	mov	r18, r18
    207a:	30 e0       	ldi	r19, 0x00	; 0
    207c:	66 0f       	add	r22, r22
    207e:	77 1f       	adc	r23, r23
    2080:	66 0f       	add	r22, r22
    2082:	77 1f       	adc	r23, r23
    2084:	66 0f       	add	r22, r22
    2086:	77 1f       	adc	r23, r23
    2088:	46 0f       	add	r20, r22
    208a:	57 1f       	adc	r21, r23
    208c:	44 0f       	add	r20, r20
    208e:	55 1f       	adc	r21, r21
    2090:	44 0f       	add	r20, r20
    2092:	55 1f       	adc	r21, r21
    2094:	24 0f       	add	r18, r20
    2096:	35 1f       	adc	r19, r21
    2098:	22 0f       	add	r18, r18
    209a:	33 1f       	adc	r19, r19
    209c:	2e 5d       	subi	r18, 0xDE	; 222
    209e:	38 4f       	sbci	r19, 0xF8	; 248
    20a0:	f9 01       	movw	r30, r18
    20a2:	20 81       	ld	r18, Z
    20a4:	31 81       	ldd	r19, Z+1	; 0x01
    20a6:	23 2f       	mov	r18, r19
    20a8:	33 27       	eor	r19, r19
    20aa:	8b 50       	subi	r24, 0x0B	; 11
    20ac:	9a 4f       	sbci	r25, 0xFA	; 250
    20ae:	fc 01       	movw	r30, r24
    20b0:	20 83       	st	Z, r18
			usart2_tx_buff[cnt + 6] = time_ctrl_value[slave_num - 1][i][j];
    20b2:	8b 81       	ldd	r24, Y+3	; 0x03
    20b4:	88 2f       	mov	r24, r24
    20b6:	90 e0       	ldi	r25, 0x00	; 0
    20b8:	06 96       	adiw	r24, 0x06	; 6
    20ba:	2e 81       	ldd	r18, Y+6	; 0x06
    20bc:	22 2f       	mov	r18, r18
    20be:	30 e0       	ldi	r19, 0x00	; 0
    20c0:	b9 01       	movw	r22, r18
    20c2:	61 50       	subi	r22, 0x01	; 1
    20c4:	71 09       	sbc	r23, r1
    20c6:	29 81       	ldd	r18, Y+1	; 0x01
    20c8:	42 2f       	mov	r20, r18
    20ca:	50 e0       	ldi	r21, 0x00	; 0
    20cc:	2a 81       	ldd	r18, Y+2	; 0x02
    20ce:	22 2f       	mov	r18, r18
    20d0:	30 e0       	ldi	r19, 0x00	; 0
    20d2:	66 0f       	add	r22, r22
    20d4:	77 1f       	adc	r23, r23
    20d6:	66 0f       	add	r22, r22
    20d8:	77 1f       	adc	r23, r23
    20da:	66 0f       	add	r22, r22
    20dc:	77 1f       	adc	r23, r23
    20de:	46 0f       	add	r20, r22
    20e0:	57 1f       	adc	r21, r23
    20e2:	44 0f       	add	r20, r20
    20e4:	55 1f       	adc	r21, r21
    20e6:	44 0f       	add	r20, r20
    20e8:	55 1f       	adc	r21, r21
    20ea:	24 0f       	add	r18, r20
    20ec:	35 1f       	adc	r19, r21
    20ee:	22 0f       	add	r18, r18
    20f0:	33 1f       	adc	r19, r19
    20f2:	2e 5d       	subi	r18, 0xDE	; 222
    20f4:	38 4f       	sbci	r19, 0xF8	; 248
    20f6:	f9 01       	movw	r30, r18
    20f8:	20 81       	ld	r18, Z
    20fa:	31 81       	ldd	r19, Z+1	; 0x01
    20fc:	8b 50       	subi	r24, 0x0B	; 11
    20fe:	9a 4f       	sbci	r25, 0xFA	; 250
    2100:	fc 01       	movw	r30, r24
    2102:	20 83       	st	Z, r18
			cnt += 2;
    2104:	8b 81       	ldd	r24, Y+3	; 0x03
    2106:	8e 5f       	subi	r24, 0xFE	; 254
    2108:	8b 83       	std	Y+3, r24	; 0x03
	usart2_tx_buff[3] = TIME_CTRL_START;
	usart2_tx_buff[4] = slave_num - 1;

	for (i = 0; i < 8; i++)
	{
		for (j = 0; j < 4; j++)
    210a:	8a 81       	ldd	r24, Y+2	; 0x02
    210c:	8f 5f       	subi	r24, 0xFF	; 255
    210e:	8a 83       	std	Y+2, r24	; 0x02
    2110:	8a 81       	ldd	r24, Y+2	; 0x02
    2112:	84 30       	cpi	r24, 0x04	; 4
    2114:	08 f4       	brcc	.+2      	; 0x2118 <start_time_ctrl+0xfa>
    2116:	a2 cf       	rjmp	.-188    	; 0x205c <start_time_ctrl+0x3e>
	usart2_tx_buff[1] = 0x5A;
	usart2_tx_buff[2] = 0x42;
	usart2_tx_buff[3] = TIME_CTRL_START;
	usart2_tx_buff[4] = slave_num - 1;

	for (i = 0; i < 8; i++)
    2118:	89 81       	ldd	r24, Y+1	; 0x01
    211a:	8f 5f       	subi	r24, 0xFF	; 255
    211c:	89 83       	std	Y+1, r24	; 0x01
    211e:	89 81       	ldd	r24, Y+1	; 0x01
    2120:	88 30       	cpi	r24, 0x08	; 8
    2122:	08 f4       	brcc	.+2      	; 0x2126 <start_time_ctrl+0x108>
    2124:	99 cf       	rjmp	.-206    	; 0x2058 <start_time_ctrl+0x3a>
			usart2_tx_buff[cnt + 6] = time_ctrl_value[slave_num - 1][i][j];
			cnt += 2;
		}
	}

	crc = crc_check(usart2_tx_buff, 71);
    2126:	67 e4       	ldi	r22, 0x47	; 71
    2128:	85 ef       	ldi	r24, 0xF5	; 245
    212a:	95 e0       	ldi	r25, 0x05	; 5
    212c:	0e 94 d9 26 	call	0x4db2	; 0x4db2 <crc_check>
    2130:	9d 83       	std	Y+5, r25	; 0x05
    2132:	8c 83       	std	Y+4, r24	; 0x04

	usart2_tx_buff[69] = crc & 0x00FF;
    2134:	8c 81       	ldd	r24, Y+4	; 0x04
    2136:	80 93 3a 06 	sts	0x063A, r24	; 0x80063a <usart2_tx_buff+0x45>
	usart2_tx_buff[70] = crc >> 8;
    213a:	8c 81       	ldd	r24, Y+4	; 0x04
    213c:	9d 81       	ldd	r25, Y+5	; 0x05
    213e:	89 2f       	mov	r24, r25
    2140:	99 27       	eor	r25, r25
    2142:	80 93 3b 06 	sts	0x063B, r24	; 0x80063b <usart2_tx_buff+0x46>

	usart2_send_str(usart2_tx_buff, 71);
    2146:	67 e4       	ldi	r22, 0x47	; 71
    2148:	85 ef       	ldi	r24, 0xF5	; 245
    214a:	95 e0       	ldi	r25, 0x05	; 5
    214c:	0e 94 ae 26 	call	0x4d5c	; 0x4d5c <usart2_send_str>

	module_status[slave_num - 1] = 1;
    2150:	8e 81       	ldd	r24, Y+6	; 0x06
    2152:	88 2f       	mov	r24, r24
    2154:	90 e0       	ldi	r25, 0x00	; 0
    2156:	01 97       	sbiw	r24, 0x01	; 1
    2158:	89 54       	subi	r24, 0x49	; 73
    215a:	9d 4f       	sbci	r25, 0xFD	; 253
    215c:	21 e0       	ldi	r18, 0x01	; 1
    215e:	fc 01       	movw	r30, r24
    2160:	20 83       	st	Z, r18
	send_variables(MODULE_STATUS_ADDR, module_status[slave_num - 1]);
    2162:	8e 81       	ldd	r24, Y+6	; 0x06
    2164:	88 2f       	mov	r24, r24
    2166:	90 e0       	ldi	r25, 0x00	; 0
    2168:	01 97       	sbiw	r24, 0x01	; 1
    216a:	89 54       	subi	r24, 0x49	; 73
    216c:	9d 4f       	sbci	r25, 0xFD	; 253
    216e:	fc 01       	movw	r30, r24
    2170:	80 81       	ld	r24, Z
    2172:	88 2f       	mov	r24, r24
    2174:	90 e0       	ldi	r25, 0x00	; 0
    2176:	bc 01       	movw	r22, r24
    2178:	80 e7       	ldi	r24, 0x70	; 112
    217a:	90 e0       	ldi	r25, 0x00	; 0
    217c:	0e 94 bc 12 	call	0x2578	; 0x2578 <send_variables>
	PORTA &= ~(1 << (7 - slave_num));
    2180:	8b e3       	ldi	r24, 0x3B	; 59
    2182:	90 e0       	ldi	r25, 0x00	; 0
    2184:	2b e3       	ldi	r18, 0x3B	; 59
    2186:	30 e0       	ldi	r19, 0x00	; 0
    2188:	f9 01       	movw	r30, r18
    218a:	20 81       	ld	r18, Z
    218c:	62 2f       	mov	r22, r18
    218e:	2e 81       	ldd	r18, Y+6	; 0x06
    2190:	22 2f       	mov	r18, r18
    2192:	30 e0       	ldi	r19, 0x00	; 0
    2194:	47 e0       	ldi	r20, 0x07	; 7
    2196:	50 e0       	ldi	r21, 0x00	; 0
    2198:	42 1b       	sub	r20, r18
    219a:	53 0b       	sbc	r21, r19
    219c:	21 e0       	ldi	r18, 0x01	; 1
    219e:	30 e0       	ldi	r19, 0x00	; 0
    21a0:	02 c0       	rjmp	.+4      	; 0x21a6 <start_time_ctrl+0x188>
    21a2:	22 0f       	add	r18, r18
    21a4:	33 1f       	adc	r19, r19
    21a6:	4a 95       	dec	r20
    21a8:	e2 f7       	brpl	.-8      	; 0x21a2 <start_time_ctrl+0x184>
    21aa:	20 95       	com	r18
    21ac:	26 23       	and	r18, r22
    21ae:	fc 01       	movw	r30, r24
    21b0:	20 83       	st	Z, r18
}
    21b2:	00 00       	nop
    21b4:	26 96       	adiw	r28, 0x06	; 6
    21b6:	0f b6       	in	r0, 0x3f	; 63
    21b8:	f8 94       	cli
    21ba:	de bf       	out	0x3e, r29	; 62
    21bc:	0f be       	out	0x3f, r0	; 63
    21be:	cd bf       	out	0x3d, r28	; 61
    21c0:	df 91       	pop	r29
    21c2:	cf 91       	pop	r28
    21c4:	08 95       	ret

000021c6 <time_ctrl_test>:

/*射胶阀时间控制通道测试函数*/
void time_ctrl_test(uint8_t slave_num, uint8_t command)
{
    21c6:	cf 93       	push	r28
    21c8:	df 93       	push	r29
    21ca:	00 d0       	rcall	.+0      	; 0x21cc <time_ctrl_test+0x6>
    21cc:	00 d0       	rcall	.+0      	; 0x21ce <time_ctrl_test+0x8>
    21ce:	00 d0       	rcall	.+0      	; 0x21d0 <time_ctrl_test+0xa>
    21d0:	cd b7       	in	r28, 0x3d	; 61
    21d2:	de b7       	in	r29, 0x3e	; 62
    21d4:	8d 83       	std	Y+5, r24	; 0x05
    21d6:	6e 83       	std	Y+6, r22	; 0x06
	uint8_t i;
	uint8_t cnt = 0; //计数第几个数据
    21d8:	1a 82       	std	Y+2, r1	; 0x02
	uint16_t crc = 0;
    21da:	1c 82       	std	Y+4, r1	; 0x04
    21dc:	1b 82       	std	Y+3, r1	; 0x03

	usart2_tx_buff[0] = 0xA5;
    21de:	85 ea       	ldi	r24, 0xA5	; 165
    21e0:	80 93 f5 05 	sts	0x05F5, r24	; 0x8005f5 <usart2_tx_buff>
	usart2_tx_buff[1] = 0x5A;
    21e4:	8a e5       	ldi	r24, 0x5A	; 90
    21e6:	80 93 f6 05 	sts	0x05F6, r24	; 0x8005f6 <usart2_tx_buff+0x1>
	usart2_tx_buff[2] = 0x0A;
    21ea:	8a e0       	ldi	r24, 0x0A	; 10
    21ec:	80 93 f7 05 	sts	0x05F7, r24	; 0x8005f7 <usart2_tx_buff+0x2>
	usart2_tx_buff[3] = command;
    21f0:	8e 81       	ldd	r24, Y+6	; 0x06
    21f2:	80 93 f8 05 	sts	0x05F8, r24	; 0x8005f8 <usart2_tx_buff+0x3>
	usart2_tx_buff[4] = slave_num - 1;
    21f6:	8d 81       	ldd	r24, Y+5	; 0x05
    21f8:	81 50       	subi	r24, 0x01	; 1
    21fa:	80 93 f9 05 	sts	0x05F9, r24	; 0x8005f9 <usart2_tx_buff+0x4>

	for (i = 0; i < 4; i++)
    21fe:	19 82       	std	Y+1, r1	; 0x01
    2200:	60 c0       	rjmp	.+192    	; 0x22c2 <time_ctrl_test+0xfc>
	{
		usart2_tx_buff[cnt + 5] = time_ctrl_value[slave_num - 1][command - 0x21][i] >> 8;
    2202:	8a 81       	ldd	r24, Y+2	; 0x02
    2204:	88 2f       	mov	r24, r24
    2206:	90 e0       	ldi	r25, 0x00	; 0
    2208:	05 96       	adiw	r24, 0x05	; 5
    220a:	2d 81       	ldd	r18, Y+5	; 0x05
    220c:	22 2f       	mov	r18, r18
    220e:	30 e0       	ldi	r19, 0x00	; 0
    2210:	b9 01       	movw	r22, r18
    2212:	61 50       	subi	r22, 0x01	; 1
    2214:	71 09       	sbc	r23, r1
    2216:	2e 81       	ldd	r18, Y+6	; 0x06
    2218:	22 2f       	mov	r18, r18
    221a:	30 e0       	ldi	r19, 0x00	; 0
    221c:	a9 01       	movw	r20, r18
    221e:	41 52       	subi	r20, 0x21	; 33
    2220:	51 09       	sbc	r21, r1
    2222:	29 81       	ldd	r18, Y+1	; 0x01
    2224:	22 2f       	mov	r18, r18
    2226:	30 e0       	ldi	r19, 0x00	; 0
    2228:	66 0f       	add	r22, r22
    222a:	77 1f       	adc	r23, r23
    222c:	66 0f       	add	r22, r22
    222e:	77 1f       	adc	r23, r23
    2230:	66 0f       	add	r22, r22
    2232:	77 1f       	adc	r23, r23
    2234:	46 0f       	add	r20, r22
    2236:	57 1f       	adc	r21, r23
    2238:	44 0f       	add	r20, r20
    223a:	55 1f       	adc	r21, r21
    223c:	44 0f       	add	r20, r20
    223e:	55 1f       	adc	r21, r21
    2240:	24 0f       	add	r18, r20
    2242:	35 1f       	adc	r19, r21
    2244:	22 0f       	add	r18, r18
    2246:	33 1f       	adc	r19, r19
    2248:	2e 5d       	subi	r18, 0xDE	; 222
    224a:	38 4f       	sbci	r19, 0xF8	; 248
    224c:	f9 01       	movw	r30, r18
    224e:	20 81       	ld	r18, Z
    2250:	31 81       	ldd	r19, Z+1	; 0x01
    2252:	23 2f       	mov	r18, r19
    2254:	33 27       	eor	r19, r19
    2256:	8b 50       	subi	r24, 0x0B	; 11
    2258:	9a 4f       	sbci	r25, 0xFA	; 250
    225a:	fc 01       	movw	r30, r24
    225c:	20 83       	st	Z, r18
		usart2_tx_buff[cnt + 6] = time_ctrl_value[slave_num - 1][command - 0x21][i];
    225e:	8a 81       	ldd	r24, Y+2	; 0x02
    2260:	88 2f       	mov	r24, r24
    2262:	90 e0       	ldi	r25, 0x00	; 0
    2264:	06 96       	adiw	r24, 0x06	; 6
    2266:	2d 81       	ldd	r18, Y+5	; 0x05
    2268:	22 2f       	mov	r18, r18
    226a:	30 e0       	ldi	r19, 0x00	; 0
    226c:	b9 01       	movw	r22, r18
    226e:	61 50       	subi	r22, 0x01	; 1
    2270:	71 09       	sbc	r23, r1
    2272:	2e 81       	ldd	r18, Y+6	; 0x06
    2274:	22 2f       	mov	r18, r18
    2276:	30 e0       	ldi	r19, 0x00	; 0
    2278:	a9 01       	movw	r20, r18
    227a:	41 52       	subi	r20, 0x21	; 33
    227c:	51 09       	sbc	r21, r1
    227e:	29 81       	ldd	r18, Y+1	; 0x01
    2280:	22 2f       	mov	r18, r18
    2282:	30 e0       	ldi	r19, 0x00	; 0
    2284:	66 0f       	add	r22, r22
    2286:	77 1f       	adc	r23, r23
    2288:	66 0f       	add	r22, r22
    228a:	77 1f       	adc	r23, r23
    228c:	66 0f       	add	r22, r22
    228e:	77 1f       	adc	r23, r23
    2290:	46 0f       	add	r20, r22
    2292:	57 1f       	adc	r21, r23
    2294:	44 0f       	add	r20, r20
    2296:	55 1f       	adc	r21, r21
    2298:	44 0f       	add	r20, r20
    229a:	55 1f       	adc	r21, r21
    229c:	24 0f       	add	r18, r20
    229e:	35 1f       	adc	r19, r21
    22a0:	22 0f       	add	r18, r18
    22a2:	33 1f       	adc	r19, r19
    22a4:	2e 5d       	subi	r18, 0xDE	; 222
    22a6:	38 4f       	sbci	r19, 0xF8	; 248
    22a8:	f9 01       	movw	r30, r18
    22aa:	20 81       	ld	r18, Z
    22ac:	31 81       	ldd	r19, Z+1	; 0x01
    22ae:	8b 50       	subi	r24, 0x0B	; 11
    22b0:	9a 4f       	sbci	r25, 0xFA	; 250
    22b2:	fc 01       	movw	r30, r24
    22b4:	20 83       	st	Z, r18
		cnt += 2;
    22b6:	8a 81       	ldd	r24, Y+2	; 0x02
    22b8:	8e 5f       	subi	r24, 0xFE	; 254
    22ba:	8a 83       	std	Y+2, r24	; 0x02
	usart2_tx_buff[1] = 0x5A;
	usart2_tx_buff[2] = 0x0A;
	usart2_tx_buff[3] = command;
	usart2_tx_buff[4] = slave_num - 1;

	for (i = 0; i < 4; i++)
    22bc:	89 81       	ldd	r24, Y+1	; 0x01
    22be:	8f 5f       	subi	r24, 0xFF	; 255
    22c0:	89 83       	std	Y+1, r24	; 0x01
    22c2:	89 81       	ldd	r24, Y+1	; 0x01
    22c4:	84 30       	cpi	r24, 0x04	; 4
    22c6:	08 f4       	brcc	.+2      	; 0x22ca <time_ctrl_test+0x104>
    22c8:	9c cf       	rjmp	.-200    	; 0x2202 <time_ctrl_test+0x3c>
		usart2_tx_buff[cnt + 5] = time_ctrl_value[slave_num - 1][command - 0x21][i] >> 8;
		usart2_tx_buff[cnt + 6] = time_ctrl_value[slave_num - 1][command - 0x21][i];
		cnt += 2;
	}

	crc = crc_check(usart2_tx_buff, 15);
    22ca:	6f e0       	ldi	r22, 0x0F	; 15
    22cc:	85 ef       	ldi	r24, 0xF5	; 245
    22ce:	95 e0       	ldi	r25, 0x05	; 5
    22d0:	0e 94 d9 26 	call	0x4db2	; 0x4db2 <crc_check>
    22d4:	9c 83       	std	Y+4, r25	; 0x04
    22d6:	8b 83       	std	Y+3, r24	; 0x03

	usart2_tx_buff[13] = crc & 0x00FF;
    22d8:	8b 81       	ldd	r24, Y+3	; 0x03
    22da:	80 93 02 06 	sts	0x0602, r24	; 0x800602 <usart2_tx_buff+0xd>
	usart2_tx_buff[14] = crc >> 8;
    22de:	8b 81       	ldd	r24, Y+3	; 0x03
    22e0:	9c 81       	ldd	r25, Y+4	; 0x04
    22e2:	89 2f       	mov	r24, r25
    22e4:	99 27       	eor	r25, r25
    22e6:	80 93 03 06 	sts	0x0603, r24	; 0x800603 <usart2_tx_buff+0xe>

	usart2_send_str(usart2_tx_buff, 15);
    22ea:	6f e0       	ldi	r22, 0x0F	; 15
    22ec:	85 ef       	ldi	r24, 0xF5	; 245
    22ee:	95 e0       	ldi	r25, 0x05	; 5
    22f0:	0e 94 ae 26 	call	0x4d5c	; 0x4d5c <usart2_send_str>

	// module_status[slave_num - 1] = 1;
	// send_variables(MODULE_STATUS_ADDR, module_status[slave_num - 1]);
	// PORTA &= ~(1 << (7 - slave_num));
}
    22f4:	00 00       	nop
    22f6:	26 96       	adiw	r28, 0x06	; 6
    22f8:	0f b6       	in	r0, 0x3f	; 63
    22fa:	f8 94       	cli
    22fc:	de bf       	out	0x3e, r29	; 62
    22fe:	0f be       	out	0x3f, r0	; 63
    2300:	cd bf       	out	0x3d, r28	; 61
    2302:	df 91       	pop	r29
    2304:	cf 91       	pop	r28
    2306:	08 95       	ret

00002308 <stop_time_ctrl>:

/*向时间控制子模块发送停止命令 不需要发送每个通道的 T1―T4 数据*/
void stop_time_ctrl(uint8_t slave_num)
{
    2308:	cf 93       	push	r28
    230a:	df 93       	push	r29
    230c:	00 d0       	rcall	.+0      	; 0x230e <stop_time_ctrl+0x6>
    230e:	1f 92       	push	r1
    2310:	cd b7       	in	r28, 0x3d	; 61
    2312:	de b7       	in	r29, 0x3e	; 62
    2314:	8b 83       	std	Y+3, r24	; 0x03
	uint16_t crc = 0;
    2316:	1a 82       	std	Y+2, r1	; 0x02
    2318:	19 82       	std	Y+1, r1	; 0x01

	usart2_tx_buff[0] = 0xA5;
    231a:	85 ea       	ldi	r24, 0xA5	; 165
    231c:	80 93 f5 05 	sts	0x05F5, r24	; 0x8005f5 <usart2_tx_buff>
	usart2_tx_buff[1] = 0x5A;
    2320:	8a e5       	ldi	r24, 0x5A	; 90
    2322:	80 93 f6 05 	sts	0x05F6, r24	; 0x8005f6 <usart2_tx_buff+0x1>
	usart2_tx_buff[2] = 0x02;
    2326:	82 e0       	ldi	r24, 0x02	; 2
    2328:	80 93 f7 05 	sts	0x05F7, r24	; 0x8005f7 <usart2_tx_buff+0x2>
	usart2_tx_buff[3] = TIME_CTRL_STOP;
    232c:	8c e1       	ldi	r24, 0x1C	; 28
    232e:	80 93 f8 05 	sts	0x05F8, r24	; 0x8005f8 <usart2_tx_buff+0x3>
	usart2_tx_buff[4] = slave_num - 1;
    2332:	8b 81       	ldd	r24, Y+3	; 0x03
    2334:	81 50       	subi	r24, 0x01	; 1
    2336:	80 93 f9 05 	sts	0x05F9, r24	; 0x8005f9 <usart2_tx_buff+0x4>

	crc = crc_check(usart2_tx_buff, 7);
    233a:	67 e0       	ldi	r22, 0x07	; 7
    233c:	85 ef       	ldi	r24, 0xF5	; 245
    233e:	95 e0       	ldi	r25, 0x05	; 5
    2340:	0e 94 d9 26 	call	0x4db2	; 0x4db2 <crc_check>
    2344:	9a 83       	std	Y+2, r25	; 0x02
    2346:	89 83       	std	Y+1, r24	; 0x01

	usart2_tx_buff[5] = crc & 0x00FF;
    2348:	89 81       	ldd	r24, Y+1	; 0x01
    234a:	80 93 fa 05 	sts	0x05FA, r24	; 0x8005fa <usart2_tx_buff+0x5>
	usart2_tx_buff[6] = crc >> 8;
    234e:	89 81       	ldd	r24, Y+1	; 0x01
    2350:	9a 81       	ldd	r25, Y+2	; 0x02
    2352:	89 2f       	mov	r24, r25
    2354:	99 27       	eor	r25, r25
    2356:	80 93 fb 05 	sts	0x05FB, r24	; 0x8005fb <usart2_tx_buff+0x6>

	usart2_send_str(usart2_tx_buff, 7);
    235a:	67 e0       	ldi	r22, 0x07	; 7
    235c:	85 ef       	ldi	r24, 0xF5	; 245
    235e:	95 e0       	ldi	r25, 0x05	; 5
    2360:	0e 94 ae 26 	call	0x4d5c	; 0x4d5c <usart2_send_str>

	module_status[slave_num - 1] = 0;
    2364:	8b 81       	ldd	r24, Y+3	; 0x03
    2366:	88 2f       	mov	r24, r24
    2368:	90 e0       	ldi	r25, 0x00	; 0
    236a:	01 97       	sbiw	r24, 0x01	; 1
    236c:	89 54       	subi	r24, 0x49	; 73
    236e:	9d 4f       	sbci	r25, 0xFD	; 253
    2370:	fc 01       	movw	r30, r24
    2372:	10 82       	st	Z, r1
	send_variables(MODULE_STATUS_ADDR, module_status[slave_num - 1]);
    2374:	8b 81       	ldd	r24, Y+3	; 0x03
    2376:	88 2f       	mov	r24, r24
    2378:	90 e0       	ldi	r25, 0x00	; 0
    237a:	01 97       	sbiw	r24, 0x01	; 1
    237c:	89 54       	subi	r24, 0x49	; 73
    237e:	9d 4f       	sbci	r25, 0xFD	; 253
    2380:	fc 01       	movw	r30, r24
    2382:	80 81       	ld	r24, Z
    2384:	88 2f       	mov	r24, r24
    2386:	90 e0       	ldi	r25, 0x00	; 0
    2388:	bc 01       	movw	r22, r24
    238a:	80 e7       	ldi	r24, 0x70	; 112
    238c:	90 e0       	ldi	r25, 0x00	; 0
    238e:	0e 94 bc 12 	call	0x2578	; 0x2578 <send_variables>
	PORTA |= (1 << (7 - slave_num));
    2392:	8b e3       	ldi	r24, 0x3B	; 59
    2394:	90 e0       	ldi	r25, 0x00	; 0
    2396:	2b e3       	ldi	r18, 0x3B	; 59
    2398:	30 e0       	ldi	r19, 0x00	; 0
    239a:	f9 01       	movw	r30, r18
    239c:	20 81       	ld	r18, Z
    239e:	62 2f       	mov	r22, r18
    23a0:	2b 81       	ldd	r18, Y+3	; 0x03
    23a2:	22 2f       	mov	r18, r18
    23a4:	30 e0       	ldi	r19, 0x00	; 0
    23a6:	47 e0       	ldi	r20, 0x07	; 7
    23a8:	50 e0       	ldi	r21, 0x00	; 0
    23aa:	42 1b       	sub	r20, r18
    23ac:	53 0b       	sbc	r21, r19
    23ae:	21 e0       	ldi	r18, 0x01	; 1
    23b0:	30 e0       	ldi	r19, 0x00	; 0
    23b2:	02 c0       	rjmp	.+4      	; 0x23b8 <stop_time_ctrl+0xb0>
    23b4:	22 0f       	add	r18, r18
    23b6:	33 1f       	adc	r19, r19
    23b8:	4a 95       	dec	r20
    23ba:	e2 f7       	brpl	.-8      	; 0x23b4 <stop_time_ctrl+0xac>
    23bc:	26 2b       	or	r18, r22
    23be:	fc 01       	movw	r30, r24
    23c0:	20 83       	st	Z, r18
}
    23c2:	00 00       	nop
    23c4:	0f 90       	pop	r0
    23c6:	0f 90       	pop	r0
    23c8:	0f 90       	pop	r0
    23ca:	df 91       	pop	r29
    23cc:	cf 91       	pop	r28
    23ce:	08 95       	ret

000023d0 <update_alarm_page>:

void update_alarm_page(uint8_t page_num)
{
    23d0:	cf 93       	push	r28
    23d2:	df 93       	push	r29
    23d4:	00 d0       	rcall	.+0      	; 0x23d6 <update_alarm_page+0x6>
    23d6:	1f 92       	push	r1
    23d8:	cd b7       	in	r28, 0x3d	; 61
    23da:	de b7       	in	r29, 0x3e	; 62
    23dc:	8b 83       	std	Y+3, r24	; 0x03
	uint8_t i = 0;
    23de:	19 82       	std	Y+1, r1	; 0x01
	uint8_t alarm_msg_num = 0;
    23e0:	1a 82       	std	Y+2, r1	; 0x02

	for (i = 0; i < 7; i++)
    23e2:	19 82       	std	Y+1, r1	; 0x01
    23e4:	6b c0       	rjmp	.+214    	; 0x24bc <update_alarm_page+0xec>
	{
		alarm_msg_num = alarm_cnt - i - (page_num - 1) * 7;
    23e6:	90 91 bb 02 	lds	r25, 0x02BB	; 0x8002bb <alarm_cnt>
    23ea:	89 81       	ldd	r24, Y+1	; 0x01
    23ec:	29 2f       	mov	r18, r25
    23ee:	28 1b       	sub	r18, r24
    23f0:	8b 81       	ldd	r24, Y+3	; 0x03
    23f2:	88 2f       	mov	r24, r24
    23f4:	90 e0       	ldi	r25, 0x00	; 0
    23f6:	01 97       	sbiw	r24, 0x01	; 1
    23f8:	98 2f       	mov	r25, r24
    23fa:	89 ef       	ldi	r24, 0xF9	; 249
    23fc:	98 9f       	mul	r25, r24
    23fe:	80 2d       	mov	r24, r0
    2400:	11 24       	eor	r1, r1
    2402:	82 0f       	add	r24, r18
    2404:	8a 83       	std	Y+2, r24	; 0x02
		send_variables(ALARM_PAGE_NUM1_ADDR + (i * 2), i + ((page_num - 1) * 7) + 1);
    2406:	89 81       	ldd	r24, Y+1	; 0x01
    2408:	48 2f       	mov	r20, r24
    240a:	50 e0       	ldi	r21, 0x00	; 0
    240c:	8b 81       	ldd	r24, Y+3	; 0x03
    240e:	88 2f       	mov	r24, r24
    2410:	90 e0       	ldi	r25, 0x00	; 0
    2412:	9c 01       	movw	r18, r24
    2414:	21 50       	subi	r18, 0x01	; 1
    2416:	31 09       	sbc	r19, r1
    2418:	c9 01       	movw	r24, r18
    241a:	88 0f       	add	r24, r24
    241c:	99 1f       	adc	r25, r25
    241e:	88 0f       	add	r24, r24
    2420:	99 1f       	adc	r25, r25
    2422:	88 0f       	add	r24, r24
    2424:	99 1f       	adc	r25, r25
    2426:	82 1b       	sub	r24, r18
    2428:	93 0b       	sbc	r25, r19
    242a:	84 0f       	add	r24, r20
    242c:	95 1f       	adc	r25, r21
    242e:	01 96       	adiw	r24, 0x01	; 1
    2430:	9c 01       	movw	r18, r24
    2432:	89 81       	ldd	r24, Y+1	; 0x01
    2434:	88 2f       	mov	r24, r24
    2436:	90 e0       	ldi	r25, 0x00	; 0
    2438:	82 96       	adiw	r24, 0x22	; 34
    243a:	88 0f       	add	r24, r24
    243c:	99 1f       	adc	r25, r25
    243e:	b9 01       	movw	r22, r18
    2440:	0e 94 bc 12 	call	0x2578	; 0x2578 <send_variables>

		if (alarm_cnt > i + (page_num - 1) * 7)
    2444:	80 91 bb 02 	lds	r24, 0x02BB	; 0x8002bb <alarm_cnt>
    2448:	48 2f       	mov	r20, r24
    244a:	50 e0       	ldi	r21, 0x00	; 0
    244c:	89 81       	ldd	r24, Y+1	; 0x01
    244e:	68 2f       	mov	r22, r24
    2450:	70 e0       	ldi	r23, 0x00	; 0
    2452:	8b 81       	ldd	r24, Y+3	; 0x03
    2454:	88 2f       	mov	r24, r24
    2456:	90 e0       	ldi	r25, 0x00	; 0
    2458:	9c 01       	movw	r18, r24
    245a:	21 50       	subi	r18, 0x01	; 1
    245c:	31 09       	sbc	r19, r1
    245e:	c9 01       	movw	r24, r18
    2460:	88 0f       	add	r24, r24
    2462:	99 1f       	adc	r25, r25
    2464:	88 0f       	add	r24, r24
    2466:	99 1f       	adc	r25, r25
    2468:	88 0f       	add	r24, r24
    246a:	99 1f       	adc	r25, r25
    246c:	82 1b       	sub	r24, r18
    246e:	93 0b       	sbc	r25, r19
    2470:	86 0f       	add	r24, r22
    2472:	97 1f       	adc	r25, r23
    2474:	84 17       	cp	r24, r20
    2476:	95 07       	cpc	r25, r21
    2478:	dc f4       	brge	.+54     	; 0x24b0 <update_alarm_page+0xe0>
		{
			send_alarm_msg(alarm_history[alarm_msg_num - 1].alarm_type, i, alarm_history[alarm_msg_num - 1].alarm_device_num);
    247a:	8a 81       	ldd	r24, Y+2	; 0x02
    247c:	88 2f       	mov	r24, r24
    247e:	90 e0       	ldi	r25, 0x00	; 0
    2480:	01 97       	sbiw	r24, 0x01	; 1
    2482:	88 0f       	add	r24, r24
    2484:	99 1f       	adc	r25, r25
    2486:	8d 54       	subi	r24, 0x4D	; 77
    2488:	97 4f       	sbci	r25, 0xF7	; 247
    248a:	fc 01       	movw	r30, r24
    248c:	80 81       	ld	r24, Z
    248e:	28 2f       	mov	r18, r24
    2490:	30 e0       	ldi	r19, 0x00	; 0
    2492:	8a 81       	ldd	r24, Y+2	; 0x02
    2494:	88 2f       	mov	r24, r24
    2496:	90 e0       	ldi	r25, 0x00	; 0
    2498:	01 97       	sbiw	r24, 0x01	; 1
    249a:	88 0f       	add	r24, r24
    249c:	99 1f       	adc	r25, r25
    249e:	8e 54       	subi	r24, 0x4E	; 78
    24a0:	97 4f       	sbci	r25, 0xF7	; 247
    24a2:	fc 01       	movw	r30, r24
    24a4:	80 81       	ld	r24, Z
    24a6:	a9 01       	movw	r20, r18
    24a8:	69 81       	ldd	r22, Y+1	; 0x01
    24aa:	0e 94 ae 13 	call	0x275c	; 0x275c <send_alarm_msg>
    24ae:	03 c0       	rjmp	.+6      	; 0x24b6 <update_alarm_page+0xe6>
		}
		else
		{
			clear_alarm_msg(i);
    24b0:	89 81       	ldd	r24, Y+1	; 0x01
    24b2:	0e 94 e5 18 	call	0x31ca	; 0x31ca <clear_alarm_msg>
void update_alarm_page(uint8_t page_num)
{
	uint8_t i = 0;
	uint8_t alarm_msg_num = 0;

	for (i = 0; i < 7; i++)
    24b6:	89 81       	ldd	r24, Y+1	; 0x01
    24b8:	8f 5f       	subi	r24, 0xFF	; 255
    24ba:	89 83       	std	Y+1, r24	; 0x01
    24bc:	89 81       	ldd	r24, Y+1	; 0x01
    24be:	87 30       	cpi	r24, 0x07	; 7
    24c0:	08 f4       	brcc	.+2      	; 0x24c4 <update_alarm_page+0xf4>
    24c2:	91 cf       	rjmp	.-222    	; 0x23e6 <update_alarm_page+0x16>
	for (; alarm_msg_num < 7; alarm_msg_num++)
	{
		clear_alarm_msg(alarm_msg_num);
	}
*/
}
    24c4:	00 00       	nop
    24c6:	0f 90       	pop	r0
    24c8:	0f 90       	pop	r0
    24ca:	0f 90       	pop	r0
    24cc:	df 91       	pop	r29
    24ce:	cf 91       	pop	r28
    24d0:	08 95       	ret

000024d2 <switch_language>:

void switch_language(void)
{
    24d2:	cf 93       	push	r28
    24d4:	df 93       	push	r29
    24d6:	cd b7       	in	r28, 0x3d	; 61
    24d8:	de b7       	in	r29, 0x3e	; 62
	if (pre_language == 1)
    24da:	80 91 98 01 	lds	r24, 0x0198	; 0x800198 <pre_language>
    24de:	81 30       	cpi	r24, 0x01	; 1
    24e0:	21 f4       	brne	.+8      	; 0x24ea <switch_language+0x18>
	{
		change_page(3); //暂定英文页面为13
    24e2:	83 e0       	ldi	r24, 0x03	; 3
    24e4:	0e 94 83 12 	call	0x2506	; 0x2506 <change_page>
    24e8:	03 c0       	rjmp	.+6      	; 0x24f0 <switch_language+0x1e>
	}
	else
	{
		change_page(1);
    24ea:	81 e0       	ldi	r24, 0x01	; 1
    24ec:	0e 94 83 12 	call	0x2506	; 0x2506 <change_page>
	}

	eeprom_write_byte((uint8_t *)PRE_LANGUAGE_EEADDR, pre_language);
    24f0:	80 91 98 01 	lds	r24, 0x0198	; 0x800198 <pre_language>
    24f4:	68 2f       	mov	r22, r24
    24f6:	81 e0       	ldi	r24, 0x01	; 1
    24f8:	90 e0       	ldi	r25, 0x00	; 0
    24fa:	0e 94 8a 28 	call	0x5114	; 0x5114 <eeprom_write_byte>
}
    24fe:	00 00       	nop
    2500:	df 91       	pop	r29
    2502:	cf 91       	pop	r28
    2504:	08 95       	ret

00002506 <change_page>:

void change_page(uint8_t page_num)
{
    2506:	cf 93       	push	r28
    2508:	df 93       	push	r29
    250a:	00 d0       	rcall	.+0      	; 0x250c <change_page+0x6>
    250c:	1f 92       	push	r1
    250e:	cd b7       	in	r28, 0x3d	; 61
    2510:	de b7       	in	r29, 0x3e	; 62
    2512:	8b 83       	std	Y+3, r24	; 0x03
	uint16_t crc = 0;
    2514:	1a 82       	std	Y+2, r1	; 0x02
    2516:	19 82       	std	Y+1, r1	; 0x01

	usart0_tx_buff[0] = 0xA5;
    2518:	85 ea       	ldi	r24, 0xA5	; 165
    251a:	80 93 97 03 	sts	0x0397, r24	; 0x800397 <usart0_tx_buff>
	usart0_tx_buff[1] = 0x5A;
    251e:	8a e5       	ldi	r24, 0x5A	; 90
    2520:	80 93 98 03 	sts	0x0398, r24	; 0x800398 <usart0_tx_buff+0x1>
	usart0_tx_buff[2] = 0x04; //4.3寸屏为4  5寸屏为6
    2524:	84 e0       	ldi	r24, 0x04	; 4
    2526:	80 93 99 03 	sts	0x0399, r24	; 0x800399 <usart0_tx_buff+0x2>
	usart0_tx_buff[3] = 0x80;
    252a:	80 e8       	ldi	r24, 0x80	; 128
    252c:	80 93 9a 03 	sts	0x039A, r24	; 0x80039a <usart0_tx_buff+0x3>
	usart0_tx_buff[4] = 0x03;
    2530:	83 e0       	ldi	r24, 0x03	; 3
    2532:	80 93 9b 03 	sts	0x039B, r24	; 0x80039b <usart0_tx_buff+0x4>
	usart0_tx_buff[5] = 0x00;
    2536:	10 92 9c 03 	sts	0x039C, r1	; 0x80039c <usart0_tx_buff+0x5>
	usart0_tx_buff[6] = page_num;
    253a:	8b 81       	ldd	r24, Y+3	; 0x03
    253c:	80 93 9d 03 	sts	0x039D, r24	; 0x80039d <usart0_tx_buff+0x6>

	crc = crc_check(usart0_tx_buff, 9);
    2540:	69 e0       	ldi	r22, 0x09	; 9
    2542:	87 e9       	ldi	r24, 0x97	; 151
    2544:	93 e0       	ldi	r25, 0x03	; 3
    2546:	0e 94 d9 26 	call	0x4db2	; 0x4db2 <crc_check>
    254a:	9a 83       	std	Y+2, r25	; 0x02
    254c:	89 83       	std	Y+1, r24	; 0x01

	usart0_tx_buff[7] = crc & 0x00FF;
    254e:	89 81       	ldd	r24, Y+1	; 0x01
    2550:	80 93 9e 03 	sts	0x039E, r24	; 0x80039e <usart0_tx_buff+0x7>
	usart0_tx_buff[8] = crc >> 8;
    2554:	89 81       	ldd	r24, Y+1	; 0x01
    2556:	9a 81       	ldd	r25, Y+2	; 0x02
    2558:	89 2f       	mov	r24, r25
    255a:	99 27       	eor	r25, r25
    255c:	80 93 9f 03 	sts	0x039F, r24	; 0x80039f <usart0_tx_buff+0x8>

	usart0_send_str(usart0_tx_buff, 9);
    2560:	69 e0       	ldi	r22, 0x09	; 9
    2562:	87 e9       	ldi	r24, 0x97	; 151
    2564:	93 e0       	ldi	r25, 0x03	; 3
    2566:	0e 94 20 26 	call	0x4c40	; 0x4c40 <usart0_send_str>
}
    256a:	00 00       	nop
    256c:	0f 90       	pop	r0
    256e:	0f 90       	pop	r0
    2570:	0f 90       	pop	r0
    2572:	df 91       	pop	r29
    2574:	cf 91       	pop	r28
    2576:	08 95       	ret

00002578 <send_variables>:
* @brief  指定地址下发变量到dgus
* @param  addr变量地址  data变量值
* @retval None
*/
void send_variables(uint16_t addr, uint16_t data)
{
    2578:	cf 93       	push	r28
    257a:	df 93       	push	r29
    257c:	00 d0       	rcall	.+0      	; 0x257e <send_variables+0x6>
    257e:	00 d0       	rcall	.+0      	; 0x2580 <send_variables+0x8>
    2580:	00 d0       	rcall	.+0      	; 0x2582 <send_variables+0xa>
    2582:	cd b7       	in	r28, 0x3d	; 61
    2584:	de b7       	in	r29, 0x3e	; 62
    2586:	9c 83       	std	Y+4, r25	; 0x04
    2588:	8b 83       	std	Y+3, r24	; 0x03
    258a:	7e 83       	std	Y+6, r23	; 0x06
    258c:	6d 83       	std	Y+5, r22	; 0x05
	uint16_t crc = 0;
    258e:	1a 82       	std	Y+2, r1	; 0x02
    2590:	19 82       	std	Y+1, r1	; 0x01
	usart0_tx_buff[0] = 0xA5;
    2592:	85 ea       	ldi	r24, 0xA5	; 165
    2594:	80 93 97 03 	sts	0x0397, r24	; 0x800397 <usart0_tx_buff>
	usart0_tx_buff[1] = 0x5A;
    2598:	8a e5       	ldi	r24, 0x5A	; 90
    259a:	80 93 98 03 	sts	0x0398, r24	; 0x800398 <usart0_tx_buff+0x1>
	usart0_tx_buff[2] = 0x05;
    259e:	85 e0       	ldi	r24, 0x05	; 5
    25a0:	80 93 99 03 	sts	0x0399, r24	; 0x800399 <usart0_tx_buff+0x2>
	usart0_tx_buff[3] = 0x82;
    25a4:	82 e8       	ldi	r24, 0x82	; 130
    25a6:	80 93 9a 03 	sts	0x039A, r24	; 0x80039a <usart0_tx_buff+0x3>
	usart0_tx_buff[4] = addr >> 8;
    25aa:	8b 81       	ldd	r24, Y+3	; 0x03
    25ac:	9c 81       	ldd	r25, Y+4	; 0x04
    25ae:	89 2f       	mov	r24, r25
    25b0:	99 27       	eor	r25, r25
    25b2:	80 93 9b 03 	sts	0x039B, r24	; 0x80039b <usart0_tx_buff+0x4>
	usart0_tx_buff[5] = addr & 0x00FF;
    25b6:	8b 81       	ldd	r24, Y+3	; 0x03
    25b8:	80 93 9c 03 	sts	0x039C, r24	; 0x80039c <usart0_tx_buff+0x5>
	usart0_tx_buff[6] = data >> 8;
    25bc:	8d 81       	ldd	r24, Y+5	; 0x05
    25be:	9e 81       	ldd	r25, Y+6	; 0x06
    25c0:	89 2f       	mov	r24, r25
    25c2:	99 27       	eor	r25, r25
    25c4:	80 93 9d 03 	sts	0x039D, r24	; 0x80039d <usart0_tx_buff+0x6>
	usart0_tx_buff[7] = data & 0x00FF;
    25c8:	8d 81       	ldd	r24, Y+5	; 0x05
    25ca:	80 93 9e 03 	sts	0x039E, r24	; 0x80039e <usart0_tx_buff+0x7>

	crc = crc_check(usart0_tx_buff, 10);
    25ce:	6a e0       	ldi	r22, 0x0A	; 10
    25d0:	87 e9       	ldi	r24, 0x97	; 151
    25d2:	93 e0       	ldi	r25, 0x03	; 3
    25d4:	0e 94 d9 26 	call	0x4db2	; 0x4db2 <crc_check>
    25d8:	9a 83       	std	Y+2, r25	; 0x02
    25da:	89 83       	std	Y+1, r24	; 0x01

	usart0_tx_buff[8] = crc & 0x00FF;
    25dc:	89 81       	ldd	r24, Y+1	; 0x01
    25de:	80 93 9f 03 	sts	0x039F, r24	; 0x80039f <usart0_tx_buff+0x8>
	usart0_tx_buff[9] = crc >> 8;
    25e2:	89 81       	ldd	r24, Y+1	; 0x01
    25e4:	9a 81       	ldd	r25, Y+2	; 0x02
    25e6:	89 2f       	mov	r24, r25
    25e8:	99 27       	eor	r25, r25
    25ea:	80 93 a0 03 	sts	0x03A0, r24	; 0x8003a0 <usart0_tx_buff+0x9>

	usart0_send_str(usart0_tx_buff, 10);
    25ee:	6a e0       	ldi	r22, 0x0A	; 10
    25f0:	87 e9       	ldi	r24, 0x97	; 151
    25f2:	93 e0       	ldi	r25, 0x03	; 3
    25f4:	0e 94 20 26 	call	0x4c40	; 0x4c40 <usart0_send_str>
}
    25f8:	00 00       	nop
    25fa:	26 96       	adiw	r28, 0x06	; 6
    25fc:	0f b6       	in	r0, 0x3f	; 63
    25fe:	f8 94       	cli
    2600:	de bf       	out	0x3e, r29	; 62
    2602:	0f be       	out	0x3f, r0	; 63
    2604:	cd bf       	out	0x3d, r28	; 61
    2606:	df 91       	pop	r29
    2608:	cf 91       	pop	r28
    260a:	08 95       	ret

0000260c <send_name>:

void send_name(uint16_t addr, uint32_t name)
{
    260c:	cf 93       	push	r28
    260e:	df 93       	push	r29
    2610:	cd b7       	in	r28, 0x3d	; 61
    2612:	de b7       	in	r29, 0x3e	; 62
    2614:	28 97       	sbiw	r28, 0x08	; 8
    2616:	0f b6       	in	r0, 0x3f	; 63
    2618:	f8 94       	cli
    261a:	de bf       	out	0x3e, r29	; 62
    261c:	0f be       	out	0x3f, r0	; 63
    261e:	cd bf       	out	0x3d, r28	; 61
    2620:	9c 83       	std	Y+4, r25	; 0x04
    2622:	8b 83       	std	Y+3, r24	; 0x03
    2624:	4d 83       	std	Y+5, r20	; 0x05
    2626:	5e 83       	std	Y+6, r21	; 0x06
    2628:	6f 83       	std	Y+7, r22	; 0x07
    262a:	78 87       	std	Y+8, r23	; 0x08
	uint16_t crc = 0;
    262c:	1a 82       	std	Y+2, r1	; 0x02
    262e:	19 82       	std	Y+1, r1	; 0x01

	usart0_tx_buff[0] = 0xA5;
    2630:	85 ea       	ldi	r24, 0xA5	; 165
    2632:	80 93 97 03 	sts	0x0397, r24	; 0x800397 <usart0_tx_buff>
	usart0_tx_buff[1] = 0x5A;
    2636:	8a e5       	ldi	r24, 0x5A	; 90
    2638:	80 93 98 03 	sts	0x0398, r24	; 0x800398 <usart0_tx_buff+0x1>
	usart0_tx_buff[2] = 0x07;
    263c:	87 e0       	ldi	r24, 0x07	; 7
    263e:	80 93 99 03 	sts	0x0399, r24	; 0x800399 <usart0_tx_buff+0x2>
	usart0_tx_buff[3] = 0x82;
    2642:	82 e8       	ldi	r24, 0x82	; 130
    2644:	80 93 9a 03 	sts	0x039A, r24	; 0x80039a <usart0_tx_buff+0x3>
	usart0_tx_buff[4] = addr >> 8;
    2648:	8b 81       	ldd	r24, Y+3	; 0x03
    264a:	9c 81       	ldd	r25, Y+4	; 0x04
    264c:	89 2f       	mov	r24, r25
    264e:	99 27       	eor	r25, r25
    2650:	80 93 9b 03 	sts	0x039B, r24	; 0x80039b <usart0_tx_buff+0x4>
	usart0_tx_buff[5] = addr & 0x00FF;
    2654:	8b 81       	ldd	r24, Y+3	; 0x03
    2656:	80 93 9c 03 	sts	0x039C, r24	; 0x80039c <usart0_tx_buff+0x5>
	usart0_tx_buff[6] = name >> 24;
    265a:	8d 81       	ldd	r24, Y+5	; 0x05
    265c:	9e 81       	ldd	r25, Y+6	; 0x06
    265e:	af 81       	ldd	r26, Y+7	; 0x07
    2660:	b8 85       	ldd	r27, Y+8	; 0x08
    2662:	8b 2f       	mov	r24, r27
    2664:	99 27       	eor	r25, r25
    2666:	aa 27       	eor	r26, r26
    2668:	bb 27       	eor	r27, r27
    266a:	80 93 9d 03 	sts	0x039D, r24	; 0x80039d <usart0_tx_buff+0x6>
	usart0_tx_buff[7] = name >> 16;
    266e:	8d 81       	ldd	r24, Y+5	; 0x05
    2670:	9e 81       	ldd	r25, Y+6	; 0x06
    2672:	af 81       	ldd	r26, Y+7	; 0x07
    2674:	b8 85       	ldd	r27, Y+8	; 0x08
    2676:	cd 01       	movw	r24, r26
    2678:	aa 27       	eor	r26, r26
    267a:	bb 27       	eor	r27, r27
    267c:	80 93 9e 03 	sts	0x039E, r24	; 0x80039e <usart0_tx_buff+0x7>
	usart0_tx_buff[8] = name >> 8;
    2680:	8d 81       	ldd	r24, Y+5	; 0x05
    2682:	9e 81       	ldd	r25, Y+6	; 0x06
    2684:	af 81       	ldd	r26, Y+7	; 0x07
    2686:	b8 85       	ldd	r27, Y+8	; 0x08
    2688:	89 2f       	mov	r24, r25
    268a:	9a 2f       	mov	r25, r26
    268c:	ab 2f       	mov	r26, r27
    268e:	bb 27       	eor	r27, r27
    2690:	80 93 9f 03 	sts	0x039F, r24	; 0x80039f <usart0_tx_buff+0x8>
	usart0_tx_buff[9] = name;
    2694:	8d 81       	ldd	r24, Y+5	; 0x05
    2696:	80 93 a0 03 	sts	0x03A0, r24	; 0x8003a0 <usart0_tx_buff+0x9>

	crc = crc_check(usart0_tx_buff, 12);
    269a:	6c e0       	ldi	r22, 0x0C	; 12
    269c:	87 e9       	ldi	r24, 0x97	; 151
    269e:	93 e0       	ldi	r25, 0x03	; 3
    26a0:	0e 94 d9 26 	call	0x4db2	; 0x4db2 <crc_check>
    26a4:	9a 83       	std	Y+2, r25	; 0x02
    26a6:	89 83       	std	Y+1, r24	; 0x01

	usart0_tx_buff[10] = crc & 0x00FF;
    26a8:	89 81       	ldd	r24, Y+1	; 0x01
    26aa:	80 93 a1 03 	sts	0x03A1, r24	; 0x8003a1 <usart0_tx_buff+0xa>
	usart0_tx_buff[11] = crc >> 8;
    26ae:	89 81       	ldd	r24, Y+1	; 0x01
    26b0:	9a 81       	ldd	r25, Y+2	; 0x02
    26b2:	89 2f       	mov	r24, r25
    26b4:	99 27       	eor	r25, r25
    26b6:	80 93 a2 03 	sts	0x03A2, r24	; 0x8003a2 <usart0_tx_buff+0xb>

	usart0_send_str(usart0_tx_buff, 12);
    26ba:	6c e0       	ldi	r22, 0x0C	; 12
    26bc:	87 e9       	ldi	r24, 0x97	; 151
    26be:	93 e0       	ldi	r25, 0x03	; 3
    26c0:	0e 94 20 26 	call	0x4c40	; 0x4c40 <usart0_send_str>
}
    26c4:	00 00       	nop
    26c6:	28 96       	adiw	r28, 0x08	; 8
    26c8:	0f b6       	in	r0, 0x3f	; 63
    26ca:	f8 94       	cli
    26cc:	de bf       	out	0x3e, r29	; 62
    26ce:	0f be       	out	0x3f, r0	; 63
    26d0:	cd bf       	out	0x3d, r28	; 61
    26d2:	df 91       	pop	r29
    26d4:	cf 91       	pop	r28
    26d6:	08 95       	ret

000026d8 <send_to_channel>:

void send_to_channel(uint8_t ch, uint16_t value)
{
    26d8:	cf 93       	push	r28
    26da:	df 93       	push	r29
    26dc:	00 d0       	rcall	.+0      	; 0x26de <send_to_channel+0x6>
    26de:	00 d0       	rcall	.+0      	; 0x26e0 <send_to_channel+0x8>
    26e0:	1f 92       	push	r1
    26e2:	cd b7       	in	r28, 0x3d	; 61
    26e4:	de b7       	in	r29, 0x3e	; 62
    26e6:	8b 83       	std	Y+3, r24	; 0x03
    26e8:	7d 83       	std	Y+5, r23	; 0x05
    26ea:	6c 83       	std	Y+4, r22	; 0x04
	uint16_t crc = 0;
    26ec:	1a 82       	std	Y+2, r1	; 0x02
    26ee:	19 82       	std	Y+1, r1	; 0x01

	usart0_tx_buff[0] = 0xA5;
    26f0:	85 ea       	ldi	r24, 0xA5	; 165
    26f2:	80 93 97 03 	sts	0x0397, r24	; 0x800397 <usart0_tx_buff>
	usart0_tx_buff[1] = 0x5A;
    26f6:	8a e5       	ldi	r24, 0x5A	; 90
    26f8:	80 93 98 03 	sts	0x0398, r24	; 0x800398 <usart0_tx_buff+0x1>
	usart0_tx_buff[2] = 0x04;
    26fc:	84 e0       	ldi	r24, 0x04	; 4
    26fe:	80 93 99 03 	sts	0x0399, r24	; 0x800399 <usart0_tx_buff+0x2>
	usart0_tx_buff[3] = 0x84;
    2702:	84 e8       	ldi	r24, 0x84	; 132
    2704:	80 93 9a 03 	sts	0x039A, r24	; 0x80039a <usart0_tx_buff+0x3>
	usart0_tx_buff[4] = ch;
    2708:	8b 81       	ldd	r24, Y+3	; 0x03
    270a:	80 93 9b 03 	sts	0x039B, r24	; 0x80039b <usart0_tx_buff+0x4>
	usart0_tx_buff[5] = value >> 8;
    270e:	8c 81       	ldd	r24, Y+4	; 0x04
    2710:	9d 81       	ldd	r25, Y+5	; 0x05
    2712:	89 2f       	mov	r24, r25
    2714:	99 27       	eor	r25, r25
    2716:	80 93 9c 03 	sts	0x039C, r24	; 0x80039c <usart0_tx_buff+0x5>
	usart0_tx_buff[6] = value;
    271a:	8c 81       	ldd	r24, Y+4	; 0x04
    271c:	80 93 9d 03 	sts	0x039D, r24	; 0x80039d <usart0_tx_buff+0x6>

	crc = crc_check(usart0_tx_buff, 9);
    2720:	69 e0       	ldi	r22, 0x09	; 9
    2722:	87 e9       	ldi	r24, 0x97	; 151
    2724:	93 e0       	ldi	r25, 0x03	; 3
    2726:	0e 94 d9 26 	call	0x4db2	; 0x4db2 <crc_check>
    272a:	9a 83       	std	Y+2, r25	; 0x02
    272c:	89 83       	std	Y+1, r24	; 0x01

	usart0_tx_buff[7] = crc & 0x00FF;
    272e:	89 81       	ldd	r24, Y+1	; 0x01
    2730:	80 93 9e 03 	sts	0x039E, r24	; 0x80039e <usart0_tx_buff+0x7>
	usart0_tx_buff[8] = crc >> 8;
    2734:	89 81       	ldd	r24, Y+1	; 0x01
    2736:	9a 81       	ldd	r25, Y+2	; 0x02
    2738:	89 2f       	mov	r24, r25
    273a:	99 27       	eor	r25, r25
    273c:	80 93 9f 03 	sts	0x039F, r24	; 0x80039f <usart0_tx_buff+0x8>

	usart0_send_str(usart0_tx_buff, 9);
    2740:	69 e0       	ldi	r22, 0x09	; 9
    2742:	87 e9       	ldi	r24, 0x97	; 151
    2744:	93 e0       	ldi	r25, 0x03	; 3
    2746:	0e 94 20 26 	call	0x4c40	; 0x4c40 <usart0_send_str>
}
    274a:	00 00       	nop
    274c:	0f 90       	pop	r0
    274e:	0f 90       	pop	r0
    2750:	0f 90       	pop	r0
    2752:	0f 90       	pop	r0
    2754:	0f 90       	pop	r0
    2756:	df 91       	pop	r29
    2758:	cf 91       	pop	r28
    275a:	08 95       	ret

0000275c <send_alarm_msg>:

void send_alarm_msg(uint8_t type, uint8_t msg_num, uint16_t sen_num)
{
    275c:	cf 93       	push	r28
    275e:	df 93       	push	r29
    2760:	cd b7       	in	r28, 0x3d	; 61
    2762:	de b7       	in	r29, 0x3e	; 62
    2764:	29 97       	sbiw	r28, 0x09	; 9
    2766:	0f b6       	in	r0, 0x3f	; 63
    2768:	f8 94       	cli
    276a:	de bf       	out	0x3e, r29	; 62
    276c:	0f be       	out	0x3f, r0	; 63
    276e:	cd bf       	out	0x3d, r28	; 61
    2770:	8e 83       	std	Y+6, r24	; 0x06
    2772:	6f 83       	std	Y+7, r22	; 0x07
    2774:	59 87       	std	Y+9, r21	; 0x09
    2776:	48 87       	std	Y+8, r20	; 0x08
	uint8_t i = 0;
    2778:	19 82       	std	Y+1, r1	; 0x01
	uint16_t crc = 0;
    277a:	1d 82       	std	Y+5, r1	; 0x05
    277c:	1c 82       	std	Y+4, r1	; 0x04
	uint16_t sensor_num = 0;
    277e:	1b 82       	std	Y+3, r1	; 0x03
    2780:	1a 82       	std	Y+2, r1	; 0x02

	usart0_tx_buff[0] = 0xA5;
    2782:	85 ea       	ldi	r24, 0xA5	; 165
    2784:	80 93 97 03 	sts	0x0397, r24	; 0x800397 <usart0_tx_buff>
	usart0_tx_buff[1] = 0x5A;
    2788:	8a e5       	ldi	r24, 0x5A	; 90
    278a:	80 93 98 03 	sts	0x0398, r24	; 0x800398 <usart0_tx_buff+0x1>
	usart0_tx_buff[2] = 0x13;
    278e:	83 e1       	ldi	r24, 0x13	; 19
    2790:	80 93 99 03 	sts	0x0399, r24	; 0x800399 <usart0_tx_buff+0x2>
	usart0_tx_buff[3] = 0x82;
    2794:	82 e8       	ldi	r24, 0x82	; 130
    2796:	80 93 9a 03 	sts	0x039A, r24	; 0x80039a <usart0_tx_buff+0x3>
	usart0_tx_buff[4] = (ALAEM_MSG1_ADDR + (msg_num * 16)) >> 8;
    279a:	8f 81       	ldd	r24, Y+7	; 0x07
    279c:	88 2f       	mov	r24, r24
    279e:	90 e0       	ldi	r25, 0x00	; 0
    27a0:	8b 96       	adiw	r24, 0x2b	; 43
    27a2:	82 95       	swap	r24
    27a4:	92 95       	swap	r25
    27a6:	90 7f       	andi	r25, 0xF0	; 240
    27a8:	98 27       	eor	r25, r24
    27aa:	80 7f       	andi	r24, 0xF0	; 240
    27ac:	98 27       	eor	r25, r24
    27ae:	89 2f       	mov	r24, r25
    27b0:	99 0f       	add	r25, r25
    27b2:	99 0b       	sbc	r25, r25
    27b4:	80 93 9b 03 	sts	0x039B, r24	; 0x80039b <usart0_tx_buff+0x4>
	usart0_tx_buff[5] = (ALAEM_MSG1_ADDR + (msg_num * 16)) & 0x00FF;
    27b8:	8f 81       	ldd	r24, Y+7	; 0x07
    27ba:	88 2f       	mov	r24, r24
    27bc:	90 e0       	ldi	r25, 0x00	; 0
    27be:	8b 96       	adiw	r24, 0x2b	; 43
    27c0:	82 95       	swap	r24
    27c2:	80 7f       	andi	r24, 0xF0	; 240
    27c4:	80 93 9c 03 	sts	0x039C, r24	; 0x80039c <usart0_tx_buff+0x5>

	for (i = 0; i < 16; i++)
    27c8:	19 82       	std	Y+1, r1	; 0x01
    27ca:	1d c0       	rjmp	.+58     	; 0x2806 <send_alarm_msg+0xaa>
	{
		usart0_tx_buff[i + 6] = alarm_msg[type][i];
    27cc:	89 81       	ldd	r24, Y+1	; 0x01
    27ce:	88 2f       	mov	r24, r24
    27d0:	90 e0       	ldi	r25, 0x00	; 0
    27d2:	06 96       	adiw	r24, 0x06	; 6
    27d4:	2e 81       	ldd	r18, Y+6	; 0x06
    27d6:	42 2f       	mov	r20, r18
    27d8:	50 e0       	ldi	r21, 0x00	; 0
    27da:	29 81       	ldd	r18, Y+1	; 0x01
    27dc:	22 2f       	mov	r18, r18
    27de:	30 e0       	ldi	r19, 0x00	; 0
    27e0:	42 95       	swap	r20
    27e2:	52 95       	swap	r21
    27e4:	50 7f       	andi	r21, 0xF0	; 240
    27e6:	54 27       	eor	r21, r20
    27e8:	40 7f       	andi	r20, 0xF0	; 240
    27ea:	54 27       	eor	r21, r20
    27ec:	24 0f       	add	r18, r20
    27ee:	35 1f       	adc	r19, r21
    27f0:	2a 5f       	subi	r18, 0xFA	; 250
    27f2:	3e 4f       	sbci	r19, 0xFE	; 254
    27f4:	f9 01       	movw	r30, r18
    27f6:	20 81       	ld	r18, Z
    27f8:	89 56       	subi	r24, 0x69	; 105
    27fa:	9c 4f       	sbci	r25, 0xFC	; 252
    27fc:	fc 01       	movw	r30, r24
    27fe:	20 83       	st	Z, r18
	usart0_tx_buff[2] = 0x13;
	usart0_tx_buff[3] = 0x82;
	usart0_tx_buff[4] = (ALAEM_MSG1_ADDR + (msg_num * 16)) >> 8;
	usart0_tx_buff[5] = (ALAEM_MSG1_ADDR + (msg_num * 16)) & 0x00FF;

	for (i = 0; i < 16; i++)
    2800:	89 81       	ldd	r24, Y+1	; 0x01
    2802:	8f 5f       	subi	r24, 0xFF	; 255
    2804:	89 83       	std	Y+1, r24	; 0x01
    2806:	89 81       	ldd	r24, Y+1	; 0x01
    2808:	80 31       	cpi	r24, 0x10	; 16
    280a:	00 f3       	brcs	.-64     	; 0x27cc <send_alarm_msg+0x70>
	{
		usart0_tx_buff[i + 6] = alarm_msg[type][i];
	}

	crc = crc_check(usart0_tx_buff, 24);
    280c:	68 e1       	ldi	r22, 0x18	; 24
    280e:	87 e9       	ldi	r24, 0x97	; 151
    2810:	93 e0       	ldi	r25, 0x03	; 3
    2812:	0e 94 d9 26 	call	0x4db2	; 0x4db2 <crc_check>
    2816:	9d 83       	std	Y+5, r25	; 0x05
    2818:	8c 83       	std	Y+4, r24	; 0x04

	usart0_tx_buff[22] = crc & 0x00FF;
    281a:	8c 81       	ldd	r24, Y+4	; 0x04
    281c:	80 93 ad 03 	sts	0x03AD, r24	; 0x8003ad <usart0_tx_buff+0x16>
	usart0_tx_buff[23] = crc >> 8;
    2820:	8c 81       	ldd	r24, Y+4	; 0x04
    2822:	9d 81       	ldd	r25, Y+5	; 0x05
    2824:	89 2f       	mov	r24, r25
    2826:	99 27       	eor	r25, r25
    2828:	80 93 ae 03 	sts	0x03AE, r24	; 0x8003ae <usart0_tx_buff+0x17>

	usart0_send_str(usart0_tx_buff, 24);
    282c:	68 e1       	ldi	r22, 0x18	; 24
    282e:	87 e9       	ldi	r24, 0x97	; 151
    2830:	93 e0       	ldi	r25, 0x03	; 3
    2832:	0e 94 20 26 	call	0x4c40	; 0x4c40 <usart0_send_str>

	if (sen_num <= 8)
    2836:	88 85       	ldd	r24, Y+8	; 0x08
    2838:	99 85       	ldd	r25, Y+9	; 0x09
    283a:	09 97       	sbiw	r24, 0x09	; 9
    283c:	38 f4       	brcc	.+14     	; 0x284c <send_alarm_msg+0xf0>
	{
		sensor_num = 0x2300 | (sen_num + 49);
    283e:	88 85       	ldd	r24, Y+8	; 0x08
    2840:	99 85       	ldd	r25, Y+9	; 0x09
    2842:	c1 96       	adiw	r24, 0x31	; 49
    2844:	93 62       	ori	r25, 0x23	; 35
    2846:	9b 83       	std	Y+3, r25	; 0x03
    2848:	8a 83       	std	Y+2, r24	; 0x02
    284a:	06 c0       	rjmp	.+12     	; 0x2858 <send_alarm_msg+0xfc>
	}
	else
	{
		sensor_num = 0x2300 | (sen_num + 56);
    284c:	88 85       	ldd	r24, Y+8	; 0x08
    284e:	99 85       	ldd	r25, Y+9	; 0x09
    2850:	c8 96       	adiw	r24, 0x38	; 56
    2852:	93 62       	ori	r25, 0x23	; 35
    2854:	9b 83       	std	Y+3, r25	; 0x03
    2856:	8a 83       	std	Y+2, r24	; 0x02
	}

	send_variables(ALARM_DEVICE_NUM1_ADDR + (msg_num * 2), sensor_num);
    2858:	8f 81       	ldd	r24, Y+7	; 0x07
    285a:	88 2f       	mov	r24, r24
    285c:	90 e0       	ldi	r25, 0x00	; 0
    285e:	80 57       	subi	r24, 0x70	; 112
    2860:	9e 4f       	sbci	r25, 0xFE	; 254
    2862:	88 0f       	add	r24, r24
    2864:	99 1f       	adc	r25, r25
    2866:	9c 01       	movw	r18, r24
    2868:	8a 81       	ldd	r24, Y+2	; 0x02
    286a:	9b 81       	ldd	r25, Y+3	; 0x03
    286c:	bc 01       	movw	r22, r24
    286e:	c9 01       	movw	r24, r18
    2870:	0e 94 bc 12 	call	0x2578	; 0x2578 <send_variables>
}
    2874:	00 00       	nop
    2876:	29 96       	adiw	r28, 0x09	; 9
    2878:	0f b6       	in	r0, 0x3f	; 63
    287a:	f8 94       	cli
    287c:	de bf       	out	0x3e, r29	; 62
    287e:	0f be       	out	0x3f, r0	; 63
    2880:	cd bf       	out	0x3d, r28	; 61
    2882:	df 91       	pop	r29
    2884:	cf 91       	pop	r28
    2886:	08 95       	ret

00002888 <read_setting_data_all>:

/* 依次读取三块主控板设定数据 */
void read_setting_data_all(void)
{
    2888:	0f 93       	push	r16
    288a:	1f 93       	push	r17
    288c:	cf 93       	push	r28
    288e:	df 93       	push	r29
    2890:	00 d0       	rcall	.+0      	; 0x2892 <read_setting_data_all+0xa>
    2892:	cd b7       	in	r28, 0x3d	; 61
    2894:	de b7       	in	r29, 0x3e	; 62
	uint8_t i, j; //i:板号   j：通道号

	for (i = 0; i < TEMP_CTRL_BOARD_QUANTITY; i++)
    2896:	19 82       	std	Y+1, r1	; 0x01
    2898:	33 c0       	rjmp	.+102    	; 0x2900 <read_setting_data_all+0x78>
	{
		ctrl_board_sta[i] = read_setting_data(i+1);
    289a:	89 81       	ldd	r24, Y+1	; 0x01
    289c:	08 2f       	mov	r16, r24
    289e:	10 e0       	ldi	r17, 0x00	; 0
    28a0:	89 81       	ldd	r24, Y+1	; 0x01
    28a2:	8f 5f       	subi	r24, 0xFF	; 255
    28a4:	0e 94 8b 14 	call	0x2916	; 0x2916 <read_setting_data>
    28a8:	28 2f       	mov	r18, r24
    28aa:	c8 01       	movw	r24, r16
    28ac:	8f 55       	subi	r24, 0x5F	; 95
    28ae:	9e 4f       	sbci	r25, 0xFE	; 254
    28b0:	fc 01       	movw	r30, r24
    28b2:	20 83       	st	Z, r18

		if (ctrl_board_sta[i] == 0)
    28b4:	89 81       	ldd	r24, Y+1	; 0x01
    28b6:	88 2f       	mov	r24, r24
    28b8:	90 e0       	ldi	r25, 0x00	; 0
    28ba:	8f 55       	subi	r24, 0x5F	; 95
    28bc:	9e 4f       	sbci	r25, 0xFE	; 254
    28be:	fc 01       	movw	r30, r24
    28c0:	80 81       	ld	r24, Z
    28c2:	88 23       	and	r24, r24
    28c4:	d1 f4       	brne	.+52     	; 0x28fa <read_setting_data_all+0x72>
		{
			for (j = 0; j < 4; j++)
    28c6:	1a 82       	std	Y+2, r1	; 0x02
    28c8:	15 c0       	rjmp	.+42     	; 0x28f4 <read_setting_data_all+0x6c>
			{
				sensor_sta[i * 4 + j] = 3;
    28ca:	89 81       	ldd	r24, Y+1	; 0x01
    28cc:	88 2f       	mov	r24, r24
    28ce:	90 e0       	ldi	r25, 0x00	; 0
    28d0:	9c 01       	movw	r18, r24
    28d2:	22 0f       	add	r18, r18
    28d4:	33 1f       	adc	r19, r19
    28d6:	22 0f       	add	r18, r18
    28d8:	33 1f       	adc	r19, r19
    28da:	8a 81       	ldd	r24, Y+2	; 0x02
    28dc:	88 2f       	mov	r24, r24
    28de:	90 e0       	ldi	r25, 0x00	; 0
    28e0:	82 0f       	add	r24, r18
    28e2:	93 1f       	adc	r25, r19
    28e4:	81 54       	subi	r24, 0x41	; 65
    28e6:	9e 4f       	sbci	r25, 0xFE	; 254
    28e8:	23 e0       	ldi	r18, 0x03	; 3
    28ea:	fc 01       	movw	r30, r24
    28ec:	20 83       	st	Z, r18
	{
		ctrl_board_sta[i] = read_setting_data(i+1);

		if (ctrl_board_sta[i] == 0)
		{
			for (j = 0; j < 4; j++)
    28ee:	8a 81       	ldd	r24, Y+2	; 0x02
    28f0:	8f 5f       	subi	r24, 0xFF	; 255
    28f2:	8a 83       	std	Y+2, r24	; 0x02
    28f4:	8a 81       	ldd	r24, Y+2	; 0x02
    28f6:	84 30       	cpi	r24, 0x04	; 4
    28f8:	40 f3       	brcs	.-48     	; 0x28ca <read_setting_data_all+0x42>
/* 依次读取三块主控板设定数据 */
void read_setting_data_all(void)
{
	uint8_t i, j; //i:板号   j：通道号

	for (i = 0; i < TEMP_CTRL_BOARD_QUANTITY; i++)
    28fa:	89 81       	ldd	r24, Y+1	; 0x01
    28fc:	8f 5f       	subi	r24, 0xFF	; 255
    28fe:	89 83       	std	Y+1, r24	; 0x01
    2900:	89 81       	ldd	r24, Y+1	; 0x01
    2902:	86 30       	cpi	r24, 0x06	; 6
    2904:	50 f2       	brcs	.-108    	; 0x289a <read_setting_data_all+0x12>
			{
				sensor_sta[i * 4 + j] = 3;
			}
		}
	}
}
    2906:	00 00       	nop
    2908:	0f 90       	pop	r0
    290a:	0f 90       	pop	r0
    290c:	df 91       	pop	r29
    290e:	cf 91       	pop	r28
    2910:	1f 91       	pop	r17
    2912:	0f 91       	pop	r16
    2914:	08 95       	ret

00002916 <read_setting_data>:
/*
*功能：读取一块主控板设定数据
*返回数据：0:断线 1:连接（收到数据）
*/
uint8_t read_setting_data(uint8_t addr)
{
    2916:	cf 93       	push	r28
    2918:	df 93       	push	r29
    291a:	00 d0       	rcall	.+0      	; 0x291c <read_setting_data+0x6>
    291c:	00 d0       	rcall	.+0      	; 0x291e <read_setting_data+0x8>
    291e:	1f 92       	push	r1
    2920:	cd b7       	in	r28, 0x3d	; 61
    2922:	de b7       	in	r29, 0x3e	; 62
    2924:	8d 83       	std	Y+5, r24	; 0x05
	uint8_t board_sta = 0;
    2926:	19 82       	std	Y+1, r1	; 0x01
	uint16_t crc = 0;
    2928:	1c 82       	std	Y+4, r1	; 0x04
    292a:	1b 82       	std	Y+3, r1	; 0x03
	uint8_t i;
	read_setting_data_mask = 0;
    292c:	10 92 be 02 	sts	0x02BE, r1	; 0x8002be <read_setting_data_mask>
	read_setting_data_cnt = 0;
    2930:	10 92 bf 02 	sts	0x02BF, r1	; 0x8002bf <read_setting_data_cnt>

	for (i = 1; i < 5; i++)
    2934:	81 e0       	ldi	r24, 0x01	; 1
    2936:	8a 83       	std	Y+2, r24	; 0x02
    2938:	55 c0       	rjmp	.+170    	; 0x29e4 <read_setting_data+0xce>
	{
		usart1_tx_buff[0] = 0xA5;
    293a:	85 ea       	ldi	r24, 0xA5	; 165
    293c:	80 93 2a 05 	sts	0x052A, r24	; 0x80052a <usart1_tx_buff>
		usart1_tx_buff[1] = 0x5A;
    2940:	8a e5       	ldi	r24, 0x5A	; 90
    2942:	80 93 2b 05 	sts	0x052B, r24	; 0x80052b <usart1_tx_buff+0x1>
		usart1_tx_buff[2] = 0x02;
    2946:	82 e0       	ldi	r24, 0x02	; 2
    2948:	80 93 2c 05 	sts	0x052C, r24	; 0x80052c <usart1_tx_buff+0x2>
		usart1_tx_buff[3] = READ_SETTING_DATA;
    294c:	87 e0       	ldi	r24, 0x07	; 7
    294e:	80 93 2d 05 	sts	0x052D, r24	; 0x80052d <usart1_tx_buff+0x3>
		usart1_tx_buff[4] = (addr << 4) + i;
    2952:	8d 81       	ldd	r24, Y+5	; 0x05
    2954:	98 2f       	mov	r25, r24
    2956:	92 95       	swap	r25
    2958:	90 7f       	andi	r25, 0xF0	; 240
    295a:	8a 81       	ldd	r24, Y+2	; 0x02
    295c:	89 0f       	add	r24, r25
    295e:	80 93 2e 05 	sts	0x052E, r24	; 0x80052e <usart1_tx_buff+0x4>

		crc = crc_check(usart1_tx_buff, 7);
    2962:	67 e0       	ldi	r22, 0x07	; 7
    2964:	8a e2       	ldi	r24, 0x2A	; 42
    2966:	95 e0       	ldi	r25, 0x05	; 5
    2968:	0e 94 d9 26 	call	0x4db2	; 0x4db2 <crc_check>
    296c:	9c 83       	std	Y+4, r25	; 0x04
    296e:	8b 83       	std	Y+3, r24	; 0x03

		usart1_tx_buff[5] = crc & 0x00FF;
    2970:	8b 81       	ldd	r24, Y+3	; 0x03
    2972:	80 93 2f 05 	sts	0x052F, r24	; 0x80052f <usart1_tx_buff+0x5>
		usart1_tx_buff[6] = crc >> 8;
    2976:	8b 81       	ldd	r24, Y+3	; 0x03
    2978:	9c 81       	ldd	r25, Y+4	; 0x04
    297a:	89 2f       	mov	r24, r25
    297c:	99 27       	eor	r25, r25
    297e:	80 93 30 05 	sts	0x0530, r24	; 0x800530 <usart1_tx_buff+0x6>

		usart1_send_str(usart1_tx_buff, 7);
    2982:	67 e0       	ldi	r22, 0x07	; 7
    2984:	8a e2       	ldi	r24, 0x2A	; 42
    2986:	95 e0       	ldi	r25, 0x05	; 5
    2988:	0e 94 61 26 	call	0x4cc2	; 0x4cc2 <usart1_send_str>

		while (read_setting_data_mask != 1)
    298c:	20 c0       	rjmp	.+64     	; 0x29ce <read_setting_data+0xb8>
		{
			if (usart1_rx_end)
    298e:	80 91 f2 05 	lds	r24, 0x05F2	; 0x8005f2 <usart1_rx_end>
    2992:	88 23       	and	r24, r24
    2994:	e1 f0       	breq	.+56     	; 0x29ce <read_setting_data+0xb8>
			{
				usart1_deal();
    2996:	0e 94 a8 25 	call	0x4b50	; 0x4b50 <usart1_deal>
				usart1_rx_end = 0;
    299a:	10 92 f2 05 	sts	0x05F2, r1	; 0x8005f2 <usart1_rx_end>

				if (usart1_rx_buff[4] == ((addr << 4) + i))
    299e:	80 91 66 04 	lds	r24, 0x0466	; 0x800466 <usart1_rx_buff+0x4>
    29a2:	28 2f       	mov	r18, r24
    29a4:	30 e0       	ldi	r19, 0x00	; 0
    29a6:	8d 81       	ldd	r24, Y+5	; 0x05
    29a8:	88 2f       	mov	r24, r24
    29aa:	90 e0       	ldi	r25, 0x00	; 0
    29ac:	ac 01       	movw	r20, r24
    29ae:	42 95       	swap	r20
    29b0:	52 95       	swap	r21
    29b2:	50 7f       	andi	r21, 0xF0	; 240
    29b4:	54 27       	eor	r21, r20
    29b6:	40 7f       	andi	r20, 0xF0	; 240
    29b8:	54 27       	eor	r21, r20
    29ba:	8a 81       	ldd	r24, Y+2	; 0x02
    29bc:	88 2f       	mov	r24, r24
    29be:	90 e0       	ldi	r25, 0x00	; 0
    29c0:	84 0f       	add	r24, r20
    29c2:	95 1f       	adc	r25, r21
    29c4:	28 17       	cp	r18, r24
    29c6:	39 07       	cpc	r19, r25
    29c8:	11 f4       	brne	.+4      	; 0x29ce <read_setting_data+0xb8>
				{
					board_sta = 1;
    29ca:	81 e0       	ldi	r24, 0x01	; 1
    29cc:	89 83       	std	Y+1, r24	; 0x01
		usart1_tx_buff[5] = crc & 0x00FF;
		usart1_tx_buff[6] = crc >> 8;

		usart1_send_str(usart1_tx_buff, 7);

		while (read_setting_data_mask != 1)
    29ce:	80 91 be 02 	lds	r24, 0x02BE	; 0x8002be <read_setting_data_mask>
    29d2:	81 30       	cpi	r24, 0x01	; 1
    29d4:	e1 f6       	brne	.-72     	; 0x298e <read_setting_data+0x78>
				{
					board_sta = 1;
				}
			}
		}
		read_setting_data_mask = 0;
    29d6:	10 92 be 02 	sts	0x02BE, r1	; 0x8002be <read_setting_data_mask>
		read_setting_data_cnt = 0;
    29da:	10 92 bf 02 	sts	0x02BF, r1	; 0x8002bf <read_setting_data_cnt>
	uint16_t crc = 0;
	uint8_t i;
	read_setting_data_mask = 0;
	read_setting_data_cnt = 0;

	for (i = 1; i < 5; i++)
    29de:	8a 81       	ldd	r24, Y+2	; 0x02
    29e0:	8f 5f       	subi	r24, 0xFF	; 255
    29e2:	8a 83       	std	Y+2, r24	; 0x02
    29e4:	8a 81       	ldd	r24, Y+2	; 0x02
    29e6:	85 30       	cpi	r24, 0x05	; 5
    29e8:	08 f4       	brcc	.+2      	; 0x29ec <read_setting_data+0xd6>
    29ea:	a7 cf       	rjmp	.-178    	; 0x293a <read_setting_data+0x24>
			}
		}
		read_setting_data_mask = 0;
		read_setting_data_cnt = 0;
	}
	return board_sta;
    29ec:	89 81       	ldd	r24, Y+1	; 0x01
}
    29ee:	0f 90       	pop	r0
    29f0:	0f 90       	pop	r0
    29f2:	0f 90       	pop	r0
    29f4:	0f 90       	pop	r0
    29f6:	0f 90       	pop	r0
    29f8:	df 91       	pop	r29
    29fa:	cf 91       	pop	r28
    29fc:	08 95       	ret

000029fe <get_setting_data>:
void get_setting_data(uint8_t addr)
{
    29fe:	cf 93       	push	r28
    2a00:	df 93       	push	r29
    2a02:	00 d0       	rcall	.+0      	; 0x2a04 <get_setting_data+0x6>
    2a04:	1f 92       	push	r1
    2a06:	cd b7       	in	r28, 0x3d	; 61
    2a08:	de b7       	in	r29, 0x3e	; 62
    2a0a:	8b 83       	std	Y+3, r24	; 0x03
	uint8_t i;
	uint8_t iqr_num = ((addr >> 4) - 1) * 4 + (addr & 0x0F) - 1;
    2a0c:	8b 81       	ldd	r24, Y+3	; 0x03
    2a0e:	82 95       	swap	r24
    2a10:	8f 70       	andi	r24, 0x0F	; 15
    2a12:	88 2f       	mov	r24, r24
    2a14:	90 e0       	ldi	r25, 0x00	; 0
    2a16:	01 97       	sbiw	r24, 0x01	; 1
    2a18:	98 2f       	mov	r25, r24
    2a1a:	99 0f       	add	r25, r25
    2a1c:	99 0f       	add	r25, r25
    2a1e:	8b 81       	ldd	r24, Y+3	; 0x03
    2a20:	8f 70       	andi	r24, 0x0F	; 15
    2a22:	89 0f       	add	r24, r25
    2a24:	81 50       	subi	r24, 0x01	; 1
    2a26:	8a 83       	std	Y+2, r24	; 0x02

	set_name[iqr_num] = usart1_rx_buff[5];
    2a28:	8a 81       	ldd	r24, Y+2	; 0x02
    2a2a:	28 2f       	mov	r18, r24
    2a2c:	30 e0       	ldi	r19, 0x00	; 0
    2a2e:	80 91 67 04 	lds	r24, 0x0467	; 0x800467 <usart1_rx_buff+0x5>
    2a32:	88 2f       	mov	r24, r24
    2a34:	90 e0       	ldi	r25, 0x00	; 0
    2a36:	a0 e0       	ldi	r26, 0x00	; 0
    2a38:	b0 e0       	ldi	r27, 0x00	; 0
    2a3a:	22 0f       	add	r18, r18
    2a3c:	33 1f       	adc	r19, r19
    2a3e:	22 0f       	add	r18, r18
    2a40:	33 1f       	adc	r19, r19
    2a42:	22 5c       	subi	r18, 0xC2	; 194
    2a44:	36 4f       	sbci	r19, 0xF6	; 246
    2a46:	f9 01       	movw	r30, r18
    2a48:	80 83       	st	Z, r24
    2a4a:	91 83       	std	Z+1, r25	; 0x01
    2a4c:	a2 83       	std	Z+2, r26	; 0x02
    2a4e:	b3 83       	std	Z+3, r27	; 0x03
	set_name[iqr_num] = (set_name[iqr_num] << 8) | usart1_rx_buff[6];
    2a50:	8a 81       	ldd	r24, Y+2	; 0x02
    2a52:	68 2f       	mov	r22, r24
    2a54:	70 e0       	ldi	r23, 0x00	; 0
    2a56:	8a 81       	ldd	r24, Y+2	; 0x02
    2a58:	88 2f       	mov	r24, r24
    2a5a:	90 e0       	ldi	r25, 0x00	; 0
    2a5c:	88 0f       	add	r24, r24
    2a5e:	99 1f       	adc	r25, r25
    2a60:	88 0f       	add	r24, r24
    2a62:	99 1f       	adc	r25, r25
    2a64:	82 5c       	subi	r24, 0xC2	; 194
    2a66:	96 4f       	sbci	r25, 0xF6	; 246
    2a68:	fc 01       	movw	r30, r24
    2a6a:	80 81       	ld	r24, Z
    2a6c:	91 81       	ldd	r25, Z+1	; 0x01
    2a6e:	a2 81       	ldd	r26, Z+2	; 0x02
    2a70:	b3 81       	ldd	r27, Z+3	; 0x03
    2a72:	22 27       	eor	r18, r18
    2a74:	38 2f       	mov	r19, r24
    2a76:	49 2f       	mov	r20, r25
    2a78:	5a 2f       	mov	r21, r26
    2a7a:	80 91 68 04 	lds	r24, 0x0468	; 0x800468 <usart1_rx_buff+0x6>
    2a7e:	88 2f       	mov	r24, r24
    2a80:	90 e0       	ldi	r25, 0x00	; 0
    2a82:	a0 e0       	ldi	r26, 0x00	; 0
    2a84:	b0 e0       	ldi	r27, 0x00	; 0
    2a86:	82 2b       	or	r24, r18
    2a88:	93 2b       	or	r25, r19
    2a8a:	a4 2b       	or	r26, r20
    2a8c:	b5 2b       	or	r27, r21
    2a8e:	9b 01       	movw	r18, r22
    2a90:	22 0f       	add	r18, r18
    2a92:	33 1f       	adc	r19, r19
    2a94:	22 0f       	add	r18, r18
    2a96:	33 1f       	adc	r19, r19
    2a98:	22 5c       	subi	r18, 0xC2	; 194
    2a9a:	36 4f       	sbci	r19, 0xF6	; 246
    2a9c:	f9 01       	movw	r30, r18
    2a9e:	80 83       	st	Z, r24
    2aa0:	91 83       	std	Z+1, r25	; 0x01
    2aa2:	a2 83       	std	Z+2, r26	; 0x02
    2aa4:	b3 83       	std	Z+3, r27	; 0x03
	set_name[iqr_num] = (set_name[iqr_num] << 8) | usart1_rx_buff[7];
    2aa6:	8a 81       	ldd	r24, Y+2	; 0x02
    2aa8:	68 2f       	mov	r22, r24
    2aaa:	70 e0       	ldi	r23, 0x00	; 0
    2aac:	8a 81       	ldd	r24, Y+2	; 0x02
    2aae:	88 2f       	mov	r24, r24
    2ab0:	90 e0       	ldi	r25, 0x00	; 0
    2ab2:	88 0f       	add	r24, r24
    2ab4:	99 1f       	adc	r25, r25
    2ab6:	88 0f       	add	r24, r24
    2ab8:	99 1f       	adc	r25, r25
    2aba:	82 5c       	subi	r24, 0xC2	; 194
    2abc:	96 4f       	sbci	r25, 0xF6	; 246
    2abe:	fc 01       	movw	r30, r24
    2ac0:	80 81       	ld	r24, Z
    2ac2:	91 81       	ldd	r25, Z+1	; 0x01
    2ac4:	a2 81       	ldd	r26, Z+2	; 0x02
    2ac6:	b3 81       	ldd	r27, Z+3	; 0x03
    2ac8:	22 27       	eor	r18, r18
    2aca:	38 2f       	mov	r19, r24
    2acc:	49 2f       	mov	r20, r25
    2ace:	5a 2f       	mov	r21, r26
    2ad0:	80 91 69 04 	lds	r24, 0x0469	; 0x800469 <usart1_rx_buff+0x7>
    2ad4:	88 2f       	mov	r24, r24
    2ad6:	90 e0       	ldi	r25, 0x00	; 0
    2ad8:	a0 e0       	ldi	r26, 0x00	; 0
    2ada:	b0 e0       	ldi	r27, 0x00	; 0
    2adc:	82 2b       	or	r24, r18
    2ade:	93 2b       	or	r25, r19
    2ae0:	a4 2b       	or	r26, r20
    2ae2:	b5 2b       	or	r27, r21
    2ae4:	9b 01       	movw	r18, r22
    2ae6:	22 0f       	add	r18, r18
    2ae8:	33 1f       	adc	r19, r19
    2aea:	22 0f       	add	r18, r18
    2aec:	33 1f       	adc	r19, r19
    2aee:	22 5c       	subi	r18, 0xC2	; 194
    2af0:	36 4f       	sbci	r19, 0xF6	; 246
    2af2:	f9 01       	movw	r30, r18
    2af4:	80 83       	st	Z, r24
    2af6:	91 83       	std	Z+1, r25	; 0x01
    2af8:	a2 83       	std	Z+2, r26	; 0x02
    2afa:	b3 83       	std	Z+3, r27	; 0x03
	set_name[iqr_num] = (set_name[iqr_num] << 8) | usart1_rx_buff[8];
    2afc:	8a 81       	ldd	r24, Y+2	; 0x02
    2afe:	68 2f       	mov	r22, r24
    2b00:	70 e0       	ldi	r23, 0x00	; 0
    2b02:	8a 81       	ldd	r24, Y+2	; 0x02
    2b04:	88 2f       	mov	r24, r24
    2b06:	90 e0       	ldi	r25, 0x00	; 0
    2b08:	88 0f       	add	r24, r24
    2b0a:	99 1f       	adc	r25, r25
    2b0c:	88 0f       	add	r24, r24
    2b0e:	99 1f       	adc	r25, r25
    2b10:	82 5c       	subi	r24, 0xC2	; 194
    2b12:	96 4f       	sbci	r25, 0xF6	; 246
    2b14:	fc 01       	movw	r30, r24
    2b16:	80 81       	ld	r24, Z
    2b18:	91 81       	ldd	r25, Z+1	; 0x01
    2b1a:	a2 81       	ldd	r26, Z+2	; 0x02
    2b1c:	b3 81       	ldd	r27, Z+3	; 0x03
    2b1e:	22 27       	eor	r18, r18
    2b20:	38 2f       	mov	r19, r24
    2b22:	49 2f       	mov	r20, r25
    2b24:	5a 2f       	mov	r21, r26
    2b26:	80 91 6a 04 	lds	r24, 0x046A	; 0x80046a <usart1_rx_buff+0x8>
    2b2a:	88 2f       	mov	r24, r24
    2b2c:	90 e0       	ldi	r25, 0x00	; 0
    2b2e:	a0 e0       	ldi	r26, 0x00	; 0
    2b30:	b0 e0       	ldi	r27, 0x00	; 0
    2b32:	82 2b       	or	r24, r18
    2b34:	93 2b       	or	r25, r19
    2b36:	a4 2b       	or	r26, r20
    2b38:	b5 2b       	or	r27, r21
    2b3a:	9b 01       	movw	r18, r22
    2b3c:	22 0f       	add	r18, r18
    2b3e:	33 1f       	adc	r19, r19
    2b40:	22 0f       	add	r18, r18
    2b42:	33 1f       	adc	r19, r19
    2b44:	22 5c       	subi	r18, 0xC2	; 194
    2b46:	36 4f       	sbci	r19, 0xF6	; 246
    2b48:	f9 01       	movw	r30, r18
    2b4a:	80 83       	st	Z, r24
    2b4c:	91 83       	std	Z+1, r25	; 0x01
    2b4e:	a2 83       	std	Z+2, r26	; 0x02
    2b50:	b3 83       	std	Z+3, r27	; 0x03

	set_temp[iqr_num] = usart1_rx_buff[9];
    2b52:	8a 81       	ldd	r24, Y+2	; 0x02
    2b54:	88 2f       	mov	r24, r24
    2b56:	90 e0       	ldi	r25, 0x00	; 0
    2b58:	20 91 6b 04 	lds	r18, 0x046B	; 0x80046b <usart1_rx_buff+0x9>
    2b5c:	22 2f       	mov	r18, r18
    2b5e:	30 e0       	ldi	r19, 0x00	; 0
    2b60:	88 0f       	add	r24, r24
    2b62:	99 1f       	adc	r25, r25
    2b64:	8d 52       	subi	r24, 0x2D	; 45
    2b66:	95 4f       	sbci	r25, 0xF5	; 245
    2b68:	fc 01       	movw	r30, r24
    2b6a:	31 83       	std	Z+1, r19	; 0x01
    2b6c:	20 83       	st	Z, r18
	set_temp[iqr_num] = (set_temp[iqr_num] << 8) | usart1_rx_buff[10];
    2b6e:	8a 81       	ldd	r24, Y+2	; 0x02
    2b70:	88 2f       	mov	r24, r24
    2b72:	90 e0       	ldi	r25, 0x00	; 0
    2b74:	2a 81       	ldd	r18, Y+2	; 0x02
    2b76:	22 2f       	mov	r18, r18
    2b78:	30 e0       	ldi	r19, 0x00	; 0
    2b7a:	22 0f       	add	r18, r18
    2b7c:	33 1f       	adc	r19, r19
    2b7e:	2d 52       	subi	r18, 0x2D	; 45
    2b80:	35 4f       	sbci	r19, 0xF5	; 245
    2b82:	f9 01       	movw	r30, r18
    2b84:	20 81       	ld	r18, Z
    2b86:	31 81       	ldd	r19, Z+1	; 0x01
    2b88:	52 2f       	mov	r21, r18
    2b8a:	44 27       	eor	r20, r20
    2b8c:	20 91 6c 04 	lds	r18, 0x046C	; 0x80046c <usart1_rx_buff+0xa>
    2b90:	22 2f       	mov	r18, r18
    2b92:	30 e0       	ldi	r19, 0x00	; 0
    2b94:	24 2b       	or	r18, r20
    2b96:	35 2b       	or	r19, r21
    2b98:	88 0f       	add	r24, r24
    2b9a:	99 1f       	adc	r25, r25
    2b9c:	8d 52       	subi	r24, 0x2D	; 45
    2b9e:	95 4f       	sbci	r25, 0xF5	; 245
    2ba0:	fc 01       	movw	r30, r24
    2ba2:	31 83       	std	Z+1, r19	; 0x01
    2ba4:	20 83       	st	Z, r18
	set_temp_buff[iqr_num] = set_temp[iqr_num];
    2ba6:	8a 81       	ldd	r24, Y+2	; 0x02
    2ba8:	88 2f       	mov	r24, r24
    2baa:	90 e0       	ldi	r25, 0x00	; 0
    2bac:	2a 81       	ldd	r18, Y+2	; 0x02
    2bae:	22 2f       	mov	r18, r18
    2bb0:	30 e0       	ldi	r19, 0x00	; 0
    2bb2:	22 0f       	add	r18, r18
    2bb4:	33 1f       	adc	r19, r19
    2bb6:	2d 52       	subi	r18, 0x2D	; 45
    2bb8:	35 4f       	sbci	r19, 0xF5	; 245
    2bba:	f9 01       	movw	r30, r18
    2bbc:	20 81       	ld	r18, Z
    2bbe:	31 81       	ldd	r19, Z+1	; 0x01
    2bc0:	88 0f       	add	r24, r24
    2bc2:	99 1f       	adc	r25, r25
    2bc4:	8d 5f       	subi	r24, 0xFD	; 253
    2bc6:	94 4f       	sbci	r25, 0xF4	; 244
    2bc8:	fc 01       	movw	r30, r24
    2bca:	31 83       	std	Z+1, r19	; 0x01
    2bcc:	20 83       	st	Z, r18

	all_sensor_type = usart1_rx_buff[12];
    2bce:	80 91 6e 04 	lds	r24, 0x046E	; 0x80046e <usart1_rx_buff+0xc>
    2bd2:	88 2f       	mov	r24, r24
    2bd4:	90 e0       	ldi	r25, 0x00	; 0
    2bd6:	90 93 b4 02 	sts	0x02B4, r25	; 0x8002b4 <all_sensor_type+0x1>
    2bda:	80 93 b3 02 	sts	0x02B3, r24	; 0x8002b3 <all_sensor_type>
	all_sensor_type_buff = all_sensor_type;
    2bde:	80 91 b3 02 	lds	r24, 0x02B3	; 0x8002b3 <all_sensor_type>
    2be2:	90 91 b4 02 	lds	r25, 0x02B4	; 0x8002b4 <all_sensor_type+0x1>
    2be6:	90 93 bf 06 	sts	0x06BF, r25	; 0x8006bf <all_sensor_type_buff+0x1>
    2bea:	80 93 be 06 	sts	0x06BE, r24	; 0x8006be <all_sensor_type_buff>

	for (i = 0; i < MAX_IQR_QUANTITY; i++)
    2bee:	19 82       	std	Y+1, r1	; 0x01
    2bf0:	11 c0       	rjmp	.+34     	; 0x2c14 <get_setting_data+0x216>
	{
		sensor_type[i] = all_sensor_type;
    2bf2:	89 81       	ldd	r24, Y+1	; 0x01
    2bf4:	88 2f       	mov	r24, r24
    2bf6:	90 e0       	ldi	r25, 0x00	; 0
    2bf8:	20 91 b3 02 	lds	r18, 0x02B3	; 0x8002b3 <all_sensor_type>
    2bfc:	30 91 b4 02 	lds	r19, 0x02B4	; 0x8002b4 <all_sensor_type+0x1>
    2c00:	88 0f       	add	r24, r24
    2c02:	99 1f       	adc	r25, r25
    2c04:	81 5b       	subi	r24, 0xB1	; 177
    2c06:	9d 4f       	sbci	r25, 0xFD	; 253
    2c08:	fc 01       	movw	r30, r24
    2c0a:	31 83       	std	Z+1, r19	; 0x01
    2c0c:	20 83       	st	Z, r18
	set_temp_buff[iqr_num] = set_temp[iqr_num];

	all_sensor_type = usart1_rx_buff[12];
	all_sensor_type_buff = all_sensor_type;

	for (i = 0; i < MAX_IQR_QUANTITY; i++)
    2c0e:	89 81       	ldd	r24, Y+1	; 0x01
    2c10:	8f 5f       	subi	r24, 0xFF	; 255
    2c12:	89 83       	std	Y+1, r24	; 0x01
    2c14:	89 81       	ldd	r24, Y+1	; 0x01
    2c16:	88 31       	cpi	r24, 0x18	; 24
    2c18:	60 f3       	brcs	.-40     	; 0x2bf2 <get_setting_data+0x1f4>
	{
		sensor_type[i] = all_sensor_type;
	}

	follow_sta[iqr_num] = usart1_rx_buff[14];
    2c1a:	8a 81       	ldd	r24, Y+2	; 0x02
    2c1c:	88 2f       	mov	r24, r24
    2c1e:	90 e0       	ldi	r25, 0x00	; 0
    2c20:	20 91 70 04 	lds	r18, 0x0470	; 0x800470 <usart1_rx_buff+0xe>
    2c24:	8d 57       	subi	r24, 0x7D	; 125
    2c26:	9d 4f       	sbci	r25, 0xFD	; 253
    2c28:	fc 01       	movw	r30, r24
    2c2a:	20 83       	st	Z, r18
	follow_sta_buff[iqr_num] = follow_sta[iqr_num];
    2c2c:	8a 81       	ldd	r24, Y+2	; 0x02
    2c2e:	88 2f       	mov	r24, r24
    2c30:	90 e0       	ldi	r25, 0x00	; 0
    2c32:	2a 81       	ldd	r18, Y+2	; 0x02
    2c34:	22 2f       	mov	r18, r18
    2c36:	30 e0       	ldi	r19, 0x00	; 0
    2c38:	2d 57       	subi	r18, 0x7D	; 125
    2c3a:	3d 4f       	sbci	r19, 0xFD	; 253
    2c3c:	f9 01       	movw	r30, r18
    2c3e:	20 81       	ld	r18, Z
    2c40:	85 56       	subi	r24, 0x65	; 101
    2c42:	9d 4f       	sbci	r25, 0xFD	; 253
    2c44:	fc 01       	movw	r30, r24
    2c46:	20 83       	st	Z, r18

	if (usart1_rx_buff[16] <= 2) //通道状态： 0：关闭  1：开启  2:跟随 3~n：告警类型
    2c48:	80 91 72 04 	lds	r24, 0x0472	; 0x800472 <usart1_rx_buff+0x10>
    2c4c:	83 30       	cpi	r24, 0x03	; 3
    2c4e:	70 f5       	brcc	.+92     	; 0x2cac <get_setting_data+0x2ae>
	{
		switch_sensor[iqr_num] = usart1_rx_buff[16] & 0x01; //0：关闭  1：开启 （跟随归属到开启）
    2c50:	8a 81       	ldd	r24, Y+2	; 0x02
    2c52:	88 2f       	mov	r24, r24
    2c54:	90 e0       	ldi	r25, 0x00	; 0
    2c56:	20 91 72 04 	lds	r18, 0x0472	; 0x800472 <usart1_rx_buff+0x10>
    2c5a:	22 2f       	mov	r18, r18
    2c5c:	30 e0       	ldi	r19, 0x00	; 0
    2c5e:	21 70       	andi	r18, 0x01	; 1
    2c60:	33 27       	eor	r19, r19
    2c62:	88 0f       	add	r24, r24
    2c64:	99 1f       	adc	r25, r25
    2c66:	81 5e       	subi	r24, 0xE1	; 225
    2c68:	9d 4f       	sbci	r25, 0xFD	; 253
    2c6a:	fc 01       	movw	r30, r24
    2c6c:	31 83       	std	Z+1, r19	; 0x01
    2c6e:	20 83       	st	Z, r18
		switch_sensor_buff[iqr_num] = switch_sensor[iqr_num];
    2c70:	8a 81       	ldd	r24, Y+2	; 0x02
    2c72:	88 2f       	mov	r24, r24
    2c74:	90 e0       	ldi	r25, 0x00	; 0
    2c76:	2a 81       	ldd	r18, Y+2	; 0x02
    2c78:	22 2f       	mov	r18, r18
    2c7a:	30 e0       	ldi	r19, 0x00	; 0
    2c7c:	22 0f       	add	r18, r18
    2c7e:	33 1f       	adc	r19, r19
    2c80:	21 5e       	subi	r18, 0xE1	; 225
    2c82:	3d 4f       	sbci	r19, 0xFD	; 253
    2c84:	f9 01       	movw	r30, r18
    2c86:	20 81       	ld	r18, Z
    2c88:	31 81       	ldd	r19, Z+1	; 0x01
    2c8a:	88 0f       	add	r24, r24
    2c8c:	99 1f       	adc	r25, r25
    2c8e:	8e 53       	subi	r24, 0x3E	; 62
    2c90:	99 4f       	sbci	r25, 0xF9	; 249
    2c92:	fc 01       	movw	r30, r24
    2c94:	31 83       	std	Z+1, r19	; 0x01
    2c96:	20 83       	st	Z, r18

		sensor_sta[iqr_num] = usart1_rx_buff[16];
    2c98:	8a 81       	ldd	r24, Y+2	; 0x02
    2c9a:	88 2f       	mov	r24, r24
    2c9c:	90 e0       	ldi	r25, 0x00	; 0
    2c9e:	20 91 72 04 	lds	r18, 0x0472	; 0x800472 <usart1_rx_buff+0x10>
    2ca2:	81 54       	subi	r24, 0x41	; 65
    2ca4:	9e 4f       	sbci	r25, 0xFE	; 254
    2ca6:	fc 01       	movw	r30, r24
    2ca8:	20 83       	st	Z, r18
    2caa:	1d c0       	rjmp	.+58     	; 0x2ce6 <get_setting_data+0x2e8>
	}
	else
	{
		sensor_sta[iqr_num] = usart1_rx_buff[16];
    2cac:	8a 81       	ldd	r24, Y+2	; 0x02
    2cae:	88 2f       	mov	r24, r24
    2cb0:	90 e0       	ldi	r25, 0x00	; 0
    2cb2:	20 91 72 04 	lds	r18, 0x0472	; 0x800472 <usart1_rx_buff+0x10>
    2cb6:	81 54       	subi	r24, 0x41	; 65
    2cb8:	9e 4f       	sbci	r25, 0xFE	; 254
    2cba:	fc 01       	movw	r30, r24
    2cbc:	20 83       	st	Z, r18
		switch_sensor[iqr_num] = 0;
    2cbe:	8a 81       	ldd	r24, Y+2	; 0x02
    2cc0:	88 2f       	mov	r24, r24
    2cc2:	90 e0       	ldi	r25, 0x00	; 0
    2cc4:	88 0f       	add	r24, r24
    2cc6:	99 1f       	adc	r25, r25
    2cc8:	81 5e       	subi	r24, 0xE1	; 225
    2cca:	9d 4f       	sbci	r25, 0xFD	; 253
    2ccc:	fc 01       	movw	r30, r24
    2cce:	11 82       	std	Z+1, r1	; 0x01
    2cd0:	10 82       	st	Z, r1
		switch_sensor_buff[iqr_num] = 0;
    2cd2:	8a 81       	ldd	r24, Y+2	; 0x02
    2cd4:	88 2f       	mov	r24, r24
    2cd6:	90 e0       	ldi	r25, 0x00	; 0
    2cd8:	88 0f       	add	r24, r24
    2cda:	99 1f       	adc	r25, r25
    2cdc:	8e 53       	subi	r24, 0x3E	; 62
    2cde:	99 4f       	sbci	r25, 0xF9	; 249
    2ce0:	fc 01       	movw	r30, r24
    2ce2:	11 82       	std	Z+1, r1	; 0x01
    2ce4:	10 82       	st	Z, r1
	}

	p_value[iqr_num] = usart1_rx_buff[17];
    2ce6:	8a 81       	ldd	r24, Y+2	; 0x02
    2ce8:	88 2f       	mov	r24, r24
    2cea:	90 e0       	ldi	r25, 0x00	; 0
    2cec:	20 91 73 04 	lds	r18, 0x0473	; 0x800473 <usart1_rx_buff+0x11>
    2cf0:	22 2f       	mov	r18, r18
    2cf2:	30 e0       	ldi	r19, 0x00	; 0
    2cf4:	88 0f       	add	r24, r24
    2cf6:	99 1f       	adc	r25, r25
    2cf8:	8e 5a       	subi	r24, 0xAE	; 174
    2cfa:	97 4f       	sbci	r25, 0xF7	; 247
    2cfc:	fc 01       	movw	r30, r24
    2cfe:	31 83       	std	Z+1, r19	; 0x01
    2d00:	20 83       	st	Z, r18
	p_value[iqr_num] = (p_value[iqr_num] << 8) | usart1_rx_buff[18];
    2d02:	8a 81       	ldd	r24, Y+2	; 0x02
    2d04:	88 2f       	mov	r24, r24
    2d06:	90 e0       	ldi	r25, 0x00	; 0
    2d08:	2a 81       	ldd	r18, Y+2	; 0x02
    2d0a:	22 2f       	mov	r18, r18
    2d0c:	30 e0       	ldi	r19, 0x00	; 0
    2d0e:	22 0f       	add	r18, r18
    2d10:	33 1f       	adc	r19, r19
    2d12:	2e 5a       	subi	r18, 0xAE	; 174
    2d14:	37 4f       	sbci	r19, 0xF7	; 247
    2d16:	f9 01       	movw	r30, r18
    2d18:	20 81       	ld	r18, Z
    2d1a:	31 81       	ldd	r19, Z+1	; 0x01
    2d1c:	52 2f       	mov	r21, r18
    2d1e:	44 27       	eor	r20, r20
    2d20:	20 91 74 04 	lds	r18, 0x0474	; 0x800474 <usart1_rx_buff+0x12>
    2d24:	22 2f       	mov	r18, r18
    2d26:	30 e0       	ldi	r19, 0x00	; 0
    2d28:	24 2b       	or	r18, r20
    2d2a:	35 2b       	or	r19, r21
    2d2c:	88 0f       	add	r24, r24
    2d2e:	99 1f       	adc	r25, r25
    2d30:	8e 5a       	subi	r24, 0xAE	; 174
    2d32:	97 4f       	sbci	r25, 0xF7	; 247
    2d34:	fc 01       	movw	r30, r24
    2d36:	31 83       	std	Z+1, r19	; 0x01
    2d38:	20 83       	st	Z, r18

	i_value[iqr_num] = usart1_rx_buff[19];
    2d3a:	8a 81       	ldd	r24, Y+2	; 0x02
    2d3c:	88 2f       	mov	r24, r24
    2d3e:	90 e0       	ldi	r25, 0x00	; 0
    2d40:	20 91 75 04 	lds	r18, 0x0475	; 0x800475 <usart1_rx_buff+0x13>
    2d44:	22 2f       	mov	r18, r18
    2d46:	30 e0       	ldi	r19, 0x00	; 0
    2d48:	88 0f       	add	r24, r24
    2d4a:	99 1f       	adc	r25, r25
    2d4c:	8e 57       	subi	r24, 0x7E	; 126
    2d4e:	97 4f       	sbci	r25, 0xF7	; 247
    2d50:	fc 01       	movw	r30, r24
    2d52:	31 83       	std	Z+1, r19	; 0x01
    2d54:	20 83       	st	Z, r18
	i_value[iqr_num] = (i_value[iqr_num] << 8) | usart1_rx_buff[20];
    2d56:	8a 81       	ldd	r24, Y+2	; 0x02
    2d58:	88 2f       	mov	r24, r24
    2d5a:	90 e0       	ldi	r25, 0x00	; 0
    2d5c:	2a 81       	ldd	r18, Y+2	; 0x02
    2d5e:	22 2f       	mov	r18, r18
    2d60:	30 e0       	ldi	r19, 0x00	; 0
    2d62:	22 0f       	add	r18, r18
    2d64:	33 1f       	adc	r19, r19
    2d66:	2e 57       	subi	r18, 0x7E	; 126
    2d68:	37 4f       	sbci	r19, 0xF7	; 247
    2d6a:	f9 01       	movw	r30, r18
    2d6c:	20 81       	ld	r18, Z
    2d6e:	31 81       	ldd	r19, Z+1	; 0x01
    2d70:	52 2f       	mov	r21, r18
    2d72:	44 27       	eor	r20, r20
    2d74:	20 91 76 04 	lds	r18, 0x0476	; 0x800476 <usart1_rx_buff+0x14>
    2d78:	22 2f       	mov	r18, r18
    2d7a:	30 e0       	ldi	r19, 0x00	; 0
    2d7c:	24 2b       	or	r18, r20
    2d7e:	35 2b       	or	r19, r21
    2d80:	88 0f       	add	r24, r24
    2d82:	99 1f       	adc	r25, r25
    2d84:	8e 57       	subi	r24, 0x7E	; 126
    2d86:	97 4f       	sbci	r25, 0xF7	; 247
    2d88:	fc 01       	movw	r30, r24
    2d8a:	31 83       	std	Z+1, r19	; 0x01
    2d8c:	20 83       	st	Z, r18

	d_value[iqr_num] = usart1_rx_buff[21];
    2d8e:	8a 81       	ldd	r24, Y+2	; 0x02
    2d90:	88 2f       	mov	r24, r24
    2d92:	90 e0       	ldi	r25, 0x00	; 0
    2d94:	20 91 77 04 	lds	r18, 0x0477	; 0x800477 <usart1_rx_buff+0x15>
    2d98:	22 2f       	mov	r18, r18
    2d9a:	30 e0       	ldi	r19, 0x00	; 0
    2d9c:	88 0f       	add	r24, r24
    2d9e:	99 1f       	adc	r25, r25
    2da0:	8e 5d       	subi	r24, 0xDE	; 222
    2da2:	97 4f       	sbci	r25, 0xF7	; 247
    2da4:	fc 01       	movw	r30, r24
    2da6:	31 83       	std	Z+1, r19	; 0x01
    2da8:	20 83       	st	Z, r18
	d_value[iqr_num] = (d_value[iqr_num] << 8) | usart1_rx_buff[22];
    2daa:	8a 81       	ldd	r24, Y+2	; 0x02
    2dac:	88 2f       	mov	r24, r24
    2dae:	90 e0       	ldi	r25, 0x00	; 0
    2db0:	2a 81       	ldd	r18, Y+2	; 0x02
    2db2:	22 2f       	mov	r18, r18
    2db4:	30 e0       	ldi	r19, 0x00	; 0
    2db6:	22 0f       	add	r18, r18
    2db8:	33 1f       	adc	r19, r19
    2dba:	2e 5d       	subi	r18, 0xDE	; 222
    2dbc:	37 4f       	sbci	r19, 0xF7	; 247
    2dbe:	f9 01       	movw	r30, r18
    2dc0:	20 81       	ld	r18, Z
    2dc2:	31 81       	ldd	r19, Z+1	; 0x01
    2dc4:	52 2f       	mov	r21, r18
    2dc6:	44 27       	eor	r20, r20
    2dc8:	20 91 78 04 	lds	r18, 0x0478	; 0x800478 <usart1_rx_buff+0x16>
    2dcc:	22 2f       	mov	r18, r18
    2dce:	30 e0       	ldi	r19, 0x00	; 0
    2dd0:	24 2b       	or	r18, r20
    2dd2:	35 2b       	or	r19, r21
    2dd4:	88 0f       	add	r24, r24
    2dd6:	99 1f       	adc	r25, r25
    2dd8:	8e 5d       	subi	r24, 0xDE	; 222
    2dda:	97 4f       	sbci	r25, 0xF7	; 247
    2ddc:	fc 01       	movw	r30, r24
    2dde:	31 83       	std	Z+1, r19	; 0x01
    2de0:	20 83       	st	Z, r18
	//
	// 	preheat_time = usart1_rx_buff[22];
	// 	preheat_time_buff = preheat_time;

	//	pre_system_sta
}
    2de2:	00 00       	nop
    2de4:	0f 90       	pop	r0
    2de6:	0f 90       	pop	r0
    2de8:	0f 90       	pop	r0
    2dea:	df 91       	pop	r29
    2dec:	cf 91       	pop	r28
    2dee:	08 95       	ret

00002df0 <send_request_all>:

void send_request_all(uint8_t addr)
{
    2df0:	cf 93       	push	r28
    2df2:	df 93       	push	r29
    2df4:	00 d0       	rcall	.+0      	; 0x2df6 <send_request_all+0x6>
    2df6:	1f 92       	push	r1
    2df8:	cd b7       	in	r28, 0x3d	; 61
    2dfa:	de b7       	in	r29, 0x3e	; 62
    2dfc:	8b 83       	std	Y+3, r24	; 0x03
	uint16_t crc = 0;
    2dfe:	1a 82       	std	Y+2, r1	; 0x02
    2e00:	19 82       	std	Y+1, r1	; 0x01

	usart1_tx_buff[0] = 0xA5;
    2e02:	85 ea       	ldi	r24, 0xA5	; 165
    2e04:	80 93 2a 05 	sts	0x052A, r24	; 0x80052a <usart1_tx_buff>
	usart1_tx_buff[1] = 0x5A;
    2e08:	8a e5       	ldi	r24, 0x5A	; 90
    2e0a:	80 93 2b 05 	sts	0x052B, r24	; 0x80052b <usart1_tx_buff+0x1>
	usart1_tx_buff[2] = 0x02;
    2e0e:	82 e0       	ldi	r24, 0x02	; 2
    2e10:	80 93 2c 05 	sts	0x052C, r24	; 0x80052c <usart1_tx_buff+0x2>
	usart1_tx_buff[3] = 0x01;
    2e14:	81 e0       	ldi	r24, 0x01	; 1
    2e16:	80 93 2d 05 	sts	0x052D, r24	; 0x80052d <usart1_tx_buff+0x3>
	usart1_tx_buff[4] = (addr << 4);
    2e1a:	8b 81       	ldd	r24, Y+3	; 0x03
    2e1c:	82 95       	swap	r24
    2e1e:	80 7f       	andi	r24, 0xF0	; 240
    2e20:	80 93 2e 05 	sts	0x052E, r24	; 0x80052e <usart1_tx_buff+0x4>

	crc = crc_check(usart1_tx_buff, 7);
    2e24:	67 e0       	ldi	r22, 0x07	; 7
    2e26:	8a e2       	ldi	r24, 0x2A	; 42
    2e28:	95 e0       	ldi	r25, 0x05	; 5
    2e2a:	0e 94 d9 26 	call	0x4db2	; 0x4db2 <crc_check>
    2e2e:	9a 83       	std	Y+2, r25	; 0x02
    2e30:	89 83       	std	Y+1, r24	; 0x01

	usart1_tx_buff[5] = crc & 0x00FF;
    2e32:	89 81       	ldd	r24, Y+1	; 0x01
    2e34:	80 93 2f 05 	sts	0x052F, r24	; 0x80052f <usart1_tx_buff+0x5>
	usart1_tx_buff[6] = crc >> 8;
    2e38:	89 81       	ldd	r24, Y+1	; 0x01
    2e3a:	9a 81       	ldd	r25, Y+2	; 0x02
    2e3c:	89 2f       	mov	r24, r25
    2e3e:	99 27       	eor	r25, r25
    2e40:	80 93 30 05 	sts	0x0530, r24	; 0x800530 <usart1_tx_buff+0x6>

	usart1_send_str(usart1_tx_buff, 7);
    2e44:	67 e0       	ldi	r22, 0x07	; 7
    2e46:	8a e2       	ldi	r24, 0x2A	; 42
    2e48:	95 e0       	ldi	r25, 0x05	; 5
    2e4a:	0e 94 61 26 	call	0x4cc2	; 0x4cc2 <usart1_send_str>
}
    2e4e:	00 00       	nop
    2e50:	0f 90       	pop	r0
    2e52:	0f 90       	pop	r0
    2e54:	0f 90       	pop	r0
    2e56:	df 91       	pop	r29
    2e58:	cf 91       	pop	r28
    2e5a:	08 95       	ret

00002e5c <get_data_all>:

void get_data_all()
{
    2e5c:	cf 93       	push	r28
    2e5e:	df 93       	push	r29
    2e60:	1f 92       	push	r1
    2e62:	cd b7       	in	r28, 0x3d	; 61
    2e64:	de b7       	in	r29, 0x3e	; 62
	uint8_t slave_num = 0;
    2e66:	19 82       	std	Y+1, r1	; 0x01

	slave_num = (usart1_rx_buff[4] >> 4);
    2e68:	80 91 66 04 	lds	r24, 0x0466	; 0x800466 <usart1_rx_buff+0x4>
    2e6c:	82 95       	swap	r24
    2e6e:	8f 70       	andi	r24, 0x0F	; 15
    2e70:	89 83       	std	Y+1, r24	; 0x01

	output_rate[0 + ((slave_num - 1) * 4)] = usart1_rx_buff[5];
    2e72:	89 81       	ldd	r24, Y+1	; 0x01
    2e74:	88 2f       	mov	r24, r24
    2e76:	90 e0       	ldi	r25, 0x00	; 0
    2e78:	01 97       	sbiw	r24, 0x01	; 1
    2e7a:	88 0f       	add	r24, r24
    2e7c:	99 1f       	adc	r25, r25
    2e7e:	88 0f       	add	r24, r24
    2e80:	99 1f       	adc	r25, r25
    2e82:	20 91 67 04 	lds	r18, 0x0467	; 0x800467 <usart1_rx_buff+0x5>
    2e86:	89 55       	subi	r24, 0x59	; 89
    2e88:	9e 4f       	sbci	r25, 0xFE	; 254
    2e8a:	fc 01       	movw	r30, r24
    2e8c:	20 83       	st	Z, r18
	output_rate[1 + ((slave_num - 1) * 4)] = usart1_rx_buff[6];
    2e8e:	89 81       	ldd	r24, Y+1	; 0x01
    2e90:	88 2f       	mov	r24, r24
    2e92:	90 e0       	ldi	r25, 0x00	; 0
    2e94:	01 97       	sbiw	r24, 0x01	; 1
    2e96:	88 0f       	add	r24, r24
    2e98:	99 1f       	adc	r25, r25
    2e9a:	88 0f       	add	r24, r24
    2e9c:	99 1f       	adc	r25, r25
    2e9e:	01 96       	adiw	r24, 0x01	; 1
    2ea0:	20 91 68 04 	lds	r18, 0x0468	; 0x800468 <usart1_rx_buff+0x6>
    2ea4:	89 55       	subi	r24, 0x59	; 89
    2ea6:	9e 4f       	sbci	r25, 0xFE	; 254
    2ea8:	fc 01       	movw	r30, r24
    2eaa:	20 83       	st	Z, r18
	output_rate[2 + ((slave_num - 1) * 4)] = usart1_rx_buff[7];
    2eac:	89 81       	ldd	r24, Y+1	; 0x01
    2eae:	88 2f       	mov	r24, r24
    2eb0:	90 e0       	ldi	r25, 0x00	; 0
    2eb2:	01 97       	sbiw	r24, 0x01	; 1
    2eb4:	88 0f       	add	r24, r24
    2eb6:	99 1f       	adc	r25, r25
    2eb8:	88 0f       	add	r24, r24
    2eba:	99 1f       	adc	r25, r25
    2ebc:	02 96       	adiw	r24, 0x02	; 2
    2ebe:	20 91 69 04 	lds	r18, 0x0469	; 0x800469 <usart1_rx_buff+0x7>
    2ec2:	89 55       	subi	r24, 0x59	; 89
    2ec4:	9e 4f       	sbci	r25, 0xFE	; 254
    2ec6:	fc 01       	movw	r30, r24
    2ec8:	20 83       	st	Z, r18
	output_rate[3 + ((slave_num - 1) * 4)] = usart1_rx_buff[8];
    2eca:	89 81       	ldd	r24, Y+1	; 0x01
    2ecc:	88 2f       	mov	r24, r24
    2ece:	90 e0       	ldi	r25, 0x00	; 0
    2ed0:	01 97       	sbiw	r24, 0x01	; 1
    2ed2:	88 0f       	add	r24, r24
    2ed4:	99 1f       	adc	r25, r25
    2ed6:	88 0f       	add	r24, r24
    2ed8:	99 1f       	adc	r25, r25
    2eda:	03 96       	adiw	r24, 0x03	; 3
    2edc:	20 91 6a 04 	lds	r18, 0x046A	; 0x80046a <usart1_rx_buff+0x8>
    2ee0:	89 55       	subi	r24, 0x59	; 89
    2ee2:	9e 4f       	sbci	r25, 0xFE	; 254
    2ee4:	fc 01       	movw	r30, r24
    2ee6:	20 83       	st	Z, r18

	sensor_sta[0 + ((slave_num - 1) * 4)] = usart1_rx_buff[9];
    2ee8:	89 81       	ldd	r24, Y+1	; 0x01
    2eea:	88 2f       	mov	r24, r24
    2eec:	90 e0       	ldi	r25, 0x00	; 0
    2eee:	01 97       	sbiw	r24, 0x01	; 1
    2ef0:	88 0f       	add	r24, r24
    2ef2:	99 1f       	adc	r25, r25
    2ef4:	88 0f       	add	r24, r24
    2ef6:	99 1f       	adc	r25, r25
    2ef8:	20 91 6b 04 	lds	r18, 0x046B	; 0x80046b <usart1_rx_buff+0x9>
    2efc:	81 54       	subi	r24, 0x41	; 65
    2efe:	9e 4f       	sbci	r25, 0xFE	; 254
    2f00:	fc 01       	movw	r30, r24
    2f02:	20 83       	st	Z, r18
	sensor_sta[1 + ((slave_num - 1) * 4)] = usart1_rx_buff[10];
    2f04:	89 81       	ldd	r24, Y+1	; 0x01
    2f06:	88 2f       	mov	r24, r24
    2f08:	90 e0       	ldi	r25, 0x00	; 0
    2f0a:	01 97       	sbiw	r24, 0x01	; 1
    2f0c:	88 0f       	add	r24, r24
    2f0e:	99 1f       	adc	r25, r25
    2f10:	88 0f       	add	r24, r24
    2f12:	99 1f       	adc	r25, r25
    2f14:	01 96       	adiw	r24, 0x01	; 1
    2f16:	20 91 6c 04 	lds	r18, 0x046C	; 0x80046c <usart1_rx_buff+0xa>
    2f1a:	81 54       	subi	r24, 0x41	; 65
    2f1c:	9e 4f       	sbci	r25, 0xFE	; 254
    2f1e:	fc 01       	movw	r30, r24
    2f20:	20 83       	st	Z, r18
	sensor_sta[2 + ((slave_num - 1) * 4)] = usart1_rx_buff[11];
    2f22:	89 81       	ldd	r24, Y+1	; 0x01
    2f24:	88 2f       	mov	r24, r24
    2f26:	90 e0       	ldi	r25, 0x00	; 0
    2f28:	01 97       	sbiw	r24, 0x01	; 1
    2f2a:	88 0f       	add	r24, r24
    2f2c:	99 1f       	adc	r25, r25
    2f2e:	88 0f       	add	r24, r24
    2f30:	99 1f       	adc	r25, r25
    2f32:	02 96       	adiw	r24, 0x02	; 2
    2f34:	20 91 6d 04 	lds	r18, 0x046D	; 0x80046d <usart1_rx_buff+0xb>
    2f38:	81 54       	subi	r24, 0x41	; 65
    2f3a:	9e 4f       	sbci	r25, 0xFE	; 254
    2f3c:	fc 01       	movw	r30, r24
    2f3e:	20 83       	st	Z, r18
	sensor_sta[3 + ((slave_num - 1) * 4)] = usart1_rx_buff[12];
    2f40:	89 81       	ldd	r24, Y+1	; 0x01
    2f42:	88 2f       	mov	r24, r24
    2f44:	90 e0       	ldi	r25, 0x00	; 0
    2f46:	01 97       	sbiw	r24, 0x01	; 1
    2f48:	88 0f       	add	r24, r24
    2f4a:	99 1f       	adc	r25, r25
    2f4c:	88 0f       	add	r24, r24
    2f4e:	99 1f       	adc	r25, r25
    2f50:	03 96       	adiw	r24, 0x03	; 3
    2f52:	20 91 6e 04 	lds	r18, 0x046E	; 0x80046e <usart1_rx_buff+0xc>
    2f56:	81 54       	subi	r24, 0x41	; 65
    2f58:	9e 4f       	sbci	r25, 0xFE	; 254
    2f5a:	fc 01       	movw	r30, r24
    2f5c:	20 83       	st	Z, r18

	run_temp[0 + ((slave_num - 1) * 4)] = usart1_rx_buff[13];
    2f5e:	89 81       	ldd	r24, Y+1	; 0x01
    2f60:	88 2f       	mov	r24, r24
    2f62:	90 e0       	ldi	r25, 0x00	; 0
    2f64:	01 97       	sbiw	r24, 0x01	; 1
    2f66:	88 0f       	add	r24, r24
    2f68:	99 1f       	adc	r25, r25
    2f6a:	88 0f       	add	r24, r24
    2f6c:	99 1f       	adc	r25, r25
    2f6e:	20 91 6f 04 	lds	r18, 0x046F	; 0x80046f <usart1_rx_buff+0xd>
    2f72:	22 2f       	mov	r18, r18
    2f74:	30 e0       	ldi	r19, 0x00	; 0
    2f76:	88 0f       	add	r24, r24
    2f78:	99 1f       	adc	r25, r25
    2f7a:	81 51       	subi	r24, 0x11	; 17
    2f7c:	9e 4f       	sbci	r25, 0xFE	; 254
    2f7e:	fc 01       	movw	r30, r24
    2f80:	31 83       	std	Z+1, r19	; 0x01
    2f82:	20 83       	st	Z, r18
	run_temp[0 + ((slave_num - 1) * 4)] = (run_temp[0 + ((slave_num - 1) * 4)] << 8) | usart1_rx_buff[14];
    2f84:	89 81       	ldd	r24, Y+1	; 0x01
    2f86:	88 2f       	mov	r24, r24
    2f88:	90 e0       	ldi	r25, 0x00	; 0
    2f8a:	01 97       	sbiw	r24, 0x01	; 1
    2f8c:	88 0f       	add	r24, r24
    2f8e:	99 1f       	adc	r25, r25
    2f90:	88 0f       	add	r24, r24
    2f92:	99 1f       	adc	r25, r25
    2f94:	29 81       	ldd	r18, Y+1	; 0x01
    2f96:	22 2f       	mov	r18, r18
    2f98:	30 e0       	ldi	r19, 0x00	; 0
    2f9a:	21 50       	subi	r18, 0x01	; 1
    2f9c:	31 09       	sbc	r19, r1
    2f9e:	22 0f       	add	r18, r18
    2fa0:	33 1f       	adc	r19, r19
    2fa2:	22 0f       	add	r18, r18
    2fa4:	33 1f       	adc	r19, r19
    2fa6:	22 0f       	add	r18, r18
    2fa8:	33 1f       	adc	r19, r19
    2faa:	21 51       	subi	r18, 0x11	; 17
    2fac:	3e 4f       	sbci	r19, 0xFE	; 254
    2fae:	f9 01       	movw	r30, r18
    2fb0:	20 81       	ld	r18, Z
    2fb2:	31 81       	ldd	r19, Z+1	; 0x01
    2fb4:	52 2f       	mov	r21, r18
    2fb6:	44 27       	eor	r20, r20
    2fb8:	20 91 70 04 	lds	r18, 0x0470	; 0x800470 <usart1_rx_buff+0xe>
    2fbc:	22 2f       	mov	r18, r18
    2fbe:	30 e0       	ldi	r19, 0x00	; 0
    2fc0:	24 2b       	or	r18, r20
    2fc2:	35 2b       	or	r19, r21
    2fc4:	88 0f       	add	r24, r24
    2fc6:	99 1f       	adc	r25, r25
    2fc8:	81 51       	subi	r24, 0x11	; 17
    2fca:	9e 4f       	sbci	r25, 0xFE	; 254
    2fcc:	fc 01       	movw	r30, r24
    2fce:	31 83       	std	Z+1, r19	; 0x01
    2fd0:	20 83       	st	Z, r18
	run_temp[1 + ((slave_num - 1) * 4)] = usart1_rx_buff[15];
    2fd2:	89 81       	ldd	r24, Y+1	; 0x01
    2fd4:	88 2f       	mov	r24, r24
    2fd6:	90 e0       	ldi	r25, 0x00	; 0
    2fd8:	01 97       	sbiw	r24, 0x01	; 1
    2fda:	88 0f       	add	r24, r24
    2fdc:	99 1f       	adc	r25, r25
    2fde:	88 0f       	add	r24, r24
    2fe0:	99 1f       	adc	r25, r25
    2fe2:	01 96       	adiw	r24, 0x01	; 1
    2fe4:	20 91 71 04 	lds	r18, 0x0471	; 0x800471 <usart1_rx_buff+0xf>
    2fe8:	22 2f       	mov	r18, r18
    2fea:	30 e0       	ldi	r19, 0x00	; 0
    2fec:	88 0f       	add	r24, r24
    2fee:	99 1f       	adc	r25, r25
    2ff0:	81 51       	subi	r24, 0x11	; 17
    2ff2:	9e 4f       	sbci	r25, 0xFE	; 254
    2ff4:	fc 01       	movw	r30, r24
    2ff6:	31 83       	std	Z+1, r19	; 0x01
    2ff8:	20 83       	st	Z, r18
	run_temp[1 + ((slave_num - 1) * 4)] = (run_temp[1 + ((slave_num - 1) * 4)] << 8) | usart1_rx_buff[16];
    2ffa:	89 81       	ldd	r24, Y+1	; 0x01
    2ffc:	88 2f       	mov	r24, r24
    2ffe:	90 e0       	ldi	r25, 0x00	; 0
    3000:	01 97       	sbiw	r24, 0x01	; 1
    3002:	88 0f       	add	r24, r24
    3004:	99 1f       	adc	r25, r25
    3006:	88 0f       	add	r24, r24
    3008:	99 1f       	adc	r25, r25
    300a:	01 96       	adiw	r24, 0x01	; 1
    300c:	29 81       	ldd	r18, Y+1	; 0x01
    300e:	22 2f       	mov	r18, r18
    3010:	30 e0       	ldi	r19, 0x00	; 0
    3012:	21 50       	subi	r18, 0x01	; 1
    3014:	31 09       	sbc	r19, r1
    3016:	22 0f       	add	r18, r18
    3018:	33 1f       	adc	r19, r19
    301a:	22 0f       	add	r18, r18
    301c:	33 1f       	adc	r19, r19
    301e:	2f 5f       	subi	r18, 0xFF	; 255
    3020:	3f 4f       	sbci	r19, 0xFF	; 255
    3022:	22 0f       	add	r18, r18
    3024:	33 1f       	adc	r19, r19
    3026:	21 51       	subi	r18, 0x11	; 17
    3028:	3e 4f       	sbci	r19, 0xFE	; 254
    302a:	f9 01       	movw	r30, r18
    302c:	20 81       	ld	r18, Z
    302e:	31 81       	ldd	r19, Z+1	; 0x01
    3030:	52 2f       	mov	r21, r18
    3032:	44 27       	eor	r20, r20
    3034:	20 91 72 04 	lds	r18, 0x0472	; 0x800472 <usart1_rx_buff+0x10>
    3038:	22 2f       	mov	r18, r18
    303a:	30 e0       	ldi	r19, 0x00	; 0
    303c:	24 2b       	or	r18, r20
    303e:	35 2b       	or	r19, r21
    3040:	88 0f       	add	r24, r24
    3042:	99 1f       	adc	r25, r25
    3044:	81 51       	subi	r24, 0x11	; 17
    3046:	9e 4f       	sbci	r25, 0xFE	; 254
    3048:	fc 01       	movw	r30, r24
    304a:	31 83       	std	Z+1, r19	; 0x01
    304c:	20 83       	st	Z, r18
	run_temp[2 + ((slave_num - 1) * 4)] = usart1_rx_buff[17];
    304e:	89 81       	ldd	r24, Y+1	; 0x01
    3050:	88 2f       	mov	r24, r24
    3052:	90 e0       	ldi	r25, 0x00	; 0
    3054:	01 97       	sbiw	r24, 0x01	; 1
    3056:	88 0f       	add	r24, r24
    3058:	99 1f       	adc	r25, r25
    305a:	88 0f       	add	r24, r24
    305c:	99 1f       	adc	r25, r25
    305e:	02 96       	adiw	r24, 0x02	; 2
    3060:	20 91 73 04 	lds	r18, 0x0473	; 0x800473 <usart1_rx_buff+0x11>
    3064:	22 2f       	mov	r18, r18
    3066:	30 e0       	ldi	r19, 0x00	; 0
    3068:	88 0f       	add	r24, r24
    306a:	99 1f       	adc	r25, r25
    306c:	81 51       	subi	r24, 0x11	; 17
    306e:	9e 4f       	sbci	r25, 0xFE	; 254
    3070:	fc 01       	movw	r30, r24
    3072:	31 83       	std	Z+1, r19	; 0x01
    3074:	20 83       	st	Z, r18
	run_temp[2 + ((slave_num - 1) * 4)] = (run_temp[2 + ((slave_num - 1) * 4)] << 8) | usart1_rx_buff[18];
    3076:	89 81       	ldd	r24, Y+1	; 0x01
    3078:	88 2f       	mov	r24, r24
    307a:	90 e0       	ldi	r25, 0x00	; 0
    307c:	01 97       	sbiw	r24, 0x01	; 1
    307e:	88 0f       	add	r24, r24
    3080:	99 1f       	adc	r25, r25
    3082:	88 0f       	add	r24, r24
    3084:	99 1f       	adc	r25, r25
    3086:	02 96       	adiw	r24, 0x02	; 2
    3088:	29 81       	ldd	r18, Y+1	; 0x01
    308a:	22 2f       	mov	r18, r18
    308c:	30 e0       	ldi	r19, 0x00	; 0
    308e:	21 50       	subi	r18, 0x01	; 1
    3090:	31 09       	sbc	r19, r1
    3092:	22 0f       	add	r18, r18
    3094:	33 1f       	adc	r19, r19
    3096:	22 0f       	add	r18, r18
    3098:	33 1f       	adc	r19, r19
    309a:	2e 5f       	subi	r18, 0xFE	; 254
    309c:	3f 4f       	sbci	r19, 0xFF	; 255
    309e:	22 0f       	add	r18, r18
    30a0:	33 1f       	adc	r19, r19
    30a2:	21 51       	subi	r18, 0x11	; 17
    30a4:	3e 4f       	sbci	r19, 0xFE	; 254
    30a6:	f9 01       	movw	r30, r18
    30a8:	20 81       	ld	r18, Z
    30aa:	31 81       	ldd	r19, Z+1	; 0x01
    30ac:	52 2f       	mov	r21, r18
    30ae:	44 27       	eor	r20, r20
    30b0:	20 91 74 04 	lds	r18, 0x0474	; 0x800474 <usart1_rx_buff+0x12>
    30b4:	22 2f       	mov	r18, r18
    30b6:	30 e0       	ldi	r19, 0x00	; 0
    30b8:	24 2b       	or	r18, r20
    30ba:	35 2b       	or	r19, r21
    30bc:	88 0f       	add	r24, r24
    30be:	99 1f       	adc	r25, r25
    30c0:	81 51       	subi	r24, 0x11	; 17
    30c2:	9e 4f       	sbci	r25, 0xFE	; 254
    30c4:	fc 01       	movw	r30, r24
    30c6:	31 83       	std	Z+1, r19	; 0x01
    30c8:	20 83       	st	Z, r18
	run_temp[3 + ((slave_num - 1) * 4)] = usart1_rx_buff[19];
    30ca:	89 81       	ldd	r24, Y+1	; 0x01
    30cc:	88 2f       	mov	r24, r24
    30ce:	90 e0       	ldi	r25, 0x00	; 0
    30d0:	01 97       	sbiw	r24, 0x01	; 1
    30d2:	88 0f       	add	r24, r24
    30d4:	99 1f       	adc	r25, r25
    30d6:	88 0f       	add	r24, r24
    30d8:	99 1f       	adc	r25, r25
    30da:	03 96       	adiw	r24, 0x03	; 3
    30dc:	20 91 75 04 	lds	r18, 0x0475	; 0x800475 <usart1_rx_buff+0x13>
    30e0:	22 2f       	mov	r18, r18
    30e2:	30 e0       	ldi	r19, 0x00	; 0
    30e4:	88 0f       	add	r24, r24
    30e6:	99 1f       	adc	r25, r25
    30e8:	81 51       	subi	r24, 0x11	; 17
    30ea:	9e 4f       	sbci	r25, 0xFE	; 254
    30ec:	fc 01       	movw	r30, r24
    30ee:	31 83       	std	Z+1, r19	; 0x01
    30f0:	20 83       	st	Z, r18
	run_temp[3 + ((slave_num - 1) * 4)] = (run_temp[3 + ((slave_num - 1) * 4)] << 8) | usart1_rx_buff[20];
    30f2:	89 81       	ldd	r24, Y+1	; 0x01
    30f4:	88 2f       	mov	r24, r24
    30f6:	90 e0       	ldi	r25, 0x00	; 0
    30f8:	01 97       	sbiw	r24, 0x01	; 1
    30fa:	88 0f       	add	r24, r24
    30fc:	99 1f       	adc	r25, r25
    30fe:	88 0f       	add	r24, r24
    3100:	99 1f       	adc	r25, r25
    3102:	03 96       	adiw	r24, 0x03	; 3
    3104:	29 81       	ldd	r18, Y+1	; 0x01
    3106:	22 2f       	mov	r18, r18
    3108:	30 e0       	ldi	r19, 0x00	; 0
    310a:	21 50       	subi	r18, 0x01	; 1
    310c:	31 09       	sbc	r19, r1
    310e:	22 0f       	add	r18, r18
    3110:	33 1f       	adc	r19, r19
    3112:	22 0f       	add	r18, r18
    3114:	33 1f       	adc	r19, r19
    3116:	2d 5f       	subi	r18, 0xFD	; 253
    3118:	3f 4f       	sbci	r19, 0xFF	; 255
    311a:	22 0f       	add	r18, r18
    311c:	33 1f       	adc	r19, r19
    311e:	21 51       	subi	r18, 0x11	; 17
    3120:	3e 4f       	sbci	r19, 0xFE	; 254
    3122:	f9 01       	movw	r30, r18
    3124:	20 81       	ld	r18, Z
    3126:	31 81       	ldd	r19, Z+1	; 0x01
    3128:	52 2f       	mov	r21, r18
    312a:	44 27       	eor	r20, r20
    312c:	20 91 76 04 	lds	r18, 0x0476	; 0x800476 <usart1_rx_buff+0x14>
    3130:	22 2f       	mov	r18, r18
    3132:	30 e0       	ldi	r19, 0x00	; 0
    3134:	24 2b       	or	r18, r20
    3136:	35 2b       	or	r19, r21
    3138:	88 0f       	add	r24, r24
    313a:	99 1f       	adc	r25, r25
    313c:	81 51       	subi	r24, 0x11	; 17
    313e:	9e 4f       	sbci	r25, 0xFE	; 254
    3140:	fc 01       	movw	r30, r24
    3142:	31 83       	std	Z+1, r19	; 0x01
    3144:	20 83       	st	Z, r18

	sensor_sta[0 + ((slave_num - 1) * 4)] = usart1_rx_buff[21];
    3146:	89 81       	ldd	r24, Y+1	; 0x01
    3148:	88 2f       	mov	r24, r24
    314a:	90 e0       	ldi	r25, 0x00	; 0
    314c:	01 97       	sbiw	r24, 0x01	; 1
    314e:	88 0f       	add	r24, r24
    3150:	99 1f       	adc	r25, r25
    3152:	88 0f       	add	r24, r24
    3154:	99 1f       	adc	r25, r25
    3156:	20 91 77 04 	lds	r18, 0x0477	; 0x800477 <usart1_rx_buff+0x15>
    315a:	81 54       	subi	r24, 0x41	; 65
    315c:	9e 4f       	sbci	r25, 0xFE	; 254
    315e:	fc 01       	movw	r30, r24
    3160:	20 83       	st	Z, r18
	sensor_sta[1 + ((slave_num - 1) * 4)] = usart1_rx_buff[22];
    3162:	89 81       	ldd	r24, Y+1	; 0x01
    3164:	88 2f       	mov	r24, r24
    3166:	90 e0       	ldi	r25, 0x00	; 0
    3168:	01 97       	sbiw	r24, 0x01	; 1
    316a:	88 0f       	add	r24, r24
    316c:	99 1f       	adc	r25, r25
    316e:	88 0f       	add	r24, r24
    3170:	99 1f       	adc	r25, r25
    3172:	01 96       	adiw	r24, 0x01	; 1
    3174:	20 91 78 04 	lds	r18, 0x0478	; 0x800478 <usart1_rx_buff+0x16>
    3178:	81 54       	subi	r24, 0x41	; 65
    317a:	9e 4f       	sbci	r25, 0xFE	; 254
    317c:	fc 01       	movw	r30, r24
    317e:	20 83       	st	Z, r18
	sensor_sta[2 + ((slave_num - 1) * 4)] = usart1_rx_buff[23];
    3180:	89 81       	ldd	r24, Y+1	; 0x01
    3182:	88 2f       	mov	r24, r24
    3184:	90 e0       	ldi	r25, 0x00	; 0
    3186:	01 97       	sbiw	r24, 0x01	; 1
    3188:	88 0f       	add	r24, r24
    318a:	99 1f       	adc	r25, r25
    318c:	88 0f       	add	r24, r24
    318e:	99 1f       	adc	r25, r25
    3190:	02 96       	adiw	r24, 0x02	; 2
    3192:	20 91 79 04 	lds	r18, 0x0479	; 0x800479 <usart1_rx_buff+0x17>
    3196:	81 54       	subi	r24, 0x41	; 65
    3198:	9e 4f       	sbci	r25, 0xFE	; 254
    319a:	fc 01       	movw	r30, r24
    319c:	20 83       	st	Z, r18
	sensor_sta[3 + ((slave_num - 1) * 4)] = usart1_rx_buff[24];
    319e:	89 81       	ldd	r24, Y+1	; 0x01
    31a0:	88 2f       	mov	r24, r24
    31a2:	90 e0       	ldi	r25, 0x00	; 0
    31a4:	01 97       	sbiw	r24, 0x01	; 1
    31a6:	88 0f       	add	r24, r24
    31a8:	99 1f       	adc	r25, r25
    31aa:	88 0f       	add	r24, r24
    31ac:	99 1f       	adc	r25, r25
    31ae:	03 96       	adiw	r24, 0x03	; 3
    31b0:	20 91 7a 04 	lds	r18, 0x047A	; 0x80047a <usart1_rx_buff+0x18>
    31b4:	81 54       	subi	r24, 0x41	; 65
    31b6:	9e 4f       	sbci	r25, 0xFE	; 254
    31b8:	fc 01       	movw	r30, r24
    31ba:	20 83       	st	Z, r18

	update_main_page();
    31bc:	0e 94 4a 03 	call	0x694	; 0x694 <update_main_page>
}
    31c0:	00 00       	nop
    31c2:	0f 90       	pop	r0
    31c4:	df 91       	pop	r29
    31c6:	cf 91       	pop	r28
    31c8:	08 95       	ret

000031ca <clear_alarm_msg>:

void clear_alarm_msg(uint8_t msg_num)
{
    31ca:	cf 93       	push	r28
    31cc:	df 93       	push	r29
    31ce:	00 d0       	rcall	.+0      	; 0x31d0 <clear_alarm_msg+0x6>
    31d0:	00 d0       	rcall	.+0      	; 0x31d2 <clear_alarm_msg+0x8>
    31d2:	cd b7       	in	r28, 0x3d	; 61
    31d4:	de b7       	in	r29, 0x3e	; 62
    31d6:	8c 83       	std	Y+4, r24	; 0x04
	uint8_t i = 0;
    31d8:	19 82       	std	Y+1, r1	; 0x01
	uint16_t crc = 0;
    31da:	1b 82       	std	Y+3, r1	; 0x03
    31dc:	1a 82       	std	Y+2, r1	; 0x02

	usart0_tx_buff[0] = 0xA5;
    31de:	85 ea       	ldi	r24, 0xA5	; 165
    31e0:	80 93 97 03 	sts	0x0397, r24	; 0x800397 <usart0_tx_buff>
	usart0_tx_buff[1] = 0x5A;
    31e4:	8a e5       	ldi	r24, 0x5A	; 90
    31e6:	80 93 98 03 	sts	0x0398, r24	; 0x800398 <usart0_tx_buff+0x1>
	usart0_tx_buff[2] = 0x13;
    31ea:	83 e1       	ldi	r24, 0x13	; 19
    31ec:	80 93 99 03 	sts	0x0399, r24	; 0x800399 <usart0_tx_buff+0x2>
	usart0_tx_buff[3] = 0x82;
    31f0:	82 e8       	ldi	r24, 0x82	; 130
    31f2:	80 93 9a 03 	sts	0x039A, r24	; 0x80039a <usart0_tx_buff+0x3>
	usart0_tx_buff[4] = (ALAEM_MSG1_ADDR + (msg_num * 16)) >> 8;
    31f6:	8c 81       	ldd	r24, Y+4	; 0x04
    31f8:	88 2f       	mov	r24, r24
    31fa:	90 e0       	ldi	r25, 0x00	; 0
    31fc:	8b 96       	adiw	r24, 0x2b	; 43
    31fe:	82 95       	swap	r24
    3200:	92 95       	swap	r25
    3202:	90 7f       	andi	r25, 0xF0	; 240
    3204:	98 27       	eor	r25, r24
    3206:	80 7f       	andi	r24, 0xF0	; 240
    3208:	98 27       	eor	r25, r24
    320a:	89 2f       	mov	r24, r25
    320c:	99 0f       	add	r25, r25
    320e:	99 0b       	sbc	r25, r25
    3210:	80 93 9b 03 	sts	0x039B, r24	; 0x80039b <usart0_tx_buff+0x4>
	usart0_tx_buff[5] = (ALAEM_MSG1_ADDR + (msg_num * 16)) & 0x00FF;
    3214:	8c 81       	ldd	r24, Y+4	; 0x04
    3216:	88 2f       	mov	r24, r24
    3218:	90 e0       	ldi	r25, 0x00	; 0
    321a:	8b 96       	adiw	r24, 0x2b	; 43
    321c:	82 95       	swap	r24
    321e:	80 7f       	andi	r24, 0xF0	; 240
    3220:	80 93 9c 03 	sts	0x039C, r24	; 0x80039c <usart0_tx_buff+0x5>

	for (i = 0; i < 16; i++)
    3224:	19 82       	std	Y+1, r1	; 0x01
    3226:	0b c0       	rjmp	.+22     	; 0x323e <clear_alarm_msg+0x74>
	{
		usart0_tx_buff[i + 6] = 0x00;
    3228:	89 81       	ldd	r24, Y+1	; 0x01
    322a:	88 2f       	mov	r24, r24
    322c:	90 e0       	ldi	r25, 0x00	; 0
    322e:	06 96       	adiw	r24, 0x06	; 6
    3230:	89 56       	subi	r24, 0x69	; 105
    3232:	9c 4f       	sbci	r25, 0xFC	; 252
    3234:	fc 01       	movw	r30, r24
    3236:	10 82       	st	Z, r1
	usart0_tx_buff[2] = 0x13;
	usart0_tx_buff[3] = 0x82;
	usart0_tx_buff[4] = (ALAEM_MSG1_ADDR + (msg_num * 16)) >> 8;
	usart0_tx_buff[5] = (ALAEM_MSG1_ADDR + (msg_num * 16)) & 0x00FF;

	for (i = 0; i < 16; i++)
    3238:	89 81       	ldd	r24, Y+1	; 0x01
    323a:	8f 5f       	subi	r24, 0xFF	; 255
    323c:	89 83       	std	Y+1, r24	; 0x01
    323e:	89 81       	ldd	r24, Y+1	; 0x01
    3240:	80 31       	cpi	r24, 0x10	; 16
    3242:	90 f3       	brcs	.-28     	; 0x3228 <clear_alarm_msg+0x5e>
	{
		usart0_tx_buff[i + 6] = 0x00;
	}

	crc = crc_check(usart0_tx_buff, 24);
    3244:	68 e1       	ldi	r22, 0x18	; 24
    3246:	87 e9       	ldi	r24, 0x97	; 151
    3248:	93 e0       	ldi	r25, 0x03	; 3
    324a:	0e 94 d9 26 	call	0x4db2	; 0x4db2 <crc_check>
    324e:	9b 83       	std	Y+3, r25	; 0x03
    3250:	8a 83       	std	Y+2, r24	; 0x02

	usart0_tx_buff[22] = crc & 0x00FF;
    3252:	8a 81       	ldd	r24, Y+2	; 0x02
    3254:	80 93 ad 03 	sts	0x03AD, r24	; 0x8003ad <usart0_tx_buff+0x16>
	usart0_tx_buff[23] = crc >> 8;
    3258:	8a 81       	ldd	r24, Y+2	; 0x02
    325a:	9b 81       	ldd	r25, Y+3	; 0x03
    325c:	89 2f       	mov	r24, r25
    325e:	99 27       	eor	r25, r25
    3260:	80 93 ae 03 	sts	0x03AE, r24	; 0x8003ae <usart0_tx_buff+0x17>

	usart0_send_str(usart0_tx_buff, 24);
    3264:	68 e1       	ldi	r22, 0x18	; 24
    3266:	87 e9       	ldi	r24, 0x97	; 151
    3268:	93 e0       	ldi	r25, 0x03	; 3
    326a:	0e 94 20 26 	call	0x4c40	; 0x4c40 <usart0_send_str>

	send_variables(ALARM_DEVICE_NUM1_ADDR + (msg_num * 2), 0x0000);
    326e:	8c 81       	ldd	r24, Y+4	; 0x04
    3270:	88 2f       	mov	r24, r24
    3272:	90 e0       	ldi	r25, 0x00	; 0
    3274:	80 57       	subi	r24, 0x70	; 112
    3276:	9e 4f       	sbci	r25, 0xFE	; 254
    3278:	88 0f       	add	r24, r24
    327a:	99 1f       	adc	r25, r25
    327c:	60 e0       	ldi	r22, 0x00	; 0
    327e:	70 e0       	ldi	r23, 0x00	; 0
    3280:	0e 94 bc 12 	call	0x2578	; 0x2578 <send_variables>
}
    3284:	00 00       	nop
    3286:	0f 90       	pop	r0
    3288:	0f 90       	pop	r0
    328a:	0f 90       	pop	r0
    328c:	0f 90       	pop	r0
    328e:	df 91       	pop	r29
    3290:	cf 91       	pop	r28
    3292:	08 95       	ret

00003294 <clear_all_alarm_msg>:

/*清除所有告警清单中的信息*/
void clear_all_alarm_msg(void)
{
    3294:	cf 93       	push	r28
    3296:	df 93       	push	r29
    3298:	1f 92       	push	r1
    329a:	cd b7       	in	r28, 0x3d	; 61
    329c:	de b7       	in	r29, 0x3e	; 62
	uint8_t i;

	alarm_cnt = 0;
    329e:	10 92 bb 02 	sts	0x02BB, r1	; 0x8002bb <alarm_cnt>

	for (i = 0; i < 7; i++)
    32a2:	19 82       	std	Y+1, r1	; 0x01
    32a4:	06 c0       	rjmp	.+12     	; 0x32b2 <clear_all_alarm_msg+0x1e>
	{
		clear_alarm_msg(i);
    32a6:	89 81       	ldd	r24, Y+1	; 0x01
    32a8:	0e 94 e5 18 	call	0x31ca	; 0x31ca <clear_alarm_msg>
{
	uint8_t i;

	alarm_cnt = 0;

	for (i = 0; i < 7; i++)
    32ac:	89 81       	ldd	r24, Y+1	; 0x01
    32ae:	8f 5f       	subi	r24, 0xFF	; 255
    32b0:	89 83       	std	Y+1, r24	; 0x01
    32b2:	89 81       	ldd	r24, Y+1	; 0x01
    32b4:	87 30       	cpi	r24, 0x07	; 7
    32b6:	b8 f3       	brcs	.-18     	; 0x32a6 <clear_all_alarm_msg+0x12>
	{
		clear_alarm_msg(i);
	}

	update_alarm_page(1);
    32b8:	81 e0       	ldi	r24, 0x01	; 1
    32ba:	0e 94 e8 11 	call	0x23d0	; 0x23d0 <update_alarm_page>
	eeprom_write_byte((uint8_t *)ALARM_CNT_EEADDR, alarm_cnt);
    32be:	80 91 bb 02 	lds	r24, 0x02BB	; 0x8002bb <alarm_cnt>
    32c2:	68 2f       	mov	r22, r24
    32c4:	82 e0       	ldi	r24, 0x02	; 2
    32c6:	90 e0       	ldi	r25, 0x00	; 0
    32c8:	0e 94 8a 28 	call	0x5114	; 0x5114 <eeprom_write_byte>
}
    32cc:	00 00       	nop
    32ce:	0f 90       	pop	r0
    32d0:	df 91       	pop	r29
    32d2:	cf 91       	pop	r28
    32d4:	08 95       	ret

000032d6 <clear_curve_buff>:

void clear_curve_buff(uint8_t channel)
{
    32d6:	cf 93       	push	r28
    32d8:	df 93       	push	r29
    32da:	00 d0       	rcall	.+0      	; 0x32dc <clear_curve_buff+0x6>
    32dc:	1f 92       	push	r1
    32de:	cd b7       	in	r28, 0x3d	; 61
    32e0:	de b7       	in	r29, 0x3e	; 62
    32e2:	8b 83       	std	Y+3, r24	; 0x03
	uint16_t crc = 0;
    32e4:	1a 82       	std	Y+2, r1	; 0x02
    32e6:	19 82       	std	Y+1, r1	; 0x01

	usart0_tx_buff[0] = 0xA5;
    32e8:	85 ea       	ldi	r24, 0xA5	; 165
    32ea:	80 93 97 03 	sts	0x0397, r24	; 0x800397 <usart0_tx_buff>
	usart0_tx_buff[1] = 0x5A;
    32ee:	8a e5       	ldi	r24, 0x5A	; 90
    32f0:	80 93 98 03 	sts	0x0398, r24	; 0x800398 <usart0_tx_buff+0x1>
	usart0_tx_buff[2] = 0x03;
    32f4:	83 e0       	ldi	r24, 0x03	; 3
    32f6:	80 93 99 03 	sts	0x0399, r24	; 0x800399 <usart0_tx_buff+0x2>
	usart0_tx_buff[3] = 0x80;
    32fa:	80 e8       	ldi	r24, 0x80	; 128
    32fc:	80 93 9a 03 	sts	0x039A, r24	; 0x80039a <usart0_tx_buff+0x3>
	usart0_tx_buff[4] = 0xEB;
    3300:	8b ee       	ldi	r24, 0xEB	; 235
    3302:	80 93 9b 03 	sts	0x039B, r24	; 0x80039b <usart0_tx_buff+0x4>
	usart0_tx_buff[5] = channel;
    3306:	8b 81       	ldd	r24, Y+3	; 0x03
    3308:	80 93 9c 03 	sts	0x039C, r24	; 0x80039c <usart0_tx_buff+0x5>

	crc = crc_check(usart0_tx_buff, 8);
    330c:	68 e0       	ldi	r22, 0x08	; 8
    330e:	87 e9       	ldi	r24, 0x97	; 151
    3310:	93 e0       	ldi	r25, 0x03	; 3
    3312:	0e 94 d9 26 	call	0x4db2	; 0x4db2 <crc_check>
    3316:	9a 83       	std	Y+2, r25	; 0x02
    3318:	89 83       	std	Y+1, r24	; 0x01

	usart0_tx_buff[6] = crc & 0x00FF;
    331a:	89 81       	ldd	r24, Y+1	; 0x01
    331c:	80 93 9d 03 	sts	0x039D, r24	; 0x80039d <usart0_tx_buff+0x6>
	usart0_tx_buff[7] = crc >> 8;
    3320:	89 81       	ldd	r24, Y+1	; 0x01
    3322:	9a 81       	ldd	r25, Y+2	; 0x02
    3324:	89 2f       	mov	r24, r25
    3326:	99 27       	eor	r25, r25
    3328:	80 93 9e 03 	sts	0x039E, r24	; 0x80039e <usart0_tx_buff+0x7>

	usart0_send_str(usart0_tx_buff, 8);
    332c:	68 e0       	ldi	r22, 0x08	; 8
    332e:	87 e9       	ldi	r24, 0x97	; 151
    3330:	93 e0       	ldi	r25, 0x03	; 3
    3332:	0e 94 20 26 	call	0x4c40	; 0x4c40 <usart0_send_str>
}
    3336:	00 00       	nop
    3338:	0f 90       	pop	r0
    333a:	0f 90       	pop	r0
    333c:	0f 90       	pop	r0
    333e:	df 91       	pop	r29
    3340:	cf 91       	pop	r28
    3342:	08 95       	ret

00003344 <alarm_monitor>:

void alarm_monitor(void)
{
    3344:	cf 93       	push	r28
    3346:	df 93       	push	r29
    3348:	00 d0       	rcall	.+0      	; 0x334a <alarm_monitor+0x6>
    334a:	00 d0       	rcall	.+0      	; 0x334c <alarm_monitor+0x8>
    334c:	cd b7       	in	r28, 0x3d	; 61
    334e:	de b7       	in	r29, 0x3e	; 62
	uint8_t i, j;
	uint16_t alarm_sta_mask = 0;
    3350:	1c 82       	std	Y+4, r1	; 0x04
    3352:	1b 82       	std	Y+3, r1	; 0x03

	for (i = 0; i < MAX_IQR_QUANTITY; i++)
    3354:	19 82       	std	Y+1, r1	; 0x01
    3356:	d0 c0       	rjmp	.+416    	; 0x34f8 <alarm_monitor+0x1b4>
	{
		if (sensor_sta[i] != pre_sensor_sta[i])
    3358:	89 81       	ldd	r24, Y+1	; 0x01
    335a:	88 2f       	mov	r24, r24
    335c:	90 e0       	ldi	r25, 0x00	; 0
    335e:	81 54       	subi	r24, 0x41	; 65
    3360:	9e 4f       	sbci	r25, 0xFE	; 254
    3362:	fc 01       	movw	r30, r24
    3364:	20 81       	ld	r18, Z
    3366:	89 81       	ldd	r24, Y+1	; 0x01
    3368:	88 2f       	mov	r24, r24
    336a:	90 e0       	ldi	r25, 0x00	; 0
    336c:	89 52       	subi	r24, 0x29	; 41
    336e:	9e 4f       	sbci	r25, 0xFE	; 254
    3370:	fc 01       	movw	r30, r24
    3372:	80 81       	ld	r24, Z
    3374:	28 17       	cp	r18, r24
    3376:	09 f4       	brne	.+2      	; 0x337a <alarm_monitor+0x36>
    3378:	a2 c0       	rjmp	.+324    	; 0x34be <alarm_monitor+0x17a>
		{
			pre_sensor_sta[i] = sensor_sta[i];
    337a:	89 81       	ldd	r24, Y+1	; 0x01
    337c:	88 2f       	mov	r24, r24
    337e:	90 e0       	ldi	r25, 0x00	; 0
    3380:	29 81       	ldd	r18, Y+1	; 0x01
    3382:	22 2f       	mov	r18, r18
    3384:	30 e0       	ldi	r19, 0x00	; 0
    3386:	21 54       	subi	r18, 0x41	; 65
    3388:	3e 4f       	sbci	r19, 0xFE	; 254
    338a:	f9 01       	movw	r30, r18
    338c:	20 81       	ld	r18, Z
    338e:	89 52       	subi	r24, 0x29	; 41
    3390:	9e 4f       	sbci	r25, 0xFE	; 254
    3392:	fc 01       	movw	r30, r24
    3394:	20 83       	st	Z, r18

			if (sensor_sta[i] >= 3)
    3396:	89 81       	ldd	r24, Y+1	; 0x01
    3398:	88 2f       	mov	r24, r24
    339a:	90 e0       	ldi	r25, 0x00	; 0
    339c:	81 54       	subi	r24, 0x41	; 65
    339e:	9e 4f       	sbci	r25, 0xFE	; 254
    33a0:	fc 01       	movw	r30, r24
    33a2:	80 81       	ld	r24, Z
    33a4:	83 30       	cpi	r24, 0x03	; 3
    33a6:	08 f4       	brcc	.+2      	; 0x33aa <alarm_monitor+0x66>
    33a8:	8a c0       	rjmp	.+276    	; 0x34be <alarm_monitor+0x17a>
			{
				ALARM_ON;
    33aa:	82 e3       	ldi	r24, 0x32	; 50
    33ac:	90 e0       	ldi	r25, 0x00	; 0
    33ae:	22 e3       	ldi	r18, 0x32	; 50
    33b0:	30 e0       	ldi	r19, 0x00	; 0
    33b2:	f9 01       	movw	r30, r18
    33b4:	20 81       	ld	r18, Z
    33b6:	20 61       	ori	r18, 0x10	; 16
    33b8:	fc 01       	movw	r30, r24
    33ba:	20 83       	st	Z, r18
				LED6_ON;
    33bc:	8b e3       	ldi	r24, 0x3B	; 59
    33be:	90 e0       	ldi	r25, 0x00	; 0
    33c0:	2b e3       	ldi	r18, 0x3B	; 59
    33c2:	30 e0       	ldi	r19, 0x00	; 0
    33c4:	f9 01       	movw	r30, r18
    33c6:	20 81       	ld	r18, Z
    33c8:	2d 7f       	andi	r18, 0xFD	; 253
    33ca:	fc 01       	movw	r30, r24
    33cc:	20 83       	st	Z, r18

				if (alarm_cnt >= MAX_ALARM_HISTORY - 1)
    33ce:	80 91 bb 02 	lds	r24, 0x02BB	; 0x8002bb <alarm_cnt>
    33d2:	85 34       	cpi	r24, 0x45	; 69
    33d4:	18 f1       	brcs	.+70     	; 0x341c <alarm_monitor+0xd8>
				{
					alarm_cnt = MAX_ALARM_HISTORY - 1;
    33d6:	85 e4       	ldi	r24, 0x45	; 69
    33d8:	80 93 bb 02 	sts	0x02BB, r24	; 0x8002bb <alarm_cnt>
					for (j = 0; j < alarm_cnt; j++)
    33dc:	1a 82       	std	Y+2, r1	; 0x02
    33de:	19 c0       	rjmp	.+50     	; 0x3412 <alarm_monitor+0xce>
					{
						alarm_history[j] = alarm_history[j + 1];
    33e0:	8a 81       	ldd	r24, Y+2	; 0x02
    33e2:	88 2f       	mov	r24, r24
    33e4:	90 e0       	ldi	r25, 0x00	; 0
    33e6:	2a 81       	ldd	r18, Y+2	; 0x02
    33e8:	22 2f       	mov	r18, r18
    33ea:	30 e0       	ldi	r19, 0x00	; 0
    33ec:	2f 5f       	subi	r18, 0xFF	; 255
    33ee:	3f 4f       	sbci	r19, 0xFF	; 255
    33f0:	88 0f       	add	r24, r24
    33f2:	99 1f       	adc	r25, r25
    33f4:	8e 54       	subi	r24, 0x4E	; 78
    33f6:	97 4f       	sbci	r25, 0xF7	; 247
    33f8:	22 0f       	add	r18, r18
    33fa:	33 1f       	adc	r19, r19
    33fc:	2e 54       	subi	r18, 0x4E	; 78
    33fe:	37 4f       	sbci	r19, 0xF7	; 247
    3400:	f9 01       	movw	r30, r18
    3402:	20 81       	ld	r18, Z
    3404:	31 81       	ldd	r19, Z+1	; 0x01
    3406:	fc 01       	movw	r30, r24
    3408:	31 83       	std	Z+1, r19	; 0x01
    340a:	20 83       	st	Z, r18
				LED6_ON;

				if (alarm_cnt >= MAX_ALARM_HISTORY - 1)
				{
					alarm_cnt = MAX_ALARM_HISTORY - 1;
					for (j = 0; j < alarm_cnt; j++)
    340c:	8a 81       	ldd	r24, Y+2	; 0x02
    340e:	8f 5f       	subi	r24, 0xFF	; 255
    3410:	8a 83       	std	Y+2, r24	; 0x02
    3412:	80 91 bb 02 	lds	r24, 0x02BB	; 0x8002bb <alarm_cnt>
    3416:	9a 81       	ldd	r25, Y+2	; 0x02
    3418:	98 17       	cp	r25, r24
    341a:	10 f3       	brcs	.-60     	; 0x33e0 <alarm_monitor+0x9c>
					{
						alarm_history[j] = alarm_history[j + 1];
					}
				}
				alarm_history[alarm_cnt].alarm_type = sensor_sta[i] - 3;
    341c:	80 91 bb 02 	lds	r24, 0x02BB	; 0x8002bb <alarm_cnt>
    3420:	88 2f       	mov	r24, r24
    3422:	90 e0       	ldi	r25, 0x00	; 0
    3424:	29 81       	ldd	r18, Y+1	; 0x01
    3426:	22 2f       	mov	r18, r18
    3428:	30 e0       	ldi	r19, 0x00	; 0
    342a:	21 54       	subi	r18, 0x41	; 65
    342c:	3e 4f       	sbci	r19, 0xFE	; 254
    342e:	f9 01       	movw	r30, r18
    3430:	20 81       	ld	r18, Z
    3432:	23 50       	subi	r18, 0x03	; 3
    3434:	88 0f       	add	r24, r24
    3436:	99 1f       	adc	r25, r25
    3438:	8e 54       	subi	r24, 0x4E	; 78
    343a:	97 4f       	sbci	r25, 0xF7	; 247
    343c:	fc 01       	movw	r30, r24
    343e:	20 83       	st	Z, r18
				alarm_history[alarm_cnt].alarm_device_num = i;
    3440:	80 91 bb 02 	lds	r24, 0x02BB	; 0x8002bb <alarm_cnt>
    3444:	88 2f       	mov	r24, r24
    3446:	90 e0       	ldi	r25, 0x00	; 0
    3448:	88 0f       	add	r24, r24
    344a:	99 1f       	adc	r25, r25
    344c:	8d 54       	subi	r24, 0x4D	; 77
    344e:	97 4f       	sbci	r25, 0xF7	; 247
    3450:	29 81       	ldd	r18, Y+1	; 0x01
    3452:	fc 01       	movw	r30, r24
    3454:	20 83       	st	Z, r18

				eeprom_write_byte((uint8_t *)(ALARM_HISTORY_EEADDR + alarm_cnt * 2 + 1),
    3456:	80 91 bb 02 	lds	r24, 0x02BB	; 0x8002bb <alarm_cnt>
    345a:	88 2f       	mov	r24, r24
    345c:	90 e0       	ldi	r25, 0x00	; 0
								  alarm_history[alarm_cnt].alarm_type);
    345e:	88 0f       	add	r24, r24
    3460:	99 1f       	adc	r25, r25
    3462:	8e 54       	subi	r24, 0x4E	; 78
    3464:	97 4f       	sbci	r25, 0xF7	; 247
    3466:	fc 01       	movw	r30, r24
    3468:	20 81       	ld	r18, Z
					}
				}
				alarm_history[alarm_cnt].alarm_type = sensor_sta[i] - 3;
				alarm_history[alarm_cnt].alarm_device_num = i;

				eeprom_write_byte((uint8_t *)(ALARM_HISTORY_EEADDR + alarm_cnt * 2 + 1),
    346a:	80 91 bb 02 	lds	r24, 0x02BB	; 0x8002bb <alarm_cnt>
    346e:	88 2f       	mov	r24, r24
    3470:	90 e0       	ldi	r25, 0x00	; 0
    3472:	02 96       	adiw	r24, 0x02	; 2
    3474:	88 0f       	add	r24, r24
    3476:	99 1f       	adc	r25, r25
    3478:	62 2f       	mov	r22, r18
    347a:	0e 94 8a 28 	call	0x5114	; 0x5114 <eeprom_write_byte>
								  alarm_history[alarm_cnt].alarm_type);
				eeprom_write_byte((uint8_t *)(ALARM_HISTORY_EEADDR + alarm_cnt * 2),
    347e:	80 91 bb 02 	lds	r24, 0x02BB	; 0x8002bb <alarm_cnt>
    3482:	88 2f       	mov	r24, r24
    3484:	90 e0       	ldi	r25, 0x00	; 0
    3486:	88 0f       	add	r24, r24
    3488:	99 1f       	adc	r25, r25
    348a:	8d 54       	subi	r24, 0x4D	; 77
    348c:	97 4f       	sbci	r25, 0xF7	; 247
    348e:	fc 01       	movw	r30, r24
    3490:	20 81       	ld	r18, Z
    3492:	80 91 bb 02 	lds	r24, 0x02BB	; 0x8002bb <alarm_cnt>
    3496:	88 2f       	mov	r24, r24
    3498:	90 e0       	ldi	r25, 0x00	; 0
    349a:	88 0f       	add	r24, r24
    349c:	99 1f       	adc	r25, r25
    349e:	03 96       	adiw	r24, 0x03	; 3
    34a0:	62 2f       	mov	r22, r18
    34a2:	0e 94 8a 28 	call	0x5114	; 0x5114 <eeprom_write_byte>
								  alarm_history[alarm_cnt].alarm_device_num);
				eeprom_write_byte((uint8_t *)ALARM_CNT_EEADDR, ++alarm_cnt);
    34a6:	80 91 bb 02 	lds	r24, 0x02BB	; 0x8002bb <alarm_cnt>
    34aa:	8f 5f       	subi	r24, 0xFF	; 255
    34ac:	80 93 bb 02 	sts	0x02BB, r24	; 0x8002bb <alarm_cnt>
    34b0:	80 91 bb 02 	lds	r24, 0x02BB	; 0x8002bb <alarm_cnt>
    34b4:	68 2f       	mov	r22, r24
    34b6:	82 e0       	ldi	r24, 0x02	; 2
    34b8:	90 e0       	ldi	r25, 0x00	; 0
    34ba:	0e 94 8a 28 	call	0x5114	; 0x5114 <eeprom_write_byte>
			}
		}

		if (sensor_sta[i] <= 2)
    34be:	89 81       	ldd	r24, Y+1	; 0x01
    34c0:	88 2f       	mov	r24, r24
    34c2:	90 e0       	ldi	r25, 0x00	; 0
    34c4:	81 54       	subi	r24, 0x41	; 65
    34c6:	9e 4f       	sbci	r25, 0xFE	; 254
    34c8:	fc 01       	movw	r30, r24
    34ca:	80 81       	ld	r24, Z
    34cc:	83 30       	cpi	r24, 0x03	; 3
    34ce:	88 f4       	brcc	.+34     	; 0x34f2 <alarm_monitor+0x1ae>
		{
			alarm_sta_mask |= 1 << i;
    34d0:	89 81       	ldd	r24, Y+1	; 0x01
    34d2:	28 2f       	mov	r18, r24
    34d4:	30 e0       	ldi	r19, 0x00	; 0
    34d6:	81 e0       	ldi	r24, 0x01	; 1
    34d8:	90 e0       	ldi	r25, 0x00	; 0
    34da:	02 c0       	rjmp	.+4      	; 0x34e0 <alarm_monitor+0x19c>
    34dc:	88 0f       	add	r24, r24
    34de:	99 1f       	adc	r25, r25
    34e0:	2a 95       	dec	r18
    34e2:	e2 f7       	brpl	.-8      	; 0x34dc <alarm_monitor+0x198>
    34e4:	9c 01       	movw	r18, r24
    34e6:	8b 81       	ldd	r24, Y+3	; 0x03
    34e8:	9c 81       	ldd	r25, Y+4	; 0x04
    34ea:	82 2b       	or	r24, r18
    34ec:	93 2b       	or	r25, r19
    34ee:	9c 83       	std	Y+4, r25	; 0x04
    34f0:	8b 83       	std	Y+3, r24	; 0x03
void alarm_monitor(void)
{
	uint8_t i, j;
	uint16_t alarm_sta_mask = 0;

	for (i = 0; i < MAX_IQR_QUANTITY; i++)
    34f2:	89 81       	ldd	r24, Y+1	; 0x01
    34f4:	8f 5f       	subi	r24, 0xFF	; 255
    34f6:	89 83       	std	Y+1, r24	; 0x01
    34f8:	89 81       	ldd	r24, Y+1	; 0x01
    34fa:	88 31       	cpi	r24, 0x18	; 24
    34fc:	08 f4       	brcc	.+2      	; 0x3500 <alarm_monitor+0x1bc>
    34fe:	2c cf       	rjmp	.-424    	; 0x3358 <alarm_monitor+0x14>
			alarm_sta_mask |= 1 << i;
		}
	}

	/*如果无告警 则自动关闭报警器*/
	if (alarm_sta_mask == 0x0FFF)
    3500:	8b 81       	ldd	r24, Y+3	; 0x03
    3502:	9c 81       	ldd	r25, Y+4	; 0x04
    3504:	8f 3f       	cpi	r24, 0xFF	; 255
    3506:	9f 40       	sbci	r25, 0x0F	; 15
    3508:	91 f4       	brne	.+36     	; 0x352e <alarm_monitor+0x1ea>
	{
		ALARM_OFF;
    350a:	82 e3       	ldi	r24, 0x32	; 50
    350c:	90 e0       	ldi	r25, 0x00	; 0
    350e:	22 e3       	ldi	r18, 0x32	; 50
    3510:	30 e0       	ldi	r19, 0x00	; 0
    3512:	f9 01       	movw	r30, r18
    3514:	20 81       	ld	r18, Z
    3516:	2f 7e       	andi	r18, 0xEF	; 239
    3518:	fc 01       	movw	r30, r24
    351a:	20 83       	st	Z, r18
		LED6_OFF;
    351c:	8b e3       	ldi	r24, 0x3B	; 59
    351e:	90 e0       	ldi	r25, 0x00	; 0
    3520:	2b e3       	ldi	r18, 0x3B	; 59
    3522:	30 e0       	ldi	r19, 0x00	; 0
    3524:	f9 01       	movw	r30, r18
    3526:	20 81       	ld	r18, Z
    3528:	22 60       	ori	r18, 0x02	; 2
    352a:	fc 01       	movw	r30, r24
    352c:	20 83       	st	Z, r18
	}
	alarm_sta_mask = 0;
    352e:	1c 82       	std	Y+4, r1	; 0x04
    3530:	1b 82       	std	Y+3, r1	; 0x03
}
    3532:	00 00       	nop
    3534:	0f 90       	pop	r0
    3536:	0f 90       	pop	r0
    3538:	0f 90       	pop	r0
    353a:	0f 90       	pop	r0
    353c:	df 91       	pop	r29
    353e:	cf 91       	pop	r28
    3540:	08 95       	ret

00003542 <update_template_page>:

void update_template_page(uint8_t page_num)
{
    3542:	cf 93       	push	r28
    3544:	df 93       	push	r29
    3546:	00 d0       	rcall	.+0      	; 0x3548 <update_template_page+0x6>
    3548:	cd b7       	in	r28, 0x3d	; 61
    354a:	de b7       	in	r29, 0x3e	; 62
    354c:	8a 83       	std	Y+2, r24	; 0x02
	uint8_t i;
	
	for(i=0;i<6;i++)
    354e:	19 82       	std	Y+1, r1	; 0x01
    3550:	1e c0       	rjmp	.+60     	; 0x358e <update_template_page+0x4c>
	{
		send_variables(TEMPLATE_NUM1 + i*2, page_num * 6 + i + 1);
    3552:	8a 81       	ldd	r24, Y+2	; 0x02
    3554:	28 2f       	mov	r18, r24
    3556:	30 e0       	ldi	r19, 0x00	; 0
    3558:	c9 01       	movw	r24, r18
    355a:	88 0f       	add	r24, r24
    355c:	99 1f       	adc	r25, r25
    355e:	82 0f       	add	r24, r18
    3560:	93 1f       	adc	r25, r19
    3562:	88 0f       	add	r24, r24
    3564:	99 1f       	adc	r25, r25
    3566:	9c 01       	movw	r18, r24
    3568:	89 81       	ldd	r24, Y+1	; 0x01
    356a:	88 2f       	mov	r24, r24
    356c:	90 e0       	ldi	r25, 0x00	; 0
    356e:	82 0f       	add	r24, r18
    3570:	93 1f       	adc	r25, r19
    3572:	01 96       	adiw	r24, 0x01	; 1
    3574:	9c 01       	movw	r18, r24
    3576:	89 81       	ldd	r24, Y+1	; 0x01
    3578:	88 2f       	mov	r24, r24
    357a:	90 e0       	ldi	r25, 0x00	; 0
    357c:	cc 96       	adiw	r24, 0x3c	; 60
    357e:	88 0f       	add	r24, r24
    3580:	99 1f       	adc	r25, r25
    3582:	b9 01       	movw	r22, r18
    3584:	0e 94 bc 12 	call	0x2578	; 0x2578 <send_variables>

void update_template_page(uint8_t page_num)
{
	uint8_t i;
	
	for(i=0;i<6;i++)
    3588:	89 81       	ldd	r24, Y+1	; 0x01
    358a:	8f 5f       	subi	r24, 0xFF	; 255
    358c:	89 83       	std	Y+1, r24	; 0x01
    358e:	89 81       	ldd	r24, Y+1	; 0x01
    3590:	86 30       	cpi	r24, 0x06	; 6
    3592:	f8 f2       	brcs	.-66     	; 0x3552 <update_template_page+0x10>
	{
		send_variables(TEMPLATE_NUM1 + i*2, page_num * 6 + i + 1);
	}
	
	for(i=0; i < template_cnt; i++)
    3594:	19 82       	std	Y+1, r1	; 0x01
    3596:	03 c0       	rjmp	.+6      	; 0x359e <update_template_page+0x5c>
    3598:	89 81       	ldd	r24, Y+1	; 0x01
    359a:	8f 5f       	subi	r24, 0xFF	; 255
    359c:	89 83       	std	Y+1, r24	; 0x01
    359e:	80 91 bc 02 	lds	r24, 0x02BC	; 0x8002bc <template_cnt>
    35a2:	99 81       	ldd	r25, Y+1	; 0x01
    35a4:	98 17       	cp	r25, r24
    35a6:	c0 f3       	brcs	.-16     	; 0x3598 <update_template_page+0x56>
	{
		//从外部eeprom读取参数
	}

	for(; i < 6; i++)
    35a8:	0d c0       	rjmp	.+26     	; 0x35c4 <update_template_page+0x82>
	{
		send_variables(TEMPLATE_NUM1 + i*2, 0);			//清除名字
    35aa:	89 81       	ldd	r24, Y+1	; 0x01
    35ac:	88 2f       	mov	r24, r24
    35ae:	90 e0       	ldi	r25, 0x00	; 0
    35b0:	cc 96       	adiw	r24, 0x3c	; 60
    35b2:	88 0f       	add	r24, r24
    35b4:	99 1f       	adc	r25, r25
    35b6:	60 e0       	ldi	r22, 0x00	; 0
    35b8:	70 e0       	ldi	r23, 0x00	; 0
    35ba:	0e 94 bc 12 	call	0x2578	; 0x2578 <send_variables>
	for(i=0; i < template_cnt; i++)
	{
		//从外部eeprom读取参数
	}

	for(; i < 6; i++)
    35be:	89 81       	ldd	r24, Y+1	; 0x01
    35c0:	8f 5f       	subi	r24, 0xFF	; 255
    35c2:	89 83       	std	Y+1, r24	; 0x01
    35c4:	89 81       	ldd	r24, Y+1	; 0x01
    35c6:	86 30       	cpi	r24, 0x06	; 6
    35c8:	80 f3       	brcs	.-32     	; 0x35aa <update_template_page+0x68>
	{
		send_variables(TEMPLATE_NUM1 + i*2, 0);			//清除名字
	}
}
    35ca:	00 00       	nop
    35cc:	0f 90       	pop	r0
    35ce:	0f 90       	pop	r0
    35d0:	df 91       	pop	r29
    35d2:	cf 91       	pop	r28
    35d4:	08 95       	ret

000035d6 <read_eeprom_data>:
#include "dgus.h"
#include "usart.h"

/*当前语言 告警 射胶阀控制时间参数*/
void read_eeprom_data(void)
{
    35d6:	cf 92       	push	r12
    35d8:	df 92       	push	r13
    35da:	ef 92       	push	r14
    35dc:	ff 92       	push	r15
    35de:	0f 93       	push	r16
    35e0:	1f 93       	push	r17
    35e2:	cf 93       	push	r28
    35e4:	df 93       	push	r29
    35e6:	00 d0       	rcall	.+0      	; 0x35e8 <read_eeprom_data+0x12>
    35e8:	1f 92       	push	r1
    35ea:	cd b7       	in	r28, 0x3d	; 61
    35ec:	de b7       	in	r29, 0x3e	; 62
	uint8_t i,j,k;

	if (eeprom_read_byte((uint8_t *)FIRST_START_ADDR) != 'y')
    35ee:	80 e0       	ldi	r24, 0x00	; 0
    35f0:	90 e0       	ldi	r25, 0x00	; 0
    35f2:	0e 94 7c 28 	call	0x50f8	; 0x50f8 <eeprom_read_byte>
    35f6:	89 37       	cpi	r24, 0x79	; 121
    35f8:	09 f4       	brne	.+2      	; 0x35fc <read_eeprom_data+0x26>
    35fa:	69 c0       	rjmp	.+210    	; 0x36ce <read_eeprom_data+0xf8>
	{
		eeprom_write_byte((uint8_t *)PRE_LANGUAGE_EEADDR, 0); //当前语言 与开机时切换到的界面有关
    35fc:	60 e0       	ldi	r22, 0x00	; 0
    35fe:	81 e0       	ldi	r24, 0x01	; 1
    3600:	90 e0       	ldi	r25, 0x00	; 0
    3602:	0e 94 8a 28 	call	0x5114	; 0x5114 <eeprom_write_byte>
		eeprom_write_byte((uint8_t *)ALARM_CNT_EEADDR, 0);	//告警清单数量
    3606:	60 e0       	ldi	r22, 0x00	; 0
    3608:	82 e0       	ldi	r24, 0x02	; 2
    360a:	90 e0       	ldi	r25, 0x00	; 0
    360c:	0e 94 8a 28 	call	0x5114	; 0x5114 <eeprom_write_byte>
		
		for(i=0;i<4;i++)
    3610:	19 82       	std	Y+1, r1	; 0x01
    3612:	53 c0       	rjmp	.+166    	; 0x36ba <read_eeprom_data+0xe4>
		{
			for(j=0;j<8;j++)
    3614:	1a 82       	std	Y+2, r1	; 0x02
    3616:	4a c0       	rjmp	.+148    	; 0x36ac <read_eeprom_data+0xd6>
			{
				for (k=0;k<4;k++)
    3618:	1b 82       	std	Y+3, r1	; 0x03
    361a:	41 c0       	rjmp	.+130    	; 0x369e <read_eeprom_data+0xc8>
				{
					eeprom_write_word((uint16_t *)(TIME_CTRL_VALUE_EEADDR + (i * 32 + j * 4 + k) * 2), time_ctrl_value[i][j][k]);
    361c:	89 81       	ldd	r24, Y+1	; 0x01
    361e:	48 2f       	mov	r20, r24
    3620:	50 e0       	ldi	r21, 0x00	; 0
    3622:	8a 81       	ldd	r24, Y+2	; 0x02
    3624:	28 2f       	mov	r18, r24
    3626:	30 e0       	ldi	r19, 0x00	; 0
    3628:	8b 81       	ldd	r24, Y+3	; 0x03
    362a:	88 2f       	mov	r24, r24
    362c:	90 e0       	ldi	r25, 0x00	; 0
    362e:	44 0f       	add	r20, r20
    3630:	55 1f       	adc	r21, r21
    3632:	44 0f       	add	r20, r20
    3634:	55 1f       	adc	r21, r21
    3636:	44 0f       	add	r20, r20
    3638:	55 1f       	adc	r21, r21
    363a:	24 0f       	add	r18, r20
    363c:	35 1f       	adc	r19, r21
    363e:	22 0f       	add	r18, r18
    3640:	33 1f       	adc	r19, r19
    3642:	22 0f       	add	r18, r18
    3644:	33 1f       	adc	r19, r19
    3646:	82 0f       	add	r24, r18
    3648:	93 1f       	adc	r25, r19
    364a:	88 0f       	add	r24, r24
    364c:	99 1f       	adc	r25, r25
    364e:	8e 5d       	subi	r24, 0xDE	; 222
    3650:	98 4f       	sbci	r25, 0xF8	; 248
    3652:	fc 01       	movw	r30, r24
    3654:	40 81       	ld	r20, Z
    3656:	51 81       	ldd	r21, Z+1	; 0x01
    3658:	89 81       	ldd	r24, Y+1	; 0x01
    365a:	88 2f       	mov	r24, r24
    365c:	90 e0       	ldi	r25, 0x00	; 0
    365e:	9c 01       	movw	r18, r24
    3660:	22 0f       	add	r18, r18
    3662:	33 1f       	adc	r19, r19
    3664:	22 0f       	add	r18, r18
    3666:	33 1f       	adc	r19, r19
    3668:	22 0f       	add	r18, r18
    366a:	33 1f       	adc	r19, r19
    366c:	8a 81       	ldd	r24, Y+2	; 0x02
    366e:	88 2f       	mov	r24, r24
    3670:	90 e0       	ldi	r25, 0x00	; 0
    3672:	82 0f       	add	r24, r18
    3674:	93 1f       	adc	r25, r19
    3676:	9c 01       	movw	r18, r24
    3678:	22 0f       	add	r18, r18
    367a:	33 1f       	adc	r19, r19
    367c:	22 0f       	add	r18, r18
    367e:	33 1f       	adc	r19, r19
    3680:	8b 81       	ldd	r24, Y+3	; 0x03
    3682:	88 2f       	mov	r24, r24
    3684:	90 e0       	ldi	r25, 0x00	; 0
    3686:	82 0f       	add	r24, r18
    3688:	93 1f       	adc	r25, r19
    368a:	88 0f       	add	r24, r24
    368c:	99 1f       	adc	r25, r25
    368e:	81 57       	subi	r24, 0x71	; 113
    3690:	9f 4f       	sbci	r25, 0xFF	; 255
    3692:	ba 01       	movw	r22, r20
    3694:	0e 94 97 28 	call	0x512e	; 0x512e <eeprom_write_word>
		
		for(i=0;i<4;i++)
		{
			for(j=0;j<8;j++)
			{
				for (k=0;k<4;k++)
    3698:	8b 81       	ldd	r24, Y+3	; 0x03
    369a:	8f 5f       	subi	r24, 0xFF	; 255
    369c:	8b 83       	std	Y+3, r24	; 0x03
    369e:	8b 81       	ldd	r24, Y+3	; 0x03
    36a0:	84 30       	cpi	r24, 0x04	; 4
    36a2:	08 f4       	brcc	.+2      	; 0x36a6 <read_eeprom_data+0xd0>
    36a4:	bb cf       	rjmp	.-138    	; 0x361c <read_eeprom_data+0x46>
		eeprom_write_byte((uint8_t *)PRE_LANGUAGE_EEADDR, 0); //当前语言 与开机时切换到的界面有关
		eeprom_write_byte((uint8_t *)ALARM_CNT_EEADDR, 0);	//告警清单数量
		
		for(i=0;i<4;i++)
		{
			for(j=0;j<8;j++)
    36a6:	8a 81       	ldd	r24, Y+2	; 0x02
    36a8:	8f 5f       	subi	r24, 0xFF	; 255
    36aa:	8a 83       	std	Y+2, r24	; 0x02
    36ac:	8a 81       	ldd	r24, Y+2	; 0x02
    36ae:	88 30       	cpi	r24, 0x08	; 8
    36b0:	08 f4       	brcc	.+2      	; 0x36b4 <read_eeprom_data+0xde>
    36b2:	b2 cf       	rjmp	.-156    	; 0x3618 <read_eeprom_data+0x42>
	if (eeprom_read_byte((uint8_t *)FIRST_START_ADDR) != 'y')
	{
		eeprom_write_byte((uint8_t *)PRE_LANGUAGE_EEADDR, 0); //当前语言 与开机时切换到的界面有关
		eeprom_write_byte((uint8_t *)ALARM_CNT_EEADDR, 0);	//告警清单数量
		
		for(i=0;i<4;i++)
    36b4:	89 81       	ldd	r24, Y+1	; 0x01
    36b6:	8f 5f       	subi	r24, 0xFF	; 255
    36b8:	89 83       	std	Y+1, r24	; 0x01
    36ba:	89 81       	ldd	r24, Y+1	; 0x01
    36bc:	84 30       	cpi	r24, 0x04	; 4
    36be:	08 f4       	brcc	.+2      	; 0x36c2 <read_eeprom_data+0xec>
    36c0:	a9 cf       	rjmp	.-174    	; 0x3614 <read_eeprom_data+0x3e>
				}
			}
				
		}
		
		eeprom_write_byte((uint8_t *)FIRST_START_ADDR, 'y');
    36c2:	69 e7       	ldi	r22, 0x79	; 121
    36c4:	80 e0       	ldi	r24, 0x00	; 0
    36c6:	90 e0       	ldi	r25, 0x00	; 0
    36c8:	0e 94 8a 28 	call	0x5114	; 0x5114 <eeprom_write_byte>
				}
			}
		}
				
	}
}
    36cc:	d2 c0       	rjmp	.+420    	; 0x3872 <read_eeprom_data+0x29c>
		
		eeprom_write_byte((uint8_t *)FIRST_START_ADDR, 'y');
	}
	else
	{
		pre_language = eeprom_read_byte((uint8_t *)PRE_LANGUAGE_EEADDR);
    36ce:	81 e0       	ldi	r24, 0x01	; 1
    36d0:	90 e0       	ldi	r25, 0x00	; 0
    36d2:	0e 94 7c 28 	call	0x50f8	; 0x50f8 <eeprom_read_byte>
    36d6:	80 93 98 01 	sts	0x0198, r24	; 0x800198 <pre_language>
		alarm_cnt = eeprom_read_byte((uint8_t *)ALARM_CNT_EEADDR);
    36da:	82 e0       	ldi	r24, 0x02	; 2
    36dc:	90 e0       	ldi	r25, 0x00	; 0
    36de:	0e 94 7c 28 	call	0x50f8	; 0x50f8 <eeprom_read_byte>
    36e2:	80 93 bb 02 	sts	0x02BB, r24	; 0x8002bb <alarm_cnt>

		for (i = 0; i < alarm_cnt; i++)
    36e6:	19 82       	std	Y+1, r1	; 0x01
    36e8:	29 c0       	rjmp	.+82     	; 0x373c <read_eeprom_data+0x166>
		{
			alarm_history[i].alarm_type = eeprom_read_byte((uint8_t *)(ALARM_HISTORY_EEADDR + i * 2 + 1));
    36ea:	89 81       	ldd	r24, Y+1	; 0x01
    36ec:	08 2f       	mov	r16, r24
    36ee:	10 e0       	ldi	r17, 0x00	; 0
    36f0:	89 81       	ldd	r24, Y+1	; 0x01
    36f2:	88 2f       	mov	r24, r24
    36f4:	90 e0       	ldi	r25, 0x00	; 0
    36f6:	02 96       	adiw	r24, 0x02	; 2
    36f8:	88 0f       	add	r24, r24
    36fa:	99 1f       	adc	r25, r25
    36fc:	0e 94 7c 28 	call	0x50f8	; 0x50f8 <eeprom_read_byte>
    3700:	28 2f       	mov	r18, r24
    3702:	c8 01       	movw	r24, r16
    3704:	88 0f       	add	r24, r24
    3706:	99 1f       	adc	r25, r25
    3708:	8e 54       	subi	r24, 0x4E	; 78
    370a:	97 4f       	sbci	r25, 0xF7	; 247
    370c:	fc 01       	movw	r30, r24
    370e:	20 83       	st	Z, r18
			alarm_history[i].alarm_device_num = eeprom_read_byte((uint8_t *)(ALARM_HISTORY_EEADDR + i * 2));
    3710:	89 81       	ldd	r24, Y+1	; 0x01
    3712:	08 2f       	mov	r16, r24
    3714:	10 e0       	ldi	r17, 0x00	; 0
    3716:	89 81       	ldd	r24, Y+1	; 0x01
    3718:	88 2f       	mov	r24, r24
    371a:	90 e0       	ldi	r25, 0x00	; 0
    371c:	88 0f       	add	r24, r24
    371e:	99 1f       	adc	r25, r25
    3720:	03 96       	adiw	r24, 0x03	; 3
    3722:	0e 94 7c 28 	call	0x50f8	; 0x50f8 <eeprom_read_byte>
    3726:	28 2f       	mov	r18, r24
    3728:	c8 01       	movw	r24, r16
    372a:	88 0f       	add	r24, r24
    372c:	99 1f       	adc	r25, r25
    372e:	8d 54       	subi	r24, 0x4D	; 77
    3730:	97 4f       	sbci	r25, 0xF7	; 247
    3732:	fc 01       	movw	r30, r24
    3734:	20 83       	st	Z, r18
	else
	{
		pre_language = eeprom_read_byte((uint8_t *)PRE_LANGUAGE_EEADDR);
		alarm_cnt = eeprom_read_byte((uint8_t *)ALARM_CNT_EEADDR);

		for (i = 0; i < alarm_cnt; i++)
    3736:	89 81       	ldd	r24, Y+1	; 0x01
    3738:	8f 5f       	subi	r24, 0xFF	; 255
    373a:	89 83       	std	Y+1, r24	; 0x01
    373c:	80 91 bb 02 	lds	r24, 0x02BB	; 0x8002bb <alarm_cnt>
    3740:	99 81       	ldd	r25, Y+1	; 0x01
    3742:	98 17       	cp	r25, r24
    3744:	90 f2       	brcs	.-92     	; 0x36ea <read_eeprom_data+0x114>
		{
			alarm_history[i].alarm_type = eeprom_read_byte((uint8_t *)(ALARM_HISTORY_EEADDR + i * 2 + 1));
			alarm_history[i].alarm_device_num = eeprom_read_byte((uint8_t *)(ALARM_HISTORY_EEADDR + i * 2));
		}
		
		for(i=0;i<4;i++)
    3746:	19 82       	std	Y+1, r1	; 0x01
    3748:	90 c0       	rjmp	.+288    	; 0x386a <read_eeprom_data+0x294>
		{
			for(j=0;j<8;j++)
    374a:	1a 82       	std	Y+2, r1	; 0x02
    374c:	87 c0       	rjmp	.+270    	; 0x385c <read_eeprom_data+0x286>
			{
				for (k=0;k<4;k++)
    374e:	1b 82       	std	Y+3, r1	; 0x03
    3750:	7e c0       	rjmp	.+252    	; 0x384e <read_eeprom_data+0x278>
				{
					time_ctrl_value[i][j][k] = eeprom_read_word((uint16_t *)(TIME_CTRL_VALUE_EEADDR + (i * 32 + j * 4 + k) * 2));
    3752:	89 81       	ldd	r24, Y+1	; 0x01
    3754:	c8 2e       	mov	r12, r24
    3756:	d1 2c       	mov	r13, r1
    3758:	8a 81       	ldd	r24, Y+2	; 0x02
    375a:	e8 2e       	mov	r14, r24
    375c:	f1 2c       	mov	r15, r1
    375e:	8b 81       	ldd	r24, Y+3	; 0x03
    3760:	08 2f       	mov	r16, r24
    3762:	10 e0       	ldi	r17, 0x00	; 0
    3764:	89 81       	ldd	r24, Y+1	; 0x01
    3766:	88 2f       	mov	r24, r24
    3768:	90 e0       	ldi	r25, 0x00	; 0
    376a:	9c 01       	movw	r18, r24
    376c:	22 0f       	add	r18, r18
    376e:	33 1f       	adc	r19, r19
    3770:	22 0f       	add	r18, r18
    3772:	33 1f       	adc	r19, r19
    3774:	22 0f       	add	r18, r18
    3776:	33 1f       	adc	r19, r19
    3778:	8a 81       	ldd	r24, Y+2	; 0x02
    377a:	88 2f       	mov	r24, r24
    377c:	90 e0       	ldi	r25, 0x00	; 0
    377e:	82 0f       	add	r24, r18
    3780:	93 1f       	adc	r25, r19
    3782:	9c 01       	movw	r18, r24
    3784:	22 0f       	add	r18, r18
    3786:	33 1f       	adc	r19, r19
    3788:	22 0f       	add	r18, r18
    378a:	33 1f       	adc	r19, r19
    378c:	8b 81       	ldd	r24, Y+3	; 0x03
    378e:	88 2f       	mov	r24, r24
    3790:	90 e0       	ldi	r25, 0x00	; 0
    3792:	82 0f       	add	r24, r18
    3794:	93 1f       	adc	r25, r19
    3796:	88 0f       	add	r24, r24
    3798:	99 1f       	adc	r25, r25
    379a:	81 57       	subi	r24, 0x71	; 113
    379c:	9f 4f       	sbci	r25, 0xFF	; 255
    379e:	0e 94 84 28 	call	0x5108	; 0x5108 <eeprom_read_word>
    37a2:	9c 01       	movw	r18, r24
    37a4:	c6 01       	movw	r24, r12
    37a6:	88 0f       	add	r24, r24
    37a8:	99 1f       	adc	r25, r25
    37aa:	88 0f       	add	r24, r24
    37ac:	99 1f       	adc	r25, r25
    37ae:	88 0f       	add	r24, r24
    37b0:	99 1f       	adc	r25, r25
    37b2:	8e 0d       	add	r24, r14
    37b4:	9f 1d       	adc	r25, r15
    37b6:	88 0f       	add	r24, r24
    37b8:	99 1f       	adc	r25, r25
    37ba:	88 0f       	add	r24, r24
    37bc:	99 1f       	adc	r25, r25
    37be:	80 0f       	add	r24, r16
    37c0:	91 1f       	adc	r25, r17
    37c2:	88 0f       	add	r24, r24
    37c4:	99 1f       	adc	r25, r25
    37c6:	8e 5d       	subi	r24, 0xDE	; 222
    37c8:	98 4f       	sbci	r25, 0xF8	; 248
    37ca:	fc 01       	movw	r30, r24
    37cc:	31 83       	std	Z+1, r19	; 0x01
    37ce:	20 83       	st	Z, r18
					time_ctrl_value_buff[i][j][k] = time_ctrl_value[i][j][k];
    37d0:	89 81       	ldd	r24, Y+1	; 0x01
    37d2:	68 2f       	mov	r22, r24
    37d4:	70 e0       	ldi	r23, 0x00	; 0
    37d6:	8a 81       	ldd	r24, Y+2	; 0x02
    37d8:	48 2f       	mov	r20, r24
    37da:	50 e0       	ldi	r21, 0x00	; 0
    37dc:	8b 81       	ldd	r24, Y+3	; 0x03
    37de:	88 2f       	mov	r24, r24
    37e0:	90 e0       	ldi	r25, 0x00	; 0
    37e2:	29 81       	ldd	r18, Y+1	; 0x01
    37e4:	a2 2f       	mov	r26, r18
    37e6:	b0 e0       	ldi	r27, 0x00	; 0
    37e8:	2a 81       	ldd	r18, Y+2	; 0x02
    37ea:	e2 2f       	mov	r30, r18
    37ec:	f0 e0       	ldi	r31, 0x00	; 0
    37ee:	2b 81       	ldd	r18, Y+3	; 0x03
    37f0:	22 2f       	mov	r18, r18
    37f2:	30 e0       	ldi	r19, 0x00	; 0
    37f4:	aa 0f       	add	r26, r26
    37f6:	bb 1f       	adc	r27, r27
    37f8:	aa 0f       	add	r26, r26
    37fa:	bb 1f       	adc	r27, r27
    37fc:	aa 0f       	add	r26, r26
    37fe:	bb 1f       	adc	r27, r27
    3800:	ea 0f       	add	r30, r26
    3802:	fb 1f       	adc	r31, r27
    3804:	ee 0f       	add	r30, r30
    3806:	ff 1f       	adc	r31, r31
    3808:	ee 0f       	add	r30, r30
    380a:	ff 1f       	adc	r31, r31
    380c:	2e 0f       	add	r18, r30
    380e:	3f 1f       	adc	r19, r31
    3810:	22 0f       	add	r18, r18
    3812:	33 1f       	adc	r19, r19
    3814:	2e 5d       	subi	r18, 0xDE	; 222
    3816:	38 4f       	sbci	r19, 0xF8	; 248
    3818:	f9 01       	movw	r30, r18
    381a:	20 81       	ld	r18, Z
    381c:	31 81       	ldd	r19, Z+1	; 0x01
    381e:	66 0f       	add	r22, r22
    3820:	77 1f       	adc	r23, r23
    3822:	66 0f       	add	r22, r22
    3824:	77 1f       	adc	r23, r23
    3826:	66 0f       	add	r22, r22
    3828:	77 1f       	adc	r23, r23
    382a:	46 0f       	add	r20, r22
    382c:	57 1f       	adc	r21, r23
    382e:	44 0f       	add	r20, r20
    3830:	55 1f       	adc	r21, r21
    3832:	44 0f       	add	r20, r20
    3834:	55 1f       	adc	r21, r21
    3836:	84 0f       	add	r24, r20
    3838:	95 1f       	adc	r25, r21
    383a:	88 0f       	add	r24, r24
    383c:	99 1f       	adc	r25, r25
    383e:	8c 5c       	subi	r24, 0xCC	; 204
    3840:	94 4f       	sbci	r25, 0xF4	; 244
    3842:	fc 01       	movw	r30, r24
    3844:	31 83       	std	Z+1, r19	; 0x01
    3846:	20 83       	st	Z, r18
		
		for(i=0;i<4;i++)
		{
			for(j=0;j<8;j++)
			{
				for (k=0;k<4;k++)
    3848:	8b 81       	ldd	r24, Y+3	; 0x03
    384a:	8f 5f       	subi	r24, 0xFF	; 255
    384c:	8b 83       	std	Y+3, r24	; 0x03
    384e:	8b 81       	ldd	r24, Y+3	; 0x03
    3850:	84 30       	cpi	r24, 0x04	; 4
    3852:	08 f4       	brcc	.+2      	; 0x3856 <read_eeprom_data+0x280>
    3854:	7e cf       	rjmp	.-260    	; 0x3752 <read_eeprom_data+0x17c>
			alarm_history[i].alarm_device_num = eeprom_read_byte((uint8_t *)(ALARM_HISTORY_EEADDR + i * 2));
		}
		
		for(i=0;i<4;i++)
		{
			for(j=0;j<8;j++)
    3856:	8a 81       	ldd	r24, Y+2	; 0x02
    3858:	8f 5f       	subi	r24, 0xFF	; 255
    385a:	8a 83       	std	Y+2, r24	; 0x02
    385c:	8a 81       	ldd	r24, Y+2	; 0x02
    385e:	88 30       	cpi	r24, 0x08	; 8
    3860:	08 f4       	brcc	.+2      	; 0x3864 <read_eeprom_data+0x28e>
    3862:	75 cf       	rjmp	.-278    	; 0x374e <read_eeprom_data+0x178>
		{
			alarm_history[i].alarm_type = eeprom_read_byte((uint8_t *)(ALARM_HISTORY_EEADDR + i * 2 + 1));
			alarm_history[i].alarm_device_num = eeprom_read_byte((uint8_t *)(ALARM_HISTORY_EEADDR + i * 2));
		}
		
		for(i=0;i<4;i++)
    3864:	89 81       	ldd	r24, Y+1	; 0x01
    3866:	8f 5f       	subi	r24, 0xFF	; 255
    3868:	89 83       	std	Y+1, r24	; 0x01
    386a:	89 81       	ldd	r24, Y+1	; 0x01
    386c:	84 30       	cpi	r24, 0x04	; 4
    386e:	08 f4       	brcc	.+2      	; 0x3872 <read_eeprom_data+0x29c>
    3870:	6c cf       	rjmp	.-296    	; 0x374a <read_eeprom_data+0x174>
				}
			}
		}
				
	}
}
    3872:	00 00       	nop
    3874:	0f 90       	pop	r0
    3876:	0f 90       	pop	r0
    3878:	0f 90       	pop	r0
    387a:	df 91       	pop	r29
    387c:	cf 91       	pop	r28
    387e:	1f 91       	pop	r17
    3880:	0f 91       	pop	r16
    3882:	ff 90       	pop	r15
    3884:	ef 90       	pop	r14
    3886:	df 90       	pop	r13
    3888:	cf 90       	pop	r12
    388a:	08 95       	ret

0000388c <gpio_init>:

/*
*初始化gpio
*/
void gpio_init()
{
    388c:	cf 93       	push	r28
    388e:	df 93       	push	r29
    3890:	cd b7       	in	r28, 0x3d	; 61
    3892:	de b7       	in	r29, 0x3e	; 62
	/* LED相关IO口初始化 */
	LED1_PIN_OUTPUT;
    3894:	8a e3       	ldi	r24, 0x3A	; 58
    3896:	90 e0       	ldi	r25, 0x00	; 0
    3898:	2a e3       	ldi	r18, 0x3A	; 58
    389a:	30 e0       	ldi	r19, 0x00	; 0
    389c:	f9 01       	movw	r30, r18
    389e:	20 81       	ld	r18, Z
    38a0:	20 64       	ori	r18, 0x40	; 64
    38a2:	fc 01       	movw	r30, r24
    38a4:	20 83       	st	Z, r18
	LED2_PIN_OUTPUT;
    38a6:	8a e3       	ldi	r24, 0x3A	; 58
    38a8:	90 e0       	ldi	r25, 0x00	; 0
    38aa:	2a e3       	ldi	r18, 0x3A	; 58
    38ac:	30 e0       	ldi	r19, 0x00	; 0
    38ae:	f9 01       	movw	r30, r18
    38b0:	20 81       	ld	r18, Z
    38b2:	20 62       	ori	r18, 0x20	; 32
    38b4:	fc 01       	movw	r30, r24
    38b6:	20 83       	st	Z, r18
	LED3_PIN_OUTPUT;
    38b8:	8a e3       	ldi	r24, 0x3A	; 58
    38ba:	90 e0       	ldi	r25, 0x00	; 0
    38bc:	2a e3       	ldi	r18, 0x3A	; 58
    38be:	30 e0       	ldi	r19, 0x00	; 0
    38c0:	f9 01       	movw	r30, r18
    38c2:	20 81       	ld	r18, Z
    38c4:	20 61       	ori	r18, 0x10	; 16
    38c6:	fc 01       	movw	r30, r24
    38c8:	20 83       	st	Z, r18
	LED4_PIN_OUTPUT;
    38ca:	8a e3       	ldi	r24, 0x3A	; 58
    38cc:	90 e0       	ldi	r25, 0x00	; 0
    38ce:	2a e3       	ldi	r18, 0x3A	; 58
    38d0:	30 e0       	ldi	r19, 0x00	; 0
    38d2:	f9 01       	movw	r30, r18
    38d4:	20 81       	ld	r18, Z
    38d6:	28 60       	ori	r18, 0x08	; 8
    38d8:	fc 01       	movw	r30, r24
    38da:	20 83       	st	Z, r18
	LED5_PIN_OUTPUT;
    38dc:	8a e3       	ldi	r24, 0x3A	; 58
    38de:	90 e0       	ldi	r25, 0x00	; 0
    38e0:	2a e3       	ldi	r18, 0x3A	; 58
    38e2:	30 e0       	ldi	r19, 0x00	; 0
    38e4:	f9 01       	movw	r30, r18
    38e6:	20 81       	ld	r18, Z
    38e8:	24 60       	ori	r18, 0x04	; 4
    38ea:	fc 01       	movw	r30, r24
    38ec:	20 83       	st	Z, r18
	LED6_PIN_OUTPUT;
    38ee:	8a e3       	ldi	r24, 0x3A	; 58
    38f0:	90 e0       	ldi	r25, 0x00	; 0
    38f2:	2a e3       	ldi	r18, 0x3A	; 58
    38f4:	30 e0       	ldi	r19, 0x00	; 0
    38f6:	f9 01       	movw	r30, r18
    38f8:	20 81       	ld	r18, Z
    38fa:	22 60       	ori	r18, 0x02	; 2
    38fc:	fc 01       	movw	r30, r24
    38fe:	20 83       	st	Z, r18
	LED7_PIN_OUTPUT;
    3900:	8a e3       	ldi	r24, 0x3A	; 58
    3902:	90 e0       	ldi	r25, 0x00	; 0
    3904:	2a e3       	ldi	r18, 0x3A	; 58
    3906:	30 e0       	ldi	r19, 0x00	; 0
    3908:	f9 01       	movw	r30, r18
    390a:	20 81       	ld	r18, Z
    390c:	21 60       	ori	r18, 0x01	; 1
    390e:	fc 01       	movw	r30, r24
    3910:	20 83       	st	Z, r18

	LED1_OFF;
    3912:	8b e3       	ldi	r24, 0x3B	; 59
    3914:	90 e0       	ldi	r25, 0x00	; 0
    3916:	2b e3       	ldi	r18, 0x3B	; 59
    3918:	30 e0       	ldi	r19, 0x00	; 0
    391a:	f9 01       	movw	r30, r18
    391c:	20 81       	ld	r18, Z
    391e:	20 64       	ori	r18, 0x40	; 64
    3920:	fc 01       	movw	r30, r24
    3922:	20 83       	st	Z, r18
	LED2_OFF;
    3924:	8b e3       	ldi	r24, 0x3B	; 59
    3926:	90 e0       	ldi	r25, 0x00	; 0
    3928:	2b e3       	ldi	r18, 0x3B	; 59
    392a:	30 e0       	ldi	r19, 0x00	; 0
    392c:	f9 01       	movw	r30, r18
    392e:	20 81       	ld	r18, Z
    3930:	20 62       	ori	r18, 0x20	; 32
    3932:	fc 01       	movw	r30, r24
    3934:	20 83       	st	Z, r18
	LED3_OFF;
    3936:	8b e3       	ldi	r24, 0x3B	; 59
    3938:	90 e0       	ldi	r25, 0x00	; 0
    393a:	2b e3       	ldi	r18, 0x3B	; 59
    393c:	30 e0       	ldi	r19, 0x00	; 0
    393e:	f9 01       	movw	r30, r18
    3940:	20 81       	ld	r18, Z
    3942:	20 61       	ori	r18, 0x10	; 16
    3944:	fc 01       	movw	r30, r24
    3946:	20 83       	st	Z, r18
	LED4_OFF;
    3948:	8b e3       	ldi	r24, 0x3B	; 59
    394a:	90 e0       	ldi	r25, 0x00	; 0
    394c:	2b e3       	ldi	r18, 0x3B	; 59
    394e:	30 e0       	ldi	r19, 0x00	; 0
    3950:	f9 01       	movw	r30, r18
    3952:	20 81       	ld	r18, Z
    3954:	28 60       	ori	r18, 0x08	; 8
    3956:	fc 01       	movw	r30, r24
    3958:	20 83       	st	Z, r18
	LED5_ON;
    395a:	8b e3       	ldi	r24, 0x3B	; 59
    395c:	90 e0       	ldi	r25, 0x00	; 0
    395e:	2b e3       	ldi	r18, 0x3B	; 59
    3960:	30 e0       	ldi	r19, 0x00	; 0
    3962:	f9 01       	movw	r30, r18
    3964:	20 81       	ld	r18, Z
    3966:	2b 7f       	andi	r18, 0xFB	; 251
    3968:	fc 01       	movw	r30, r24
    396a:	20 83       	st	Z, r18
	LED6_OFF;
    396c:	8b e3       	ldi	r24, 0x3B	; 59
    396e:	90 e0       	ldi	r25, 0x00	; 0
    3970:	2b e3       	ldi	r18, 0x3B	; 59
    3972:	30 e0       	ldi	r19, 0x00	; 0
    3974:	f9 01       	movw	r30, r18
    3976:	20 81       	ld	r18, Z
    3978:	22 60       	ori	r18, 0x02	; 2
    397a:	fc 01       	movw	r30, r24
    397c:	20 83       	st	Z, r18
	LED7_ON;
    397e:	8b e3       	ldi	r24, 0x3B	; 59
    3980:	90 e0       	ldi	r25, 0x00	; 0
    3982:	2b e3       	ldi	r18, 0x3B	; 59
    3984:	30 e0       	ldi	r19, 0x00	; 0
    3986:	f9 01       	movw	r30, r18
    3988:	20 81       	ld	r18, Z
    398a:	2e 7f       	andi	r18, 0xFE	; 254
    398c:	fc 01       	movw	r30, r24
    398e:	20 83       	st	Z, r18
	IQR6_CLOSE;
	IQR7_CLOSE;
	*/

	/* 继电器相关IO口初始化 */
	ALARM_PIN_OUTPUT;
    3990:	81 e3       	ldi	r24, 0x31	; 49
    3992:	90 e0       	ldi	r25, 0x00	; 0
    3994:	21 e3       	ldi	r18, 0x31	; 49
    3996:	30 e0       	ldi	r19, 0x00	; 0
    3998:	f9 01       	movw	r30, r18
    399a:	20 81       	ld	r18, Z
    399c:	20 61       	ori	r18, 0x10	; 16
    399e:	fc 01       	movw	r30, r24
    39a0:	20 83       	st	Z, r18
	ACCON_PIN_OUTPUT;
    39a2:	81 e3       	ldi	r24, 0x31	; 49
    39a4:	90 e0       	ldi	r25, 0x00	; 0
    39a6:	21 e3       	ldi	r18, 0x31	; 49
    39a8:	30 e0       	ldi	r19, 0x00	; 0
    39aa:	f9 01       	movw	r30, r18
    39ac:	20 81       	ld	r18, Z
    39ae:	20 62       	ori	r18, 0x20	; 32
    39b0:	fc 01       	movw	r30, r24
    39b2:	20 83       	st	Z, r18

	ALARM_OFF;
    39b4:	82 e3       	ldi	r24, 0x32	; 50
    39b6:	90 e0       	ldi	r25, 0x00	; 0
    39b8:	22 e3       	ldi	r18, 0x32	; 50
    39ba:	30 e0       	ldi	r19, 0x00	; 0
    39bc:	f9 01       	movw	r30, r18
    39be:	20 81       	ld	r18, Z
    39c0:	2f 7e       	andi	r18, 0xEF	; 239
    39c2:	fc 01       	movw	r30, r24
    39c4:	20 83       	st	Z, r18
	ACCON_ON;
    39c6:	82 e3       	ldi	r24, 0x32	; 50
    39c8:	90 e0       	ldi	r25, 0x00	; 0
    39ca:	22 e3       	ldi	r18, 0x32	; 50
    39cc:	30 e0       	ldi	r19, 0x00	; 0
    39ce:	f9 01       	movw	r30, r18
    39d0:	20 81       	ld	r18, Z
    39d2:	20 62       	ori	r18, 0x20	; 32
    39d4:	fc 01       	movw	r30, r24
    39d6:	20 83       	st	Z, r18
    39d8:	00 00       	nop
    39da:	df 91       	pop	r29
    39dc:	cf 91       	pop	r28
    39de:	08 95       	ret

000039e0 <main>:

uint8_t test1[10] = {0,1,2,3,4,5,6,7,8,9};
uint8_t test2[10] = {0};

int main(void)
{
    39e0:	cf 93       	push	r28
    39e2:	df 93       	push	r29
    39e4:	1f 92       	push	r1
    39e6:	cd b7       	in	r28, 0x3d	; 61
    39e8:	de b7       	in	r29, 0x3e	; 62
	uint8_t slave_num = 1;
    39ea:	81 e0       	ldi	r24, 0x01	; 1
    39ec:	89 83       	std	Y+1, r24	; 0x01
//	uint8_t i;
	
	system_init();
    39ee:	0e 94 75 1d 	call	0x3aea	; 0x3aea <system_init>
	EN_INTERRUPT;
    39f2:	8f e5       	ldi	r24, 0x5F	; 95
    39f4:	90 e0       	ldi	r25, 0x00	; 0
    39f6:	2f e5       	ldi	r18, 0x5F	; 95
    39f8:	30 e0       	ldi	r19, 0x00	; 0
    39fa:	f9 01       	movw	r30, r18
    39fc:	20 81       	ld	r18, Z
    39fe:	20 68       	ori	r18, 0x80	; 128
    3a00:	fc 01       	movw	r30, r24
    3a02:	20 83       	st	Z, r18
	read_eeprom_data();
    3a04:	0e 94 eb 1a 	call	0x35d6	; 0x35d6 <read_eeprom_data>

	_delay_ms(50);
    3a08:	62 e3       	ldi	r22, 0x32	; 50
    3a0a:	70 e0       	ldi	r23, 0x00	; 0
    3a0c:	80 e0       	ldi	r24, 0x00	; 0
    3a0e:	90 e0       	ldi	r25, 0x00	; 0
    3a10:	0e 94 51 01 	call	0x2a2	; 0x2a2 <_delay_ms>
//	for(i=0;i<10;i++)
//	{
//		test2[i] = at24c128c_read_byte(i);
//	}
	
	read_setting_data_all(); //开机从主控板读取设定数据
    3a14:	0e 94 44 14 	call	0x2888	; 0x2888 <read_setting_data_all>

	//	send_variables(MASTER_SWITCH, pre_system_sta);	//默认系统为关闭状态 调节屏幕状态图标为关闭
	send_variables(ALL_SET_TEMP, all_temp);
    3a18:	80 91 03 01 	lds	r24, 0x0103	; 0x800103 <all_temp>
    3a1c:	90 91 04 01 	lds	r25, 0x0104	; 0x800104 <all_temp+0x1>
    3a20:	bc 01       	movw	r22, r24
    3a22:	88 e4       	ldi	r24, 0x48	; 72
    3a24:	91 e0       	ldi	r25, 0x01	; 1
    3a26:	0e 94 bc 12 	call	0x2578	; 0x2578 <send_variables>
	send_variables(SET_PREHEAT_TIME, preheat_time);
    3a2a:	80 91 01 01 	lds	r24, 0x0101	; 0x800101 <preheat_time>
    3a2e:	90 91 02 01 	lds	r25, 0x0102	; 0x800102 <preheat_time+0x1>
    3a32:	bc 01       	movw	r22, r24
    3a34:	8a e4       	ldi	r24, 0x4A	; 74
    3a36:	91 e0       	ldi	r25, 0x01	; 1
    3a38:	0e 94 bc 12 	call	0x2578	; 0x2578 <send_variables>
	send_variables(TEMP_UINT_ADDR, (CELSIUS + temp_unit * FAHRENHEIT));
    3a3c:	40 91 b5 02 	lds	r20, 0x02B5	; 0x8002b5 <temp_unit>
    3a40:	50 91 b6 02 	lds	r21, 0x02B6	; 0x8002b6 <temp_unit+0x1>
    3a44:	20 e0       	ldi	r18, 0x00	; 0
    3a46:	33 e0       	ldi	r19, 0x03	; 3
    3a48:	42 9f       	mul	r20, r18
    3a4a:	c0 01       	movw	r24, r0
    3a4c:	43 9f       	mul	r20, r19
    3a4e:	90 0d       	add	r25, r0
    3a50:	52 9f       	mul	r21, r18
    3a52:	90 0d       	add	r25, r0
    3a54:	11 24       	eor	r1, r1
    3a56:	9d 5b       	subi	r25, 0xBD	; 189
    3a58:	bc 01       	movw	r22, r24
    3a5a:	8c e3       	ldi	r24, 0x3C	; 60
    3a5c:	92 e0       	ldi	r25, 0x02	; 2
    3a5e:	0e 94 bc 12 	call	0x2578	; 0x2578 <send_variables>
	send_variables(ALL_SENSOR_TYPE_ADDR, TYPE_J + (all_sensor_type * TYPE_K));
    3a62:	80 91 b3 02 	lds	r24, 0x02B3	; 0x8002b3 <all_sensor_type>
    3a66:	90 91 b4 02 	lds	r25, 0x02B4	; 0x8002b4 <all_sensor_type+0x1>
    3a6a:	86 5b       	subi	r24, 0xB6	; 182
    3a6c:	9f 4f       	sbci	r25, 0xFF	; 255
    3a6e:	98 2f       	mov	r25, r24
    3a70:	88 27       	eor	r24, r24
    3a72:	bc 01       	movw	r22, r24
    3a74:	84 e9       	ldi	r24, 0x94	; 148
    3a76:	92 e0       	ldi	r25, 0x02	; 2
    3a78:	0e 94 bc 12 	call	0x2578	; 0x2578 <send_variables>

	init_complete = 1;
    3a7c:	81 e0       	ldi	r24, 0x01	; 1
    3a7e:	80 93 c2 02 	sts	0x02C2, r24	; 0x8002c2 <init_complete>
	update_main_page();
    3a82:	0e 94 4a 03 	call	0x694	; 0x694 <update_main_page>
	switch_language();
    3a86:	0e 94 69 12 	call	0x24d2	; 0x24d2 <switch_language>
	
	/* Replace with your application code */
	while (1)
	{
		if (usart0_rx_end) //屏相关数据接收完成
    3a8a:	80 91 5f 04 	lds	r24, 0x045F	; 0x80045f <usart0_rx_end>
    3a8e:	88 23       	and	r24, r24
    3a90:	21 f0       	breq	.+8      	; 0x3a9a <main+0xba>
		{
			usart0_deal();
    3a92:	0e 94 8c 21 	call	0x4318	; 0x4318 <usart0_deal>
			usart0_rx_end = 0;
    3a96:	10 92 5f 04 	sts	0x045F, r1	; 0x80045f <usart0_rx_end>
		}

		if (usart1_rx_end) //控制卡数据接收完成
    3a9a:	80 91 f2 05 	lds	r24, 0x05F2	; 0x8005f2 <usart1_rx_end>
    3a9e:	88 23       	and	r24, r24
    3aa0:	21 f0       	breq	.+8      	; 0x3aaa <main+0xca>
		{
			usart1_deal();
    3aa2:	0e 94 a8 25 	call	0x4b50	; 0x4b50 <usart1_deal>
			usart1_rx_end = 0;
    3aa6:	10 92 f2 05 	sts	0x05F2, r1	; 0x8005f2 <usart1_rx_end>
		// 		{
		// 			update_main_page();
		// 		}
		
		/*500ms发送一次请求获取主控板卡运行数据*/
		if (ctrl_command == READ_DATA_ALL)
    3aaa:	80 91 77 01 	lds	r24, 0x0177	; 0x800177 <ctrl_command>
    3aae:	81 30       	cpi	r24, 0x01	; 1
    3ab0:	99 f4       	brne	.+38     	; 0x3ad8 <main+0xf8>
		{
			if(usart1_tx_overtime_mask == 1)
    3ab2:	80 91 c1 02 	lds	r24, 0x02C1	; 0x8002c1 <usart1_tx_overtime_mask>
    3ab6:	81 30       	cpi	r24, 0x01	; 1
    3ab8:	79 f4       	brne	.+30     	; 0x3ad8 <main+0xf8>
			{
				send_request_all(slave_num);
    3aba:	89 81       	ldd	r24, Y+1	; 0x01
    3abc:	0e 94 f8 16 	call	0x2df0	; 0x2df0 <send_request_all>
				
				if(++slave_num >= TEMP_CTRL_BOARD_QUANTITY + 1)
    3ac0:	89 81       	ldd	r24, Y+1	; 0x01
    3ac2:	8f 5f       	subi	r24, 0xFF	; 255
    3ac4:	89 83       	std	Y+1, r24	; 0x01
    3ac6:	89 81       	ldd	r24, Y+1	; 0x01
    3ac8:	87 30       	cpi	r24, 0x07	; 7
    3aca:	10 f0       	brcs	.+4      	; 0x3ad0 <main+0xf0>
				{
					slave_num = 1;
    3acc:	81 e0       	ldi	r24, 0x01	; 1
    3ace:	89 83       	std	Y+1, r24	; 0x01
				}
				
				usart1_tx_overtime_mask = 0;
    3ad0:	10 92 c1 02 	sts	0x02C1, r1	; 0x8002c1 <usart1_tx_overtime_mask>
				usart1_tx_timecnt = 0;
    3ad4:	10 92 c0 02 	sts	0x02C0, r1	; 0x8002c0 <usart1_tx_timecnt>
			}
		}
		
		/*1.5秒监测一次告警状态*/
		if(alarm_monitor_overtime_mask)
    3ad8:	80 91 c3 02 	lds	r24, 0x02C3	; 0x8002c3 <alarm_monitor_overtime_mask>
    3adc:	88 23       	and	r24, r24
    3ade:	a9 f2       	breq	.-86     	; 0x3a8a <main+0xaa>
		{
			alarm_monitor();
    3ae0:	0e 94 a2 19 	call	0x3344	; 0x3344 <alarm_monitor>
			alarm_monitor_overtime_mask = 0;
    3ae4:	10 92 c3 02 	sts	0x02C3, r1	; 0x8002c3 <alarm_monitor_overtime_mask>
		}
	}
    3ae8:	d0 cf       	rjmp	.-96     	; 0x3a8a <main+0xaa>

00003aea <system_init>:
	return 0;
}

void system_init()
{
    3aea:	cf 93       	push	r28
    3aec:	df 93       	push	r29
    3aee:	cd b7       	in	r28, 0x3d	; 61
    3af0:	de b7       	in	r29, 0x3e	; 62
	gpio_init();
    3af2:	0e 94 46 1c 	call	0x388c	; 0x388c <gpio_init>
	usart0_init(MYUBRR(38400));
    3af6:	89 e1       	ldi	r24, 0x19	; 25
    3af8:	90 e0       	ldi	r25, 0x00	; 0
    3afa:	0e 94 3a 27 	call	0x4e74	; 0x4e74 <usart0_init>
	usart1_init(MYUBRR(8928));
    3afe:	8f e6       	ldi	r24, 0x6F	; 111
    3b00:	90 e0       	ldi	r25, 0x00	; 0
    3b02:	0e 94 78 27 	call	0x4ef0	; 0x4ef0 <usart1_init>
	usart2_init(9600);
    3b06:	80 e8       	ldi	r24, 0x80	; 128
    3b08:	95 e2       	ldi	r25, 0x25	; 37
    3b0a:	0e 94 ae 27 	call	0x4f5c	; 0x4f5c <usart2_init>

	timer0_init();
    3b0e:	0e 94 24 20 	call	0x4048	; 0x4048 <timer0_init>
	timer2_init();
    3b12:	0e 94 8b 20 	call	0x4116	; 0x4116 <timer2_init>
	timer1_init();
    3b16:	0e 94 55 20 	call	0x40aa	; 0x40aa <timer1_init>
	
	twi_init(100);
    3b1a:	84 e6       	ldi	r24, 0x64	; 100
    3b1c:	90 e0       	ldi	r25, 0x00	; 0
    3b1e:	0e 94 c5 20 	call	0x418a	; 0x418a <twi_init>
	
	init_variable();
    3b22:	0e 94 a2 01 	call	0x344	; 0x344 <init_variable>
}
    3b26:	00 00       	nop
    3b28:	df 91       	pop	r29
    3b2a:	cf 91       	pop	r28
    3b2c:	08 95       	ret

00003b2e <__vector_16>:
uint8_t usart1_tx_overtime_mask = 0;
uint8_t init_complete = 0;
uint8_t alarm_monitor_overtime_mask = 0;

ISR(TIMER0_OVF_vect)
{
    3b2e:	1f 92       	push	r1
    3b30:	0f 92       	push	r0
    3b32:	00 90 5f 00 	lds	r0, 0x005F	; 0x80005f <__TEXT_REGION_LENGTH__+0x7e005f>
    3b36:	0f 92       	push	r0
    3b38:	11 24       	eor	r1, r1
    3b3a:	2f 93       	push	r18
    3b3c:	3f 93       	push	r19
    3b3e:	4f 93       	push	r20
    3b40:	5f 93       	push	r21
    3b42:	6f 93       	push	r22
    3b44:	7f 93       	push	r23
    3b46:	8f 93       	push	r24
    3b48:	9f 93       	push	r25
    3b4a:	af 93       	push	r26
    3b4c:	bf 93       	push	r27
    3b4e:	ef 93       	push	r30
    3b50:	ff 93       	push	r31
    3b52:	cf 93       	push	r28
    3b54:	df 93       	push	r29
    3b56:	cd b7       	in	r28, 0x3d	; 61
    3b58:	de b7       	in	r29, 0x3e	; 62
/*	static uint8_t time_cnt = 0;  //时间计数*/
/*	static uint8_t slave_num = 1; //控制板号码*/
	static uint16_t update_run_temp_cnt = 0;
	static uint16_t alarm_monitor_cnt = 0;

	EN_INTERRUPT;
    3b5a:	8f e5       	ldi	r24, 0x5F	; 95
    3b5c:	90 e0       	ldi	r25, 0x00	; 0
    3b5e:	2f e5       	ldi	r18, 0x5F	; 95
    3b60:	30 e0       	ldi	r19, 0x00	; 0
    3b62:	d9 01       	movw	r26, r18
    3b64:	2c 91       	ld	r18, X
    3b66:	20 68       	ori	r18, 0x80	; 128
    3b68:	fc 01       	movw	r30, r24
    3b6a:	20 83       	st	Z, r18
	TCNT0 = 0xB2;
    3b6c:	82 e5       	ldi	r24, 0x52	; 82
    3b6e:	90 e0       	ldi	r25, 0x00	; 0
    3b70:	22 eb       	ldi	r18, 0xB2	; 178
    3b72:	dc 01       	movw	r26, r24
    3b74:	2c 93       	st	X, r18

	if (++read_setting_data_cnt >= 60)
    3b76:	80 91 bf 02 	lds	r24, 0x02BF	; 0x8002bf <read_setting_data_cnt>
    3b7a:	8f 5f       	subi	r24, 0xFF	; 255
    3b7c:	80 93 bf 02 	sts	0x02BF, r24	; 0x8002bf <read_setting_data_cnt>
    3b80:	80 91 bf 02 	lds	r24, 0x02BF	; 0x8002bf <read_setting_data_cnt>
    3b84:	8c 33       	cpi	r24, 0x3C	; 60
    3b86:	28 f0       	brcs	.+10     	; 0x3b92 <__vector_16+0x64>
	{
		read_setting_data_cnt = 0;
    3b88:	10 92 bf 02 	sts	0x02BF, r1	; 0x8002bf <read_setting_data_cnt>
		read_setting_data_mask = 1;
    3b8c:	81 e0       	ldi	r24, 0x01	; 1
    3b8e:	80 93 be 02 	sts	0x02BE, r24	; 0x8002be <read_setting_data_mask>
	}

	if (init_complete)
    3b92:	80 91 c2 02 	lds	r24, 0x02C2	; 0x8002c2 <init_complete>
    3b96:	88 23       	and	r24, r24
    3b98:	29 f1       	breq	.+74     	; 0x3be4 <__vector_16+0xb6>
	{
		if (++usart1_tx_timecnt >= 100)
    3b9a:	80 91 c0 02 	lds	r24, 0x02C0	; 0x8002c0 <usart1_tx_timecnt>
    3b9e:	8f 5f       	subi	r24, 0xFF	; 255
    3ba0:	80 93 c0 02 	sts	0x02C0, r24	; 0x8002c0 <usart1_tx_timecnt>
    3ba4:	80 91 c0 02 	lds	r24, 0x02C0	; 0x8002c0 <usart1_tx_timecnt>
    3ba8:	84 36       	cpi	r24, 0x64	; 100
    3baa:	28 f0       	brcs	.+10     	; 0x3bb6 <__vector_16+0x88>
		{
			usart1_tx_timecnt = 0;
    3bac:	10 92 c0 02 	sts	0x02C0, r1	; 0x8002c0 <usart1_tx_timecnt>
			usart1_tx_overtime_mask = 1;
    3bb0:	81 e0       	ldi	r24, 0x01	; 1
    3bb2:	80 93 c1 02 	sts	0x02C1, r24	; 0x8002c1 <usart1_tx_overtime_mask>
		} //每5百毫秒请求一个主控板发送所有采集数据  1500毫秒完成3个主控板采集数据的发送

		if(++alarm_monitor_cnt >= 300)
    3bb6:	80 91 c4 02 	lds	r24, 0x02C4	; 0x8002c4 <alarm_monitor_cnt.1888>
    3bba:	90 91 c5 02 	lds	r25, 0x02C5	; 0x8002c5 <alarm_monitor_cnt.1888+0x1>
    3bbe:	01 96       	adiw	r24, 0x01	; 1
    3bc0:	90 93 c5 02 	sts	0x02C5, r25	; 0x8002c5 <alarm_monitor_cnt.1888+0x1>
    3bc4:	80 93 c4 02 	sts	0x02C4, r24	; 0x8002c4 <alarm_monitor_cnt.1888>
    3bc8:	80 91 c4 02 	lds	r24, 0x02C4	; 0x8002c4 <alarm_monitor_cnt.1888>
    3bcc:	90 91 c5 02 	lds	r25, 0x02C5	; 0x8002c5 <alarm_monitor_cnt.1888+0x1>
    3bd0:	8c 32       	cpi	r24, 0x2C	; 44
    3bd2:	91 40       	sbci	r25, 0x01	; 1
    3bd4:	38 f0       	brcs	.+14     	; 0x3be4 <__vector_16+0xb6>
		{
			alarm_monitor_cnt = 0;
    3bd6:	10 92 c5 02 	sts	0x02C5, r1	; 0x8002c5 <alarm_monitor_cnt.1888+0x1>
    3bda:	10 92 c4 02 	sts	0x02C4, r1	; 0x8002c4 <alarm_monitor_cnt.1888>
			alarm_monitor_overtime_mask = 1;
    3bde:	81 e0       	ldi	r24, 0x01	; 1
    3be0:	80 93 c3 02 	sts	0x02C3, r24	; 0x8002c3 <alarm_monitor_overtime_mask>
		}
	}

	if (update_run_temp_flag) //如果在单独设定界面，1s更新一次运行温度
    3be4:	80 91 97 01 	lds	r24, 0x0197	; 0x800197 <update_run_temp_flag>
    3be8:	88 23       	and	r24, r24
    3bea:	09 f4       	brne	.+2      	; 0x3bee <__vector_16+0xc0>
    3bec:	9a c0       	rjmp	.+308    	; 0x3d22 <__vector_16+0x1f4>
	{
		update_run_temp_cnt++;
    3bee:	80 91 c6 02 	lds	r24, 0x02C6	; 0x8002c6 <update_run_temp_cnt.1887>
    3bf2:	90 91 c7 02 	lds	r25, 0x02C7	; 0x8002c7 <update_run_temp_cnt.1887+0x1>
    3bf6:	01 96       	adiw	r24, 0x01	; 1
    3bf8:	90 93 c7 02 	sts	0x02C7, r25	; 0x8002c7 <update_run_temp_cnt.1887+0x1>
    3bfc:	80 93 c6 02 	sts	0x02C6, r24	; 0x8002c6 <update_run_temp_cnt.1887>

		if (update_run_temp_cnt >= 200)
    3c00:	80 91 c6 02 	lds	r24, 0x02C6	; 0x8002c6 <update_run_temp_cnt.1887>
    3c04:	90 91 c7 02 	lds	r25, 0x02C7	; 0x8002c7 <update_run_temp_cnt.1887+0x1>
    3c08:	88 3c       	cpi	r24, 0xC8	; 200
    3c0a:	91 05       	cpc	r25, r1
    3c0c:	08 f4       	brcc	.+2      	; 0x3c10 <__vector_16+0xe2>
    3c0e:	89 c0       	rjmp	.+274    	; 0x3d22 <__vector_16+0x1f4>
		{
			update_run_temp_cnt = 0;
    3c10:	10 92 c7 02 	sts	0x02C7, r1	; 0x8002c7 <update_run_temp_cnt.1887+0x1>
    3c14:	10 92 c6 02 	sts	0x02C6, r1	; 0x8002c6 <update_run_temp_cnt.1887>

			if (run_temp_page)
    3c18:	80 91 96 01 	lds	r24, 0x0196	; 0x800196 <__data_end>
    3c1c:	88 23       	and	r24, r24
    3c1e:	c1 f1       	breq	.+112    	; 0x3c90 <__vector_16+0x162>
			{
				send_variables(SINGLE_RUNTEMP_ADDR, run_temp[set_num] + temp_unit * ((run_temp[set_num] * 8 / 10) + 32)); //单独设定界面更新运行温度
    3c20:	80 91 9c 01 	lds	r24, 0x019C	; 0x80019c <set_num>
    3c24:	88 2f       	mov	r24, r24
    3c26:	90 e0       	ldi	r25, 0x00	; 0
    3c28:	88 0f       	add	r24, r24
    3c2a:	99 1f       	adc	r25, r25
    3c2c:	81 51       	subi	r24, 0x11	; 17
    3c2e:	9e 4f       	sbci	r25, 0xFE	; 254
    3c30:	fc 01       	movw	r30, r24
    3c32:	80 81       	ld	r24, Z
    3c34:	91 81       	ldd	r25, Z+1	; 0x01
    3c36:	fc 01       	movw	r30, r24
    3c38:	80 91 9c 01 	lds	r24, 0x019C	; 0x80019c <set_num>
    3c3c:	88 2f       	mov	r24, r24
    3c3e:	90 e0       	ldi	r25, 0x00	; 0
    3c40:	88 0f       	add	r24, r24
    3c42:	99 1f       	adc	r25, r25
    3c44:	81 51       	subi	r24, 0x11	; 17
    3c46:	9e 4f       	sbci	r25, 0xFE	; 254
    3c48:	dc 01       	movw	r26, r24
    3c4a:	8d 91       	ld	r24, X+
    3c4c:	9c 91       	ld	r25, X
    3c4e:	88 0f       	add	r24, r24
    3c50:	99 1f       	adc	r25, r25
    3c52:	88 0f       	add	r24, r24
    3c54:	99 1f       	adc	r25, r25
    3c56:	88 0f       	add	r24, r24
    3c58:	99 1f       	adc	r25, r25
    3c5a:	2a e0       	ldi	r18, 0x0A	; 10
    3c5c:	30 e0       	ldi	r19, 0x00	; 0
    3c5e:	b9 01       	movw	r22, r18
    3c60:	0e 94 12 28 	call	0x5024	; 0x5024 <__divmodhi4>
    3c64:	cb 01       	movw	r24, r22
    3c66:	80 96       	adiw	r24, 0x20	; 32
    3c68:	ac 01       	movw	r20, r24
    3c6a:	20 91 b5 02 	lds	r18, 0x02B5	; 0x8002b5 <temp_unit>
    3c6e:	30 91 b6 02 	lds	r19, 0x02B6	; 0x8002b6 <temp_unit+0x1>
    3c72:	42 9f       	mul	r20, r18
    3c74:	c0 01       	movw	r24, r0
    3c76:	43 9f       	mul	r20, r19
    3c78:	90 0d       	add	r25, r0
    3c7a:	52 9f       	mul	r21, r18
    3c7c:	90 0d       	add	r25, r0
    3c7e:	11 24       	eor	r1, r1
    3c80:	8e 0f       	add	r24, r30
    3c82:	9f 1f       	adc	r25, r31
    3c84:	bc 01       	movw	r22, r24
    3c86:	82 e3       	ldi	r24, 0x32	; 50
    3c88:	90 e0       	ldi	r25, 0x00	; 0
    3c8a:	0e 94 bc 12 	call	0x2578	; 0x2578 <send_variables>
    3c8e:	49 c0       	rjmp	.+146    	; 0x3d22 <__vector_16+0x1f4>
			}
			else
			{
				send_variables(CURVE_PAGE_RUNTEMP_ADDR, run_temp[curve_page_num] +
    3c90:	80 91 9e 01 	lds	r24, 0x019E	; 0x80019e <curve_page_num>
    3c94:	08 2e       	mov	r0, r24
    3c96:	00 0c       	add	r0, r0
    3c98:	99 0b       	sbc	r25, r25
    3c9a:	88 0f       	add	r24, r24
    3c9c:	99 1f       	adc	r25, r25
    3c9e:	81 51       	subi	r24, 0x11	; 17
    3ca0:	9e 4f       	sbci	r25, 0xFE	; 254
    3ca2:	fc 01       	movw	r30, r24
    3ca4:	80 81       	ld	r24, Z
    3ca6:	91 81       	ldd	r25, Z+1	; 0x01
    3ca8:	fc 01       	movw	r30, r24
				temp_unit * (run_temp[curve_page_num] * 8 / 10 + 32)); //曲线界面更新运行温度
    3caa:	80 91 9e 01 	lds	r24, 0x019E	; 0x80019e <curve_page_num>
    3cae:	08 2e       	mov	r0, r24
    3cb0:	00 0c       	add	r0, r0
    3cb2:	99 0b       	sbc	r25, r25
    3cb4:	88 0f       	add	r24, r24
    3cb6:	99 1f       	adc	r25, r25
    3cb8:	81 51       	subi	r24, 0x11	; 17
    3cba:	9e 4f       	sbci	r25, 0xFE	; 254
    3cbc:	dc 01       	movw	r26, r24
    3cbe:	8d 91       	ld	r24, X+
    3cc0:	9c 91       	ld	r25, X
    3cc2:	88 0f       	add	r24, r24
    3cc4:	99 1f       	adc	r25, r25
    3cc6:	88 0f       	add	r24, r24
    3cc8:	99 1f       	adc	r25, r25
    3cca:	88 0f       	add	r24, r24
    3ccc:	99 1f       	adc	r25, r25
    3cce:	2a e0       	ldi	r18, 0x0A	; 10
    3cd0:	30 e0       	ldi	r19, 0x00	; 0
    3cd2:	b9 01       	movw	r22, r18
    3cd4:	0e 94 12 28 	call	0x5024	; 0x5024 <__divmodhi4>
    3cd8:	cb 01       	movw	r24, r22
    3cda:	80 96       	adiw	r24, 0x20	; 32
    3cdc:	ac 01       	movw	r20, r24
    3cde:	20 91 b5 02 	lds	r18, 0x02B5	; 0x8002b5 <temp_unit>
    3ce2:	30 91 b6 02 	lds	r19, 0x02B6	; 0x8002b6 <temp_unit+0x1>
    3ce6:	42 9f       	mul	r20, r18
    3ce8:	c0 01       	movw	r24, r0
    3cea:	43 9f       	mul	r20, r19
    3cec:	90 0d       	add	r25, r0
    3cee:	52 9f       	mul	r21, r18
    3cf0:	90 0d       	add	r25, r0
    3cf2:	11 24       	eor	r1, r1
			{
				send_variables(SINGLE_RUNTEMP_ADDR, run_temp[set_num] + temp_unit * ((run_temp[set_num] * 8 / 10) + 32)); //单独设定界面更新运行温度
			}
			else
			{
				send_variables(CURVE_PAGE_RUNTEMP_ADDR, run_temp[curve_page_num] +
    3cf4:	8e 0f       	add	r24, r30
    3cf6:	9f 1f       	adc	r25, r31
    3cf8:	bc 01       	movw	r22, r24
    3cfa:	8e e3       	ldi	r24, 0x3E	; 62
    3cfc:	90 e0       	ldi	r25, 0x00	; 0
    3cfe:	0e 94 bc 12 	call	0x2578	; 0x2578 <send_variables>
				temp_unit * (run_temp[curve_page_num] * 8 / 10 + 32)); //曲线界面更新运行温度

				send_variables(CURVE_PAGE_OUTRATE_ADDR, output_rate[curve_page_num]); //曲线界面更新输出比例
    3d02:	80 91 9e 01 	lds	r24, 0x019E	; 0x80019e <curve_page_num>
    3d06:	08 2e       	mov	r0, r24
    3d08:	00 0c       	add	r0, r0
    3d0a:	99 0b       	sbc	r25, r25
    3d0c:	89 55       	subi	r24, 0x59	; 89
    3d0e:	9e 4f       	sbci	r25, 0xFE	; 254
    3d10:	fc 01       	movw	r30, r24
    3d12:	80 81       	ld	r24, Z
    3d14:	88 2f       	mov	r24, r24
    3d16:	90 e0       	ldi	r25, 0x00	; 0
    3d18:	bc 01       	movw	r22, r24
    3d1a:	82 e4       	ldi	r24, 0x42	; 66
    3d1c:	90 e0       	ldi	r25, 0x00	; 0
    3d1e:	0e 94 bc 12 	call	0x2578	; 0x2578 <send_variables>
			}
		}
	}

	if (usart1_rx_cnt != pre_usart1_rx_cnt)
    3d22:	90 91 f4 05 	lds	r25, 0x05F4	; 0x8005f4 <usart1_rx_cnt>
    3d26:	80 91 c8 02 	lds	r24, 0x02C8	; 0x8002c8 <pre_usart1_rx_cnt.1884>
    3d2a:	98 17       	cp	r25, r24
    3d2c:	39 f0       	breq	.+14     	; 0x3d3c <__vector_16+0x20e>
	{
		pre_usart1_rx_cnt = usart1_rx_cnt;
    3d2e:	80 91 f4 05 	lds	r24, 0x05F4	; 0x8005f4 <usart1_rx_cnt>
    3d32:	80 93 c8 02 	sts	0x02C8, r24	; 0x8002c8 <pre_usart1_rx_cnt.1884>
		usart1_cnt = 0;
    3d36:	10 92 c9 02 	sts	0x02C9, r1	; 0x8002c9 <usart1_cnt.1883>
    3d3a:	1a c0       	rjmp	.+52     	; 0x3d70 <__vector_16+0x242>
	} //如果usart1当前接收计数与上次计数不一样 表示有数据接收  清除时间计数
	else
	{
		if (usart1_rx_cnt != 0) //如果usart1接收计数为0 认为没有开始接收数据  则不进行超时计数
    3d3c:	80 91 f4 05 	lds	r24, 0x05F4	; 0x8005f4 <usart1_rx_cnt>
    3d40:	88 23       	and	r24, r24
    3d42:	b1 f0       	breq	.+44     	; 0x3d70 <__vector_16+0x242>
		{
			usart1_cnt++;
    3d44:	80 91 c9 02 	lds	r24, 0x02C9	; 0x8002c9 <usart1_cnt.1883>
    3d48:	8f 5f       	subi	r24, 0xFF	; 255
    3d4a:	80 93 c9 02 	sts	0x02C9, r24	; 0x8002c9 <usart1_cnt.1883>

			if (usart1_cnt >= 4)
    3d4e:	80 91 c9 02 	lds	r24, 0x02C9	; 0x8002c9 <usart1_cnt.1883>
    3d52:	84 30       	cpi	r24, 0x04	; 4
    3d54:	68 f0       	brcs	.+26     	; 0x3d70 <__vector_16+0x242>
			{
				usart1_rx_lenth = usart1_rx_cnt;
    3d56:	80 91 f4 05 	lds	r24, 0x05F4	; 0x8005f4 <usart1_rx_cnt>
    3d5a:	80 93 f3 05 	sts	0x05F3, r24	; 0x8005f3 <usart1_rx_lenth>
				usart1_rx_end = 1;
    3d5e:	81 e0       	ldi	r24, 0x01	; 1
    3d60:	80 93 f2 05 	sts	0x05F2, r24	; 0x8005f2 <usart1_rx_end>

				usart1_rx_cnt = 0;
    3d64:	10 92 f4 05 	sts	0x05F4, r1	; 0x8005f4 <usart1_rx_cnt>
				pre_usart1_rx_cnt = 0;
    3d68:	10 92 c8 02 	sts	0x02C8, r1	; 0x8002c8 <pre_usart1_rx_cnt.1884>

				usart1_cnt = 0;
    3d6c:	10 92 c9 02 	sts	0x02C9, r1	; 0x8002c9 <usart1_cnt.1883>
			}
		}
	} //如果大于21毫秒没有数据接收  认为完成一次数据的接收      清除时间计数

	if (usart0_rx_cnt != pre_usart0_rx_cnt)
    3d70:	90 91 61 04 	lds	r25, 0x0461	; 0x800461 <usart0_rx_cnt>
    3d74:	80 91 ca 02 	lds	r24, 0x02CA	; 0x8002ca <pre_usart0_rx_cnt.1886>
    3d78:	98 17       	cp	r25, r24
    3d7a:	39 f0       	breq	.+14     	; 0x3d8a <__vector_16+0x25c>
	{
		pre_usart0_rx_cnt = usart0_rx_cnt;
    3d7c:	80 91 61 04 	lds	r24, 0x0461	; 0x800461 <usart0_rx_cnt>
    3d80:	80 93 ca 02 	sts	0x02CA, r24	; 0x8002ca <pre_usart0_rx_cnt.1886>
		usart0_cnt = 0;
    3d84:	10 92 cb 02 	sts	0x02CB, r1	; 0x8002cb <usart0_cnt.1885>

				usart0_cnt = 0;
			}
		}
	} //如果大于21毫秒没有数据接收  认为完成一次数据的接收      清除时间计数
}
    3d88:	1a c0       	rjmp	.+52     	; 0x3dbe <__vector_16+0x290>
		pre_usart0_rx_cnt = usart0_rx_cnt;
		usart0_cnt = 0;
	} //如果usart0当前接收计数与上次计数不一样 表示有数据接收  清除时间计数
	else
	{
		if (usart0_rx_cnt != 0) //如果usart0接收计数为0   认为没有开始接收数据  则不进行超时计数
    3d8a:	80 91 61 04 	lds	r24, 0x0461	; 0x800461 <usart0_rx_cnt>
    3d8e:	88 23       	and	r24, r24
    3d90:	b1 f0       	breq	.+44     	; 0x3dbe <__vector_16+0x290>
		{
			usart0_cnt++;
    3d92:	80 91 cb 02 	lds	r24, 0x02CB	; 0x8002cb <usart0_cnt.1885>
    3d96:	8f 5f       	subi	r24, 0xFF	; 255
    3d98:	80 93 cb 02 	sts	0x02CB, r24	; 0x8002cb <usart0_cnt.1885>

			if (usart0_cnt >= 4)
    3d9c:	80 91 cb 02 	lds	r24, 0x02CB	; 0x8002cb <usart0_cnt.1885>
    3da0:	84 30       	cpi	r24, 0x04	; 4
    3da2:	68 f0       	brcs	.+26     	; 0x3dbe <__vector_16+0x290>
			{
				usart0_rx_lenth = usart0_rx_cnt;
    3da4:	80 91 61 04 	lds	r24, 0x0461	; 0x800461 <usart0_rx_cnt>
    3da8:	80 93 60 04 	sts	0x0460, r24	; 0x800460 <usart0_rx_lenth>
				usart0_rx_end = 1;
    3dac:	81 e0       	ldi	r24, 0x01	; 1
    3dae:	80 93 5f 04 	sts	0x045F, r24	; 0x80045f <usart0_rx_end>

				usart0_rx_cnt = 0;
    3db2:	10 92 61 04 	sts	0x0461, r1	; 0x800461 <usart0_rx_cnt>
				pre_usart0_rx_cnt = 0;
    3db6:	10 92 ca 02 	sts	0x02CA, r1	; 0x8002ca <pre_usart0_rx_cnt.1886>

				usart0_cnt = 0;
    3dba:	10 92 cb 02 	sts	0x02CB, r1	; 0x8002cb <usart0_cnt.1885>
			}
		}
	} //如果大于21毫秒没有数据接收  认为完成一次数据的接收      清除时间计数
}
    3dbe:	00 00       	nop
    3dc0:	df 91       	pop	r29
    3dc2:	cf 91       	pop	r28
    3dc4:	ff 91       	pop	r31
    3dc6:	ef 91       	pop	r30
    3dc8:	bf 91       	pop	r27
    3dca:	af 91       	pop	r26
    3dcc:	9f 91       	pop	r25
    3dce:	8f 91       	pop	r24
    3dd0:	7f 91       	pop	r23
    3dd2:	6f 91       	pop	r22
    3dd4:	5f 91       	pop	r21
    3dd6:	4f 91       	pop	r20
    3dd8:	3f 91       	pop	r19
    3dda:	2f 91       	pop	r18
    3ddc:	0f 90       	pop	r0
    3dde:	00 92 5f 00 	sts	0x005F, r0	; 0x80005f <__TEXT_REGION_LENGTH__+0x7e005f>
    3de2:	0f 90       	pop	r0
    3de4:	1f 90       	pop	r1
    3de6:	18 95       	reti

00003de8 <__vector_12>:

/*射胶阀时间控制相关程序 
**现把此功能独立成单独电路板
*/
ISR(TIMER1_COMPA_vect)
{
    3de8:	1f 92       	push	r1
    3dea:	0f 92       	push	r0
    3dec:	00 90 5f 00 	lds	r0, 0x005F	; 0x80005f <__TEXT_REGION_LENGTH__+0x7e005f>
    3df0:	0f 92       	push	r0
    3df2:	11 24       	eor	r1, r1
    3df4:	cf 93       	push	r28
    3df6:	df 93       	push	r29
    3df8:	cd b7       	in	r28, 0x3d	; 61
    3dfa:	de b7       	in	r29, 0x3e	; 62
	}
	}
	}
	}
	*/
}
    3dfc:	00 00       	nop
    3dfe:	df 91       	pop	r29
    3e00:	cf 91       	pop	r28
    3e02:	0f 90       	pop	r0
    3e04:	00 92 5f 00 	sts	0x005F, r0	; 0x80005f <__TEXT_REGION_LENGTH__+0x7e005f>
    3e08:	0f 90       	pop	r0
    3e0a:	1f 90       	pop	r1
    3e0c:	18 95       	reti

00003e0e <__vector_10>:

/*更新温度曲线 在曲线显示界面时才会更新*/
ISR(TIMER2_OVF_vect)
{
    3e0e:	1f 92       	push	r1
    3e10:	0f 92       	push	r0
    3e12:	00 90 5f 00 	lds	r0, 0x005F	; 0x80005f <__TEXT_REGION_LENGTH__+0x7e005f>
    3e16:	0f 92       	push	r0
    3e18:	11 24       	eor	r1, r1
    3e1a:	2f 93       	push	r18
    3e1c:	3f 93       	push	r19
    3e1e:	4f 93       	push	r20
    3e20:	5f 93       	push	r21
    3e22:	6f 93       	push	r22
    3e24:	7f 93       	push	r23
    3e26:	8f 93       	push	r24
    3e28:	9f 93       	push	r25
    3e2a:	af 93       	push	r26
    3e2c:	bf 93       	push	r27
    3e2e:	ef 93       	push	r30
    3e30:	ff 93       	push	r31
    3e32:	cf 93       	push	r28
    3e34:	df 93       	push	r29
    3e36:	00 d0       	rcall	.+0      	; 0x3e38 <__vector_10+0x2a>
    3e38:	cd b7       	in	r28, 0x3d	; 61
    3e3a:	de b7       	in	r29, 0x3e	; 62
	static uint8_t time_cnt = 0;
	int16_t temp_differ = 0;
    3e3c:	1a 82       	std	Y+2, r1	; 0x02
    3e3e:	19 82       	std	Y+1, r1	; 0x01

	EN_INTERRUPT;
    3e40:	8f e5       	ldi	r24, 0x5F	; 95
    3e42:	90 e0       	ldi	r25, 0x00	; 0
    3e44:	2f e5       	ldi	r18, 0x5F	; 95
    3e46:	30 e0       	ldi	r19, 0x00	; 0
    3e48:	d9 01       	movw	r26, r18
    3e4a:	2c 91       	ld	r18, X
    3e4c:	20 68       	ori	r18, 0x80	; 128
    3e4e:	fc 01       	movw	r30, r24
    3e50:	20 83       	st	Z, r18
	TCNT2 = 0xB2;
    3e52:	84 e4       	ldi	r24, 0x44	; 68
    3e54:	90 e0       	ldi	r25, 0x00	; 0
    3e56:	22 eb       	ldi	r18, 0xB2	; 178
    3e58:	dc 01       	movw	r26, r24
    3e5a:	2c 93       	st	X, r18
	// temp_differ = (run_temp[curve_page_num] - set_temp[curve_page_num]) + 100;

	/*温度转换 计算不同单位下的温度数值  run_temp[] 存储的是摄氏度 
	**set_temp[]存储的是设定温度数值，与温度单位无关 发送温度设定时需转换成相应单位的数值进行发送
	*/
	temp_differ = run_temp[curve_page_num]
    3e5c:	80 91 9e 01 	lds	r24, 0x019E	; 0x80019e <curve_page_num>
    3e60:	08 2e       	mov	r0, r24
    3e62:	00 0c       	add	r0, r0
    3e64:	99 0b       	sbc	r25, r25
    3e66:	88 0f       	add	r24, r24
    3e68:	99 1f       	adc	r25, r25
    3e6a:	81 51       	subi	r24, 0x11	; 17
    3e6c:	9e 4f       	sbci	r25, 0xFE	; 254
    3e6e:	fc 01       	movw	r30, r24
    3e70:	80 81       	ld	r24, Z
    3e72:	91 81       	ldd	r25, Z+1	; 0x01
				+ temp_unit * (run_temp[curve_page_num] * 8 / 10 + 32)
    3e74:	fc 01       	movw	r30, r24
    3e76:	80 91 9e 01 	lds	r24, 0x019E	; 0x80019e <curve_page_num>
    3e7a:	08 2e       	mov	r0, r24
    3e7c:	00 0c       	add	r0, r0
    3e7e:	99 0b       	sbc	r25, r25
    3e80:	88 0f       	add	r24, r24
    3e82:	99 1f       	adc	r25, r25
    3e84:	81 51       	subi	r24, 0x11	; 17
    3e86:	9e 4f       	sbci	r25, 0xFE	; 254
    3e88:	dc 01       	movw	r26, r24
    3e8a:	8d 91       	ld	r24, X+
    3e8c:	9c 91       	ld	r25, X
    3e8e:	88 0f       	add	r24, r24
    3e90:	99 1f       	adc	r25, r25
    3e92:	88 0f       	add	r24, r24
    3e94:	99 1f       	adc	r25, r25
    3e96:	88 0f       	add	r24, r24
    3e98:	99 1f       	adc	r25, r25
    3e9a:	2a e0       	ldi	r18, 0x0A	; 10
    3e9c:	30 e0       	ldi	r19, 0x00	; 0
    3e9e:	b9 01       	movw	r22, r18
    3ea0:	0e 94 12 28 	call	0x5024	; 0x5024 <__divmodhi4>
    3ea4:	cb 01       	movw	r24, r22
    3ea6:	80 96       	adiw	r24, 0x20	; 32
    3ea8:	ac 01       	movw	r20, r24
    3eaa:	20 91 b5 02 	lds	r18, 0x02B5	; 0x8002b5 <temp_unit>
    3eae:	30 91 b6 02 	lds	r19, 0x02B6	; 0x8002b6 <temp_unit+0x1>
    3eb2:	42 9f       	mul	r20, r18
    3eb4:	c0 01       	movw	r24, r0
    3eb6:	43 9f       	mul	r20, r19
    3eb8:	90 0d       	add	r25, r0
    3eba:	52 9f       	mul	r21, r18
    3ebc:	90 0d       	add	r25, r0
    3ebe:	11 24       	eor	r1, r1
    3ec0:	8e 0f       	add	r24, r30
    3ec2:	9f 1f       	adc	r25, r31
				- set_temp[curve_page_num] + 100;
    3ec4:	20 91 9e 01 	lds	r18, 0x019E	; 0x80019e <curve_page_num>
    3ec8:	02 2e       	mov	r0, r18
    3eca:	00 0c       	add	r0, r0
    3ecc:	33 0b       	sbc	r19, r19
    3ece:	22 0f       	add	r18, r18
    3ed0:	33 1f       	adc	r19, r19
    3ed2:	2d 52       	subi	r18, 0x2D	; 45
    3ed4:	35 4f       	sbci	r19, 0xF5	; 245
    3ed6:	f9 01       	movw	r30, r18
    3ed8:	20 81       	ld	r18, Z
    3eda:	31 81       	ldd	r19, Z+1	; 0x01
    3edc:	82 1b       	sub	r24, r18
    3ede:	93 0b       	sbc	r25, r19
    3ee0:	8c 59       	subi	r24, 0x9C	; 156
    3ee2:	9f 4f       	sbci	r25, 0xFF	; 255
	// temp_differ = (run_temp[curve_page_num] - set_temp[curve_page_num]) + 100;

	/*温度转换 计算不同单位下的温度数值  run_temp[] 存储的是摄氏度 
	**set_temp[]存储的是设定温度数值，与温度单位无关 发送温度设定时需转换成相应单位的数值进行发送
	*/
	temp_differ = run_temp[curve_page_num]
    3ee4:	9a 83       	std	Y+2, r25	; 0x02
    3ee6:	89 83       	std	Y+1, r24	; 0x01
				+ temp_unit * (run_temp[curve_page_num] * 8 / 10 + 32)
				- set_temp[curve_page_num] + 100;

	time_cnt++;
    3ee8:	80 91 cc 02 	lds	r24, 0x02CC	; 0x8002cc <time_cnt.1899>
    3eec:	8f 5f       	subi	r24, 0xFF	; 255
    3eee:	80 93 cc 02 	sts	0x02CC, r24	; 0x8002cc <time_cnt.1899>
	if (time_cnt >= timer2_ovf)
    3ef2:	90 91 cc 02 	lds	r25, 0x02CC	; 0x8002cc <time_cnt.1899>
    3ef6:	80 91 bd 02 	lds	r24, 0x02BD	; 0x8002bd <timer2_ovf>
    3efa:	98 17       	cp	r25, r24
    3efc:	40 f0       	brcs	.+16     	; 0x3f0e <__vector_10+0x100>
	{
		time_cnt = 0;
    3efe:	10 92 cc 02 	sts	0x02CC, r1	; 0x8002cc <time_cnt.1899>
		send_to_channel(CHANNEL0, temp_differ);
    3f02:	89 81       	ldd	r24, Y+1	; 0x01
    3f04:	9a 81       	ldd	r25, Y+2	; 0x02
    3f06:	bc 01       	movw	r22, r24
    3f08:	81 e0       	ldi	r24, 0x01	; 1
    3f0a:	0e 94 6c 13 	call	0x26d8	; 0x26d8 <send_to_channel>
	}
}
    3f0e:	00 00       	nop
    3f10:	0f 90       	pop	r0
    3f12:	0f 90       	pop	r0
    3f14:	df 91       	pop	r29
    3f16:	cf 91       	pop	r28
    3f18:	ff 91       	pop	r31
    3f1a:	ef 91       	pop	r30
    3f1c:	bf 91       	pop	r27
    3f1e:	af 91       	pop	r26
    3f20:	9f 91       	pop	r25
    3f22:	8f 91       	pop	r24
    3f24:	7f 91       	pop	r23
    3f26:	6f 91       	pop	r22
    3f28:	5f 91       	pop	r21
    3f2a:	4f 91       	pop	r20
    3f2c:	3f 91       	pop	r19
    3f2e:	2f 91       	pop	r18
    3f30:	0f 90       	pop	r0
    3f32:	00 92 5f 00 	sts	0x005F, r0	; 0x80005f <__TEXT_REGION_LENGTH__+0x7e005f>
    3f36:	0f 90       	pop	r0
    3f38:	1f 90       	pop	r1
    3f3a:	18 95       	reti

00003f3c <__vector_26>:
/*IO口模拟usart发送*/
ISR(TIMER3_COMPA_vect)
{
    3f3c:	1f 92       	push	r1
    3f3e:	0f 92       	push	r0
    3f40:	00 90 5f 00 	lds	r0, 0x005F	; 0x80005f <__TEXT_REGION_LENGTH__+0x7e005f>
    3f44:	0f 92       	push	r0
    3f46:	11 24       	eor	r1, r1
    3f48:	2f 93       	push	r18
    3f4a:	3f 93       	push	r19
    3f4c:	4f 93       	push	r20
    3f4e:	5f 93       	push	r21
    3f50:	8f 93       	push	r24
    3f52:	9f 93       	push	r25
    3f54:	ef 93       	push	r30
    3f56:	ff 93       	push	r31
    3f58:	cf 93       	push	r28
    3f5a:	df 93       	push	r29
    3f5c:	cd b7       	in	r28, 0x3d	; 61
    3f5e:	de b7       	in	r29, 0x3e	; 62
	static uint8_t cnt = 0;
	static uint8_t pos = 0; //当前发送数据BIt 的位置

	cnt++;
    3f60:	80 91 cd 02 	lds	r24, 0x02CD	; 0x8002cd <cnt.1906>
    3f64:	8f 5f       	subi	r24, 0xFF	; 255
    3f66:	80 93 cd 02 	sts	0x02CD, r24	; 0x8002cd <cnt.1906>

	if (usart2_sta == USART2_IN_TX)
    3f6a:	80 91 33 0b 	lds	r24, 0x0B33	; 0x800b33 <usart2_sta>
    3f6e:	88 23       	and	r24, r24
    3f70:	09 f0       	breq	.+2      	; 0x3f74 <__vector_26+0x38>
    3f72:	59 c0       	rjmp	.+178    	; 0x4026 <__vector_26+0xea>
	{
		if (cnt <= 8)
    3f74:	80 91 cd 02 	lds	r24, 0x02CD	; 0x8002cd <cnt.1906>
    3f78:	89 30       	cpi	r24, 0x09	; 9
    3f7a:	a0 f5       	brcc	.+104    	; 0x3fe4 <__vector_26+0xa8>
		{
			if (((usart2_buff & (1 << pos)) >> pos) == 1)
    3f7c:	80 91 bd 06 	lds	r24, 0x06BD	; 0x8006bd <usart2_buff>
    3f80:	28 2f       	mov	r18, r24
    3f82:	30 e0       	ldi	r19, 0x00	; 0
    3f84:	80 91 ce 02 	lds	r24, 0x02CE	; 0x8002ce <pos.1907>
    3f88:	48 2f       	mov	r20, r24
    3f8a:	50 e0       	ldi	r21, 0x00	; 0
    3f8c:	81 e0       	ldi	r24, 0x01	; 1
    3f8e:	90 e0       	ldi	r25, 0x00	; 0
    3f90:	02 c0       	rjmp	.+4      	; 0x3f96 <__vector_26+0x5a>
    3f92:	88 0f       	add	r24, r24
    3f94:	99 1f       	adc	r25, r25
    3f96:	4a 95       	dec	r20
    3f98:	e2 f7       	brpl	.-8      	; 0x3f92 <__vector_26+0x56>
    3f9a:	82 23       	and	r24, r18
    3f9c:	93 23       	and	r25, r19
    3f9e:	20 91 ce 02 	lds	r18, 0x02CE	; 0x8002ce <pos.1907>
    3fa2:	22 2f       	mov	r18, r18
    3fa4:	30 e0       	ldi	r19, 0x00	; 0
    3fa6:	02 c0       	rjmp	.+4      	; 0x3fac <__vector_26+0x70>
    3fa8:	95 95       	asr	r25
    3faa:	87 95       	ror	r24
    3fac:	2a 95       	dec	r18
    3fae:	e2 f7       	brpl	.-8      	; 0x3fa8 <__vector_26+0x6c>
    3fb0:	01 97       	sbiw	r24, 0x01	; 1
    3fb2:	51 f4       	brne	.+20     	; 0x3fc8 <__vector_26+0x8c>
			{
				USART2_TX_PIN_SET;
    3fb4:	85 e3       	ldi	r24, 0x35	; 53
    3fb6:	90 e0       	ldi	r25, 0x00	; 0
    3fb8:	25 e3       	ldi	r18, 0x35	; 53
    3fba:	30 e0       	ldi	r19, 0x00	; 0
    3fbc:	f9 01       	movw	r30, r18
    3fbe:	20 81       	ld	r18, Z
    3fc0:	20 68       	ori	r18, 0x80	; 128
    3fc2:	fc 01       	movw	r30, r24
    3fc4:	20 83       	st	Z, r18
    3fc6:	09 c0       	rjmp	.+18     	; 0x3fda <__vector_26+0x9e>
			}
			else
			{
				USART2_TX_PIN_RESET;
    3fc8:	85 e3       	ldi	r24, 0x35	; 53
    3fca:	90 e0       	ldi	r25, 0x00	; 0
    3fcc:	25 e3       	ldi	r18, 0x35	; 53
    3fce:	30 e0       	ldi	r19, 0x00	; 0
    3fd0:	f9 01       	movw	r30, r18
    3fd2:	20 81       	ld	r18, Z
    3fd4:	2f 77       	andi	r18, 0x7F	; 127
    3fd6:	fc 01       	movw	r30, r24
    3fd8:	20 83       	st	Z, r18
			}
			pos++;
    3fda:	80 91 ce 02 	lds	r24, 0x02CE	; 0x8002ce <pos.1907>
    3fde:	8f 5f       	subi	r24, 0xFF	; 255
    3fe0:	80 93 ce 02 	sts	0x02CE, r24	; 0x8002ce <pos.1907>
		}

		if (cnt == 9)
    3fe4:	80 91 cd 02 	lds	r24, 0x02CD	; 0x8002cd <cnt.1906>
    3fe8:	89 30       	cpi	r24, 0x09	; 9
    3fea:	59 f4       	brne	.+22     	; 0x4002 <__vector_26+0xc6>
		{
			pos = 0;		   //数据发送完成，发送位置恢复1
    3fec:	10 92 ce 02 	sts	0x02CE, r1	; 0x8002ce <pos.1907>
			USART2_TX_PIN_SET; //停止位
    3ff0:	85 e3       	ldi	r24, 0x35	; 53
    3ff2:	90 e0       	ldi	r25, 0x00	; 0
    3ff4:	25 e3       	ldi	r18, 0x35	; 53
    3ff6:	30 e0       	ldi	r19, 0x00	; 0
    3ff8:	f9 01       	movw	r30, r18
    3ffa:	20 81       	ld	r18, Z
    3ffc:	20 68       	ori	r18, 0x80	; 128
    3ffe:	fc 01       	movw	r30, r24
    4000:	20 83       	st	Z, r18
		}

		if (cnt == 10)
    4002:	80 91 cd 02 	lds	r24, 0x02CD	; 0x8002cd <cnt.1906>
    4006:	8a 30       	cpi	r24, 0x0A	; 10
    4008:	71 f4       	brne	.+28     	; 0x4026 <__vector_26+0xea>
		{
			cnt = 0;
    400a:	10 92 cd 02 	sts	0x02CD, r1	; 0x8002cd <cnt.1906>
			usart2_sta = USART2_TX_END; //更改USART2状态为发送完成
    400e:	83 e0       	ldi	r24, 0x03	; 3
    4010:	80 93 33 0b 	sts	0x0B33, r24	; 0x800b33 <usart2_sta>
			TCCR3B &= 0xF8;				//关闭关闭定时器
    4014:	8a e8       	ldi	r24, 0x8A	; 138
    4016:	90 e0       	ldi	r25, 0x00	; 0
    4018:	2a e8       	ldi	r18, 0x8A	; 138
    401a:	30 e0       	ldi	r19, 0x00	; 0
    401c:	f9 01       	movw	r30, r18
    401e:	20 81       	ld	r18, Z
    4020:	28 7f       	andi	r18, 0xF8	; 248
    4022:	fc 01       	movw	r30, r24
    4024:	20 83       	st	Z, r18
		}
	}
}
    4026:	00 00       	nop
    4028:	df 91       	pop	r29
    402a:	cf 91       	pop	r28
    402c:	ff 91       	pop	r31
    402e:	ef 91       	pop	r30
    4030:	9f 91       	pop	r25
    4032:	8f 91       	pop	r24
    4034:	5f 91       	pop	r21
    4036:	4f 91       	pop	r20
    4038:	3f 91       	pop	r19
    403a:	2f 91       	pop	r18
    403c:	0f 90       	pop	r0
    403e:	00 92 5f 00 	sts	0x005F, r0	; 0x80005f <__TEXT_REGION_LENGTH__+0x7e005f>
    4042:	0f 90       	pop	r0
    4044:	1f 90       	pop	r1
    4046:	18 95       	reti

00004048 <timer0_init>:

void timer0_init()
{
    4048:	cf 93       	push	r28
    404a:	df 93       	push	r29
    404c:	cd b7       	in	r28, 0x3d	; 61
    404e:	de b7       	in	r29, 0x3e	; 62
	TCCR0 &= 0xF8; //关闭定时器0
    4050:	83 e5       	ldi	r24, 0x53	; 83
    4052:	90 e0       	ldi	r25, 0x00	; 0
    4054:	23 e5       	ldi	r18, 0x53	; 83
    4056:	30 e0       	ldi	r19, 0x00	; 0
    4058:	f9 01       	movw	r30, r18
    405a:	20 81       	ld	r18, Z
    405c:	28 7f       	andi	r18, 0xF8	; 248
    405e:	fc 01       	movw	r30, r24
    4060:	20 83       	st	Z, r18

	TCNT0 = 0xB2; //定时5ms
    4062:	82 e5       	ldi	r24, 0x52	; 82
    4064:	90 e0       	ldi	r25, 0x00	; 0
    4066:	22 eb       	ldi	r18, 0xB2	; 178
    4068:	fc 01       	movw	r30, r24
    406a:	20 83       	st	Z, r18

	TIMSK &= 0xFC;
    406c:	87 e5       	ldi	r24, 0x57	; 87
    406e:	90 e0       	ldi	r25, 0x00	; 0
    4070:	27 e5       	ldi	r18, 0x57	; 87
    4072:	30 e0       	ldi	r19, 0x00	; 0
    4074:	f9 01       	movw	r30, r18
    4076:	20 81       	ld	r18, Z
    4078:	2c 7f       	andi	r18, 0xFC	; 252
    407a:	fc 01       	movw	r30, r24
    407c:	20 83       	st	Z, r18
	TIMSK |= 0x01; //使能定时器0溢出中断
    407e:	87 e5       	ldi	r24, 0x57	; 87
    4080:	90 e0       	ldi	r25, 0x00	; 0
    4082:	27 e5       	ldi	r18, 0x57	; 87
    4084:	30 e0       	ldi	r19, 0x00	; 0
    4086:	f9 01       	movw	r30, r18
    4088:	20 81       	ld	r18, Z
    408a:	21 60       	ori	r18, 0x01	; 1
    408c:	fc 01       	movw	r30, r24
    408e:	20 83       	st	Z, r18

	TCCR0 |= 0x07; //开启定时器0 正常模式TOP:0xFF, OC0不输出信号, clk/1024
    4090:	83 e5       	ldi	r24, 0x53	; 83
    4092:	90 e0       	ldi	r25, 0x00	; 0
    4094:	23 e5       	ldi	r18, 0x53	; 83
    4096:	30 e0       	ldi	r19, 0x00	; 0
    4098:	f9 01       	movw	r30, r18
    409a:	20 81       	ld	r18, Z
    409c:	27 60       	ori	r18, 0x07	; 7
    409e:	fc 01       	movw	r30, r24
    40a0:	20 83       	st	Z, r18
}
    40a2:	00 00       	nop
    40a4:	df 91       	pop	r29
    40a6:	cf 91       	pop	r28
    40a8:	08 95       	ret

000040aa <timer1_init>:

void timer1_init()
{
    40aa:	cf 93       	push	r28
    40ac:	df 93       	push	r29
    40ae:	cd b7       	in	r28, 0x3d	; 61
    40b0:	de b7       	in	r29, 0x3e	; 62
	TCCR1B |= 0x08; //WGM12位置1
    40b2:	8e e4       	ldi	r24, 0x4E	; 78
    40b4:	90 e0       	ldi	r25, 0x00	; 0
    40b6:	2e e4       	ldi	r18, 0x4E	; 78
    40b8:	30 e0       	ldi	r19, 0x00	; 0
    40ba:	f9 01       	movw	r30, r18
    40bc:	20 81       	ld	r18, Z
    40be:	28 60       	ori	r18, 0x08	; 8
    40c0:	fc 01       	movw	r30, r24
    40c2:	20 83       	st	Z, r18
	TCCR1B &= 0xF8; //关闭定时器（清除时钟选择位 CS10 CS11 CS12）
    40c4:	8e e4       	ldi	r24, 0x4E	; 78
    40c6:	90 e0       	ldi	r25, 0x00	; 0
    40c8:	2e e4       	ldi	r18, 0x4E	; 78
    40ca:	30 e0       	ldi	r19, 0x00	; 0
    40cc:	f9 01       	movw	r30, r18
    40ce:	20 81       	ld	r18, Z
    40d0:	28 7f       	andi	r18, 0xF8	; 248
    40d2:	fc 01       	movw	r30, r24
    40d4:	20 83       	st	Z, r18

	OCR1AH = 0x09; //定时10ms
    40d6:	8b e4       	ldi	r24, 0x4B	; 75
    40d8:	90 e0       	ldi	r25, 0x00	; 0
    40da:	29 e0       	ldi	r18, 0x09	; 9
    40dc:	fc 01       	movw	r30, r24
    40de:	20 83       	st	Z, r18
	OCR1AL = 0xC4;
    40e0:	8a e4       	ldi	r24, 0x4A	; 74
    40e2:	90 e0       	ldi	r25, 0x00	; 0
    40e4:	24 ec       	ldi	r18, 0xC4	; 196
    40e6:	fc 01       	movw	r30, r24
    40e8:	20 83       	st	Z, r18

	TIMSK |= 0x10; //定时器1 A输出比较中断使能
    40ea:	87 e5       	ldi	r24, 0x57	; 87
    40ec:	90 e0       	ldi	r25, 0x00	; 0
    40ee:	27 e5       	ldi	r18, 0x57	; 87
    40f0:	30 e0       	ldi	r19, 0x00	; 0
    40f2:	f9 01       	movw	r30, r18
    40f4:	20 81       	ld	r18, Z
    40f6:	20 61       	ori	r18, 0x10	; 16
    40f8:	fc 01       	movw	r30, r24
    40fa:	20 83       	st	Z, r18

	TCCR1B |= 0x03; //开启定时器1 CTC模式 top:OCR1A, OC1A OC1B OC1C DISCONNECT,CLK/64
    40fc:	8e e4       	ldi	r24, 0x4E	; 78
    40fe:	90 e0       	ldi	r25, 0x00	; 0
    4100:	2e e4       	ldi	r18, 0x4E	; 78
    4102:	30 e0       	ldi	r19, 0x00	; 0
    4104:	f9 01       	movw	r30, r18
    4106:	20 81       	ld	r18, Z
    4108:	23 60       	ori	r18, 0x03	; 3
    410a:	fc 01       	movw	r30, r24
    410c:	20 83       	st	Z, r18
}
    410e:	00 00       	nop
    4110:	df 91       	pop	r29
    4112:	cf 91       	pop	r28
    4114:	08 95       	ret

00004116 <timer2_init>:

void timer2_init()
{
    4116:	cf 93       	push	r28
    4118:	df 93       	push	r29
    411a:	cd b7       	in	r28, 0x3d	; 61
    411c:	de b7       	in	r29, 0x3e	; 62
	TCCR2 &= 0xF8; //关闭定时器
    411e:	85 e4       	ldi	r24, 0x45	; 69
    4120:	90 e0       	ldi	r25, 0x00	; 0
    4122:	25 e4       	ldi	r18, 0x45	; 69
    4124:	30 e0       	ldi	r19, 0x00	; 0
    4126:	f9 01       	movw	r30, r18
    4128:	20 81       	ld	r18, Z
    412a:	28 7f       	andi	r18, 0xF8	; 248
    412c:	fc 01       	movw	r30, r24
    412e:	20 83       	st	Z, r18

	TCNT2 = 0xB2; //定时5ms
    4130:	84 e4       	ldi	r24, 0x44	; 68
    4132:	90 e0       	ldi	r25, 0x00	; 0
    4134:	22 eb       	ldi	r18, 0xB2	; 178
    4136:	fc 01       	movw	r30, r24
    4138:	20 83       	st	Z, r18

	TIMSK &= 0x3F;
    413a:	87 e5       	ldi	r24, 0x57	; 87
    413c:	90 e0       	ldi	r25, 0x00	; 0
    413e:	27 e5       	ldi	r18, 0x57	; 87
    4140:	30 e0       	ldi	r19, 0x00	; 0
    4142:	f9 01       	movw	r30, r18
    4144:	20 81       	ld	r18, Z
    4146:	2f 73       	andi	r18, 0x3F	; 63
    4148:	fc 01       	movw	r30, r24
    414a:	20 83       	st	Z, r18
	TIMSK |= 0x40; //使能定时器2溢出中断
    414c:	87 e5       	ldi	r24, 0x57	; 87
    414e:	90 e0       	ldi	r25, 0x00	; 0
    4150:	27 e5       	ldi	r18, 0x57	; 87
    4152:	30 e0       	ldi	r19, 0x00	; 0
    4154:	f9 01       	movw	r30, r18
    4156:	20 81       	ld	r18, Z
    4158:	20 64       	ori	r18, 0x40	; 64
    415a:	fc 01       	movw	r30, r24
    415c:	20 83       	st	Z, r18

	TCCR2 |= 0x05; //开启定时器2 正常模式TOP:0xFF, OC0不输出信号, clk/1024
    415e:	85 e4       	ldi	r24, 0x45	; 69
    4160:	90 e0       	ldi	r25, 0x00	; 0
    4162:	25 e4       	ldi	r18, 0x45	; 69
    4164:	30 e0       	ldi	r19, 0x00	; 0
    4166:	f9 01       	movw	r30, r18
    4168:	20 81       	ld	r18, Z
    416a:	25 60       	ori	r18, 0x05	; 5
    416c:	fc 01       	movw	r30, r24
    416e:	20 83       	st	Z, r18
	TCCR2 &= 0xF8;
    4170:	85 e4       	ldi	r24, 0x45	; 69
    4172:	90 e0       	ldi	r25, 0x00	; 0
    4174:	25 e4       	ldi	r18, 0x45	; 69
    4176:	30 e0       	ldi	r19, 0x00	; 0
    4178:	f9 01       	movw	r30, r18
    417a:	20 81       	ld	r18, Z
    417c:	28 7f       	andi	r18, 0xF8	; 248
    417e:	fc 01       	movw	r30, r24
    4180:	20 83       	st	Z, r18
}
    4182:	00 00       	nop
    4184:	df 91       	pop	r29
    4186:	cf 91       	pop	r28
    4188:	08 95       	ret

0000418a <twi_init>:
    return 0xFFFF;
}

/* twi濮 涓棰 kbs锛 */
void twi_init(uint16_t kbs)
{
    418a:	cf 92       	push	r12
    418c:	df 92       	push	r13
    418e:	ef 92       	push	r14
    4190:	ff 92       	push	r15
    4192:	0f 93       	push	r16
    4194:	1f 93       	push	r17
    4196:	cf 93       	push	r28
    4198:	df 93       	push	r29
    419a:	00 d0       	rcall	.+0      	; 0x419c <twi_init+0x12>
    419c:	cd b7       	in	r28, 0x3d	; 61
    419e:	de b7       	in	r29, 0x3e	; 62
    41a0:	9a 83       	std	Y+2, r25	; 0x02
    41a2:	89 83       	std	Y+1, r24	; 0x01
    /* 涓棰 */
    TWSR &= ~(1 << TWPS0);
    41a4:	81 e7       	ldi	r24, 0x71	; 113
    41a6:	90 e0       	ldi	r25, 0x00	; 0
    41a8:	21 e7       	ldi	r18, 0x71	; 113
    41aa:	30 e0       	ldi	r19, 0x00	; 0
    41ac:	f9 01       	movw	r30, r18
    41ae:	20 81       	ld	r18, Z
    41b0:	2e 7f       	andi	r18, 0xFE	; 254
    41b2:	fc 01       	movw	r30, r24
    41b4:	20 83       	st	Z, r18
    TWSR &= ~(1 << TWPS1);
    41b6:	81 e7       	ldi	r24, 0x71	; 113
    41b8:	90 e0       	ldi	r25, 0x00	; 0
    41ba:	21 e7       	ldi	r18, 0x71	; 113
    41bc:	30 e0       	ldi	r19, 0x00	; 0
    41be:	f9 01       	movw	r30, r18
    41c0:	20 81       	ld	r18, Z
    41c2:	2d 7f       	andi	r18, 0xFD	; 253
    41c4:	fc 01       	movw	r30, r24
    41c6:	20 83       	st	Z, r18

    /* 规璁＄TWBR */
    TWBR = (F_CPU - kbs * 16) / kbs / 2;
    41c8:	00 e7       	ldi	r16, 0x70	; 112
    41ca:	10 e0       	ldi	r17, 0x00	; 0
    41cc:	89 81       	ldd	r24, Y+1	; 0x01
    41ce:	9a 81       	ldd	r25, Y+2	; 0x02
    41d0:	82 95       	swap	r24
    41d2:	92 95       	swap	r25
    41d4:	90 7f       	andi	r25, 0xF0	; 240
    41d6:	98 27       	eor	r25, r24
    41d8:	80 7f       	andi	r24, 0xF0	; 240
    41da:	98 27       	eor	r25, r24
    41dc:	cc 01       	movw	r24, r24
    41de:	a0 e0       	ldi	r26, 0x00	; 0
    41e0:	b0 e0       	ldi	r27, 0x00	; 0
    41e2:	20 e0       	ldi	r18, 0x00	; 0
    41e4:	34 e2       	ldi	r19, 0x24	; 36
    41e6:	44 ef       	ldi	r20, 0xF4	; 244
    41e8:	50 e0       	ldi	r21, 0x00	; 0
    41ea:	69 01       	movw	r12, r18
    41ec:	7a 01       	movw	r14, r20
    41ee:	c8 1a       	sub	r12, r24
    41f0:	d9 0a       	sbc	r13, r25
    41f2:	ea 0a       	sbc	r14, r26
    41f4:	fb 0a       	sbc	r15, r27
    41f6:	d7 01       	movw	r26, r14
    41f8:	c6 01       	movw	r24, r12
    41fa:	29 81       	ldd	r18, Y+1	; 0x01
    41fc:	3a 81       	ldd	r19, Y+2	; 0x02
    41fe:	99 01       	movw	r18, r18
    4200:	40 e0       	ldi	r20, 0x00	; 0
    4202:	50 e0       	ldi	r21, 0x00	; 0
    4204:	bc 01       	movw	r22, r24
    4206:	cd 01       	movw	r24, r26
    4208:	0e 94 26 28 	call	0x504c	; 0x504c <__udivmodsi4>
    420c:	da 01       	movw	r26, r20
    420e:	c9 01       	movw	r24, r18
    4210:	b6 95       	lsr	r27
    4212:	a7 95       	ror	r26
    4214:	97 95       	ror	r25
    4216:	87 95       	ror	r24
    4218:	f8 01       	movw	r30, r16
    421a:	80 83       	st	Z, r24
    421c:	00 00       	nop
    421e:	0f 90       	pop	r0
    4220:	0f 90       	pop	r0
    4222:	df 91       	pop	r29
    4224:	cf 91       	pop	r28
    4226:	1f 91       	pop	r17
    4228:	0f 91       	pop	r16
    422a:	ff 90       	pop	r15
    422c:	ef 90       	pop	r14
    422e:	df 90       	pop	r13
    4230:	cf 90       	pop	r12
    4232:	08 95       	ret

00004234 <__vector_18>:
uint16_t d_value_buff = 100;

uint16_t time_ctrl_value_buff[4][8][4];

ISR(USART0_RX_vect)
{
    4234:	1f 92       	push	r1
    4236:	0f 92       	push	r0
    4238:	00 90 5f 00 	lds	r0, 0x005F	; 0x80005f <__TEXT_REGION_LENGTH__+0x7e005f>
    423c:	0f 92       	push	r0
    423e:	11 24       	eor	r1, r1
    4240:	2f 93       	push	r18
    4242:	3f 93       	push	r19
    4244:	8f 93       	push	r24
    4246:	9f 93       	push	r25
    4248:	ef 93       	push	r30
    424a:	ff 93       	push	r31
    424c:	cf 93       	push	r28
    424e:	df 93       	push	r29
    4250:	cd b7       	in	r28, 0x3d	; 61
    4252:	de b7       	in	r29, 0x3e	; 62
	usart0_rx_buff[usart0_rx_cnt++] = UDR0;
    4254:	80 91 61 04 	lds	r24, 0x0461	; 0x800461 <usart0_rx_cnt>
    4258:	91 e0       	ldi	r25, 0x01	; 1
    425a:	98 0f       	add	r25, r24
    425c:	90 93 61 04 	sts	0x0461, r25	; 0x800461 <usart0_rx_cnt>
    4260:	88 2f       	mov	r24, r24
    4262:	90 e0       	ldi	r25, 0x00	; 0
    4264:	2c e2       	ldi	r18, 0x2C	; 44
    4266:	30 e0       	ldi	r19, 0x00	; 0
    4268:	f9 01       	movw	r30, r18
    426a:	20 81       	ld	r18, Z
    426c:	81 53       	subi	r24, 0x31	; 49
    426e:	9d 4f       	sbci	r25, 0xFD	; 253
    4270:	fc 01       	movw	r30, r24
    4272:	20 83       	st	Z, r18

	if (usart0_rx_cnt >= 200)
    4274:	80 91 61 04 	lds	r24, 0x0461	; 0x800461 <usart0_rx_cnt>
    4278:	88 3c       	cpi	r24, 0xC8	; 200
    427a:	30 f0       	brcs	.+12     	; 0x4288 <__vector_18+0x54>
	{
		usart0_rx_lenth = usart0_rx_cnt;
    427c:	80 91 61 04 	lds	r24, 0x0461	; 0x800461 <usart0_rx_cnt>
    4280:	80 93 60 04 	sts	0x0460, r24	; 0x800460 <usart0_rx_lenth>
		usart0_rx_cnt = 0;
    4284:	10 92 61 04 	sts	0x0461, r1	; 0x800461 <usart0_rx_cnt>
	}
}
    4288:	00 00       	nop
    428a:	df 91       	pop	r29
    428c:	cf 91       	pop	r28
    428e:	ff 91       	pop	r31
    4290:	ef 91       	pop	r30
    4292:	9f 91       	pop	r25
    4294:	8f 91       	pop	r24
    4296:	3f 91       	pop	r19
    4298:	2f 91       	pop	r18
    429a:	0f 90       	pop	r0
    429c:	00 92 5f 00 	sts	0x005F, r0	; 0x80005f <__TEXT_REGION_LENGTH__+0x7e005f>
    42a0:	0f 90       	pop	r0
    42a2:	1f 90       	pop	r1
    42a4:	18 95       	reti

000042a6 <__vector_30>:

ISR(USART1_RX_vect)
{
    42a6:	1f 92       	push	r1
    42a8:	0f 92       	push	r0
    42aa:	00 90 5f 00 	lds	r0, 0x005F	; 0x80005f <__TEXT_REGION_LENGTH__+0x7e005f>
    42ae:	0f 92       	push	r0
    42b0:	11 24       	eor	r1, r1
    42b2:	2f 93       	push	r18
    42b4:	3f 93       	push	r19
    42b6:	8f 93       	push	r24
    42b8:	9f 93       	push	r25
    42ba:	ef 93       	push	r30
    42bc:	ff 93       	push	r31
    42be:	cf 93       	push	r28
    42c0:	df 93       	push	r29
    42c2:	cd b7       	in	r28, 0x3d	; 61
    42c4:	de b7       	in	r29, 0x3e	; 62
	usart1_rx_buff[usart1_rx_cnt++] = UDR1;
    42c6:	80 91 f4 05 	lds	r24, 0x05F4	; 0x8005f4 <usart1_rx_cnt>
    42ca:	91 e0       	ldi	r25, 0x01	; 1
    42cc:	98 0f       	add	r25, r24
    42ce:	90 93 f4 05 	sts	0x05F4, r25	; 0x8005f4 <usart1_rx_cnt>
    42d2:	88 2f       	mov	r24, r24
    42d4:	90 e0       	ldi	r25, 0x00	; 0
    42d6:	2c e9       	ldi	r18, 0x9C	; 156
    42d8:	30 e0       	ldi	r19, 0x00	; 0
    42da:	f9 01       	movw	r30, r18
    42dc:	20 81       	ld	r18, Z
    42de:	8e 59       	subi	r24, 0x9E	; 158
    42e0:	9b 4f       	sbci	r25, 0xFB	; 251
    42e2:	fc 01       	movw	r30, r24
    42e4:	20 83       	st	Z, r18

	if (usart1_rx_cnt >= 200)
    42e6:	80 91 f4 05 	lds	r24, 0x05F4	; 0x8005f4 <usart1_rx_cnt>
    42ea:	88 3c       	cpi	r24, 0xC8	; 200
    42ec:	30 f0       	brcs	.+12     	; 0x42fa <__vector_30+0x54>
	{
		usart1_rx_lenth = usart1_rx_cnt;
    42ee:	80 91 f4 05 	lds	r24, 0x05F4	; 0x8005f4 <usart1_rx_cnt>
    42f2:	80 93 f3 05 	sts	0x05F3, r24	; 0x8005f3 <usart1_rx_lenth>
		usart1_rx_cnt = 0;
    42f6:	10 92 f4 05 	sts	0x05F4, r1	; 0x8005f4 <usart1_rx_cnt>
	}
}
    42fa:	00 00       	nop
    42fc:	df 91       	pop	r29
    42fe:	cf 91       	pop	r28
    4300:	ff 91       	pop	r31
    4302:	ef 91       	pop	r30
    4304:	9f 91       	pop	r25
    4306:	8f 91       	pop	r24
    4308:	3f 91       	pop	r19
    430a:	2f 91       	pop	r18
    430c:	0f 90       	pop	r0
    430e:	00 92 5f 00 	sts	0x005F, r0	; 0x80005f <__TEXT_REGION_LENGTH__+0x7e005f>
    4312:	0f 90       	pop	r0
    4314:	1f 90       	pop	r1
    4316:	18 95       	reti

00004318 <usart0_deal>:

int usart0_deal(void)
{
    4318:	cf 93       	push	r28
    431a:	df 93       	push	r29
    431c:	00 d0       	rcall	.+0      	; 0x431e <usart0_deal+0x6>
    431e:	00 d0       	rcall	.+0      	; 0x4320 <usart0_deal+0x8>
    4320:	00 d0       	rcall	.+0      	; 0x4322 <usart0_deal+0xa>
    4322:	cd b7       	in	r28, 0x3d	; 61
    4324:	de b7       	in	r29, 0x3e	; 62
	uint16_t crc_data = 0;
    4326:	1a 82       	std	Y+2, r1	; 0x02
    4328:	19 82       	std	Y+1, r1	; 0x01

	uint16_t variable_addr = 0;
    432a:	1c 82       	std	Y+4, r1	; 0x04
    432c:	1b 82       	std	Y+3, r1	; 0x03
	uint16_t variable = 0;
    432e:	1e 82       	std	Y+6, r1	; 0x06
    4330:	1d 82       	std	Y+5, r1	; 0x05

	crc_data = usart0_rx_buff[usart0_rx_lenth - 1];
    4332:	80 91 60 04 	lds	r24, 0x0460	; 0x800460 <usart0_rx_lenth>
    4336:	88 2f       	mov	r24, r24
    4338:	90 e0       	ldi	r25, 0x00	; 0
    433a:	01 97       	sbiw	r24, 0x01	; 1
    433c:	81 53       	subi	r24, 0x31	; 49
    433e:	9d 4f       	sbci	r25, 0xFD	; 253
    4340:	fc 01       	movw	r30, r24
    4342:	80 81       	ld	r24, Z
    4344:	88 2f       	mov	r24, r24
    4346:	90 e0       	ldi	r25, 0x00	; 0
    4348:	9a 83       	std	Y+2, r25	; 0x02
    434a:	89 83       	std	Y+1, r24	; 0x01
	crc_data = (crc_data << 8) + usart0_rx_buff[usart0_rx_lenth - 2]; //读取接收数据后两个字节的校验值
    434c:	89 81       	ldd	r24, Y+1	; 0x01
    434e:	9a 81       	ldd	r25, Y+2	; 0x02
    4350:	38 2f       	mov	r19, r24
    4352:	22 27       	eor	r18, r18
    4354:	80 91 60 04 	lds	r24, 0x0460	; 0x800460 <usart0_rx_lenth>
    4358:	88 2f       	mov	r24, r24
    435a:	90 e0       	ldi	r25, 0x00	; 0
    435c:	02 97       	sbiw	r24, 0x02	; 2
    435e:	81 53       	subi	r24, 0x31	; 49
    4360:	9d 4f       	sbci	r25, 0xFD	; 253
    4362:	fc 01       	movw	r30, r24
    4364:	80 81       	ld	r24, Z
    4366:	88 2f       	mov	r24, r24
    4368:	90 e0       	ldi	r25, 0x00	; 0
    436a:	82 0f       	add	r24, r18
    436c:	93 1f       	adc	r25, r19
    436e:	9a 83       	std	Y+2, r25	; 0x02
    4370:	89 83       	std	Y+1, r24	; 0x01

	variable_addr = usart0_rx_buff[4];
    4372:	80 91 d3 02 	lds	r24, 0x02D3	; 0x8002d3 <usart0_rx_buff+0x4>
    4376:	88 2f       	mov	r24, r24
    4378:	90 e0       	ldi	r25, 0x00	; 0
    437a:	9c 83       	std	Y+4, r25	; 0x04
    437c:	8b 83       	std	Y+3, r24	; 0x03
	variable_addr = (variable_addr << 8) | usart0_rx_buff[5]; //读取变量地址
    437e:	8b 81       	ldd	r24, Y+3	; 0x03
    4380:	9c 81       	ldd	r25, Y+4	; 0x04
    4382:	38 2f       	mov	r19, r24
    4384:	22 27       	eor	r18, r18
    4386:	80 91 d4 02 	lds	r24, 0x02D4	; 0x8002d4 <usart0_rx_buff+0x5>
    438a:	88 2f       	mov	r24, r24
    438c:	90 e0       	ldi	r25, 0x00	; 0
    438e:	82 2b       	or	r24, r18
    4390:	93 2b       	or	r25, r19
    4392:	9c 83       	std	Y+4, r25	; 0x04
    4394:	8b 83       	std	Y+3, r24	; 0x03

	variable = usart0_rx_buff[usart0_rx_lenth - 4];
    4396:	80 91 60 04 	lds	r24, 0x0460	; 0x800460 <usart0_rx_lenth>
    439a:	88 2f       	mov	r24, r24
    439c:	90 e0       	ldi	r25, 0x00	; 0
    439e:	04 97       	sbiw	r24, 0x04	; 4
    43a0:	81 53       	subi	r24, 0x31	; 49
    43a2:	9d 4f       	sbci	r25, 0xFD	; 253
    43a4:	fc 01       	movw	r30, r24
    43a6:	80 81       	ld	r24, Z
    43a8:	88 2f       	mov	r24, r24
    43aa:	90 e0       	ldi	r25, 0x00	; 0
    43ac:	9e 83       	std	Y+6, r25	; 0x06
    43ae:	8d 83       	std	Y+5, r24	; 0x05
	variable = (variable << 8) | usart0_rx_buff[usart0_rx_lenth - 3]; //读取变量值
    43b0:	8d 81       	ldd	r24, Y+5	; 0x05
    43b2:	9e 81       	ldd	r25, Y+6	; 0x06
    43b4:	38 2f       	mov	r19, r24
    43b6:	22 27       	eor	r18, r18
    43b8:	80 91 60 04 	lds	r24, 0x0460	; 0x800460 <usart0_rx_lenth>
    43bc:	88 2f       	mov	r24, r24
    43be:	90 e0       	ldi	r25, 0x00	; 0
    43c0:	03 97       	sbiw	r24, 0x03	; 3
    43c2:	81 53       	subi	r24, 0x31	; 49
    43c4:	9d 4f       	sbci	r25, 0xFD	; 253
    43c6:	fc 01       	movw	r30, r24
    43c8:	80 81       	ld	r24, Z
    43ca:	88 2f       	mov	r24, r24
    43cc:	90 e0       	ldi	r25, 0x00	; 0
    43ce:	82 2b       	or	r24, r18
    43d0:	93 2b       	or	r25, r19
    43d2:	9e 83       	std	Y+6, r25	; 0x06
    43d4:	8d 83       	std	Y+5, r24	; 0x05

	if ((usart0_rx_buff[0] != 0xA5) || (usart0_rx_buff[1] != 0x5A)) //判断数据头是否正确
    43d6:	80 91 cf 02 	lds	r24, 0x02CF	; 0x8002cf <usart0_rx_buff>
    43da:	85 3a       	cpi	r24, 0xA5	; 165
    43dc:	21 f4       	brne	.+8      	; 0x43e6 <usart0_deal+0xce>
    43de:	80 91 d0 02 	lds	r24, 0x02D0	; 0x8002d0 <usart0_rx_buff+0x1>
    43e2:	8a 35       	cpi	r24, 0x5A	; 90
    43e4:	29 f0       	breq	.+10     	; 0x43f0 <usart0_deal+0xd8>
	{
		usart0_rx_end = 0;
    43e6:	10 92 5f 04 	sts	0x045F, r1	; 0x80045f <usart0_rx_end>
		return 0;
    43ea:	80 e0       	ldi	r24, 0x00	; 0
    43ec:	90 e0       	ldi	r25, 0x00	; 0
    43ee:	a7 c3       	rjmp	.+1870   	; 0x4b3e <usart0_deal+0x826>
	}

	if ((usart0_rx_buff[2] + 5) != usart0_rx_lenth) //判断数据长度是否正确
    43f0:	80 91 d1 02 	lds	r24, 0x02D1	; 0x8002d1 <usart0_rx_buff+0x2>
    43f4:	88 2f       	mov	r24, r24
    43f6:	90 e0       	ldi	r25, 0x00	; 0
    43f8:	9c 01       	movw	r18, r24
    43fa:	2b 5f       	subi	r18, 0xFB	; 251
    43fc:	3f 4f       	sbci	r19, 0xFF	; 255
    43fe:	80 91 60 04 	lds	r24, 0x0460	; 0x800460 <usart0_rx_lenth>
    4402:	88 2f       	mov	r24, r24
    4404:	90 e0       	ldi	r25, 0x00	; 0
    4406:	28 17       	cp	r18, r24
    4408:	39 07       	cpc	r19, r25
    440a:	29 f0       	breq	.+10     	; 0x4416 <usart0_deal+0xfe>
	{
		usart0_rx_end = 0;
    440c:	10 92 5f 04 	sts	0x045F, r1	; 0x80045f <usart0_rx_end>
		return 0;
    4410:	80 e0       	ldi	r24, 0x00	; 0
    4412:	90 e0       	ldi	r25, 0x00	; 0
    4414:	94 c3       	rjmp	.+1832   	; 0x4b3e <usart0_deal+0x826>
	}

	if (crc_data != crc_check(usart0_rx_buff, usart0_rx_lenth)) //判断crc校验是否正确
    4416:	80 91 60 04 	lds	r24, 0x0460	; 0x800460 <usart0_rx_lenth>
    441a:	68 2f       	mov	r22, r24
    441c:	8f ec       	ldi	r24, 0xCF	; 207
    441e:	92 e0       	ldi	r25, 0x02	; 2
    4420:	0e 94 d9 26 	call	0x4db2	; 0x4db2 <crc_check>
    4424:	9c 01       	movw	r18, r24
    4426:	89 81       	ldd	r24, Y+1	; 0x01
    4428:	9a 81       	ldd	r25, Y+2	; 0x02
    442a:	28 17       	cp	r18, r24
    442c:	39 07       	cpc	r19, r25
    442e:	29 f0       	breq	.+10     	; 0x443a <usart0_deal+0x122>
	{
		usart0_rx_end = 0;
    4430:	10 92 5f 04 	sts	0x045F, r1	; 0x80045f <usart0_rx_end>
		return 0;
    4434:	80 e0       	ldi	r24, 0x00	; 0
    4436:	90 e0       	ldi	r25, 0x00	; 0
    4438:	82 c3       	rjmp	.+1796   	; 0x4b3e <usart0_deal+0x826>
	}

	if (RX0_COMMAND == ACCESS_VARIABLE)
    443a:	80 91 d2 02 	lds	r24, 0x02D2	; 0x8002d2 <usart0_rx_buff+0x3>
    443e:	83 38       	cpi	r24, 0x83	; 131
    4440:	09 f0       	breq	.+2      	; 0x4444 <usart0_deal+0x12c>
    4442:	7b c3       	rjmp	.+1782   	; 0x4b3a <usart0_deal+0x822>
	{
		switch (variable_addr)
    4444:	8b 81       	ldd	r24, Y+3	; 0x03
    4446:	9c 81       	ldd	r25, Y+4	; 0x04
    4448:	cc 01       	movw	r24, r24
    444a:	a0 e0       	ldi	r26, 0x00	; 0
    444c:	b0 e0       	ldi	r27, 0x00	; 0
    444e:	40 e4       	ldi	r20, 0x40	; 64
    4450:	51 e0       	ldi	r21, 0x01	; 1
    4452:	2f eb       	ldi	r18, 0xBF	; 191
    4454:	30 e0       	ldi	r19, 0x00	; 0
    4456:	84 1b       	sub	r24, r20
    4458:	95 0b       	sbc	r25, r21
    445a:	28 17       	cp	r18, r24
    445c:	39 07       	cpc	r19, r25
    445e:	08 f4       	brcc	.+2      	; 0x4462 <usart0_deal+0x14a>
    4460:	6b c3       	rjmp	.+1750   	; 0x4b38 <usart0_deal+0x820>
    4462:	8e 58       	subi	r24, 0x8E	; 142
    4464:	9f 4f       	sbci	r25, 0xFF	; 255
    4466:	fc 01       	movw	r30, r24
    4468:	0c 94 48 28 	jmp	0x5090	; 0x5090 <__tablejump2__>
		{
		case KEY_ADDR:
			key_action(variable);
    446c:	8d 81       	ldd	r24, Y+5	; 0x05
    446e:	9e 81       	ldd	r25, Y+6	; 0x06
    4470:	0e 94 df 04 	call	0x9be	; 0x9be <key_action>
			break; //如果变量地址为按键变量地址  执行按键动作
    4474:	62 c3       	rjmp	.+1732   	; 0x4b3a <usart0_deal+0x822>
		case MASTER_SWITCH:
			switch_all_sensor(variable);
    4476:	8d 81       	ldd	r24, Y+5	; 0x05
    4478:	9e 81       	ldd	r25, Y+6	; 0x06
    447a:	0e 94 44 0a 	call	0x1488	; 0x1488 <switch_all_sensor>
			break;
    447e:	5d c3       	rjmp	.+1722   	; 0x4b3a <usart0_deal+0x822>
		case SINGLE_SET_FOLLOW:
			follow_sta_buff[set_num] = variable;
    4480:	80 91 9c 01 	lds	r24, 0x019C	; 0x80019c <set_num>
    4484:	88 2f       	mov	r24, r24
    4486:	90 e0       	ldi	r25, 0x00	; 0
    4488:	2d 81       	ldd	r18, Y+5	; 0x05
    448a:	85 56       	subi	r24, 0x65	; 101
    448c:	9d 4f       	sbci	r25, 0xFD	; 253
    448e:	fc 01       	movw	r30, r24
    4490:	20 83       	st	Z, r18
			break;
    4492:	53 c3       	rjmp	.+1702   	; 0x4b3a <usart0_deal+0x822>
		case SINGLE_SET_SENSOR_TYPE:
			sensor_type_buff[set_num] = variable;
    4494:	80 91 9c 01 	lds	r24, 0x019C	; 0x80019c <set_num>
    4498:	88 2f       	mov	r24, r24
    449a:	90 e0       	ldi	r25, 0x00	; 0
    449c:	88 0f       	add	r24, r24
    449e:	99 1f       	adc	r25, r25
    44a0:	8e 50       	subi	r24, 0x0E	; 14
    44a2:	99 4f       	sbci	r25, 0xF9	; 249
    44a4:	2d 81       	ldd	r18, Y+5	; 0x05
    44a6:	3e 81       	ldd	r19, Y+6	; 0x06
    44a8:	fc 01       	movw	r30, r24
    44aa:	31 83       	std	Z+1, r19	; 0x01
    44ac:	20 83       	st	Z, r18
			send_variables(SINGLE_SENSORTYPE_ADDR,
						   TYPE_J + (sensor_type_buff[set_num] * TYPE_K));
    44ae:	80 91 9c 01 	lds	r24, 0x019C	; 0x80019c <set_num>
    44b2:	88 2f       	mov	r24, r24
    44b4:	90 e0       	ldi	r25, 0x00	; 0
    44b6:	88 0f       	add	r24, r24
    44b8:	99 1f       	adc	r25, r25
    44ba:	8e 50       	subi	r24, 0x0E	; 14
    44bc:	99 4f       	sbci	r25, 0xF9	; 249
    44be:	fc 01       	movw	r30, r24
    44c0:	80 81       	ld	r24, Z
    44c2:	91 81       	ldd	r25, Z+1	; 0x01
		case SINGLE_SET_FOLLOW:
			follow_sta_buff[set_num] = variable;
			break;
		case SINGLE_SET_SENSOR_TYPE:
			sensor_type_buff[set_num] = variable;
			send_variables(SINGLE_SENSORTYPE_ADDR,
    44c4:	86 5b       	subi	r24, 0xB6	; 182
    44c6:	9f 4f       	sbci	r25, 0xFF	; 255
    44c8:	98 2f       	mov	r25, r24
    44ca:	88 27       	eor	r24, r24
    44cc:	bc 01       	movw	r22, r24
    44ce:	80 e9       	ldi	r24, 0x90	; 144
    44d0:	92 e0       	ldi	r25, 0x02	; 2
    44d2:	0e 94 bc 12 	call	0x2578	; 0x2578 <send_variables>
						   TYPE_J + (sensor_type_buff[set_num] * TYPE_K));
			break;
    44d6:	31 c3       	rjmp	.+1634   	; 0x4b3a <usart0_deal+0x822>
		case SINGLE_SET_SWITCH:
			switch_sensor_buff[set_num] = variable;
    44d8:	80 91 9c 01 	lds	r24, 0x019C	; 0x80019c <set_num>
    44dc:	88 2f       	mov	r24, r24
    44de:	90 e0       	ldi	r25, 0x00	; 0
    44e0:	88 0f       	add	r24, r24
    44e2:	99 1f       	adc	r25, r25
    44e4:	8e 53       	subi	r24, 0x3E	; 62
    44e6:	99 4f       	sbci	r25, 0xF9	; 249
    44e8:	2d 81       	ldd	r18, Y+5	; 0x05
    44ea:	3e 81       	ldd	r19, Y+6	; 0x06
    44ec:	fc 01       	movw	r30, r24
    44ee:	31 83       	std	Z+1, r19	; 0x01
    44f0:	20 83       	st	Z, r18
			break;
    44f2:	23 c3       	rjmp	.+1606   	; 0x4b3a <usart0_deal+0x822>
		case SINGLE_SET_TEMP:
			set_temp_buff[set_num] = variable;
    44f4:	80 91 9c 01 	lds	r24, 0x019C	; 0x80019c <set_num>
    44f8:	88 2f       	mov	r24, r24
    44fa:	90 e0       	ldi	r25, 0x00	; 0
    44fc:	88 0f       	add	r24, r24
    44fe:	99 1f       	adc	r25, r25
    4500:	8d 5f       	subi	r24, 0xFD	; 253
    4502:	94 4f       	sbci	r25, 0xF4	; 244
    4504:	2d 81       	ldd	r18, Y+5	; 0x05
    4506:	3e 81       	ldd	r19, Y+6	; 0x06
    4508:	fc 01       	movw	r30, r24
    450a:	31 83       	std	Z+1, r19	; 0x01
    450c:	20 83       	st	Z, r18
			break;
    450e:	15 c3       	rjmp	.+1578   	; 0x4b3a <usart0_deal+0x822>
		case SINGLE_SET_NAME:
			get_set_name();
    4510:	0e 94 c2 0a 	call	0x1584	; 0x1584 <get_set_name>
			break;
    4514:	12 c3       	rjmp	.+1572   	; 0x4b3a <usart0_deal+0x822>
		case ALL_SET_TEMP:
			all_temp_buff = variable;
    4516:	8d 81       	ldd	r24, Y+5	; 0x05
    4518:	9e 81       	ldd	r25, Y+6	; 0x06
    451a:	90 93 79 01 	sts	0x0179, r25	; 0x800179 <all_temp_buff+0x1>
    451e:	80 93 78 01 	sts	0x0178, r24	; 0x800178 <all_temp_buff>
			break;
    4522:	0b c3       	rjmp	.+1558   	; 0x4b3a <usart0_deal+0x822>
		case SET_PREHEAT_TIME:
			preheat_time_buff = variable;
    4524:	8d 81       	ldd	r24, Y+5	; 0x05
    4526:	9e 81       	ldd	r25, Y+6	; 0x06
    4528:	90 93 7b 01 	sts	0x017B, r25	; 0x80017b <preheat_time_buff+0x1>
    452c:	80 93 7a 01 	sts	0x017A, r24	; 0x80017a <preheat_time_buff>
			break;
    4530:	04 c3       	rjmp	.+1544   	; 0x4b3a <usart0_deal+0x822>
		case ALL_SET_SENSOR_TYPE:
			all_sensor_type_buff = variable;
    4532:	8d 81       	ldd	r24, Y+5	; 0x05
    4534:	9e 81       	ldd	r25, Y+6	; 0x06
    4536:	90 93 bf 06 	sts	0x06BF, r25	; 0x8006bf <all_sensor_type_buff+0x1>
    453a:	80 93 be 06 	sts	0x06BE, r24	; 0x8006be <all_sensor_type_buff>
			send_variables(ALL_SENSOR_TYPE_ADDR,
    453e:	80 91 be 06 	lds	r24, 0x06BE	; 0x8006be <all_sensor_type_buff>
    4542:	90 91 bf 06 	lds	r25, 0x06BF	; 0x8006bf <all_sensor_type_buff+0x1>
    4546:	86 5b       	subi	r24, 0xB6	; 182
    4548:	9f 4f       	sbci	r25, 0xFF	; 255
    454a:	98 2f       	mov	r25, r24
    454c:	88 27       	eor	r24, r24
    454e:	bc 01       	movw	r22, r24
    4550:	84 e9       	ldi	r24, 0x94	; 148
    4552:	92 e0       	ldi	r25, 0x02	; 2
    4554:	0e 94 bc 12 	call	0x2578	; 0x2578 <send_variables>
						   TYPE_J + (all_sensor_type_buff * TYPE_K));
			break;
    4558:	f0 c2       	rjmp	.+1504   	; 0x4b3a <usart0_deal+0x822>
		case SET_TEMP_UNIT:
			temp_unit_buff = variable;
    455a:	8d 81       	ldd	r24, Y+5	; 0x05
    455c:	9e 81       	ldd	r25, Y+6	; 0x06
    455e:	90 93 c1 06 	sts	0x06C1, r25	; 0x8006c1 <temp_unit_buff+0x1>
    4562:	80 93 c0 06 	sts	0x06C0, r24	; 0x8006c0 <temp_unit_buff>
			send_variables(TEMP_UINT_ADDR,
						   (CELSIUS + temp_unit_buff * FAHRENHEIT));
    4566:	40 91 c0 06 	lds	r20, 0x06C0	; 0x8006c0 <temp_unit_buff>
    456a:	50 91 c1 06 	lds	r21, 0x06C1	; 0x8006c1 <temp_unit_buff+0x1>
    456e:	20 e0       	ldi	r18, 0x00	; 0
    4570:	33 e0       	ldi	r19, 0x03	; 3
    4572:	42 9f       	mul	r20, r18
    4574:	c0 01       	movw	r24, r0
    4576:	43 9f       	mul	r20, r19
    4578:	90 0d       	add	r25, r0
    457a:	52 9f       	mul	r21, r18
    457c:	90 0d       	add	r25, r0
    457e:	11 24       	eor	r1, r1
			send_variables(ALL_SENSOR_TYPE_ADDR,
						   TYPE_J + (all_sensor_type_buff * TYPE_K));
			break;
		case SET_TEMP_UNIT:
			temp_unit_buff = variable;
			send_variables(TEMP_UINT_ADDR,
    4580:	9d 5b       	subi	r25, 0xBD	; 189
    4582:	bc 01       	movw	r22, r24
    4584:	8c e3       	ldi	r24, 0x3C	; 60
    4586:	92 e0       	ldi	r25, 0x02	; 2
    4588:	0e 94 bc 12 	call	0x2578	; 0x2578 <send_variables>
						   (CELSIUS + temp_unit_buff * FAHRENHEIT));
			break;
    458c:	d6 c2       	rjmp	.+1452   	; 0x4b3a <usart0_deal+0x822>
//		case PID_CHANNEL:
//			update_pid_page(variable);	//更改屏幕最大为24来改变最大通道数（最好改为按键返回）
//			break;
		case PID_P:
			p_value_buff = variable;
    458e:	8d 81       	ldd	r24, Y+5	; 0x05
    4590:	9e 81       	ldd	r25, Y+6	; 0x06
    4592:	90 93 7d 01 	sts	0x017D, r25	; 0x80017d <p_value_buff+0x1>
    4596:	80 93 7c 01 	sts	0x017C, r24	; 0x80017c <p_value_buff>
			break;
    459a:	cf c2       	rjmp	.+1438   	; 0x4b3a <usart0_deal+0x822>
		case PID_I:
			i_value_buff = variable;
    459c:	8d 81       	ldd	r24, Y+5	; 0x05
    459e:	9e 81       	ldd	r25, Y+6	; 0x06
    45a0:	90 93 7f 01 	sts	0x017F, r25	; 0x80017f <i_value_buff+0x1>
    45a4:	80 93 7e 01 	sts	0x017E, r24	; 0x80017e <i_value_buff>
			break;
    45a8:	c8 c2       	rjmp	.+1424   	; 0x4b3a <usart0_deal+0x822>
		case PID_D:
			d_value_buff = variable;
    45aa:	8d 81       	ldd	r24, Y+5	; 0x05
    45ac:	9e 81       	ldd	r25, Y+6	; 0x06
    45ae:	90 93 81 01 	sts	0x0181, r25	; 0x800181 <d_value_buff+0x1>
    45b2:	80 93 80 01 	sts	0x0180, r24	; 0x800180 <d_value_buff>
			break;
    45b6:	c1 c2       	rjmp	.+1410   	; 0x4b3a <usart0_deal+0x822>

		case IQR1_T1:
			time_ctrl_value_buff[module_num - 1][0][0] = variable;
    45b8:	80 91 05 01 	lds	r24, 0x0105	; 0x800105 <module_num>
    45bc:	88 2f       	mov	r24, r24
    45be:	90 e0       	ldi	r25, 0x00	; 0
    45c0:	01 97       	sbiw	r24, 0x01	; 1
    45c2:	00 24       	eor	r0, r0
    45c4:	96 95       	lsr	r25
    45c6:	87 95       	ror	r24
    45c8:	07 94       	ror	r0
    45ca:	96 95       	lsr	r25
    45cc:	87 95       	ror	r24
    45ce:	07 94       	ror	r0
    45d0:	98 2f       	mov	r25, r24
    45d2:	80 2d       	mov	r24, r0
    45d4:	8c 5c       	subi	r24, 0xCC	; 204
    45d6:	94 4f       	sbci	r25, 0xF4	; 244
    45d8:	2d 81       	ldd	r18, Y+5	; 0x05
    45da:	3e 81       	ldd	r19, Y+6	; 0x06
    45dc:	fc 01       	movw	r30, r24
    45de:	31 83       	std	Z+1, r19	; 0x01
    45e0:	20 83       	st	Z, r18
			break;
    45e2:	ab c2       	rjmp	.+1366   	; 0x4b3a <usart0_deal+0x822>
		case IQR1_T2:
			time_ctrl_value_buff[module_num - 1][0][1] = variable;
    45e4:	80 91 05 01 	lds	r24, 0x0105	; 0x800105 <module_num>
    45e8:	88 2f       	mov	r24, r24
    45ea:	90 e0       	ldi	r25, 0x00	; 0
    45ec:	01 97       	sbiw	r24, 0x01	; 1
    45ee:	00 24       	eor	r0, r0
    45f0:	96 95       	lsr	r25
    45f2:	87 95       	ror	r24
    45f4:	07 94       	ror	r0
    45f6:	96 95       	lsr	r25
    45f8:	87 95       	ror	r24
    45fa:	07 94       	ror	r0
    45fc:	98 2f       	mov	r25, r24
    45fe:	80 2d       	mov	r24, r0
    4600:	8a 5c       	subi	r24, 0xCA	; 202
    4602:	94 4f       	sbci	r25, 0xF4	; 244
    4604:	2d 81       	ldd	r18, Y+5	; 0x05
    4606:	3e 81       	ldd	r19, Y+6	; 0x06
    4608:	fc 01       	movw	r30, r24
    460a:	31 83       	std	Z+1, r19	; 0x01
    460c:	20 83       	st	Z, r18
			break;
    460e:	95 c2       	rjmp	.+1322   	; 0x4b3a <usart0_deal+0x822>
		case IQR1_T3:
			time_ctrl_value_buff[module_num - 1][0][2] = variable;
    4610:	80 91 05 01 	lds	r24, 0x0105	; 0x800105 <module_num>
    4614:	88 2f       	mov	r24, r24
    4616:	90 e0       	ldi	r25, 0x00	; 0
    4618:	01 97       	sbiw	r24, 0x01	; 1
    461a:	00 24       	eor	r0, r0
    461c:	96 95       	lsr	r25
    461e:	87 95       	ror	r24
    4620:	07 94       	ror	r0
    4622:	96 95       	lsr	r25
    4624:	87 95       	ror	r24
    4626:	07 94       	ror	r0
    4628:	98 2f       	mov	r25, r24
    462a:	80 2d       	mov	r24, r0
    462c:	88 5c       	subi	r24, 0xC8	; 200
    462e:	94 4f       	sbci	r25, 0xF4	; 244
    4630:	2d 81       	ldd	r18, Y+5	; 0x05
    4632:	3e 81       	ldd	r19, Y+6	; 0x06
    4634:	fc 01       	movw	r30, r24
    4636:	31 83       	std	Z+1, r19	; 0x01
    4638:	20 83       	st	Z, r18
			break;
    463a:	7f c2       	rjmp	.+1278   	; 0x4b3a <usart0_deal+0x822>
		case IQR1_T4:
			time_ctrl_value_buff[module_num - 1][0][3] = variable;
    463c:	80 91 05 01 	lds	r24, 0x0105	; 0x800105 <module_num>
    4640:	88 2f       	mov	r24, r24
    4642:	90 e0       	ldi	r25, 0x00	; 0
    4644:	01 97       	sbiw	r24, 0x01	; 1
    4646:	00 24       	eor	r0, r0
    4648:	96 95       	lsr	r25
    464a:	87 95       	ror	r24
    464c:	07 94       	ror	r0
    464e:	96 95       	lsr	r25
    4650:	87 95       	ror	r24
    4652:	07 94       	ror	r0
    4654:	98 2f       	mov	r25, r24
    4656:	80 2d       	mov	r24, r0
    4658:	86 5c       	subi	r24, 0xC6	; 198
    465a:	94 4f       	sbci	r25, 0xF4	; 244
    465c:	2d 81       	ldd	r18, Y+5	; 0x05
    465e:	3e 81       	ldd	r19, Y+6	; 0x06
    4660:	fc 01       	movw	r30, r24
    4662:	31 83       	std	Z+1, r19	; 0x01
    4664:	20 83       	st	Z, r18
			break;
    4666:	69 c2       	rjmp	.+1234   	; 0x4b3a <usart0_deal+0x822>

		case IQR2_T1:
			time_ctrl_value_buff[module_num - 1][1][0] = variable;
    4668:	80 91 05 01 	lds	r24, 0x0105	; 0x800105 <module_num>
    466c:	88 2f       	mov	r24, r24
    466e:	90 e0       	ldi	r25, 0x00	; 0
    4670:	01 97       	sbiw	r24, 0x01	; 1
    4672:	00 24       	eor	r0, r0
    4674:	96 95       	lsr	r25
    4676:	87 95       	ror	r24
    4678:	07 94       	ror	r0
    467a:	96 95       	lsr	r25
    467c:	87 95       	ror	r24
    467e:	07 94       	ror	r0
    4680:	98 2f       	mov	r25, r24
    4682:	80 2d       	mov	r24, r0
    4684:	84 5c       	subi	r24, 0xC4	; 196
    4686:	94 4f       	sbci	r25, 0xF4	; 244
    4688:	2d 81       	ldd	r18, Y+5	; 0x05
    468a:	3e 81       	ldd	r19, Y+6	; 0x06
    468c:	fc 01       	movw	r30, r24
    468e:	31 83       	std	Z+1, r19	; 0x01
    4690:	20 83       	st	Z, r18
			break;
    4692:	53 c2       	rjmp	.+1190   	; 0x4b3a <usart0_deal+0x822>
		case IQR2_T2:
			time_ctrl_value_buff[module_num - 1][1][1] = variable;
    4694:	80 91 05 01 	lds	r24, 0x0105	; 0x800105 <module_num>
    4698:	88 2f       	mov	r24, r24
    469a:	90 e0       	ldi	r25, 0x00	; 0
    469c:	01 97       	sbiw	r24, 0x01	; 1
    469e:	00 24       	eor	r0, r0
    46a0:	96 95       	lsr	r25
    46a2:	87 95       	ror	r24
    46a4:	07 94       	ror	r0
    46a6:	96 95       	lsr	r25
    46a8:	87 95       	ror	r24
    46aa:	07 94       	ror	r0
    46ac:	98 2f       	mov	r25, r24
    46ae:	80 2d       	mov	r24, r0
    46b0:	82 5c       	subi	r24, 0xC2	; 194
    46b2:	94 4f       	sbci	r25, 0xF4	; 244
    46b4:	2d 81       	ldd	r18, Y+5	; 0x05
    46b6:	3e 81       	ldd	r19, Y+6	; 0x06
    46b8:	fc 01       	movw	r30, r24
    46ba:	31 83       	std	Z+1, r19	; 0x01
    46bc:	20 83       	st	Z, r18
			break;
    46be:	3d c2       	rjmp	.+1146   	; 0x4b3a <usart0_deal+0x822>
		case IQR2_T3:
			time_ctrl_value_buff[module_num - 1][1][2] = variable;
    46c0:	80 91 05 01 	lds	r24, 0x0105	; 0x800105 <module_num>
    46c4:	88 2f       	mov	r24, r24
    46c6:	90 e0       	ldi	r25, 0x00	; 0
    46c8:	01 97       	sbiw	r24, 0x01	; 1
    46ca:	00 24       	eor	r0, r0
    46cc:	96 95       	lsr	r25
    46ce:	87 95       	ror	r24
    46d0:	07 94       	ror	r0
    46d2:	96 95       	lsr	r25
    46d4:	87 95       	ror	r24
    46d6:	07 94       	ror	r0
    46d8:	98 2f       	mov	r25, r24
    46da:	80 2d       	mov	r24, r0
    46dc:	80 5c       	subi	r24, 0xC0	; 192
    46de:	94 4f       	sbci	r25, 0xF4	; 244
    46e0:	2d 81       	ldd	r18, Y+5	; 0x05
    46e2:	3e 81       	ldd	r19, Y+6	; 0x06
    46e4:	fc 01       	movw	r30, r24
    46e6:	31 83       	std	Z+1, r19	; 0x01
    46e8:	20 83       	st	Z, r18
			break;
    46ea:	27 c2       	rjmp	.+1102   	; 0x4b3a <usart0_deal+0x822>
		case IQR2_T4:
			time_ctrl_value_buff[module_num - 1][1][3] = variable;
    46ec:	80 91 05 01 	lds	r24, 0x0105	; 0x800105 <module_num>
    46f0:	88 2f       	mov	r24, r24
    46f2:	90 e0       	ldi	r25, 0x00	; 0
    46f4:	01 97       	sbiw	r24, 0x01	; 1
    46f6:	00 24       	eor	r0, r0
    46f8:	96 95       	lsr	r25
    46fa:	87 95       	ror	r24
    46fc:	07 94       	ror	r0
    46fe:	96 95       	lsr	r25
    4700:	87 95       	ror	r24
    4702:	07 94       	ror	r0
    4704:	98 2f       	mov	r25, r24
    4706:	80 2d       	mov	r24, r0
    4708:	8e 5b       	subi	r24, 0xBE	; 190
    470a:	94 4f       	sbci	r25, 0xF4	; 244
    470c:	2d 81       	ldd	r18, Y+5	; 0x05
    470e:	3e 81       	ldd	r19, Y+6	; 0x06
    4710:	fc 01       	movw	r30, r24
    4712:	31 83       	std	Z+1, r19	; 0x01
    4714:	20 83       	st	Z, r18
			break;
    4716:	11 c2       	rjmp	.+1058   	; 0x4b3a <usart0_deal+0x822>

		case IQR3_T1:
			time_ctrl_value_buff[module_num - 1][2][0] = variable;
    4718:	80 91 05 01 	lds	r24, 0x0105	; 0x800105 <module_num>
    471c:	88 2f       	mov	r24, r24
    471e:	90 e0       	ldi	r25, 0x00	; 0
    4720:	01 97       	sbiw	r24, 0x01	; 1
    4722:	00 24       	eor	r0, r0
    4724:	96 95       	lsr	r25
    4726:	87 95       	ror	r24
    4728:	07 94       	ror	r0
    472a:	96 95       	lsr	r25
    472c:	87 95       	ror	r24
    472e:	07 94       	ror	r0
    4730:	98 2f       	mov	r25, r24
    4732:	80 2d       	mov	r24, r0
    4734:	8c 5b       	subi	r24, 0xBC	; 188
    4736:	94 4f       	sbci	r25, 0xF4	; 244
    4738:	2d 81       	ldd	r18, Y+5	; 0x05
    473a:	3e 81       	ldd	r19, Y+6	; 0x06
    473c:	fc 01       	movw	r30, r24
    473e:	31 83       	std	Z+1, r19	; 0x01
    4740:	20 83       	st	Z, r18
			break;
    4742:	fb c1       	rjmp	.+1014   	; 0x4b3a <usart0_deal+0x822>
		case IQR3_T2:
			time_ctrl_value_buff[module_num - 1][2][1] = variable;
    4744:	80 91 05 01 	lds	r24, 0x0105	; 0x800105 <module_num>
    4748:	88 2f       	mov	r24, r24
    474a:	90 e0       	ldi	r25, 0x00	; 0
    474c:	01 97       	sbiw	r24, 0x01	; 1
    474e:	00 24       	eor	r0, r0
    4750:	96 95       	lsr	r25
    4752:	87 95       	ror	r24
    4754:	07 94       	ror	r0
    4756:	96 95       	lsr	r25
    4758:	87 95       	ror	r24
    475a:	07 94       	ror	r0
    475c:	98 2f       	mov	r25, r24
    475e:	80 2d       	mov	r24, r0
    4760:	8a 5b       	subi	r24, 0xBA	; 186
    4762:	94 4f       	sbci	r25, 0xF4	; 244
    4764:	2d 81       	ldd	r18, Y+5	; 0x05
    4766:	3e 81       	ldd	r19, Y+6	; 0x06
    4768:	fc 01       	movw	r30, r24
    476a:	31 83       	std	Z+1, r19	; 0x01
    476c:	20 83       	st	Z, r18
			break;
    476e:	e5 c1       	rjmp	.+970    	; 0x4b3a <usart0_deal+0x822>
		case IQR3_T3:
			time_ctrl_value_buff[module_num - 1][2][2] = variable;
    4770:	80 91 05 01 	lds	r24, 0x0105	; 0x800105 <module_num>
    4774:	88 2f       	mov	r24, r24
    4776:	90 e0       	ldi	r25, 0x00	; 0
    4778:	01 97       	sbiw	r24, 0x01	; 1
    477a:	00 24       	eor	r0, r0
    477c:	96 95       	lsr	r25
    477e:	87 95       	ror	r24
    4780:	07 94       	ror	r0
    4782:	96 95       	lsr	r25
    4784:	87 95       	ror	r24
    4786:	07 94       	ror	r0
    4788:	98 2f       	mov	r25, r24
    478a:	80 2d       	mov	r24, r0
    478c:	88 5b       	subi	r24, 0xB8	; 184
    478e:	94 4f       	sbci	r25, 0xF4	; 244
    4790:	2d 81       	ldd	r18, Y+5	; 0x05
    4792:	3e 81       	ldd	r19, Y+6	; 0x06
    4794:	fc 01       	movw	r30, r24
    4796:	31 83       	std	Z+1, r19	; 0x01
    4798:	20 83       	st	Z, r18
			break;
    479a:	cf c1       	rjmp	.+926    	; 0x4b3a <usart0_deal+0x822>
		case IQR3_T4:
			time_ctrl_value_buff[module_num - 1][2][3] = variable;
    479c:	80 91 05 01 	lds	r24, 0x0105	; 0x800105 <module_num>
    47a0:	88 2f       	mov	r24, r24
    47a2:	90 e0       	ldi	r25, 0x00	; 0
    47a4:	01 97       	sbiw	r24, 0x01	; 1
    47a6:	00 24       	eor	r0, r0
    47a8:	96 95       	lsr	r25
    47aa:	87 95       	ror	r24
    47ac:	07 94       	ror	r0
    47ae:	96 95       	lsr	r25
    47b0:	87 95       	ror	r24
    47b2:	07 94       	ror	r0
    47b4:	98 2f       	mov	r25, r24
    47b6:	80 2d       	mov	r24, r0
    47b8:	86 5b       	subi	r24, 0xB6	; 182
    47ba:	94 4f       	sbci	r25, 0xF4	; 244
    47bc:	2d 81       	ldd	r18, Y+5	; 0x05
    47be:	3e 81       	ldd	r19, Y+6	; 0x06
    47c0:	fc 01       	movw	r30, r24
    47c2:	31 83       	std	Z+1, r19	; 0x01
    47c4:	20 83       	st	Z, r18
			break;
    47c6:	b9 c1       	rjmp	.+882    	; 0x4b3a <usart0_deal+0x822>

		case IQR4_T1:
			time_ctrl_value_buff[module_num - 1][3][0] = variable;
    47c8:	80 91 05 01 	lds	r24, 0x0105	; 0x800105 <module_num>
    47cc:	88 2f       	mov	r24, r24
    47ce:	90 e0       	ldi	r25, 0x00	; 0
    47d0:	01 97       	sbiw	r24, 0x01	; 1
    47d2:	00 24       	eor	r0, r0
    47d4:	96 95       	lsr	r25
    47d6:	87 95       	ror	r24
    47d8:	07 94       	ror	r0
    47da:	96 95       	lsr	r25
    47dc:	87 95       	ror	r24
    47de:	07 94       	ror	r0
    47e0:	98 2f       	mov	r25, r24
    47e2:	80 2d       	mov	r24, r0
    47e4:	84 5b       	subi	r24, 0xB4	; 180
    47e6:	94 4f       	sbci	r25, 0xF4	; 244
    47e8:	2d 81       	ldd	r18, Y+5	; 0x05
    47ea:	3e 81       	ldd	r19, Y+6	; 0x06
    47ec:	fc 01       	movw	r30, r24
    47ee:	31 83       	std	Z+1, r19	; 0x01
    47f0:	20 83       	st	Z, r18
			break;
    47f2:	a3 c1       	rjmp	.+838    	; 0x4b3a <usart0_deal+0x822>
		case IQR4_T2:
			time_ctrl_value_buff[module_num - 1][3][1] = variable;
    47f4:	80 91 05 01 	lds	r24, 0x0105	; 0x800105 <module_num>
    47f8:	88 2f       	mov	r24, r24
    47fa:	90 e0       	ldi	r25, 0x00	; 0
    47fc:	01 97       	sbiw	r24, 0x01	; 1
    47fe:	00 24       	eor	r0, r0
    4800:	96 95       	lsr	r25
    4802:	87 95       	ror	r24
    4804:	07 94       	ror	r0
    4806:	96 95       	lsr	r25
    4808:	87 95       	ror	r24
    480a:	07 94       	ror	r0
    480c:	98 2f       	mov	r25, r24
    480e:	80 2d       	mov	r24, r0
    4810:	82 5b       	subi	r24, 0xB2	; 178
    4812:	94 4f       	sbci	r25, 0xF4	; 244
    4814:	2d 81       	ldd	r18, Y+5	; 0x05
    4816:	3e 81       	ldd	r19, Y+6	; 0x06
    4818:	fc 01       	movw	r30, r24
    481a:	31 83       	std	Z+1, r19	; 0x01
    481c:	20 83       	st	Z, r18
			break;
    481e:	8d c1       	rjmp	.+794    	; 0x4b3a <usart0_deal+0x822>
		case IQR4_T3:
			time_ctrl_value_buff[module_num - 1][3][2] = variable;
    4820:	80 91 05 01 	lds	r24, 0x0105	; 0x800105 <module_num>
    4824:	88 2f       	mov	r24, r24
    4826:	90 e0       	ldi	r25, 0x00	; 0
    4828:	01 97       	sbiw	r24, 0x01	; 1
    482a:	00 24       	eor	r0, r0
    482c:	96 95       	lsr	r25
    482e:	87 95       	ror	r24
    4830:	07 94       	ror	r0
    4832:	96 95       	lsr	r25
    4834:	87 95       	ror	r24
    4836:	07 94       	ror	r0
    4838:	98 2f       	mov	r25, r24
    483a:	80 2d       	mov	r24, r0
    483c:	80 5b       	subi	r24, 0xB0	; 176
    483e:	94 4f       	sbci	r25, 0xF4	; 244
    4840:	2d 81       	ldd	r18, Y+5	; 0x05
    4842:	3e 81       	ldd	r19, Y+6	; 0x06
    4844:	fc 01       	movw	r30, r24
    4846:	31 83       	std	Z+1, r19	; 0x01
    4848:	20 83       	st	Z, r18
			break;
    484a:	77 c1       	rjmp	.+750    	; 0x4b3a <usart0_deal+0x822>
		case IQR4_T4:
			time_ctrl_value_buff[module_num - 1][3][3] = variable;
    484c:	80 91 05 01 	lds	r24, 0x0105	; 0x800105 <module_num>
    4850:	88 2f       	mov	r24, r24
    4852:	90 e0       	ldi	r25, 0x00	; 0
    4854:	01 97       	sbiw	r24, 0x01	; 1
    4856:	00 24       	eor	r0, r0
    4858:	96 95       	lsr	r25
    485a:	87 95       	ror	r24
    485c:	07 94       	ror	r0
    485e:	96 95       	lsr	r25
    4860:	87 95       	ror	r24
    4862:	07 94       	ror	r0
    4864:	98 2f       	mov	r25, r24
    4866:	80 2d       	mov	r24, r0
    4868:	8e 5a       	subi	r24, 0xAE	; 174
    486a:	94 4f       	sbci	r25, 0xF4	; 244
    486c:	2d 81       	ldd	r18, Y+5	; 0x05
    486e:	3e 81       	ldd	r19, Y+6	; 0x06
    4870:	fc 01       	movw	r30, r24
    4872:	31 83       	std	Z+1, r19	; 0x01
    4874:	20 83       	st	Z, r18
			break;
    4876:	61 c1       	rjmp	.+706    	; 0x4b3a <usart0_deal+0x822>

		case IQR5_T1:
			time_ctrl_value_buff[module_num - 1][4][0] = variable;
    4878:	80 91 05 01 	lds	r24, 0x0105	; 0x800105 <module_num>
    487c:	88 2f       	mov	r24, r24
    487e:	90 e0       	ldi	r25, 0x00	; 0
    4880:	01 97       	sbiw	r24, 0x01	; 1
    4882:	00 24       	eor	r0, r0
    4884:	96 95       	lsr	r25
    4886:	87 95       	ror	r24
    4888:	07 94       	ror	r0
    488a:	96 95       	lsr	r25
    488c:	87 95       	ror	r24
    488e:	07 94       	ror	r0
    4890:	98 2f       	mov	r25, r24
    4892:	80 2d       	mov	r24, r0
    4894:	8c 5a       	subi	r24, 0xAC	; 172
    4896:	94 4f       	sbci	r25, 0xF4	; 244
    4898:	2d 81       	ldd	r18, Y+5	; 0x05
    489a:	3e 81       	ldd	r19, Y+6	; 0x06
    489c:	fc 01       	movw	r30, r24
    489e:	31 83       	std	Z+1, r19	; 0x01
    48a0:	20 83       	st	Z, r18
			break;
    48a2:	4b c1       	rjmp	.+662    	; 0x4b3a <usart0_deal+0x822>
		case IQR5_T2:
			time_ctrl_value_buff[module_num - 1][4][1] = variable;
    48a4:	80 91 05 01 	lds	r24, 0x0105	; 0x800105 <module_num>
    48a8:	88 2f       	mov	r24, r24
    48aa:	90 e0       	ldi	r25, 0x00	; 0
    48ac:	01 97       	sbiw	r24, 0x01	; 1
    48ae:	00 24       	eor	r0, r0
    48b0:	96 95       	lsr	r25
    48b2:	87 95       	ror	r24
    48b4:	07 94       	ror	r0
    48b6:	96 95       	lsr	r25
    48b8:	87 95       	ror	r24
    48ba:	07 94       	ror	r0
    48bc:	98 2f       	mov	r25, r24
    48be:	80 2d       	mov	r24, r0
    48c0:	8a 5a       	subi	r24, 0xAA	; 170
    48c2:	94 4f       	sbci	r25, 0xF4	; 244
    48c4:	2d 81       	ldd	r18, Y+5	; 0x05
    48c6:	3e 81       	ldd	r19, Y+6	; 0x06
    48c8:	fc 01       	movw	r30, r24
    48ca:	31 83       	std	Z+1, r19	; 0x01
    48cc:	20 83       	st	Z, r18
			break;
    48ce:	35 c1       	rjmp	.+618    	; 0x4b3a <usart0_deal+0x822>
		case IQR5_T3:
			time_ctrl_value_buff[module_num - 1][4][2] = variable;
    48d0:	80 91 05 01 	lds	r24, 0x0105	; 0x800105 <module_num>
    48d4:	88 2f       	mov	r24, r24
    48d6:	90 e0       	ldi	r25, 0x00	; 0
    48d8:	01 97       	sbiw	r24, 0x01	; 1
    48da:	00 24       	eor	r0, r0
    48dc:	96 95       	lsr	r25
    48de:	87 95       	ror	r24
    48e0:	07 94       	ror	r0
    48e2:	96 95       	lsr	r25
    48e4:	87 95       	ror	r24
    48e6:	07 94       	ror	r0
    48e8:	98 2f       	mov	r25, r24
    48ea:	80 2d       	mov	r24, r0
    48ec:	88 5a       	subi	r24, 0xA8	; 168
    48ee:	94 4f       	sbci	r25, 0xF4	; 244
    48f0:	2d 81       	ldd	r18, Y+5	; 0x05
    48f2:	3e 81       	ldd	r19, Y+6	; 0x06
    48f4:	fc 01       	movw	r30, r24
    48f6:	31 83       	std	Z+1, r19	; 0x01
    48f8:	20 83       	st	Z, r18
			break;
    48fa:	1f c1       	rjmp	.+574    	; 0x4b3a <usart0_deal+0x822>
		case IQR5_T4:
			time_ctrl_value_buff[module_num - 1][4][3] = variable;
    48fc:	80 91 05 01 	lds	r24, 0x0105	; 0x800105 <module_num>
    4900:	88 2f       	mov	r24, r24
    4902:	90 e0       	ldi	r25, 0x00	; 0
    4904:	01 97       	sbiw	r24, 0x01	; 1
    4906:	00 24       	eor	r0, r0
    4908:	96 95       	lsr	r25
    490a:	87 95       	ror	r24
    490c:	07 94       	ror	r0
    490e:	96 95       	lsr	r25
    4910:	87 95       	ror	r24
    4912:	07 94       	ror	r0
    4914:	98 2f       	mov	r25, r24
    4916:	80 2d       	mov	r24, r0
    4918:	86 5a       	subi	r24, 0xA6	; 166
    491a:	94 4f       	sbci	r25, 0xF4	; 244
    491c:	2d 81       	ldd	r18, Y+5	; 0x05
    491e:	3e 81       	ldd	r19, Y+6	; 0x06
    4920:	fc 01       	movw	r30, r24
    4922:	31 83       	std	Z+1, r19	; 0x01
    4924:	20 83       	st	Z, r18
			break;
    4926:	09 c1       	rjmp	.+530    	; 0x4b3a <usart0_deal+0x822>

		case IQR6_T1:
			time_ctrl_value_buff[module_num - 1][5][0] = variable;
    4928:	80 91 05 01 	lds	r24, 0x0105	; 0x800105 <module_num>
    492c:	88 2f       	mov	r24, r24
    492e:	90 e0       	ldi	r25, 0x00	; 0
    4930:	01 97       	sbiw	r24, 0x01	; 1
    4932:	00 24       	eor	r0, r0
    4934:	96 95       	lsr	r25
    4936:	87 95       	ror	r24
    4938:	07 94       	ror	r0
    493a:	96 95       	lsr	r25
    493c:	87 95       	ror	r24
    493e:	07 94       	ror	r0
    4940:	98 2f       	mov	r25, r24
    4942:	80 2d       	mov	r24, r0
    4944:	84 5a       	subi	r24, 0xA4	; 164
    4946:	94 4f       	sbci	r25, 0xF4	; 244
    4948:	2d 81       	ldd	r18, Y+5	; 0x05
    494a:	3e 81       	ldd	r19, Y+6	; 0x06
    494c:	fc 01       	movw	r30, r24
    494e:	31 83       	std	Z+1, r19	; 0x01
    4950:	20 83       	st	Z, r18
			break;
    4952:	f3 c0       	rjmp	.+486    	; 0x4b3a <usart0_deal+0x822>
		case IQR6_T2:
			time_ctrl_value_buff[module_num - 1][5][1] = variable;
    4954:	80 91 05 01 	lds	r24, 0x0105	; 0x800105 <module_num>
    4958:	88 2f       	mov	r24, r24
    495a:	90 e0       	ldi	r25, 0x00	; 0
    495c:	01 97       	sbiw	r24, 0x01	; 1
    495e:	00 24       	eor	r0, r0
    4960:	96 95       	lsr	r25
    4962:	87 95       	ror	r24
    4964:	07 94       	ror	r0
    4966:	96 95       	lsr	r25
    4968:	87 95       	ror	r24
    496a:	07 94       	ror	r0
    496c:	98 2f       	mov	r25, r24
    496e:	80 2d       	mov	r24, r0
    4970:	82 5a       	subi	r24, 0xA2	; 162
    4972:	94 4f       	sbci	r25, 0xF4	; 244
    4974:	2d 81       	ldd	r18, Y+5	; 0x05
    4976:	3e 81       	ldd	r19, Y+6	; 0x06
    4978:	fc 01       	movw	r30, r24
    497a:	31 83       	std	Z+1, r19	; 0x01
    497c:	20 83       	st	Z, r18
			break;
    497e:	dd c0       	rjmp	.+442    	; 0x4b3a <usart0_deal+0x822>
		case IQR6_T3:
			time_ctrl_value_buff[module_num - 1][5][2] = variable;
    4980:	80 91 05 01 	lds	r24, 0x0105	; 0x800105 <module_num>
    4984:	88 2f       	mov	r24, r24
    4986:	90 e0       	ldi	r25, 0x00	; 0
    4988:	01 97       	sbiw	r24, 0x01	; 1
    498a:	00 24       	eor	r0, r0
    498c:	96 95       	lsr	r25
    498e:	87 95       	ror	r24
    4990:	07 94       	ror	r0
    4992:	96 95       	lsr	r25
    4994:	87 95       	ror	r24
    4996:	07 94       	ror	r0
    4998:	98 2f       	mov	r25, r24
    499a:	80 2d       	mov	r24, r0
    499c:	80 5a       	subi	r24, 0xA0	; 160
    499e:	94 4f       	sbci	r25, 0xF4	; 244
    49a0:	2d 81       	ldd	r18, Y+5	; 0x05
    49a2:	3e 81       	ldd	r19, Y+6	; 0x06
    49a4:	fc 01       	movw	r30, r24
    49a6:	31 83       	std	Z+1, r19	; 0x01
    49a8:	20 83       	st	Z, r18
			break;
    49aa:	c7 c0       	rjmp	.+398    	; 0x4b3a <usart0_deal+0x822>
		case IQR6_T4:
			time_ctrl_value_buff[module_num - 1][5][3] = variable;
    49ac:	80 91 05 01 	lds	r24, 0x0105	; 0x800105 <module_num>
    49b0:	88 2f       	mov	r24, r24
    49b2:	90 e0       	ldi	r25, 0x00	; 0
    49b4:	01 97       	sbiw	r24, 0x01	; 1
    49b6:	00 24       	eor	r0, r0
    49b8:	96 95       	lsr	r25
    49ba:	87 95       	ror	r24
    49bc:	07 94       	ror	r0
    49be:	96 95       	lsr	r25
    49c0:	87 95       	ror	r24
    49c2:	07 94       	ror	r0
    49c4:	98 2f       	mov	r25, r24
    49c6:	80 2d       	mov	r24, r0
    49c8:	8e 59       	subi	r24, 0x9E	; 158
    49ca:	94 4f       	sbci	r25, 0xF4	; 244
    49cc:	2d 81       	ldd	r18, Y+5	; 0x05
    49ce:	3e 81       	ldd	r19, Y+6	; 0x06
    49d0:	fc 01       	movw	r30, r24
    49d2:	31 83       	std	Z+1, r19	; 0x01
    49d4:	20 83       	st	Z, r18
			break;
    49d6:	b1 c0       	rjmp	.+354    	; 0x4b3a <usart0_deal+0x822>

		case IQR7_T1:
			time_ctrl_value_buff[module_num - 1][6][0] = variable;
    49d8:	80 91 05 01 	lds	r24, 0x0105	; 0x800105 <module_num>
    49dc:	88 2f       	mov	r24, r24
    49de:	90 e0       	ldi	r25, 0x00	; 0
    49e0:	01 97       	sbiw	r24, 0x01	; 1
    49e2:	00 24       	eor	r0, r0
    49e4:	96 95       	lsr	r25
    49e6:	87 95       	ror	r24
    49e8:	07 94       	ror	r0
    49ea:	96 95       	lsr	r25
    49ec:	87 95       	ror	r24
    49ee:	07 94       	ror	r0
    49f0:	98 2f       	mov	r25, r24
    49f2:	80 2d       	mov	r24, r0
    49f4:	8c 59       	subi	r24, 0x9C	; 156
    49f6:	94 4f       	sbci	r25, 0xF4	; 244
    49f8:	2d 81       	ldd	r18, Y+5	; 0x05
    49fa:	3e 81       	ldd	r19, Y+6	; 0x06
    49fc:	fc 01       	movw	r30, r24
    49fe:	31 83       	std	Z+1, r19	; 0x01
    4a00:	20 83       	st	Z, r18
			break;
    4a02:	9b c0       	rjmp	.+310    	; 0x4b3a <usart0_deal+0x822>
		case IQR7_T2:
			time_ctrl_value_buff[module_num - 1][6][1] = variable;
    4a04:	80 91 05 01 	lds	r24, 0x0105	; 0x800105 <module_num>
    4a08:	88 2f       	mov	r24, r24
    4a0a:	90 e0       	ldi	r25, 0x00	; 0
    4a0c:	01 97       	sbiw	r24, 0x01	; 1
    4a0e:	00 24       	eor	r0, r0
    4a10:	96 95       	lsr	r25
    4a12:	87 95       	ror	r24
    4a14:	07 94       	ror	r0
    4a16:	96 95       	lsr	r25
    4a18:	87 95       	ror	r24
    4a1a:	07 94       	ror	r0
    4a1c:	98 2f       	mov	r25, r24
    4a1e:	80 2d       	mov	r24, r0
    4a20:	8a 59       	subi	r24, 0x9A	; 154
    4a22:	94 4f       	sbci	r25, 0xF4	; 244
    4a24:	2d 81       	ldd	r18, Y+5	; 0x05
    4a26:	3e 81       	ldd	r19, Y+6	; 0x06
    4a28:	fc 01       	movw	r30, r24
    4a2a:	31 83       	std	Z+1, r19	; 0x01
    4a2c:	20 83       	st	Z, r18
			break;
    4a2e:	85 c0       	rjmp	.+266    	; 0x4b3a <usart0_deal+0x822>
		case IQR7_T3:
			time_ctrl_value_buff[module_num - 1][6][2] = variable;
    4a30:	80 91 05 01 	lds	r24, 0x0105	; 0x800105 <module_num>
    4a34:	88 2f       	mov	r24, r24
    4a36:	90 e0       	ldi	r25, 0x00	; 0
    4a38:	01 97       	sbiw	r24, 0x01	; 1
    4a3a:	00 24       	eor	r0, r0
    4a3c:	96 95       	lsr	r25
    4a3e:	87 95       	ror	r24
    4a40:	07 94       	ror	r0
    4a42:	96 95       	lsr	r25
    4a44:	87 95       	ror	r24
    4a46:	07 94       	ror	r0
    4a48:	98 2f       	mov	r25, r24
    4a4a:	80 2d       	mov	r24, r0
    4a4c:	88 59       	subi	r24, 0x98	; 152
    4a4e:	94 4f       	sbci	r25, 0xF4	; 244
    4a50:	2d 81       	ldd	r18, Y+5	; 0x05
    4a52:	3e 81       	ldd	r19, Y+6	; 0x06
    4a54:	fc 01       	movw	r30, r24
    4a56:	31 83       	std	Z+1, r19	; 0x01
    4a58:	20 83       	st	Z, r18
			break;
    4a5a:	6f c0       	rjmp	.+222    	; 0x4b3a <usart0_deal+0x822>
		case IQR7_T4:
			time_ctrl_value_buff[module_num - 1][6][3] = variable;
    4a5c:	80 91 05 01 	lds	r24, 0x0105	; 0x800105 <module_num>
    4a60:	88 2f       	mov	r24, r24
    4a62:	90 e0       	ldi	r25, 0x00	; 0
    4a64:	01 97       	sbiw	r24, 0x01	; 1
    4a66:	00 24       	eor	r0, r0
    4a68:	96 95       	lsr	r25
    4a6a:	87 95       	ror	r24
    4a6c:	07 94       	ror	r0
    4a6e:	96 95       	lsr	r25
    4a70:	87 95       	ror	r24
    4a72:	07 94       	ror	r0
    4a74:	98 2f       	mov	r25, r24
    4a76:	80 2d       	mov	r24, r0
    4a78:	86 59       	subi	r24, 0x96	; 150
    4a7a:	94 4f       	sbci	r25, 0xF4	; 244
    4a7c:	2d 81       	ldd	r18, Y+5	; 0x05
    4a7e:	3e 81       	ldd	r19, Y+6	; 0x06
    4a80:	fc 01       	movw	r30, r24
    4a82:	31 83       	std	Z+1, r19	; 0x01
    4a84:	20 83       	st	Z, r18
			break;
    4a86:	59 c0       	rjmp	.+178    	; 0x4b3a <usart0_deal+0x822>

		case IQR8_T1:
			time_ctrl_value_buff[module_num - 1][7][0] = variable;
    4a88:	80 91 05 01 	lds	r24, 0x0105	; 0x800105 <module_num>
    4a8c:	88 2f       	mov	r24, r24
    4a8e:	90 e0       	ldi	r25, 0x00	; 0
    4a90:	01 97       	sbiw	r24, 0x01	; 1
    4a92:	00 24       	eor	r0, r0
    4a94:	96 95       	lsr	r25
    4a96:	87 95       	ror	r24
    4a98:	07 94       	ror	r0
    4a9a:	96 95       	lsr	r25
    4a9c:	87 95       	ror	r24
    4a9e:	07 94       	ror	r0
    4aa0:	98 2f       	mov	r25, r24
    4aa2:	80 2d       	mov	r24, r0
    4aa4:	84 59       	subi	r24, 0x94	; 148
    4aa6:	94 4f       	sbci	r25, 0xF4	; 244
    4aa8:	2d 81       	ldd	r18, Y+5	; 0x05
    4aaa:	3e 81       	ldd	r19, Y+6	; 0x06
    4aac:	fc 01       	movw	r30, r24
    4aae:	31 83       	std	Z+1, r19	; 0x01
    4ab0:	20 83       	st	Z, r18
			break;
    4ab2:	43 c0       	rjmp	.+134    	; 0x4b3a <usart0_deal+0x822>
		case IQR8_T2:
			time_ctrl_value_buff[module_num - 1][7][1] = variable;
    4ab4:	80 91 05 01 	lds	r24, 0x0105	; 0x800105 <module_num>
    4ab8:	88 2f       	mov	r24, r24
    4aba:	90 e0       	ldi	r25, 0x00	; 0
    4abc:	01 97       	sbiw	r24, 0x01	; 1
    4abe:	00 24       	eor	r0, r0
    4ac0:	96 95       	lsr	r25
    4ac2:	87 95       	ror	r24
    4ac4:	07 94       	ror	r0
    4ac6:	96 95       	lsr	r25
    4ac8:	87 95       	ror	r24
    4aca:	07 94       	ror	r0
    4acc:	98 2f       	mov	r25, r24
    4ace:	80 2d       	mov	r24, r0
    4ad0:	82 59       	subi	r24, 0x92	; 146
    4ad2:	94 4f       	sbci	r25, 0xF4	; 244
    4ad4:	2d 81       	ldd	r18, Y+5	; 0x05
    4ad6:	3e 81       	ldd	r19, Y+6	; 0x06
    4ad8:	fc 01       	movw	r30, r24
    4ada:	31 83       	std	Z+1, r19	; 0x01
    4adc:	20 83       	st	Z, r18
			break;
    4ade:	2d c0       	rjmp	.+90     	; 0x4b3a <usart0_deal+0x822>
		case IQR8_T3:
			time_ctrl_value_buff[module_num - 1][7][2] = variable;
    4ae0:	80 91 05 01 	lds	r24, 0x0105	; 0x800105 <module_num>
    4ae4:	88 2f       	mov	r24, r24
    4ae6:	90 e0       	ldi	r25, 0x00	; 0
    4ae8:	01 97       	sbiw	r24, 0x01	; 1
    4aea:	00 24       	eor	r0, r0
    4aec:	96 95       	lsr	r25
    4aee:	87 95       	ror	r24
    4af0:	07 94       	ror	r0
    4af2:	96 95       	lsr	r25
    4af4:	87 95       	ror	r24
    4af6:	07 94       	ror	r0
    4af8:	98 2f       	mov	r25, r24
    4afa:	80 2d       	mov	r24, r0
    4afc:	80 59       	subi	r24, 0x90	; 144
    4afe:	94 4f       	sbci	r25, 0xF4	; 244
    4b00:	2d 81       	ldd	r18, Y+5	; 0x05
    4b02:	3e 81       	ldd	r19, Y+6	; 0x06
    4b04:	fc 01       	movw	r30, r24
    4b06:	31 83       	std	Z+1, r19	; 0x01
    4b08:	20 83       	st	Z, r18
			break;
    4b0a:	17 c0       	rjmp	.+46     	; 0x4b3a <usart0_deal+0x822>
		case IQR8_T4:
			time_ctrl_value_buff[module_num - 1][7][3] = variable;
    4b0c:	80 91 05 01 	lds	r24, 0x0105	; 0x800105 <module_num>
    4b10:	88 2f       	mov	r24, r24
    4b12:	90 e0       	ldi	r25, 0x00	; 0
    4b14:	01 97       	sbiw	r24, 0x01	; 1
    4b16:	00 24       	eor	r0, r0
    4b18:	96 95       	lsr	r25
    4b1a:	87 95       	ror	r24
    4b1c:	07 94       	ror	r0
    4b1e:	96 95       	lsr	r25
    4b20:	87 95       	ror	r24
    4b22:	07 94       	ror	r0
    4b24:	98 2f       	mov	r25, r24
    4b26:	80 2d       	mov	r24, r0
    4b28:	8e 58       	subi	r24, 0x8E	; 142
    4b2a:	94 4f       	sbci	r25, 0xF4	; 244
    4b2c:	2d 81       	ldd	r18, Y+5	; 0x05
    4b2e:	3e 81       	ldd	r19, Y+6	; 0x06
    4b30:	fc 01       	movw	r30, r24
    4b32:	31 83       	std	Z+1, r19	; 0x01
    4b34:	20 83       	st	Z, r18
			break;
    4b36:	01 c0       	rjmp	.+2      	; 0x4b3a <usart0_deal+0x822>
		default:
			break;
    4b38:	00 00       	nop
		}
	}

	return 0;
    4b3a:	80 e0       	ldi	r24, 0x00	; 0
    4b3c:	90 e0       	ldi	r25, 0x00	; 0
}
    4b3e:	26 96       	adiw	r28, 0x06	; 6
    4b40:	0f b6       	in	r0, 0x3f	; 63
    4b42:	f8 94       	cli
    4b44:	de bf       	out	0x3e, r29	; 62
    4b46:	0f be       	out	0x3f, r0	; 63
    4b48:	cd bf       	out	0x3d, r28	; 61
    4b4a:	df 91       	pop	r29
    4b4c:	cf 91       	pop	r28
    4b4e:	08 95       	ret

00004b50 <usart1_deal>:

int usart1_deal(void)
{
    4b50:	cf 93       	push	r28
    4b52:	df 93       	push	r29
    4b54:	00 d0       	rcall	.+0      	; 0x4b56 <usart1_deal+0x6>
    4b56:	cd b7       	in	r28, 0x3d	; 61
    4b58:	de b7       	in	r29, 0x3e	; 62
	uint16_t crc_data = 0;
    4b5a:	1a 82       	std	Y+2, r1	; 0x02
    4b5c:	19 82       	std	Y+1, r1	; 0x01

	crc_data = usart1_rx_buff[usart1_rx_lenth - 1];
    4b5e:	80 91 f3 05 	lds	r24, 0x05F3	; 0x8005f3 <usart1_rx_lenth>
    4b62:	88 2f       	mov	r24, r24
    4b64:	90 e0       	ldi	r25, 0x00	; 0
    4b66:	01 97       	sbiw	r24, 0x01	; 1
    4b68:	8e 59       	subi	r24, 0x9E	; 158
    4b6a:	9b 4f       	sbci	r25, 0xFB	; 251
    4b6c:	fc 01       	movw	r30, r24
    4b6e:	80 81       	ld	r24, Z
    4b70:	88 2f       	mov	r24, r24
    4b72:	90 e0       	ldi	r25, 0x00	; 0
    4b74:	9a 83       	std	Y+2, r25	; 0x02
    4b76:	89 83       	std	Y+1, r24	; 0x01
	crc_data = (crc_data << 8) + usart1_rx_buff[usart1_rx_lenth - 2];
    4b78:	89 81       	ldd	r24, Y+1	; 0x01
    4b7a:	9a 81       	ldd	r25, Y+2	; 0x02
    4b7c:	38 2f       	mov	r19, r24
    4b7e:	22 27       	eor	r18, r18
    4b80:	80 91 f3 05 	lds	r24, 0x05F3	; 0x8005f3 <usart1_rx_lenth>
    4b84:	88 2f       	mov	r24, r24
    4b86:	90 e0       	ldi	r25, 0x00	; 0
    4b88:	02 97       	sbiw	r24, 0x02	; 2
    4b8a:	8e 59       	subi	r24, 0x9E	; 158
    4b8c:	9b 4f       	sbci	r25, 0xFB	; 251
    4b8e:	fc 01       	movw	r30, r24
    4b90:	80 81       	ld	r24, Z
    4b92:	88 2f       	mov	r24, r24
    4b94:	90 e0       	ldi	r25, 0x00	; 0
    4b96:	82 0f       	add	r24, r18
    4b98:	93 1f       	adc	r25, r19
    4b9a:	9a 83       	std	Y+2, r25	; 0x02
    4b9c:	89 83       	std	Y+1, r24	; 0x01

	if ((usart1_rx_buff[0] != 0xA5) || (usart1_rx_buff[1] != 0x5A))
    4b9e:	80 91 62 04 	lds	r24, 0x0462	; 0x800462 <usart1_rx_buff>
    4ba2:	85 3a       	cpi	r24, 0xA5	; 165
    4ba4:	21 f4       	brne	.+8      	; 0x4bae <usart1_deal+0x5e>
    4ba6:	80 91 63 04 	lds	r24, 0x0463	; 0x800463 <usart1_rx_buff+0x1>
    4baa:	8a 35       	cpi	r24, 0x5A	; 90
    4bac:	29 f0       	breq	.+10     	; 0x4bb8 <usart1_deal+0x68>
	{
		usart1_rx_end = 0;
    4bae:	10 92 f2 05 	sts	0x05F2, r1	; 0x8005f2 <usart1_rx_end>
		return 0;
    4bb2:	80 e0       	ldi	r24, 0x00	; 0
    4bb4:	90 e0       	ldi	r25, 0x00	; 0
    4bb6:	24 c0       	rjmp	.+72     	; 0x4c00 <usart1_deal+0xb0>
	}

	if ((usart1_rx_buff[2] + 5) != usart1_rx_lenth)
    4bb8:	80 91 64 04 	lds	r24, 0x0464	; 0x800464 <usart1_rx_buff+0x2>
    4bbc:	88 2f       	mov	r24, r24
    4bbe:	90 e0       	ldi	r25, 0x00	; 0
    4bc0:	9c 01       	movw	r18, r24
    4bc2:	2b 5f       	subi	r18, 0xFB	; 251
    4bc4:	3f 4f       	sbci	r19, 0xFF	; 255
    4bc6:	80 91 f3 05 	lds	r24, 0x05F3	; 0x8005f3 <usart1_rx_lenth>
    4bca:	88 2f       	mov	r24, r24
    4bcc:	90 e0       	ldi	r25, 0x00	; 0
    4bce:	28 17       	cp	r18, r24
    4bd0:	39 07       	cpc	r19, r25
    4bd2:	29 f0       	breq	.+10     	; 0x4bde <usart1_deal+0x8e>
	{
		usart1_rx_end = 0;
    4bd4:	10 92 f2 05 	sts	0x05F2, r1	; 0x8005f2 <usart1_rx_end>
		return 0;
    4bd8:	80 e0       	ldi	r24, 0x00	; 0
    4bda:	90 e0       	ldi	r25, 0x00	; 0
    4bdc:	11 c0       	rjmp	.+34     	; 0x4c00 <usart1_deal+0xb0>
// 	{
// 		usart1_rx_end = 0;
// 		return 0;
// 	}

	if (RX1_COMMAND == READ_DATA_ALL)
    4bde:	80 91 65 04 	lds	r24, 0x0465	; 0x800465 <usart1_rx_buff+0x3>
    4be2:	81 30       	cpi	r24, 0x01	; 1
    4be4:	19 f4       	brne	.+6      	; 0x4bec <usart1_deal+0x9c>
	{
		get_data_all();
    4be6:	0e 94 2e 17 	call	0x2e5c	; 0x2e5c <get_data_all>
    4bea:	08 c0       	rjmp	.+16     	; 0x4bfc <usart1_deal+0xac>
	}
	else if (RX1_COMMAND == READ_SETTING_DATA)
    4bec:	80 91 65 04 	lds	r24, 0x0465	; 0x800465 <usart1_rx_buff+0x3>
    4bf0:	87 30       	cpi	r24, 0x07	; 7
    4bf2:	21 f4       	brne	.+8      	; 0x4bfc <usart1_deal+0xac>
	{
		get_setting_data(usart1_rx_buff[4]);
    4bf4:	80 91 66 04 	lds	r24, 0x0466	; 0x800466 <usart1_rx_buff+0x4>
    4bf8:	0e 94 ff 14 	call	0x29fe	; 0x29fe <get_setting_data>
	}

	return 0;
    4bfc:	80 e0       	ldi	r24, 0x00	; 0
    4bfe:	90 e0       	ldi	r25, 0x00	; 0
}
    4c00:	0f 90       	pop	r0
    4c02:	0f 90       	pop	r0
    4c04:	df 91       	pop	r29
    4c06:	cf 91       	pop	r28
    4c08:	08 95       	ret

00004c0a <usart0_send_char>:

void usart0_send_char(uint8_t data)
{
    4c0a:	cf 93       	push	r28
    4c0c:	df 93       	push	r29
    4c0e:	1f 92       	push	r1
    4c10:	cd b7       	in	r28, 0x3d	; 61
    4c12:	de b7       	in	r29, 0x3e	; 62
    4c14:	89 83       	std	Y+1, r24	; 0x01
	while (!(UCSR0A & (1 << UDRE0)))
    4c16:	00 00       	nop
    4c18:	8b e2       	ldi	r24, 0x2B	; 43
    4c1a:	90 e0       	ldi	r25, 0x00	; 0
    4c1c:	fc 01       	movw	r30, r24
    4c1e:	80 81       	ld	r24, Z
    4c20:	88 2f       	mov	r24, r24
    4c22:	90 e0       	ldi	r25, 0x00	; 0
    4c24:	80 72       	andi	r24, 0x20	; 32
    4c26:	99 27       	eor	r25, r25
    4c28:	89 2b       	or	r24, r25
    4c2a:	b1 f3       	breq	.-20     	; 0x4c18 <usart0_send_char+0xe>
		;
	UDR0 = data;
    4c2c:	8c e2       	ldi	r24, 0x2C	; 44
    4c2e:	90 e0       	ldi	r25, 0x00	; 0
    4c30:	29 81       	ldd	r18, Y+1	; 0x01
    4c32:	fc 01       	movw	r30, r24
    4c34:	20 83       	st	Z, r18
}
    4c36:	00 00       	nop
    4c38:	0f 90       	pop	r0
    4c3a:	df 91       	pop	r29
    4c3c:	cf 91       	pop	r28
    4c3e:	08 95       	ret

00004c40 <usart0_send_str>:

void usart0_send_str(uint8_t *str, uint8_t data_size)
{
    4c40:	cf 93       	push	r28
    4c42:	df 93       	push	r29
    4c44:	00 d0       	rcall	.+0      	; 0x4c46 <usart0_send_str+0x6>
    4c46:	00 d0       	rcall	.+0      	; 0x4c48 <usart0_send_str+0x8>
    4c48:	cd b7       	in	r28, 0x3d	; 61
    4c4a:	de b7       	in	r29, 0x3e	; 62
    4c4c:	9b 83       	std	Y+3, r25	; 0x03
    4c4e:	8a 83       	std	Y+2, r24	; 0x02
    4c50:	6c 83       	std	Y+4, r22	; 0x04
	uint8_t i = 0;
    4c52:	19 82       	std	Y+1, r1	; 0x01

	for (i = 0; i < data_size; i++)
    4c54:	19 82       	std	Y+1, r1	; 0x01
    4c56:	0e c0       	rjmp	.+28     	; 0x4c74 <usart0_send_str+0x34>
	{
		usart0_send_char(*str++);
    4c58:	8a 81       	ldd	r24, Y+2	; 0x02
    4c5a:	9b 81       	ldd	r25, Y+3	; 0x03
    4c5c:	9c 01       	movw	r18, r24
    4c5e:	2f 5f       	subi	r18, 0xFF	; 255
    4c60:	3f 4f       	sbci	r19, 0xFF	; 255
    4c62:	3b 83       	std	Y+3, r19	; 0x03
    4c64:	2a 83       	std	Y+2, r18	; 0x02
    4c66:	fc 01       	movw	r30, r24
    4c68:	80 81       	ld	r24, Z
    4c6a:	0e 94 05 26 	call	0x4c0a	; 0x4c0a <usart0_send_char>

void usart0_send_str(uint8_t *str, uint8_t data_size)
{
	uint8_t i = 0;

	for (i = 0; i < data_size; i++)
    4c6e:	89 81       	ldd	r24, Y+1	; 0x01
    4c70:	8f 5f       	subi	r24, 0xFF	; 255
    4c72:	89 83       	std	Y+1, r24	; 0x01
    4c74:	99 81       	ldd	r25, Y+1	; 0x01
    4c76:	8c 81       	ldd	r24, Y+4	; 0x04
    4c78:	98 17       	cp	r25, r24
    4c7a:	70 f3       	brcs	.-36     	; 0x4c58 <usart0_send_str+0x18>
	{
		usart0_send_char(*str++);
	}
}
    4c7c:	00 00       	nop
    4c7e:	0f 90       	pop	r0
    4c80:	0f 90       	pop	r0
    4c82:	0f 90       	pop	r0
    4c84:	0f 90       	pop	r0
    4c86:	df 91       	pop	r29
    4c88:	cf 91       	pop	r28
    4c8a:	08 95       	ret

00004c8c <usart1_send_char>:

void usart1_send_char(uint8_t data)
{
    4c8c:	cf 93       	push	r28
    4c8e:	df 93       	push	r29
    4c90:	1f 92       	push	r1
    4c92:	cd b7       	in	r28, 0x3d	; 61
    4c94:	de b7       	in	r29, 0x3e	; 62
    4c96:	89 83       	std	Y+1, r24	; 0x01
	while (!(UCSR1A & (1 << UDRE1)))
    4c98:	00 00       	nop
    4c9a:	8b e9       	ldi	r24, 0x9B	; 155
    4c9c:	90 e0       	ldi	r25, 0x00	; 0
    4c9e:	fc 01       	movw	r30, r24
    4ca0:	80 81       	ld	r24, Z
    4ca2:	88 2f       	mov	r24, r24
    4ca4:	90 e0       	ldi	r25, 0x00	; 0
    4ca6:	80 72       	andi	r24, 0x20	; 32
    4ca8:	99 27       	eor	r25, r25
    4caa:	89 2b       	or	r24, r25
    4cac:	b1 f3       	breq	.-20     	; 0x4c9a <usart1_send_char+0xe>
		; //等待发送寄存器为空
	UDR1 = data;
    4cae:	8c e9       	ldi	r24, 0x9C	; 156
    4cb0:	90 e0       	ldi	r25, 0x00	; 0
    4cb2:	29 81       	ldd	r18, Y+1	; 0x01
    4cb4:	fc 01       	movw	r30, r24
    4cb6:	20 83       	st	Z, r18
}
    4cb8:	00 00       	nop
    4cba:	0f 90       	pop	r0
    4cbc:	df 91       	pop	r29
    4cbe:	cf 91       	pop	r28
    4cc0:	08 95       	ret

00004cc2 <usart1_send_str>:

void usart1_send_str(uint8_t *str, uint8_t data_size)
{
    4cc2:	cf 93       	push	r28
    4cc4:	df 93       	push	r29
    4cc6:	00 d0       	rcall	.+0      	; 0x4cc8 <usart1_send_str+0x6>
    4cc8:	00 d0       	rcall	.+0      	; 0x4cca <usart1_send_str+0x8>
    4cca:	cd b7       	in	r28, 0x3d	; 61
    4ccc:	de b7       	in	r29, 0x3e	; 62
    4cce:	9b 83       	std	Y+3, r25	; 0x03
    4cd0:	8a 83       	std	Y+2, r24	; 0x02
    4cd2:	6c 83       	std	Y+4, r22	; 0x04
	uint8_t i = 0;
    4cd4:	19 82       	std	Y+1, r1	; 0x01

	for (i = 0; i < data_size; i++)
    4cd6:	19 82       	std	Y+1, r1	; 0x01
    4cd8:	0e c0       	rjmp	.+28     	; 0x4cf6 <usart1_send_str+0x34>
	{
		usart1_send_char(*str++);
    4cda:	8a 81       	ldd	r24, Y+2	; 0x02
    4cdc:	9b 81       	ldd	r25, Y+3	; 0x03
    4cde:	9c 01       	movw	r18, r24
    4ce0:	2f 5f       	subi	r18, 0xFF	; 255
    4ce2:	3f 4f       	sbci	r19, 0xFF	; 255
    4ce4:	3b 83       	std	Y+3, r19	; 0x03
    4ce6:	2a 83       	std	Y+2, r18	; 0x02
    4ce8:	fc 01       	movw	r30, r24
    4cea:	80 81       	ld	r24, Z
    4cec:	0e 94 46 26 	call	0x4c8c	; 0x4c8c <usart1_send_char>

void usart1_send_str(uint8_t *str, uint8_t data_size)
{
	uint8_t i = 0;

	for (i = 0; i < data_size; i++)
    4cf0:	89 81       	ldd	r24, Y+1	; 0x01
    4cf2:	8f 5f       	subi	r24, 0xFF	; 255
    4cf4:	89 83       	std	Y+1, r24	; 0x01
    4cf6:	99 81       	ldd	r25, Y+1	; 0x01
    4cf8:	8c 81       	ldd	r24, Y+4	; 0x04
    4cfa:	98 17       	cp	r25, r24
    4cfc:	70 f3       	brcs	.-36     	; 0x4cda <usart1_send_str+0x18>
	{
		usart1_send_char(*str++);
	}
}
    4cfe:	00 00       	nop
    4d00:	0f 90       	pop	r0
    4d02:	0f 90       	pop	r0
    4d04:	0f 90       	pop	r0
    4d06:	0f 90       	pop	r0
    4d08:	df 91       	pop	r29
    4d0a:	cf 91       	pop	r28
    4d0c:	08 95       	ret

00004d0e <usart2_send_char>:

void usart2_send_char(uint8_t data)
{
    4d0e:	cf 93       	push	r28
    4d10:	df 93       	push	r29
    4d12:	1f 92       	push	r1
    4d14:	cd b7       	in	r28, 0x3d	; 61
    4d16:	de b7       	in	r29, 0x3e	; 62
    4d18:	89 83       	std	Y+1, r24	; 0x01
	usart2_buff = data; //把数据保存到发送数据缓冲区
    4d1a:	89 81       	ldd	r24, Y+1	; 0x01
    4d1c:	80 93 bd 06 	sts	0x06BD, r24	; 0x8006bd <usart2_buff>

	usart2_sta = USART2_IN_TX; //状态更改为发送状态
    4d20:	10 92 33 0b 	sts	0x0B33, r1	; 0x800b33 <usart2_sta>

	USART2_TX_PIN_RESET; //给起始位
    4d24:	85 e3       	ldi	r24, 0x35	; 53
    4d26:	90 e0       	ldi	r25, 0x00	; 0
    4d28:	25 e3       	ldi	r18, 0x35	; 53
    4d2a:	30 e0       	ldi	r19, 0x00	; 0
    4d2c:	f9 01       	movw	r30, r18
    4d2e:	20 81       	ld	r18, Z
    4d30:	2f 77       	andi	r18, 0x7F	; 127
    4d32:	fc 01       	movw	r30, r24
    4d34:	20 83       	st	Z, r18

	TCNT3 = 0x0000; //定时器3计数器清零
    4d36:	88 e8       	ldi	r24, 0x88	; 136
    4d38:	90 e0       	ldi	r25, 0x00	; 0
    4d3a:	fc 01       	movw	r30, r24
    4d3c:	11 82       	std	Z+1, r1	; 0x01
    4d3e:	10 82       	st	Z, r1
	TCCR3B |= 0x01; //启动定时器
    4d40:	8a e8       	ldi	r24, 0x8A	; 138
    4d42:	90 e0       	ldi	r25, 0x00	; 0
    4d44:	2a e8       	ldi	r18, 0x8A	; 138
    4d46:	30 e0       	ldi	r19, 0x00	; 0
    4d48:	f9 01       	movw	r30, r18
    4d4a:	20 81       	ld	r18, Z
    4d4c:	21 60       	ori	r18, 0x01	; 1
    4d4e:	fc 01       	movw	r30, r24
    4d50:	20 83       	st	Z, r18
}
    4d52:	00 00       	nop
    4d54:	0f 90       	pop	r0
    4d56:	df 91       	pop	r29
    4d58:	cf 91       	pop	r28
    4d5a:	08 95       	ret

00004d5c <usart2_send_str>:

void usart2_send_str(uint8_t *str, uint8_t data_size)
{
    4d5c:	cf 93       	push	r28
    4d5e:	df 93       	push	r29
    4d60:	00 d0       	rcall	.+0      	; 0x4d62 <usart2_send_str+0x6>
    4d62:	00 d0       	rcall	.+0      	; 0x4d64 <usart2_send_str+0x8>
    4d64:	cd b7       	in	r28, 0x3d	; 61
    4d66:	de b7       	in	r29, 0x3e	; 62
    4d68:	9b 83       	std	Y+3, r25	; 0x03
    4d6a:	8a 83       	std	Y+2, r24	; 0x02
    4d6c:	6c 83       	std	Y+4, r22	; 0x04
	uint8_t i = 0;
    4d6e:	19 82       	std	Y+1, r1	; 0x01

	for (i = 0; i < data_size; i++)
    4d70:	19 82       	std	Y+1, r1	; 0x01
    4d72:	13 c0       	rjmp	.+38     	; 0x4d9a <usart2_send_str+0x3e>
	{
		usart2_send_char(*str++);
    4d74:	8a 81       	ldd	r24, Y+2	; 0x02
    4d76:	9b 81       	ldd	r25, Y+3	; 0x03
    4d78:	9c 01       	movw	r18, r24
    4d7a:	2f 5f       	subi	r18, 0xFF	; 255
    4d7c:	3f 4f       	sbci	r19, 0xFF	; 255
    4d7e:	3b 83       	std	Y+3, r19	; 0x03
    4d80:	2a 83       	std	Y+2, r18	; 0x02
    4d82:	fc 01       	movw	r30, r24
    4d84:	80 81       	ld	r24, Z
    4d86:	0e 94 87 26 	call	0x4d0e	; 0x4d0e <usart2_send_char>
		//		_delay_us(1200);S
		while (usart2_sta != USART2_TX_END)
    4d8a:	00 00       	nop
    4d8c:	80 91 33 0b 	lds	r24, 0x0B33	; 0x800b33 <usart2_sta>
    4d90:	83 30       	cpi	r24, 0x03	; 3
    4d92:	e1 f7       	brne	.-8      	; 0x4d8c <usart2_send_str+0x30>

void usart2_send_str(uint8_t *str, uint8_t data_size)
{
	uint8_t i = 0;

	for (i = 0; i < data_size; i++)
    4d94:	89 81       	ldd	r24, Y+1	; 0x01
    4d96:	8f 5f       	subi	r24, 0xFF	; 255
    4d98:	89 83       	std	Y+1, r24	; 0x01
    4d9a:	99 81       	ldd	r25, Y+1	; 0x01
    4d9c:	8c 81       	ldd	r24, Y+4	; 0x04
    4d9e:	98 17       	cp	r25, r24
    4da0:	48 f3       	brcs	.-46     	; 0x4d74 <usart2_send_str+0x18>
		usart2_send_char(*str++);
		//		_delay_us(1200);S
		while (usart2_sta != USART2_TX_END)
			;
	}
}
    4da2:	00 00       	nop
    4da4:	0f 90       	pop	r0
    4da6:	0f 90       	pop	r0
    4da8:	0f 90       	pop	r0
    4daa:	0f 90       	pop	r0
    4dac:	df 91       	pop	r29
    4dae:	cf 91       	pop	r28
    4db0:	08 95       	ret

00004db2 <crc_check>:

uint16_t crc_check(uint8_t *p, uint8_t data_size)
{
    4db2:	cf 93       	push	r28
    4db4:	df 93       	push	r29
    4db6:	cd b7       	in	r28, 0x3d	; 61
    4db8:	de b7       	in	r29, 0x3e	; 62
    4dba:	27 97       	sbiw	r28, 0x07	; 7
    4dbc:	0f b6       	in	r0, 0x3f	; 63
    4dbe:	f8 94       	cli
    4dc0:	de bf       	out	0x3e, r29	; 62
    4dc2:	0f be       	out	0x3f, r0	; 63
    4dc4:	cd bf       	out	0x3d, r28	; 61
    4dc6:	9e 83       	std	Y+6, r25	; 0x06
    4dc8:	8d 83       	std	Y+5, r24	; 0x05
    4dca:	6f 83       	std	Y+7, r22	; 0x07
	uint16_t crc = 0xFFFF;
    4dcc:	8f ef       	ldi	r24, 0xFF	; 255
    4dce:	9f ef       	ldi	r25, 0xFF	; 255
    4dd0:	9a 83       	std	Y+2, r25	; 0x02
    4dd2:	89 83       	std	Y+1, r24	; 0x01
	uint8_t i, j;

	for (j = 0; j < (data_size - 5); j++)
    4dd4:	1c 82       	std	Y+4, r1	; 0x04
    4dd6:	38 c0       	rjmp	.+112    	; 0x4e48 <crc_check+0x96>
	{
		crc = crc ^ *(p + j + 3);
    4dd8:	8c 81       	ldd	r24, Y+4	; 0x04
    4dda:	88 2f       	mov	r24, r24
    4ddc:	90 e0       	ldi	r25, 0x00	; 0
    4dde:	03 96       	adiw	r24, 0x03	; 3
    4de0:	2d 81       	ldd	r18, Y+5	; 0x05
    4de2:	3e 81       	ldd	r19, Y+6	; 0x06
    4de4:	82 0f       	add	r24, r18
    4de6:	93 1f       	adc	r25, r19
    4de8:	fc 01       	movw	r30, r24
    4dea:	80 81       	ld	r24, Z
    4dec:	88 2f       	mov	r24, r24
    4dee:	90 e0       	ldi	r25, 0x00	; 0
    4df0:	29 81       	ldd	r18, Y+1	; 0x01
    4df2:	3a 81       	ldd	r19, Y+2	; 0x02
    4df4:	82 27       	eor	r24, r18
    4df6:	93 27       	eor	r25, r19
    4df8:	9a 83       	std	Y+2, r25	; 0x02
    4dfa:	89 83       	std	Y+1, r24	; 0x01
		for (i = 0; i < 8; i++)
    4dfc:	1b 82       	std	Y+3, r1	; 0x03
    4dfe:	1e c0       	rjmp	.+60     	; 0x4e3c <crc_check+0x8a>
		{
			if ((crc & 0x0001) > 0)
    4e00:	89 81       	ldd	r24, Y+1	; 0x01
    4e02:	9a 81       	ldd	r25, Y+2	; 0x02
    4e04:	81 70       	andi	r24, 0x01	; 1
    4e06:	99 27       	eor	r25, r25
    4e08:	89 2b       	or	r24, r25
    4e0a:	79 f0       	breq	.+30     	; 0x4e2a <crc_check+0x78>
			{
				crc >>= 1;
    4e0c:	89 81       	ldd	r24, Y+1	; 0x01
    4e0e:	9a 81       	ldd	r25, Y+2	; 0x02
    4e10:	96 95       	lsr	r25
    4e12:	87 95       	ror	r24
    4e14:	9a 83       	std	Y+2, r25	; 0x02
    4e16:	89 83       	std	Y+1, r24	; 0x01
				crc ^= 0xA001;
    4e18:	89 81       	ldd	r24, Y+1	; 0x01
    4e1a:	9a 81       	ldd	r25, Y+2	; 0x02
    4e1c:	f1 e0       	ldi	r31, 0x01	; 1
    4e1e:	8f 27       	eor	r24, r31
    4e20:	f0 ea       	ldi	r31, 0xA0	; 160
    4e22:	9f 27       	eor	r25, r31
    4e24:	9a 83       	std	Y+2, r25	; 0x02
    4e26:	89 83       	std	Y+1, r24	; 0x01
    4e28:	06 c0       	rjmp	.+12     	; 0x4e36 <crc_check+0x84>
			}
			else
				crc >>= 1;
    4e2a:	89 81       	ldd	r24, Y+1	; 0x01
    4e2c:	9a 81       	ldd	r25, Y+2	; 0x02
    4e2e:	96 95       	lsr	r25
    4e30:	87 95       	ror	r24
    4e32:	9a 83       	std	Y+2, r25	; 0x02
    4e34:	89 83       	std	Y+1, r24	; 0x01
	uint8_t i, j;

	for (j = 0; j < (data_size - 5); j++)
	{
		crc = crc ^ *(p + j + 3);
		for (i = 0; i < 8; i++)
    4e36:	8b 81       	ldd	r24, Y+3	; 0x03
    4e38:	8f 5f       	subi	r24, 0xFF	; 255
    4e3a:	8b 83       	std	Y+3, r24	; 0x03
    4e3c:	8b 81       	ldd	r24, Y+3	; 0x03
    4e3e:	88 30       	cpi	r24, 0x08	; 8
    4e40:	f8 f2       	brcs	.-66     	; 0x4e00 <crc_check+0x4e>
uint16_t crc_check(uint8_t *p, uint8_t data_size)
{
	uint16_t crc = 0xFFFF;
	uint8_t i, j;

	for (j = 0; j < (data_size - 5); j++)
    4e42:	8c 81       	ldd	r24, Y+4	; 0x04
    4e44:	8f 5f       	subi	r24, 0xFF	; 255
    4e46:	8c 83       	std	Y+4, r24	; 0x04
    4e48:	8c 81       	ldd	r24, Y+4	; 0x04
    4e4a:	28 2f       	mov	r18, r24
    4e4c:	30 e0       	ldi	r19, 0x00	; 0
    4e4e:	8f 81       	ldd	r24, Y+7	; 0x07
    4e50:	88 2f       	mov	r24, r24
    4e52:	90 e0       	ldi	r25, 0x00	; 0
    4e54:	05 97       	sbiw	r24, 0x05	; 5
    4e56:	28 17       	cp	r18, r24
    4e58:	39 07       	cpc	r19, r25
    4e5a:	0c f4       	brge	.+2      	; 0x4e5e <crc_check+0xac>
    4e5c:	bd cf       	rjmp	.-134    	; 0x4dd8 <crc_check+0x26>
			else
				crc >>= 1;
		}
	}

	return crc;
    4e5e:	89 81       	ldd	r24, Y+1	; 0x01
    4e60:	9a 81       	ldd	r25, Y+2	; 0x02
}
    4e62:	27 96       	adiw	r28, 0x07	; 7
    4e64:	0f b6       	in	r0, 0x3f	; 63
    4e66:	f8 94       	cli
    4e68:	de bf       	out	0x3e, r29	; 62
    4e6a:	0f be       	out	0x3f, r0	; 63
    4e6c:	cd bf       	out	0x3d, r28	; 61
    4e6e:	df 91       	pop	r29
    4e70:	cf 91       	pop	r28
    4e72:	08 95       	ret

00004e74 <usart0_init>:

void usart0_init(uint16_t ubrr0) //屏幕通讯使用
{
    4e74:	cf 93       	push	r28
    4e76:	df 93       	push	r29
    4e78:	00 d0       	rcall	.+0      	; 0x4e7a <usart0_init+0x6>
    4e7a:	cd b7       	in	r28, 0x3d	; 61
    4e7c:	de b7       	in	r29, 0x3e	; 62
    4e7e:	9a 83       	std	Y+2, r25	; 0x02
    4e80:	89 83       	std	Y+1, r24	; 0x01
	USART0_TX_PIN_OUTPUT;
    4e82:	82 e2       	ldi	r24, 0x22	; 34
    4e84:	90 e0       	ldi	r25, 0x00	; 0
    4e86:	22 e2       	ldi	r18, 0x22	; 34
    4e88:	30 e0       	ldi	r19, 0x00	; 0
    4e8a:	f9 01       	movw	r30, r18
    4e8c:	20 81       	ld	r18, Z
    4e8e:	22 60       	ori	r18, 0x02	; 2
    4e90:	fc 01       	movw	r30, r24
    4e92:	20 83       	st	Z, r18
	USART0_RX_PIN_INPUT; //配置引脚方向
    4e94:	82 e2       	ldi	r24, 0x22	; 34
    4e96:	90 e0       	ldi	r25, 0x00	; 0
    4e98:	22 e2       	ldi	r18, 0x22	; 34
    4e9a:	30 e0       	ldi	r19, 0x00	; 0
    4e9c:	f9 01       	movw	r30, r18
    4e9e:	20 81       	ld	r18, Z
    4ea0:	2e 7f       	andi	r18, 0xFE	; 254
    4ea2:	fc 01       	movw	r30, r24
    4ea4:	20 83       	st	Z, r18

	UBRR0H = (uint8_t)(ubrr0 >> 8);
    4ea6:	80 e9       	ldi	r24, 0x90	; 144
    4ea8:	90 e0       	ldi	r25, 0x00	; 0
    4eaa:	29 81       	ldd	r18, Y+1	; 0x01
    4eac:	3a 81       	ldd	r19, Y+2	; 0x02
    4eae:	23 2f       	mov	r18, r19
    4eb0:	33 27       	eor	r19, r19
    4eb2:	fc 01       	movw	r30, r24
    4eb4:	20 83       	st	Z, r18
	UBRR0L = (uint8_t)ubrr0;
    4eb6:	89 e2       	ldi	r24, 0x29	; 41
    4eb8:	90 e0       	ldi	r25, 0x00	; 0
    4eba:	29 81       	ldd	r18, Y+1	; 0x01
    4ebc:	fc 01       	movw	r30, r24
    4ebe:	20 83       	st	Z, r18

	//	UBRR0H = 0;
	//	UBRR0L = 103;									//波特率9600，晶振16M
	UCSR0C |= (1 << UCSZ01) | (1 << UCSZ00);			   // Set frame format: 8data, 1stop bit 无校验,异步正常模式
    4ec0:	85 e9       	ldi	r24, 0x95	; 149
    4ec2:	90 e0       	ldi	r25, 0x00	; 0
    4ec4:	25 e9       	ldi	r18, 0x95	; 149
    4ec6:	30 e0       	ldi	r19, 0x00	; 0
    4ec8:	f9 01       	movw	r30, r18
    4eca:	20 81       	ld	r18, Z
    4ecc:	26 60       	ori	r18, 0x06	; 6
    4ece:	fc 01       	movw	r30, r24
    4ed0:	20 83       	st	Z, r18
	UCSR0B |= (1 << RXEN0) | (1 << TXEN0) | (1 << RXCIE0); //使能发送、接收；使能接收中断
    4ed2:	8a e2       	ldi	r24, 0x2A	; 42
    4ed4:	90 e0       	ldi	r25, 0x00	; 0
    4ed6:	2a e2       	ldi	r18, 0x2A	; 42
    4ed8:	30 e0       	ldi	r19, 0x00	; 0
    4eda:	f9 01       	movw	r30, r18
    4edc:	20 81       	ld	r18, Z
    4ede:	28 69       	ori	r18, 0x98	; 152
    4ee0:	fc 01       	movw	r30, r24
    4ee2:	20 83       	st	Z, r18
}
    4ee4:	00 00       	nop
    4ee6:	0f 90       	pop	r0
    4ee8:	0f 90       	pop	r0
    4eea:	df 91       	pop	r29
    4eec:	cf 91       	pop	r28
    4eee:	08 95       	ret

00004ef0 <usart1_init>:

void usart1_init(uint16_t ubrr1) //设备通讯使用
{
    4ef0:	cf 93       	push	r28
    4ef2:	df 93       	push	r29
    4ef4:	00 d0       	rcall	.+0      	; 0x4ef6 <usart1_init+0x6>
    4ef6:	cd b7       	in	r28, 0x3d	; 61
    4ef8:	de b7       	in	r29, 0x3e	; 62
    4efa:	9a 83       	std	Y+2, r25	; 0x02
    4efc:	89 83       	std	Y+1, r24	; 0x01
	USART1_TX_PIN_OUTPUT;
    4efe:	81 e3       	ldi	r24, 0x31	; 49
    4f00:	90 e0       	ldi	r25, 0x00	; 0
    4f02:	21 e3       	ldi	r18, 0x31	; 49
    4f04:	30 e0       	ldi	r19, 0x00	; 0
    4f06:	f9 01       	movw	r30, r18
    4f08:	20 81       	ld	r18, Z
    4f0a:	28 60       	ori	r18, 0x08	; 8
    4f0c:	fc 01       	movw	r30, r24
    4f0e:	20 83       	st	Z, r18
	USART1_RX_PIN_INPUT; //配置引脚方向
    4f10:	81 e3       	ldi	r24, 0x31	; 49
    4f12:	90 e0       	ldi	r25, 0x00	; 0
    4f14:	21 e3       	ldi	r18, 0x31	; 49
    4f16:	30 e0       	ldi	r19, 0x00	; 0
    4f18:	f9 01       	movw	r30, r18
    4f1a:	20 81       	ld	r18, Z
    4f1c:	2b 7f       	andi	r18, 0xFB	; 251
    4f1e:	fc 01       	movw	r30, r24
    4f20:	20 83       	st	Z, r18

	UBRR1H = (uint8_t)(ubrr1 >> 8);
    4f22:	88 e9       	ldi	r24, 0x98	; 152
    4f24:	90 e0       	ldi	r25, 0x00	; 0
    4f26:	29 81       	ldd	r18, Y+1	; 0x01
    4f28:	3a 81       	ldd	r19, Y+2	; 0x02
    4f2a:	23 2f       	mov	r18, r19
    4f2c:	33 27       	eor	r19, r19
    4f2e:	fc 01       	movw	r30, r24
    4f30:	20 83       	st	Z, r18
	UBRR1L = (uint8_t)ubrr1;
    4f32:	89 e9       	ldi	r24, 0x99	; 153
    4f34:	90 e0       	ldi	r25, 0x00	; 0
    4f36:	29 81       	ldd	r18, Y+1	; 0x01
    4f38:	fc 01       	movw	r30, r24
    4f3a:	20 83       	st	Z, r18

	//	UBRR1H = 0;
	//	UBRR1L = 103;						//波特率9600，晶振16M
	UCSR1C = (1 << UCSZ11) | (1 << UCSZ10);				  // Set frame format: 8data, 1stop bit 无校验
    4f3c:	8d e9       	ldi	r24, 0x9D	; 157
    4f3e:	90 e0       	ldi	r25, 0x00	; 0
    4f40:	26 e0       	ldi	r18, 0x06	; 6
    4f42:	fc 01       	movw	r30, r24
    4f44:	20 83       	st	Z, r18
	UCSR1B = (1 << RXEN1) | (1 << TXEN1) | (1 << RXCIE1); //使能接收,发送
    4f46:	8a e9       	ldi	r24, 0x9A	; 154
    4f48:	90 e0       	ldi	r25, 0x00	; 0
    4f4a:	28 e9       	ldi	r18, 0x98	; 152
    4f4c:	fc 01       	movw	r30, r24
    4f4e:	20 83       	st	Z, r18
}
    4f50:	00 00       	nop
    4f52:	0f 90       	pop	r0
    4f54:	0f 90       	pop	r0
    4f56:	df 91       	pop	r29
    4f58:	cf 91       	pop	r28
    4f5a:	08 95       	ret

00004f5c <usart2_init>:

/*使用IO口+TIMER3模拟串口*/
void usart2_init(uint16_t baud)
{
    4f5c:	0f 93       	push	r16
    4f5e:	1f 93       	push	r17
    4f60:	cf 93       	push	r28
    4f62:	df 93       	push	r29
    4f64:	00 d0       	rcall	.+0      	; 0x4f66 <usart2_init+0xa>
    4f66:	cd b7       	in	r28, 0x3d	; 61
    4f68:	de b7       	in	r29, 0x3e	; 62
    4f6a:	9a 83       	std	Y+2, r25	; 0x02
    4f6c:	89 83       	std	Y+1, r24	; 0x01
	/*io口模拟uart相关IO初始化*/
	USART2_TX_PIN_OUTPUT; //TX脚配置为输出
    4f6e:	84 e3       	ldi	r24, 0x34	; 52
    4f70:	90 e0       	ldi	r25, 0x00	; 0
    4f72:	24 e3       	ldi	r18, 0x34	; 52
    4f74:	30 e0       	ldi	r19, 0x00	; 0
    4f76:	f9 01       	movw	r30, r18
    4f78:	20 81       	ld	r18, Z
    4f7a:	20 68       	ori	r18, 0x80	; 128
    4f7c:	fc 01       	movw	r30, r24
    4f7e:	20 83       	st	Z, r18
	USART2_RX_PIN_INPUT;
    4f80:	84 e3       	ldi	r24, 0x34	; 52
    4f82:	90 e0       	ldi	r25, 0x00	; 0
    4f84:	24 e3       	ldi	r18, 0x34	; 52
    4f86:	30 e0       	ldi	r19, 0x00	; 0
    4f88:	f9 01       	movw	r30, r18
    4f8a:	20 81       	ld	r18, Z
    4f8c:	2f 7b       	andi	r18, 0xBF	; 191
    4f8e:	fc 01       	movw	r30, r24
    4f90:	20 83       	st	Z, r18
	USART2_RX_PIN_PULLUP; //RX配置为输入上拉
    4f92:	85 e3       	ldi	r24, 0x35	; 53
    4f94:	90 e0       	ldi	r25, 0x00	; 0
    4f96:	25 e3       	ldi	r18, 0x35	; 53
    4f98:	30 e0       	ldi	r19, 0x00	; 0
    4f9a:	f9 01       	movw	r30, r18
    4f9c:	20 81       	ld	r18, Z
    4f9e:	20 64       	ori	r18, 0x40	; 64
    4fa0:	fc 01       	movw	r30, r24
    4fa2:	20 83       	st	Z, r18

	USART2_TX_PIN_SET; //TX脚输出高
    4fa4:	85 e3       	ldi	r24, 0x35	; 53
    4fa6:	90 e0       	ldi	r25, 0x00	; 0
    4fa8:	25 e3       	ldi	r18, 0x35	; 53
    4faa:	30 e0       	ldi	r19, 0x00	; 0
    4fac:	f9 01       	movw	r30, r18
    4fae:	20 81       	ld	r18, Z
    4fb0:	20 68       	ori	r18, 0x80	; 128
    4fb2:	fc 01       	movw	r30, r24
    4fb4:	20 83       	st	Z, r18

	TCCR3B |= 0x08; //WGM32位置1
    4fb6:	8a e8       	ldi	r24, 0x8A	; 138
    4fb8:	90 e0       	ldi	r25, 0x00	; 0
    4fba:	2a e8       	ldi	r18, 0x8A	; 138
    4fbc:	30 e0       	ldi	r19, 0x00	; 0
    4fbe:	f9 01       	movw	r30, r18
    4fc0:	20 81       	ld	r18, Z
    4fc2:	28 60       	ori	r18, 0x08	; 8
    4fc4:	fc 01       	movw	r30, r24
    4fc6:	20 83       	st	Z, r18
	TCCR3B &= 0xF8; //关闭定时器（清除时钟选择位 CS30 CS31 CS32）
    4fc8:	8a e8       	ldi	r24, 0x8A	; 138
    4fca:	90 e0       	ldi	r25, 0x00	; 0
    4fcc:	2a e8       	ldi	r18, 0x8A	; 138
    4fce:	30 e0       	ldi	r19, 0x00	; 0
    4fd0:	f9 01       	movw	r30, r18
    4fd2:	20 81       	ld	r18, Z
    4fd4:	28 7f       	andi	r18, 0xF8	; 248
    4fd6:	fc 01       	movw	r30, r24
    4fd8:	20 83       	st	Z, r18

	OCR3A = 16000000UL / baud; //定时时间为波特率的1/2（这里不启动定时器，启动时需要定时器时钟不分频 TCCR3B |= 0x01）
    4fda:	06 e8       	ldi	r16, 0x86	; 134
    4fdc:	10 e0       	ldi	r17, 0x00	; 0
    4fde:	89 81       	ldd	r24, Y+1	; 0x01
    4fe0:	9a 81       	ldd	r25, Y+2	; 0x02
    4fe2:	9c 01       	movw	r18, r24
    4fe4:	40 e0       	ldi	r20, 0x00	; 0
    4fe6:	50 e0       	ldi	r21, 0x00	; 0
    4fe8:	80 e0       	ldi	r24, 0x00	; 0
    4fea:	94 e2       	ldi	r25, 0x24	; 36
    4fec:	a4 ef       	ldi	r26, 0xF4	; 244
    4fee:	b0 e0       	ldi	r27, 0x00	; 0
    4ff0:	bc 01       	movw	r22, r24
    4ff2:	cd 01       	movw	r24, r26
    4ff4:	0e 94 26 28 	call	0x504c	; 0x504c <__udivmodsi4>
    4ff8:	da 01       	movw	r26, r20
    4ffa:	c9 01       	movw	r24, r18
    4ffc:	f8 01       	movw	r30, r16
    4ffe:	91 83       	std	Z+1, r25	; 0x01
    5000:	80 83       	st	Z, r24

	ETIMSK |= 0x10; //定时器3 A输出比较中断使能
    5002:	8d e7       	ldi	r24, 0x7D	; 125
    5004:	90 e0       	ldi	r25, 0x00	; 0
    5006:	2d e7       	ldi	r18, 0x7D	; 125
    5008:	30 e0       	ldi	r19, 0x00	; 0
    500a:	f9 01       	movw	r30, r18
    500c:	20 81       	ld	r18, Z
    500e:	20 61       	ori	r18, 0x10	; 16
    5010:	fc 01       	movw	r30, r24
    5012:	20 83       	st	Z, r18
}
    5014:	00 00       	nop
    5016:	0f 90       	pop	r0
    5018:	0f 90       	pop	r0
    501a:	df 91       	pop	r29
    501c:	cf 91       	pop	r28
    501e:	1f 91       	pop	r17
    5020:	0f 91       	pop	r16
    5022:	08 95       	ret

00005024 <__divmodhi4>:
    5024:	97 fb       	bst	r25, 7
    5026:	07 2e       	mov	r0, r23
    5028:	16 f4       	brtc	.+4      	; 0x502e <__divmodhi4+0xa>
    502a:	00 94       	com	r0
    502c:	07 d0       	rcall	.+14     	; 0x503c <__divmodhi4_neg1>
    502e:	77 fd       	sbrc	r23, 7
    5030:	09 d0       	rcall	.+18     	; 0x5044 <__divmodhi4_neg2>
    5032:	0e 94 68 28 	call	0x50d0	; 0x50d0 <__udivmodhi4>
    5036:	07 fc       	sbrc	r0, 7
    5038:	05 d0       	rcall	.+10     	; 0x5044 <__divmodhi4_neg2>
    503a:	3e f4       	brtc	.+14     	; 0x504a <__divmodhi4_exit>

0000503c <__divmodhi4_neg1>:
    503c:	90 95       	com	r25
    503e:	81 95       	neg	r24
    5040:	9f 4f       	sbci	r25, 0xFF	; 255
    5042:	08 95       	ret

00005044 <__divmodhi4_neg2>:
    5044:	70 95       	com	r23
    5046:	61 95       	neg	r22
    5048:	7f 4f       	sbci	r23, 0xFF	; 255

0000504a <__divmodhi4_exit>:
    504a:	08 95       	ret

0000504c <__udivmodsi4>:
    504c:	a1 e2       	ldi	r26, 0x21	; 33
    504e:	1a 2e       	mov	r1, r26
    5050:	aa 1b       	sub	r26, r26
    5052:	bb 1b       	sub	r27, r27
    5054:	fd 01       	movw	r30, r26
    5056:	0d c0       	rjmp	.+26     	; 0x5072 <__udivmodsi4_ep>

00005058 <__udivmodsi4_loop>:
    5058:	aa 1f       	adc	r26, r26
    505a:	bb 1f       	adc	r27, r27
    505c:	ee 1f       	adc	r30, r30
    505e:	ff 1f       	adc	r31, r31
    5060:	a2 17       	cp	r26, r18
    5062:	b3 07       	cpc	r27, r19
    5064:	e4 07       	cpc	r30, r20
    5066:	f5 07       	cpc	r31, r21
    5068:	20 f0       	brcs	.+8      	; 0x5072 <__udivmodsi4_ep>
    506a:	a2 1b       	sub	r26, r18
    506c:	b3 0b       	sbc	r27, r19
    506e:	e4 0b       	sbc	r30, r20
    5070:	f5 0b       	sbc	r31, r21

00005072 <__udivmodsi4_ep>:
    5072:	66 1f       	adc	r22, r22
    5074:	77 1f       	adc	r23, r23
    5076:	88 1f       	adc	r24, r24
    5078:	99 1f       	adc	r25, r25
    507a:	1a 94       	dec	r1
    507c:	69 f7       	brne	.-38     	; 0x5058 <__udivmodsi4_loop>
    507e:	60 95       	com	r22
    5080:	70 95       	com	r23
    5082:	80 95       	com	r24
    5084:	90 95       	com	r25
    5086:	9b 01       	movw	r18, r22
    5088:	ac 01       	movw	r20, r24
    508a:	bd 01       	movw	r22, r26
    508c:	cf 01       	movw	r24, r30
    508e:	08 95       	ret

00005090 <__tablejump2__>:
    5090:	ee 0f       	add	r30, r30
    5092:	ff 1f       	adc	r31, r31
    5094:	05 90       	lpm	r0, Z+
    5096:	f4 91       	lpm	r31, Z
    5098:	e0 2d       	mov	r30, r0
    509a:	09 94       	ijmp

0000509c <__umulhisi3>:
    509c:	a2 9f       	mul	r26, r18
    509e:	b0 01       	movw	r22, r0
    50a0:	b3 9f       	mul	r27, r19
    50a2:	c0 01       	movw	r24, r0
    50a4:	a3 9f       	mul	r26, r19
    50a6:	70 0d       	add	r23, r0
    50a8:	81 1d       	adc	r24, r1
    50aa:	11 24       	eor	r1, r1
    50ac:	91 1d       	adc	r25, r1
    50ae:	b2 9f       	mul	r27, r18
    50b0:	70 0d       	add	r23, r0
    50b2:	81 1d       	adc	r24, r1
    50b4:	11 24       	eor	r1, r1
    50b6:	91 1d       	adc	r25, r1
    50b8:	08 95       	ret

000050ba <__muluhisi3>:
    50ba:	0e 94 4e 28 	call	0x509c	; 0x509c <__umulhisi3>
    50be:	a5 9f       	mul	r26, r21
    50c0:	90 0d       	add	r25, r0
    50c2:	b4 9f       	mul	r27, r20
    50c4:	90 0d       	add	r25, r0
    50c6:	a4 9f       	mul	r26, r20
    50c8:	80 0d       	add	r24, r0
    50ca:	91 1d       	adc	r25, r1
    50cc:	11 24       	eor	r1, r1
    50ce:	08 95       	ret

000050d0 <__udivmodhi4>:
    50d0:	aa 1b       	sub	r26, r26
    50d2:	bb 1b       	sub	r27, r27
    50d4:	51 e1       	ldi	r21, 0x11	; 17
    50d6:	07 c0       	rjmp	.+14     	; 0x50e6 <__udivmodhi4_ep>

000050d8 <__udivmodhi4_loop>:
    50d8:	aa 1f       	adc	r26, r26
    50da:	bb 1f       	adc	r27, r27
    50dc:	a6 17       	cp	r26, r22
    50de:	b7 07       	cpc	r27, r23
    50e0:	10 f0       	brcs	.+4      	; 0x50e6 <__udivmodhi4_ep>
    50e2:	a6 1b       	sub	r26, r22
    50e4:	b7 0b       	sbc	r27, r23

000050e6 <__udivmodhi4_ep>:
    50e6:	88 1f       	adc	r24, r24
    50e8:	99 1f       	adc	r25, r25
    50ea:	5a 95       	dec	r21
    50ec:	a9 f7       	brne	.-22     	; 0x50d8 <__udivmodhi4_loop>
    50ee:	80 95       	com	r24
    50f0:	90 95       	com	r25
    50f2:	bc 01       	movw	r22, r24
    50f4:	cd 01       	movw	r24, r26
    50f6:	08 95       	ret

000050f8 <eeprom_read_byte>:
    50f8:	e1 99       	sbic	0x1c, 1	; 28
    50fa:	fe cf       	rjmp	.-4      	; 0x50f8 <eeprom_read_byte>
    50fc:	9f bb       	out	0x1f, r25	; 31
    50fe:	8e bb       	out	0x1e, r24	; 30
    5100:	e0 9a       	sbi	0x1c, 0	; 28
    5102:	99 27       	eor	r25, r25
    5104:	8d b3       	in	r24, 0x1d	; 29
    5106:	08 95       	ret

00005108 <eeprom_read_word>:
    5108:	a8 e1       	ldi	r26, 0x18	; 24
    510a:	b0 e0       	ldi	r27, 0x00	; 0
    510c:	42 e0       	ldi	r20, 0x02	; 2
    510e:	50 e0       	ldi	r21, 0x00	; 0
    5110:	0c 94 9e 28 	jmp	0x513c	; 0x513c <eeprom_read_blraw>

00005114 <eeprom_write_byte>:
    5114:	26 2f       	mov	r18, r22

00005116 <eeprom_write_r18>:
    5116:	e1 99       	sbic	0x1c, 1	; 28
    5118:	fe cf       	rjmp	.-4      	; 0x5116 <eeprom_write_r18>
    511a:	9f bb       	out	0x1f, r25	; 31
    511c:	8e bb       	out	0x1e, r24	; 30
    511e:	2d bb       	out	0x1d, r18	; 29
    5120:	0f b6       	in	r0, 0x3f	; 63
    5122:	f8 94       	cli
    5124:	e2 9a       	sbi	0x1c, 2	; 28
    5126:	e1 9a       	sbi	0x1c, 1	; 28
    5128:	0f be       	out	0x3f, r0	; 63
    512a:	01 96       	adiw	r24, 0x01	; 1
    512c:	08 95       	ret

0000512e <eeprom_write_word>:
    512e:	0e 94 8a 28 	call	0x5114	; 0x5114 <eeprom_write_byte>
    5132:	27 2f       	mov	r18, r23
    5134:	0c 94 8b 28 	jmp	0x5116	; 0x5116 <eeprom_write_r18>

00005138 <eeprom_read_block>:
    5138:	dc 01       	movw	r26, r24
    513a:	cb 01       	movw	r24, r22

0000513c <eeprom_read_blraw>:
    513c:	fc 01       	movw	r30, r24
    513e:	e1 99       	sbic	0x1c, 1	; 28
    5140:	fe cf       	rjmp	.-4      	; 0x513e <eeprom_read_blraw+0x2>
    5142:	06 c0       	rjmp	.+12     	; 0x5150 <eeprom_read_blraw+0x14>
    5144:	ff bb       	out	0x1f, r31	; 31
    5146:	ee bb       	out	0x1e, r30	; 30
    5148:	e0 9a       	sbi	0x1c, 0	; 28
    514a:	31 96       	adiw	r30, 0x01	; 1
    514c:	0d b2       	in	r0, 0x1d	; 29
    514e:	0d 92       	st	X+, r0
    5150:	41 50       	subi	r20, 0x01	; 1
    5152:	50 40       	sbci	r21, 0x00	; 0
    5154:	b8 f7       	brcc	.-18     	; 0x5144 <eeprom_read_blraw+0x8>
    5156:	08 95       	ret

00005158 <_exit>:
    5158:	f8 94       	cli

0000515a <__stop_program>:
    515a:	ff cf       	rjmp	.-2      	; 0x515a <__stop_program>
