
TempCtrlBoxCoreBoard.elf:     file format elf32-avr

Sections:
Idx Name          Size      VMA       LMA       File off  Algn
  0 .data         00000098  00800100  00007064  000070f8  2**0
                  CONTENTS, ALLOC, LOAD, DATA
  1 .text         00007064  00000000  00000000  00000094  2**1
                  CONTENTS, ALLOC, LOAD, READONLY, CODE
  2 .bss          00000b49  00800198  00800198  00007190  2**0
                  ALLOC
  3 .comment      00000030  00000000  00000000  00007190  2**0
                  CONTENTS, READONLY
  4 .note.gnu.avr.deviceinfo 0000003c  00000000  00000000  000071c0  2**2
                  CONTENTS, READONLY
  5 .debug_aranges 00000400  00000000  00000000  00007200  2**3
                  CONTENTS, READONLY, DEBUGGING
  6 .debug_info   00003327  00000000  00000000  00007600  2**0
                  CONTENTS, READONLY, DEBUGGING
  7 .debug_abbrev 000010f3  00000000  00000000  0000a927  2**0
                  CONTENTS, READONLY, DEBUGGING
  8 .debug_line   00003ac7  00000000  00000000  0000ba1a  2**0
                  CONTENTS, READONLY, DEBUGGING
  9 .debug_frame  00000c98  00000000  00000000  0000f4e4  2**2
                  CONTENTS, READONLY, DEBUGGING
 10 .debug_str    00001020  00000000  00000000  0001017c  2**0
                  CONTENTS, READONLY, DEBUGGING
 11 .debug_loc    00001a79  00000000  00000000  0001119c  2**0
                  CONTENTS, READONLY, DEBUGGING
 12 .debug_ranges 000002e0  00000000  00000000  00012c15  2**0
                  CONTENTS, READONLY, DEBUGGING

Disassembly of section .text:

00000000 <__vectors>:
       0:	0c 94 50 01 	jmp	0x2a0	; 0x2a0 <__ctors_end>
       4:	0c 94 6d 01 	jmp	0x2da	; 0x2da <__bad_interrupt>
       8:	0c 94 6d 01 	jmp	0x2da	; 0x2da <__bad_interrupt>
       c:	0c 94 6d 01 	jmp	0x2da	; 0x2da <__bad_interrupt>
      10:	0c 94 6d 01 	jmp	0x2da	; 0x2da <__bad_interrupt>
      14:	0c 94 6d 01 	jmp	0x2da	; 0x2da <__bad_interrupt>
      18:	0c 94 6d 01 	jmp	0x2da	; 0x2da <__bad_interrupt>
      1c:	0c 94 6d 01 	jmp	0x2da	; 0x2da <__bad_interrupt>
      20:	0c 94 6d 01 	jmp	0x2da	; 0x2da <__bad_interrupt>
      24:	0c 94 6d 01 	jmp	0x2da	; 0x2da <__bad_interrupt>
      28:	0c 94 4e 2b 	jmp	0x569c	; 0x569c <__vector_10>
      2c:	0c 94 6d 01 	jmp	0x2da	; 0x2da <__bad_interrupt>
      30:	0c 94 3b 2b 	jmp	0x5676	; 0x5676 <__vector_12>
      34:	0c 94 6d 01 	jmp	0x2da	; 0x2da <__bad_interrupt>
      38:	0c 94 6d 01 	jmp	0x2da	; 0x2da <__bad_interrupt>
      3c:	0c 94 6d 01 	jmp	0x2da	; 0x2da <__bad_interrupt>
      40:	0c 94 de 29 	jmp	0x53bc	; 0x53bc <__vector_16>
      44:	0c 94 6d 01 	jmp	0x2da	; 0x2da <__bad_interrupt>
      48:	0c 94 9a 2e 	jmp	0x5d34	; 0x5d34 <__vector_18>
      4c:	0c 94 6d 01 	jmp	0x2da	; 0x2da <__bad_interrupt>
      50:	0c 94 6d 01 	jmp	0x2da	; 0x2da <__bad_interrupt>
      54:	0c 94 6d 01 	jmp	0x2da	; 0x2da <__bad_interrupt>
      58:	0c 94 6d 01 	jmp	0x2da	; 0x2da <__bad_interrupt>
      5c:	0c 94 6d 01 	jmp	0x2da	; 0x2da <__bad_interrupt>
      60:	0c 94 6d 01 	jmp	0x2da	; 0x2da <__bad_interrupt>
      64:	0c 94 6d 01 	jmp	0x2da	; 0x2da <__bad_interrupt>
      68:	0c 94 10 2c 	jmp	0x5820	; 0x5820 <__vector_26>
      6c:	0c 94 6d 01 	jmp	0x2da	; 0x2da <__bad_interrupt>
      70:	0c 94 6d 01 	jmp	0x2da	; 0x2da <__bad_interrupt>
      74:	0c 94 6d 01 	jmp	0x2da	; 0x2da <__bad_interrupt>
      78:	0c 94 d3 2e 	jmp	0x5da6	; 0x5da6 <__vector_30>
      7c:	0c 94 6d 01 	jmp	0x2da	; 0x2da <__bad_interrupt>
      80:	0c 94 6d 01 	jmp	0x2da	; 0x2da <__bad_interrupt>
      84:	0c 94 6d 01 	jmp	0x2da	; 0x2da <__bad_interrupt>
      88:	0c 94 6d 01 	jmp	0x2da	; 0x2da <__bad_interrupt>
      8c:	d3 0b       	sbc	r29, r19
      8e:	dc 0b       	sbc	r29, r28
      90:	e6 0b       	sbc	r30, r22
      92:	f4 0b       	sbc	r31, r20
      94:	03 0c       	add	r0, r3
      96:	0f 0c       	add	r0, r15
      98:	1c 0c       	add	r1, r12
      9a:	29 0c       	add	r2, r9
      9c:	36 0c       	add	r3, r6
      9e:	43 0c       	add	r4, r3
      a0:	50 0c       	add	r5, r0
      a2:	53 0c       	add	r5, r3
      a4:	56 0c       	add	r5, r6
      a6:	83 0c       	add	r8, r3
      a8:	8b 0c       	add	r8, r11
      aa:	93 0c       	add	r9, r3
      ac:	9b 0c       	add	r9, r11
      ae:	a3 0c       	add	r10, r3
      b0:	a6 0c       	add	r10, r6
      b2:	b7 0c       	add	r11, r7
      b4:	c9 0c       	add	r12, r9
      b6:	cc 0c       	add	r12, r12
      b8:	59 0c       	add	r5, r9
      ba:	d1 0c       	add	r13, r1
      bc:	d9 0c       	add	r13, r9
      be:	dc 0c       	add	r13, r12
      c0:	e8 0c       	add	r14, r8
      c2:	19 0d       	add	r17, r9
      c4:	1f 0d       	add	r17, r15
      c6:	24 0d       	add	r18, r4
      c8:	29 0d       	add	r18, r9
      ca:	2c 0d       	add	r18, r12
      cc:	34 0d       	add	r19, r4
      ce:	3c 0d       	add	r19, r12
      d0:	42 0d       	add	r20, r2
      d2:	48 0d       	add	r20, r8
      d4:	4e 0d       	add	r20, r14
      d6:	54 0d       	add	r21, r4
      d8:	5a 0d       	add	r21, r10
      da:	60 0d       	add	r22, r0
      dc:	66 0d       	add	r22, r6
      de:	61 0c       	add	r6, r1
      e0:	72 0c       	add	r7, r2
      e2:	6c 0d       	add	r22, r12
      e4:	ca 0d       	add	r28, r10
      e6:	e0 0d       	add	r30, r0
      e8:	eb 0f       	add	r30, r27
      ea:	87 0d       	add	r24, r7
      ec:	41 0e       	add	r4, r17
      ee:	65 0e       	add	r6, r21
      f0:	8a 0e       	add	r8, r26
      f2:	af 0e       	add	r10, r31
      f4:	d4 0e       	add	r13, r20
      f6:	eb 0f       	add	r30, r27
      f8:	45 0f       	add	r20, r21
      fa:	5f 0f       	add	r21, r31
      fc:	82 0f       	add	r24, r18
      fe:	a5 0f       	add	r26, r21
     100:	c8 0f       	add	r28, r24
     102:	eb 0f       	add	r30, r27
     104:	05 0e       	add	r0, r21
     106:	0a 0e       	add	r0, r26
     108:	10 0e       	add	r1, r16
     10a:	16 0e       	add	r1, r22
     10c:	1c 0e       	add	r1, r28
     10e:	eb 0f       	add	r30, r27
     110:	1b 0f       	add	r17, r27
     112:	f9 0e       	add	r15, r25
     114:	0a 0f       	add	r16, r26
     116:	eb 0f       	add	r30, r27
     118:	23 0f       	add	r18, r19
     11a:	34 0f       	add	r19, r20
     11c:	22 0e       	add	r2, r18
     11e:	71 0d       	add	r23, r1
     120:	bb 2f       	mov	r27, r27
     122:	10 34       	cpi	r17, 0x40	; 64
     124:	dc 2f       	mov	r29, r28
     126:	10 34       	cpi	r17, 0x40	; 64
     128:	fe 2f       	mov	r31, r30
     12a:	10 34       	cpi	r17, 0x40	; 64
     12c:	0c 30       	cpi	r16, 0x0C	; 12
     12e:	10 34       	cpi	r17, 0x40	; 64
     130:	47 30       	cpi	r20, 0x07	; 7
     132:	10 34       	cpi	r17, 0x40	; 64
     134:	6e 30       	cpi	r22, 0x0E	; 14
     136:	10 34       	cpi	r17, 0x40	; 64
     138:	75 30       	cpi	r23, 0x05	; 5
     13a:	10 34       	cpi	r17, 0x40	; 64
     13c:	89 30       	cpi	r24, 0x09	; 9
     13e:	10 34       	cpi	r17, 0x40	; 64
     140:	10 34       	cpi	r17, 0x40	; 64
     142:	10 34       	cpi	r17, 0x40	; 64
     144:	e1 30       	cpi	r30, 0x01	; 1
     146:	10 34       	cpi	r17, 0x40	; 64
     148:	e8 30       	cpi	r30, 0x08	; 8
     14a:	10 34       	cpi	r17, 0x40	; 64
     14c:	ef 30       	cpi	r30, 0x0F	; 15
     14e:	10 34       	cpi	r17, 0x40	; 64
     150:	3a 30       	cpi	r19, 0x0A	; 10
     152:	10 34       	cpi	r17, 0x40	; 64
     154:	10 34       	cpi	r17, 0x40	; 64
     156:	10 34       	cpi	r17, 0x40	; 64
     158:	10 34       	cpi	r17, 0x40	; 64
     15a:	10 34       	cpi	r17, 0x40	; 64
     15c:	10 34       	cpi	r17, 0x40	; 64
     15e:	10 34       	cpi	r17, 0x40	; 64
     160:	10 34       	cpi	r17, 0x40	; 64
     162:	10 34       	cpi	r17, 0x40	; 64
     164:	f6 30       	cpi	r31, 0x06	; 6
     166:	10 34       	cpi	r17, 0x40	; 64
     168:	0c 31       	cpi	r16, 0x1C	; 28
     16a:	10 34       	cpi	r17, 0x40	; 64
     16c:	22 31       	cpi	r18, 0x12	; 18
     16e:	10 34       	cpi	r17, 0x40	; 64
     170:	38 31       	cpi	r19, 0x18	; 24
     172:	10 34       	cpi	r17, 0x40	; 64
     174:	4e 31       	cpi	r20, 0x1E	; 30
     176:	10 34       	cpi	r17, 0x40	; 64
     178:	64 31       	cpi	r22, 0x14	; 20
     17a:	10 34       	cpi	r17, 0x40	; 64
     17c:	7a 31       	cpi	r23, 0x1A	; 26
     17e:	10 34       	cpi	r17, 0x40	; 64
     180:	90 31       	cpi	r25, 0x10	; 16
     182:	10 34       	cpi	r17, 0x40	; 64
     184:	a6 31       	cpi	r26, 0x16	; 22
     186:	10 34       	cpi	r17, 0x40	; 64
     188:	bc 31       	cpi	r27, 0x1C	; 28
     18a:	10 34       	cpi	r17, 0x40	; 64
     18c:	d2 31       	cpi	r29, 0x12	; 18
     18e:	10 34       	cpi	r17, 0x40	; 64
     190:	e8 31       	cpi	r30, 0x18	; 24
     192:	10 34       	cpi	r17, 0x40	; 64
     194:	fe 31       	cpi	r31, 0x1E	; 30
     196:	10 34       	cpi	r17, 0x40	; 64
     198:	14 32       	cpi	r17, 0x24	; 36
     19a:	10 34       	cpi	r17, 0x40	; 64
     19c:	2a 32       	cpi	r18, 0x2A	; 42
     19e:	10 34       	cpi	r17, 0x40	; 64
     1a0:	40 32       	cpi	r20, 0x20	; 32
     1a2:	10 34       	cpi	r17, 0x40	; 64
     1a4:	56 32       	cpi	r21, 0x26	; 38
     1a6:	10 34       	cpi	r17, 0x40	; 64
     1a8:	6c 32       	cpi	r22, 0x2C	; 44
     1aa:	10 34       	cpi	r17, 0x40	; 64
     1ac:	82 32       	cpi	r24, 0x22	; 34
     1ae:	10 34       	cpi	r17, 0x40	; 64
     1b0:	98 32       	cpi	r25, 0x28	; 40
     1b2:	10 34       	cpi	r17, 0x40	; 64
     1b4:	ae 32       	cpi	r26, 0x2E	; 46
     1b6:	10 34       	cpi	r17, 0x40	; 64
     1b8:	c4 32       	cpi	r28, 0x24	; 36
     1ba:	10 34       	cpi	r17, 0x40	; 64
     1bc:	da 32       	cpi	r29, 0x2A	; 42
     1be:	10 34       	cpi	r17, 0x40	; 64
     1c0:	f0 32       	cpi	r31, 0x20	; 32
     1c2:	10 34       	cpi	r17, 0x40	; 64
     1c4:	06 33       	cpi	r16, 0x36	; 54
     1c6:	10 34       	cpi	r17, 0x40	; 64
     1c8:	1c 33       	cpi	r17, 0x3C	; 60
     1ca:	10 34       	cpi	r17, 0x40	; 64
     1cc:	32 33       	cpi	r19, 0x32	; 50
     1ce:	10 34       	cpi	r17, 0x40	; 64
     1d0:	48 33       	cpi	r20, 0x38	; 56
     1d2:	10 34       	cpi	r17, 0x40	; 64
     1d4:	5e 33       	cpi	r21, 0x3E	; 62
     1d6:	10 34       	cpi	r17, 0x40	; 64
     1d8:	74 33       	cpi	r23, 0x34	; 52
     1da:	10 34       	cpi	r17, 0x40	; 64
     1dc:	8a 33       	cpi	r24, 0x3A	; 58
     1de:	10 34       	cpi	r17, 0x40	; 64
     1e0:	a0 33       	cpi	r26, 0x30	; 48
     1e2:	10 34       	cpi	r17, 0x40	; 64
     1e4:	d0 33       	cpi	r29, 0x30	; 48
     1e6:	10 34       	cpi	r17, 0x40	; 64
     1e8:	10 34       	cpi	r17, 0x40	; 64
     1ea:	10 34       	cpi	r17, 0x40	; 64
     1ec:	dc 33       	cpi	r29, 0x3C	; 60
     1ee:	10 34       	cpi	r17, 0x40	; 64
     1f0:	10 34       	cpi	r17, 0x40	; 64
     1f2:	10 34       	cpi	r17, 0x40	; 64
     1f4:	e9 33       	cpi	r30, 0x39	; 57
     1f6:	10 34       	cpi	r17, 0x40	; 64
     1f8:	10 34       	cpi	r17, 0x40	; 64
     1fa:	10 34       	cpi	r17, 0x40	; 64
     1fc:	f6 33       	cpi	r31, 0x36	; 54
     1fe:	10 34       	cpi	r17, 0x40	; 64
     200:	10 34       	cpi	r17, 0x40	; 64
     202:	10 34       	cpi	r17, 0x40	; 64
     204:	03 34       	cpi	r16, 0x43	; 67
     206:	10 34       	cpi	r17, 0x40	; 64
     208:	10 34       	cpi	r17, 0x40	; 64
     20a:	10 34       	cpi	r17, 0x40	; 64
     20c:	b6 33       	cpi	r27, 0x36	; 54
     20e:	10 34       	cpi	r17, 0x40	; 64
     210:	10 34       	cpi	r17, 0x40	; 64
     212:	10 34       	cpi	r17, 0x40	; 64
     214:	d2 2f       	mov	r29, r18
     216:	10 34       	cpi	r17, 0x40	; 64
     218:	c3 33       	cpi	r28, 0x33	; 51
     21a:	10 34       	cpi	r17, 0x40	; 64
     21c:	10 34       	cpi	r17, 0x40	; 64
     21e:	10 34       	cpi	r17, 0x40	; 64
     220:	10 34       	cpi	r17, 0x40	; 64
     222:	10 34       	cpi	r17, 0x40	; 64
     224:	10 34       	cpi	r17, 0x40	; 64
     226:	10 34       	cpi	r17, 0x40	; 64
     228:	10 34       	cpi	r17, 0x40	; 64
     22a:	10 34       	cpi	r17, 0x40	; 64
     22c:	10 34       	cpi	r17, 0x40	; 64
     22e:	10 34       	cpi	r17, 0x40	; 64
     230:	10 34       	cpi	r17, 0x40	; 64
     232:	10 34       	cpi	r17, 0x40	; 64
     234:	10 34       	cpi	r17, 0x40	; 64
     236:	10 34       	cpi	r17, 0x40	; 64
     238:	10 34       	cpi	r17, 0x40	; 64
     23a:	10 34       	cpi	r17, 0x40	; 64
     23c:	10 34       	cpi	r17, 0x40	; 64
     23e:	10 34       	cpi	r17, 0x40	; 64
     240:	10 34       	cpi	r17, 0x40	; 64
     242:	10 34       	cpi	r17, 0x40	; 64
     244:	10 34       	cpi	r17, 0x40	; 64
     246:	10 34       	cpi	r17, 0x40	; 64
     248:	10 34       	cpi	r17, 0x40	; 64
     24a:	10 34       	cpi	r17, 0x40	; 64
     24c:	10 34       	cpi	r17, 0x40	; 64
     24e:	10 34       	cpi	r17, 0x40	; 64
     250:	10 34       	cpi	r17, 0x40	; 64
     252:	10 34       	cpi	r17, 0x40	; 64
     254:	10 34       	cpi	r17, 0x40	; 64
     256:	10 34       	cpi	r17, 0x40	; 64
     258:	10 34       	cpi	r17, 0x40	; 64
     25a:	10 34       	cpi	r17, 0x40	; 64
     25c:	10 34       	cpi	r17, 0x40	; 64
     25e:	10 34       	cpi	r17, 0x40	; 64
     260:	10 34       	cpi	r17, 0x40	; 64
     262:	10 34       	cpi	r17, 0x40	; 64
     264:	10 34       	cpi	r17, 0x40	; 64
     266:	10 34       	cpi	r17, 0x40	; 64
     268:	10 34       	cpi	r17, 0x40	; 64
     26a:	10 34       	cpi	r17, 0x40	; 64
     26c:	10 34       	cpi	r17, 0x40	; 64
     26e:	10 34       	cpi	r17, 0x40	; 64
     270:	10 34       	cpi	r17, 0x40	; 64
     272:	10 34       	cpi	r17, 0x40	; 64
     274:	10 34       	cpi	r17, 0x40	; 64
     276:	10 34       	cpi	r17, 0x40	; 64
     278:	10 34       	cpi	r17, 0x40	; 64
     27a:	10 34       	cpi	r17, 0x40	; 64
     27c:	10 34       	cpi	r17, 0x40	; 64
     27e:	10 34       	cpi	r17, 0x40	; 64
     280:	10 34       	cpi	r17, 0x40	; 64
     282:	10 34       	cpi	r17, 0x40	; 64
     284:	10 34       	cpi	r17, 0x40	; 64
     286:	10 34       	cpi	r17, 0x40	; 64
     288:	10 34       	cpi	r17, 0x40	; 64
     28a:	10 34       	cpi	r17, 0x40	; 64
     28c:	10 34       	cpi	r17, 0x40	; 64
     28e:	10 34       	cpi	r17, 0x40	; 64
     290:	10 34       	cpi	r17, 0x40	; 64
     292:	10 34       	cpi	r17, 0x40	; 64
     294:	10 34       	cpi	r17, 0x40	; 64
     296:	10 34       	cpi	r17, 0x40	; 64
     298:	10 34       	cpi	r17, 0x40	; 64
     29a:	10 34       	cpi	r17, 0x40	; 64
     29c:	10 34       	cpi	r17, 0x40	; 64
     29e:	b6 2f       	mov	r27, r22

000002a0 <__ctors_end>:
     2a0:	11 24       	eor	r1, r1
     2a2:	1f be       	out	0x3f, r1	; 63
     2a4:	cf ef       	ldi	r28, 0xFF	; 255
     2a6:	d0 e1       	ldi	r29, 0x10	; 16
     2a8:	de bf       	out	0x3e, r29	; 62
     2aa:	cd bf       	out	0x3d, r28	; 61

000002ac <__do_copy_data>:
     2ac:	11 e0       	ldi	r17, 0x01	; 1
     2ae:	a0 e0       	ldi	r26, 0x00	; 0
     2b0:	b1 e0       	ldi	r27, 0x01	; 1
     2b2:	e4 e6       	ldi	r30, 0x64	; 100
     2b4:	f0 e7       	ldi	r31, 0x70	; 112
     2b6:	02 c0       	rjmp	.+4      	; 0x2bc <__do_copy_data+0x10>
     2b8:	05 90       	lpm	r0, Z+
     2ba:	0d 92       	st	X+, r0
     2bc:	a8 39       	cpi	r26, 0x98	; 152
     2be:	b1 07       	cpc	r27, r17
     2c0:	d9 f7       	brne	.-10     	; 0x2b8 <__do_copy_data+0xc>

000002c2 <__do_clear_bss>:
     2c2:	2c e0       	ldi	r18, 0x0C	; 12
     2c4:	a8 e9       	ldi	r26, 0x98	; 152
     2c6:	b1 e0       	ldi	r27, 0x01	; 1
     2c8:	01 c0       	rjmp	.+2      	; 0x2cc <.do_clear_bss_start>

000002ca <.do_clear_bss_loop>:
     2ca:	1d 92       	st	X+, r1

000002cc <.do_clear_bss_start>:
     2cc:	a1 3e       	cpi	r26, 0xE1	; 225
     2ce:	b2 07       	cpc	r27, r18
     2d0:	e1 f7       	brne	.-8      	; 0x2ca <.do_clear_bss_loop>
     2d2:	0e 94 e6 27 	call	0x4fcc	; 0x4fcc <main>
     2d6:	0c 94 30 38 	jmp	0x7060	; 0x7060 <_exit>

000002da <__bad_interrupt>:
     2da:	0c 94 00 00 	jmp	0	; 0x0 <__vectors>

000002de <apply_template>:
	uint8_t addr;
	
	addr = template_eeaddr[template_num-1];
	
	at24c128c_write_byte(addr,sta);
}
     2de:	cf 93       	push	r28
     2e0:	df 93       	push	r29
     2e2:	00 d0       	rcall	.+0      	; 0x2e4 <apply_template+0x6>
     2e4:	00 d0       	rcall	.+0      	; 0x2e6 <apply_template+0x8>
     2e6:	cd b7       	in	r28, 0x3d	; 61
     2e8:	de b7       	in	r29, 0x3e	; 62
     2ea:	8c 83       	std	Y+4, r24	; 0x04
     2ec:	6c 81       	ldd	r22, Y+4	; 0x04
     2ee:	8b e1       	ldi	r24, 0x1B	; 27
     2f0:	99 e0       	ldi	r25, 0x09	; 9
     2f2:	0e 94 e7 05 	call	0xbce	; 0xbce <read_template_from_eeprom>
     2f6:	19 82       	std	Y+1, r1	; 0x01
     2f8:	53 c0       	rjmp	.+166    	; 0x3a0 <apply_template+0xc2>
     2fa:	89 81       	ldd	r24, Y+1	; 0x01
     2fc:	88 2f       	mov	r24, r24
     2fe:	90 e0       	ldi	r25, 0x00	; 0
     300:	29 81       	ldd	r18, Y+1	; 0x01
     302:	22 2f       	mov	r18, r18
     304:	30 e0       	ldi	r19, 0x00	; 0
     306:	22 0f       	add	r18, r18
     308:	33 1f       	adc	r19, r19
     30a:	20 5e       	subi	r18, 0xE0	; 224
     30c:	36 4f       	sbci	r19, 0xF6	; 246
     30e:	f9 01       	movw	r30, r18
     310:	20 81       	ld	r18, Z
     312:	31 81       	ldd	r19, Z+1	; 0x01
     314:	88 0f       	add	r24, r24
     316:	99 1f       	adc	r25, r25
     318:	84 59       	subi	r24, 0x94	; 148
     31a:	94 4f       	sbci	r25, 0xF4	; 244
     31c:	fc 01       	movw	r30, r24
     31e:	31 83       	std	Z+1, r19	; 0x01
     320:	20 83       	st	Z, r18
     322:	89 81       	ldd	r24, Y+1	; 0x01
     324:	88 2f       	mov	r24, r24
     326:	90 e0       	ldi	r25, 0x00	; 0
     328:	29 81       	ldd	r18, Y+1	; 0x01
     32a:	22 2f       	mov	r18, r18
     32c:	30 e0       	ldi	r19, 0x00	; 0
     32e:	22 0f       	add	r18, r18
     330:	33 1f       	adc	r19, r19
     332:	24 59       	subi	r18, 0x94	; 148
     334:	34 4f       	sbci	r19, 0xF4	; 244
     336:	f9 01       	movw	r30, r18
     338:	20 81       	ld	r18, Z
     33a:	31 81       	ldd	r19, Z+1	; 0x01
     33c:	88 0f       	add	r24, r24
     33e:	99 1f       	adc	r25, r25
     340:	80 55       	subi	r24, 0x50	; 80
     342:	94 4f       	sbci	r25, 0xF4	; 244
     344:	fc 01       	movw	r30, r24
     346:	31 83       	std	Z+1, r19	; 0x01
     348:	20 83       	st	Z, r18
     34a:	89 81       	ldd	r24, Y+1	; 0x01
     34c:	88 2f       	mov	r24, r24
     34e:	90 e0       	ldi	r25, 0x00	; 0
     350:	29 81       	ldd	r18, Y+1	; 0x01
     352:	22 2f       	mov	r18, r18
     354:	30 e0       	ldi	r19, 0x00	; 0
     356:	22 0f       	add	r18, r18
     358:	33 1f       	adc	r19, r19
     35a:	20 5b       	subi	r18, 0xB0	; 176
     35c:	36 4f       	sbci	r19, 0xF6	; 246
     35e:	f9 01       	movw	r30, r18
     360:	20 81       	ld	r18, Z
     362:	31 81       	ldd	r19, Z+1	; 0x01
     364:	88 0f       	add	r24, r24
     366:	99 1f       	adc	r25, r25
     368:	8f 5a       	subi	r24, 0xAF	; 175
     36a:	9d 4f       	sbci	r25, 0xFD	; 253
     36c:	fc 01       	movw	r30, r24
     36e:	31 83       	std	Z+1, r19	; 0x01
     370:	20 83       	st	Z, r18
     372:	89 81       	ldd	r24, Y+1	; 0x01
     374:	88 2f       	mov	r24, r24
     376:	90 e0       	ldi	r25, 0x00	; 0
     378:	29 81       	ldd	r18, Y+1	; 0x01
     37a:	22 2f       	mov	r18, r18
     37c:	30 e0       	ldi	r19, 0x00	; 0
     37e:	22 0f       	add	r18, r18
     380:	33 1f       	adc	r19, r19
     382:	2f 5a       	subi	r18, 0xAF	; 175
     384:	3d 4f       	sbci	r19, 0xFD	; 253
     386:	f9 01       	movw	r30, r18
     388:	20 81       	ld	r18, Z
     38a:	31 81       	ldd	r19, Z+1	; 0x01
     38c:	88 0f       	add	r24, r24
     38e:	99 1f       	adc	r25, r25
     390:	8d 5f       	subi	r24, 0xFD	; 253
     392:	98 4f       	sbci	r25, 0xF8	; 248
     394:	fc 01       	movw	r30, r24
     396:	31 83       	std	Z+1, r19	; 0x01
     398:	20 83       	st	Z, r18
     39a:	89 81       	ldd	r24, Y+1	; 0x01
     39c:	8f 5f       	subi	r24, 0xFF	; 255
     39e:	89 83       	std	Y+1, r24	; 0x01
     3a0:	89 81       	ldd	r24, Y+1	; 0x01
     3a2:	88 31       	cpi	r24, 0x18	; 24
     3a4:	08 f4       	brcc	.+2      	; 0x3a8 <apply_template+0xca>
     3a6:	a9 cf       	rjmp	.-174    	; 0x2fa <apply_template+0x1c>
     3a8:	19 82       	std	Y+1, r1	; 0x01
     3aa:	cb c0       	rjmp	.+406    	; 0x542 <__LOCK_REGION_LENGTH__+0x142>
     3ac:	1a 82       	std	Y+2, r1	; 0x02
     3ae:	c2 c0       	rjmp	.+388    	; 0x534 <__LOCK_REGION_LENGTH__+0x134>
     3b0:	1b 82       	std	Y+3, r1	; 0x03
     3b2:	b9 c0       	rjmp	.+370    	; 0x526 <__LOCK_REGION_LENGTH__+0x126>
     3b4:	89 81       	ldd	r24, Y+1	; 0x01
     3b6:	68 2f       	mov	r22, r24
     3b8:	70 e0       	ldi	r23, 0x00	; 0
     3ba:	8a 81       	ldd	r24, Y+2	; 0x02
     3bc:	48 2f       	mov	r20, r24
     3be:	50 e0       	ldi	r21, 0x00	; 0
     3c0:	8b 81       	ldd	r24, Y+3	; 0x03
     3c2:	88 2f       	mov	r24, r24
     3c4:	90 e0       	ldi	r25, 0x00	; 0
     3c6:	29 81       	ldd	r18, Y+1	; 0x01
     3c8:	a2 2f       	mov	r26, r18
     3ca:	b0 e0       	ldi	r27, 0x00	; 0
     3cc:	2a 81       	ldd	r18, Y+2	; 0x02
     3ce:	e2 2f       	mov	r30, r18
     3d0:	f0 e0       	ldi	r31, 0x00	; 0
     3d2:	2b 81       	ldd	r18, Y+3	; 0x03
     3d4:	22 2f       	mov	r18, r18
     3d6:	30 e0       	ldi	r19, 0x00	; 0
     3d8:	aa 0f       	add	r26, r26
     3da:	bb 1f       	adc	r27, r27
     3dc:	aa 0f       	add	r26, r26
     3de:	bb 1f       	adc	r27, r27
     3e0:	aa 0f       	add	r26, r26
     3e2:	bb 1f       	adc	r27, r27
     3e4:	ea 0f       	add	r30, r26
     3e6:	fb 1f       	adc	r31, r27
     3e8:	ee 0f       	add	r30, r30
     3ea:	ff 1f       	adc	r31, r31
     3ec:	ee 0f       	add	r30, r30
     3ee:	ff 1f       	adc	r31, r31
     3f0:	2e 0f       	add	r18, r30
     3f2:	3f 1f       	adc	r19, r31
     3f4:	22 0f       	add	r18, r18
     3f6:	33 1f       	adc	r19, r19
     3f8:	20 58       	subi	r18, 0x80	; 128
     3fa:	36 4f       	sbci	r19, 0xF6	; 246
     3fc:	f9 01       	movw	r30, r18
     3fe:	20 81       	ld	r18, Z
     400:	31 81       	ldd	r19, Z+1	; 0x01
     402:	66 0f       	add	r22, r22
     404:	77 1f       	adc	r23, r23
     406:	66 0f       	add	r22, r22
     408:	77 1f       	adc	r23, r23
     40a:	66 0f       	add	r22, r22
     40c:	77 1f       	adc	r23, r23
     40e:	46 0f       	add	r20, r22
     410:	57 1f       	adc	r21, r23
     412:	44 0f       	add	r20, r20
     414:	55 1f       	adc	r21, r21
     416:	44 0f       	add	r20, r20
     418:	55 1f       	adc	r21, r21
     41a:	84 0f       	add	r24, r20
     41c:	95 1f       	adc	r25, r21
     41e:	88 0f       	add	r24, r24
     420:	99 1f       	adc	r25, r25
     422:	85 57       	subi	r24, 0x75	; 117
     424:	98 4f       	sbci	r25, 0xF8	; 248
     426:	fc 01       	movw	r30, r24
     428:	31 83       	std	Z+1, r19	; 0x01
     42a:	20 83       	st	Z, r18
     42c:	89 81       	ldd	r24, Y+1	; 0x01
     42e:	68 2f       	mov	r22, r24
     430:	70 e0       	ldi	r23, 0x00	; 0
     432:	8a 81       	ldd	r24, Y+2	; 0x02
     434:	48 2f       	mov	r20, r24
     436:	50 e0       	ldi	r21, 0x00	; 0
     438:	8b 81       	ldd	r24, Y+3	; 0x03
     43a:	88 2f       	mov	r24, r24
     43c:	90 e0       	ldi	r25, 0x00	; 0
     43e:	29 81       	ldd	r18, Y+1	; 0x01
     440:	a2 2f       	mov	r26, r18
     442:	b0 e0       	ldi	r27, 0x00	; 0
     444:	2a 81       	ldd	r18, Y+2	; 0x02
     446:	e2 2f       	mov	r30, r18
     448:	f0 e0       	ldi	r31, 0x00	; 0
     44a:	2b 81       	ldd	r18, Y+3	; 0x03
     44c:	22 2f       	mov	r18, r18
     44e:	30 e0       	ldi	r19, 0x00	; 0
     450:	aa 0f       	add	r26, r26
     452:	bb 1f       	adc	r27, r27
     454:	aa 0f       	add	r26, r26
     456:	bb 1f       	adc	r27, r27
     458:	aa 0f       	add	r26, r26
     45a:	bb 1f       	adc	r27, r27
     45c:	ea 0f       	add	r30, r26
     45e:	fb 1f       	adc	r31, r27
     460:	ee 0f       	add	r30, r30
     462:	ff 1f       	adc	r31, r31
     464:	ee 0f       	add	r30, r30
     466:	ff 1f       	adc	r31, r31
     468:	2e 0f       	add	r18, r30
     46a:	3f 1f       	adc	r19, r31
     46c:	22 0f       	add	r18, r18
     46e:	33 1f       	adc	r19, r19
     470:	25 57       	subi	r18, 0x75	; 117
     472:	38 4f       	sbci	r19, 0xF8	; 248
     474:	f9 01       	movw	r30, r18
     476:	20 81       	ld	r18, Z
     478:	31 81       	ldd	r19, Z+1	; 0x01
     47a:	66 0f       	add	r22, r22
     47c:	77 1f       	adc	r23, r23
     47e:	66 0f       	add	r22, r22
     480:	77 1f       	adc	r23, r23
     482:	66 0f       	add	r22, r22
     484:	77 1f       	adc	r23, r23
     486:	46 0f       	add	r20, r22
     488:	57 1f       	adc	r21, r23
     48a:	44 0f       	add	r20, r20
     48c:	55 1f       	adc	r21, r21
     48e:	44 0f       	add	r20, r20
     490:	55 1f       	adc	r21, r21
     492:	84 0f       	add	r24, r20
     494:	95 1f       	adc	r25, r21
     496:	88 0f       	add	r24, r24
     498:	99 1f       	adc	r25, r25
     49a:	8f 51       	subi	r24, 0x1F	; 31
     49c:	94 4f       	sbci	r25, 0xF4	; 244
     49e:	fc 01       	movw	r30, r24
     4a0:	31 83       	std	Z+1, r19	; 0x01
     4a2:	20 83       	st	Z, r18
     4a4:	89 81       	ldd	r24, Y+1	; 0x01
     4a6:	48 2f       	mov	r20, r24
     4a8:	50 e0       	ldi	r21, 0x00	; 0
     4aa:	8a 81       	ldd	r24, Y+2	; 0x02
     4ac:	28 2f       	mov	r18, r24
     4ae:	30 e0       	ldi	r19, 0x00	; 0
     4b0:	8b 81       	ldd	r24, Y+3	; 0x03
     4b2:	88 2f       	mov	r24, r24
     4b4:	90 e0       	ldi	r25, 0x00	; 0
     4b6:	44 0f       	add	r20, r20
     4b8:	55 1f       	adc	r21, r21
     4ba:	44 0f       	add	r20, r20
     4bc:	55 1f       	adc	r21, r21
     4be:	44 0f       	add	r20, r20
     4c0:	55 1f       	adc	r21, r21
     4c2:	24 0f       	add	r18, r20
     4c4:	35 1f       	adc	r19, r21
     4c6:	22 0f       	add	r18, r18
     4c8:	33 1f       	adc	r19, r19
     4ca:	22 0f       	add	r18, r18
     4cc:	33 1f       	adc	r19, r19
     4ce:	82 0f       	add	r24, r18
     4d0:	93 1f       	adc	r25, r19
     4d2:	88 0f       	add	r24, r24
     4d4:	99 1f       	adc	r25, r25
     4d6:	85 57       	subi	r24, 0x75	; 117
     4d8:	98 4f       	sbci	r25, 0xF8	; 248
     4da:	fc 01       	movw	r30, r24
     4dc:	40 81       	ld	r20, Z
     4de:	51 81       	ldd	r21, Z+1	; 0x01
     4e0:	89 81       	ldd	r24, Y+1	; 0x01
     4e2:	88 2f       	mov	r24, r24
     4e4:	90 e0       	ldi	r25, 0x00	; 0
     4e6:	9c 01       	movw	r18, r24
     4e8:	22 0f       	add	r18, r18
     4ea:	33 1f       	adc	r19, r19
     4ec:	22 0f       	add	r18, r18
     4ee:	33 1f       	adc	r19, r19
     4f0:	22 0f       	add	r18, r18
     4f2:	33 1f       	adc	r19, r19
     4f4:	8a 81       	ldd	r24, Y+2	; 0x02
     4f6:	88 2f       	mov	r24, r24
     4f8:	90 e0       	ldi	r25, 0x00	; 0
     4fa:	82 0f       	add	r24, r18
     4fc:	93 1f       	adc	r25, r19
     4fe:	9c 01       	movw	r18, r24
     500:	22 0f       	add	r18, r18
     502:	33 1f       	adc	r19, r19
     504:	22 0f       	add	r18, r18
     506:	33 1f       	adc	r19, r19
     508:	8b 81       	ldd	r24, Y+3	; 0x03
     50a:	88 2f       	mov	r24, r24
     50c:	90 e0       	ldi	r25, 0x00	; 0
     50e:	82 0f       	add	r24, r18
     510:	93 1f       	adc	r25, r19
     512:	88 0f       	add	r24, r24
     514:	99 1f       	adc	r25, r25
     516:	81 57       	subi	r24, 0x71	; 113
     518:	9f 4f       	sbci	r25, 0xFF	; 255
     51a:	ba 01       	movw	r22, r20
     51c:	0e 94 1b 38 	call	0x7036	; 0x7036 <eeprom_write_word>
     520:	8b 81       	ldd	r24, Y+3	; 0x03
     522:	8f 5f       	subi	r24, 0xFF	; 255
     524:	8b 83       	std	Y+3, r24	; 0x03
     526:	8b 81       	ldd	r24, Y+3	; 0x03
     528:	84 30       	cpi	r24, 0x04	; 4
     52a:	08 f4       	brcc	.+2      	; 0x52e <__LOCK_REGION_LENGTH__+0x12e>
     52c:	43 cf       	rjmp	.-378    	; 0x3b4 <apply_template+0xd6>
     52e:	8a 81       	ldd	r24, Y+2	; 0x02
     530:	8f 5f       	subi	r24, 0xFF	; 255
     532:	8a 83       	std	Y+2, r24	; 0x02
     534:	8a 81       	ldd	r24, Y+2	; 0x02
     536:	88 30       	cpi	r24, 0x08	; 8
     538:	08 f4       	brcc	.+2      	; 0x53c <__LOCK_REGION_LENGTH__+0x13c>
     53a:	3a cf       	rjmp	.-396    	; 0x3b0 <apply_template+0xd2>
     53c:	89 81       	ldd	r24, Y+1	; 0x01
     53e:	8f 5f       	subi	r24, 0xFF	; 255
     540:	89 83       	std	Y+1, r24	; 0x01
     542:	89 81       	ldd	r24, Y+1	; 0x01
     544:	84 30       	cpi	r24, 0x04	; 4
     546:	08 f4       	brcc	.+2      	; 0x54a <__LOCK_REGION_LENGTH__+0x14a>
     548:	31 cf       	rjmp	.-414    	; 0x3ac <apply_template+0xce>
     54a:	00 00       	nop
     54c:	0f 90       	pop	r0
     54e:	0f 90       	pop	r0
     550:	0f 90       	pop	r0
     552:	0f 90       	pop	r0
     554:	df 91       	pop	r29
     556:	cf 91       	pop	r28
     558:	08 95       	ret

0000055a <find_template>:
     55a:	cf 93       	push	r28
     55c:	df 93       	push	r29
     55e:	00 d0       	rcall	.+0      	; 0x560 <find_template+0x6>
     560:	00 d0       	rcall	.+0      	; 0x562 <find_template+0x8>
     562:	1f 92       	push	r1
     564:	cd b7       	in	r28, 0x3d	; 61
     566:	de b7       	in	r29, 0x3e	; 62
     568:	6a 83       	std	Y+2, r22	; 0x02
     56a:	7b 83       	std	Y+3, r23	; 0x03
     56c:	8c 83       	std	Y+4, r24	; 0x04
     56e:	9d 83       	std	Y+5, r25	; 0x05
     570:	81 e0       	ldi	r24, 0x01	; 1
     572:	89 83       	std	Y+1, r24	; 0x01
     574:	13 c0       	rjmp	.+38     	; 0x59c <find_template+0x42>
     576:	89 81       	ldd	r24, Y+1	; 0x01
     578:	0e 94 22 05 	call	0xa44	; 0xa44 <read_name_from_eeprom>
     57c:	9b 01       	movw	r18, r22
     57e:	ac 01       	movw	r20, r24
     580:	8a 81       	ldd	r24, Y+2	; 0x02
     582:	9b 81       	ldd	r25, Y+3	; 0x03
     584:	ac 81       	ldd	r26, Y+4	; 0x04
     586:	bd 81       	ldd	r27, Y+5	; 0x05
     588:	28 17       	cp	r18, r24
     58a:	39 07       	cpc	r19, r25
     58c:	4a 07       	cpc	r20, r26
     58e:	5b 07       	cpc	r21, r27
     590:	11 f4       	brne	.+4      	; 0x596 <find_template+0x3c>
     592:	89 81       	ldd	r24, Y+1	; 0x01
     594:	09 c0       	rjmp	.+18     	; 0x5a8 <find_template+0x4e>
     596:	89 81       	ldd	r24, Y+1	; 0x01
     598:	8f 5f       	subi	r24, 0xFF	; 255
     59a:	89 83       	std	Y+1, r24	; 0x01
     59c:	80 91 c1 02 	lds	r24, 0x02C1	; 0x8002c1 <template_cnt>
     5a0:	99 81       	ldd	r25, Y+1	; 0x01
     5a2:	89 17       	cp	r24, r25
     5a4:	40 f7       	brcc	.-48     	; 0x576 <find_template+0x1c>
     5a6:	80 e0       	ldi	r24, 0x00	; 0
     5a8:	0f 90       	pop	r0
     5aa:	0f 90       	pop	r0
     5ac:	0f 90       	pop	r0
     5ae:	0f 90       	pop	r0
     5b0:	0f 90       	pop	r0
     5b2:	df 91       	pop	r29
     5b4:	cf 91       	pop	r28
     5b6:	08 95       	ret

000005b8 <set_template_name>:
     5b8:	cf 93       	push	r28
     5ba:	df 93       	push	r29
     5bc:	00 d0       	rcall	.+0      	; 0x5be <set_template_name+0x6>
     5be:	00 d0       	rcall	.+0      	; 0x5c0 <set_template_name+0x8>
     5c0:	1f 92       	push	r1
     5c2:	cd b7       	in	r28, 0x3d	; 61
     5c4:	de b7       	in	r29, 0x3e	; 62
     5c6:	89 83       	std	Y+1, r24	; 0x01
     5c8:	4a 83       	std	Y+2, r20	; 0x02
     5ca:	5b 83       	std	Y+3, r21	; 0x03
     5cc:	6c 83       	std	Y+4, r22	; 0x04
     5ce:	7d 83       	std	Y+5, r23	; 0x05
     5d0:	80 91 c1 02 	lds	r24, 0x02C1	; 0x8002c1 <template_cnt>
     5d4:	99 81       	ldd	r25, Y+1	; 0x01
     5d6:	89 17       	cp	r24, r25
     5d8:	48 f0       	brcs	.+18     	; 0x5ec <set_template_name+0x34>
     5da:	8a 81       	ldd	r24, Y+2	; 0x02
     5dc:	9b 81       	ldd	r25, Y+3	; 0x03
     5de:	ac 81       	ldd	r26, Y+4	; 0x04
     5e0:	bd 81       	ldd	r27, Y+5	; 0x05
     5e2:	ac 01       	movw	r20, r24
     5e4:	bd 01       	movw	r22, r26
     5e6:	89 81       	ldd	r24, Y+1	; 0x01
     5e8:	0e 94 c9 04 	call	0x992	; 0x992 <write_name_to_eeprom>
     5ec:	80 91 06 01 	lds	r24, 0x0106	; 0x800106 <pre_first_tpnum>
     5f0:	0e 94 04 24 	call	0x4808	; 0x4808 <update_template_page>
     5f4:	00 00       	nop
     5f6:	0f 90       	pop	r0
     5f8:	0f 90       	pop	r0
     5fa:	0f 90       	pop	r0
     5fc:	0f 90       	pop	r0
     5fe:	0f 90       	pop	r0
     600:	df 91       	pop	r29
     602:	cf 91       	pop	r28
     604:	08 95       	ret

00000606 <template_del>:
     606:	cf 93       	push	r28
     608:	df 93       	push	r29
     60a:	00 d0       	rcall	.+0      	; 0x60c <template_del+0x6>
     60c:	00 d0       	rcall	.+0      	; 0x60e <template_del+0x8>
     60e:	cd b7       	in	r28, 0x3d	; 61
     610:	de b7       	in	r29, 0x3e	; 62
     612:	8c 83       	std	Y+4, r24	; 0x04
     614:	80 91 c1 02 	lds	r24, 0x02C1	; 0x8002c1 <template_cnt>
     618:	9c 81       	ldd	r25, Y+4	; 0x04
     61a:	89 17       	cp	r24, r25
     61c:	08 f4       	brcc	.+2      	; 0x620 <template_del+0x1a>
     61e:	5a c0       	rjmp	.+180    	; 0x6d4 <template_del+0xce>
     620:	85 e0       	ldi	r24, 0x05	; 5
     622:	80 93 c2 02 	sts	0x02C2, r24	; 0x8002c2 <template_tip_msg>
     626:	8c 81       	ldd	r24, Y+4	; 0x04
     628:	88 2f       	mov	r24, r24
     62a:	90 e0       	ldi	r25, 0x00	; 0
     62c:	01 97       	sbiw	r24, 0x01	; 1
     62e:	88 0f       	add	r24, r24
     630:	99 1f       	adc	r25, r25
     632:	8d 5c       	subi	r24, 0xCD	; 205
     634:	98 4f       	sbci	r25, 0xF8	; 248
     636:	fc 01       	movw	r30, r24
     638:	80 81       	ld	r24, Z
     63a:	91 81       	ldd	r25, Z+1	; 0x01
     63c:	9b 83       	std	Y+3, r25	; 0x03
     63e:	8a 83       	std	Y+2, r24	; 0x02
     640:	8c 81       	ldd	r24, Y+4	; 0x04
     642:	89 83       	std	Y+1, r24	; 0x01
     644:	18 c0       	rjmp	.+48     	; 0x676 <template_del+0x70>
     646:	89 81       	ldd	r24, Y+1	; 0x01
     648:	88 2f       	mov	r24, r24
     64a:	90 e0       	ldi	r25, 0x00	; 0
     64c:	01 97       	sbiw	r24, 0x01	; 1
     64e:	29 81       	ldd	r18, Y+1	; 0x01
     650:	22 2f       	mov	r18, r18
     652:	30 e0       	ldi	r19, 0x00	; 0
     654:	22 0f       	add	r18, r18
     656:	33 1f       	adc	r19, r19
     658:	2d 5c       	subi	r18, 0xCD	; 205
     65a:	38 4f       	sbci	r19, 0xF8	; 248
     65c:	f9 01       	movw	r30, r18
     65e:	20 81       	ld	r18, Z
     660:	31 81       	ldd	r19, Z+1	; 0x01
     662:	88 0f       	add	r24, r24
     664:	99 1f       	adc	r25, r25
     666:	8d 5c       	subi	r24, 0xCD	; 205
     668:	98 4f       	sbci	r25, 0xF8	; 248
     66a:	fc 01       	movw	r30, r24
     66c:	31 83       	std	Z+1, r19	; 0x01
     66e:	20 83       	st	Z, r18
     670:	89 81       	ldd	r24, Y+1	; 0x01
     672:	8f 5f       	subi	r24, 0xFF	; 255
     674:	89 83       	std	Y+1, r24	; 0x01
     676:	80 91 c1 02 	lds	r24, 0x02C1	; 0x8002c1 <template_cnt>
     67a:	99 81       	ldd	r25, Y+1	; 0x01
     67c:	98 17       	cp	r25, r24
     67e:	18 f3       	brcs	.-58     	; 0x646 <template_del+0x40>
     680:	80 91 c1 02 	lds	r24, 0x02C1	; 0x8002c1 <template_cnt>
     684:	88 2f       	mov	r24, r24
     686:	90 e0       	ldi	r25, 0x00	; 0
     688:	01 97       	sbiw	r24, 0x01	; 1
     68a:	88 0f       	add	r24, r24
     68c:	99 1f       	adc	r25, r25
     68e:	8d 5c       	subi	r24, 0xCD	; 205
     690:	98 4f       	sbci	r25, 0xF8	; 248
     692:	2a 81       	ldd	r18, Y+2	; 0x02
     694:	3b 81       	ldd	r19, Y+3	; 0x03
     696:	fc 01       	movw	r30, r24
     698:	31 83       	std	Z+1, r19	; 0x01
     69a:	20 83       	st	Z, r18
     69c:	80 91 c1 02 	lds	r24, 0x02C1	; 0x8002c1 <template_cnt>
     6a0:	81 50       	subi	r24, 0x01	; 1
     6a2:	80 93 c1 02 	sts	0x02C1, r24	; 0x8002c1 <template_cnt>
     6a6:	90 91 c1 02 	lds	r25, 0x02C1	; 0x8002c1 <template_cnt>
     6aa:	80 91 06 01 	lds	r24, 0x0106	; 0x800106 <pre_first_tpnum>
     6ae:	98 17       	cp	r25, r24
     6b0:	68 f4       	brcc	.+26     	; 0x6cc <template_del+0xc6>
     6b2:	80 91 c1 02 	lds	r24, 0x02C1	; 0x8002c1 <template_cnt>
     6b6:	86 30       	cpi	r24, 0x06	; 6
     6b8:	20 f4       	brcc	.+8      	; 0x6c2 <template_del+0xbc>
     6ba:	81 e0       	ldi	r24, 0x01	; 1
     6bc:	80 93 06 01 	sts	0x0106, r24	; 0x800106 <pre_first_tpnum>
     6c0:	05 c0       	rjmp	.+10     	; 0x6cc <template_del+0xc6>
     6c2:	80 91 c1 02 	lds	r24, 0x02C1	; 0x8002c1 <template_cnt>
     6c6:	84 50       	subi	r24, 0x04	; 4
     6c8:	80 93 06 01 	sts	0x0106, r24	; 0x800106 <pre_first_tpnum>
     6cc:	80 91 06 01 	lds	r24, 0x0106	; 0x800106 <pre_first_tpnum>
     6d0:	0e 94 04 24 	call	0x4808	; 0x4808 <update_template_page>
     6d4:	19 82       	std	Y+1, r1	; 0x01
     6d6:	17 c0       	rjmp	.+46     	; 0x706 <template_del+0x100>
     6d8:	89 81       	ldd	r24, Y+1	; 0x01
     6da:	88 2f       	mov	r24, r24
     6dc:	90 e0       	ldi	r25, 0x00	; 0
     6de:	88 0f       	add	r24, r24
     6e0:	99 1f       	adc	r25, r25
     6e2:	8d 5c       	subi	r24, 0xCD	; 205
     6e4:	98 4f       	sbci	r25, 0xF8	; 248
     6e6:	fc 01       	movw	r30, r24
     6e8:	20 81       	ld	r18, Z
     6ea:	31 81       	ldd	r19, Z+1	; 0x01
     6ec:	89 81       	ldd	r24, Y+1	; 0x01
     6ee:	88 2f       	mov	r24, r24
     6f0:	90 e0       	ldi	r25, 0x00	; 0
     6f2:	88 53       	subi	r24, 0x38	; 56
     6f4:	9f 4f       	sbci	r25, 0xFF	; 255
     6f6:	88 0f       	add	r24, r24
     6f8:	99 1f       	adc	r25, r25
     6fa:	b9 01       	movw	r22, r18
     6fc:	0e 94 1b 38 	call	0x7036	; 0x7036 <eeprom_write_word>
     700:	89 81       	ldd	r24, Y+1	; 0x01
     702:	8f 5f       	subi	r24, 0xFF	; 255
     704:	89 83       	std	Y+1, r24	; 0x01
     706:	89 81       	ldd	r24, Y+1	; 0x01
     708:	8c 32       	cpi	r24, 0x2C	; 44
     70a:	30 f3       	brcs	.-52     	; 0x6d8 <template_del+0xd2>
     70c:	80 91 c1 02 	lds	r24, 0x02C1	; 0x8002c1 <template_cnt>
     710:	68 2f       	mov	r22, r24
     712:	8f ef       	ldi	r24, 0xFF	; 255
     714:	91 e0       	ldi	r25, 0x01	; 1
     716:	0e 94 0e 38 	call	0x701c	; 0x701c <eeprom_write_byte>
     71a:	00 00       	nop
     71c:	0f 90       	pop	r0
     71e:	0f 90       	pop	r0
     720:	0f 90       	pop	r0
     722:	0f 90       	pop	r0
     724:	df 91       	pop	r29
     726:	cf 91       	pop	r28
     728:	08 95       	ret

0000072a <save_preset_to_template>:
     72a:	cf 93       	push	r28
     72c:	df 93       	push	r29
     72e:	00 d0       	rcall	.+0      	; 0x730 <save_preset_to_template+0x6>
     730:	00 d0       	rcall	.+0      	; 0x732 <save_preset_to_template+0x8>
     732:	00 d0       	rcall	.+0      	; 0x734 <save_preset_to_template+0xa>
     734:	cd b7       	in	r28, 0x3d	; 61
     736:	de b7       	in	r29, 0x3e	; 62
     738:	8e 83       	std	Y+6, r24	; 0x06
     73a:	81 e0       	ldi	r24, 0x01	; 1
     73c:	80 93 c2 02 	sts	0x02C2, r24	; 0x8002c2 <template_tip_msg>
     740:	10 92 1b 09 	sts	0x091B, r1	; 0x80091b <template_structure>
     744:	80 91 c7 02 	lds	r24, 0x02C7	; 0x8002c7 <tp_save_name>
     748:	90 91 c8 02 	lds	r25, 0x02C8	; 0x8002c8 <tp_save_name+0x1>
     74c:	a0 91 c9 02 	lds	r26, 0x02C9	; 0x8002c9 <tp_save_name+0x2>
     750:	b0 91 ca 02 	lds	r27, 0x02CA	; 0x8002ca <tp_save_name+0x3>
     754:	80 93 1c 09 	sts	0x091C, r24	; 0x80091c <template_structure+0x1>
     758:	90 93 1d 09 	sts	0x091D, r25	; 0x80091d <template_structure+0x2>
     75c:	a0 93 1e 09 	sts	0x091E, r26	; 0x80091e <template_structure+0x3>
     760:	b0 93 1f 09 	sts	0x091F, r27	; 0x80091f <template_structure+0x4>
     764:	19 82       	std	Y+1, r1	; 0x01
     766:	2f c0       	rjmp	.+94     	; 0x7c6 <save_preset_to_template+0x9c>
     768:	89 81       	ldd	r24, Y+1	; 0x01
     76a:	08 2e       	mov	r0, r24
     76c:	00 0c       	add	r0, r0
     76e:	99 0b       	sbc	r25, r25
     770:	29 81       	ldd	r18, Y+1	; 0x01
     772:	02 2e       	mov	r0, r18
     774:	00 0c       	add	r0, r0
     776:	33 0b       	sbc	r19, r19
     778:	22 0f       	add	r18, r18
     77a:	33 1f       	adc	r19, r19
     77c:	24 59       	subi	r18, 0x94	; 148
     77e:	34 4f       	sbci	r19, 0xF4	; 244
     780:	f9 01       	movw	r30, r18
     782:	20 81       	ld	r18, Z
     784:	31 81       	ldd	r19, Z+1	; 0x01
     786:	88 0f       	add	r24, r24
     788:	99 1f       	adc	r25, r25
     78a:	80 5e       	subi	r24, 0xE0	; 224
     78c:	96 4f       	sbci	r25, 0xF6	; 246
     78e:	fc 01       	movw	r30, r24
     790:	31 83       	std	Z+1, r19	; 0x01
     792:	20 83       	st	Z, r18
     794:	89 81       	ldd	r24, Y+1	; 0x01
     796:	08 2e       	mov	r0, r24
     798:	00 0c       	add	r0, r0
     79a:	99 0b       	sbc	r25, r25
     79c:	29 81       	ldd	r18, Y+1	; 0x01
     79e:	02 2e       	mov	r0, r18
     7a0:	00 0c       	add	r0, r0
     7a2:	33 0b       	sbc	r19, r19
     7a4:	22 0f       	add	r18, r18
     7a6:	33 1f       	adc	r19, r19
     7a8:	2f 5a       	subi	r18, 0xAF	; 175
     7aa:	3d 4f       	sbci	r19, 0xFD	; 253
     7ac:	f9 01       	movw	r30, r18
     7ae:	20 81       	ld	r18, Z
     7b0:	31 81       	ldd	r19, Z+1	; 0x01
     7b2:	88 0f       	add	r24, r24
     7b4:	99 1f       	adc	r25, r25
     7b6:	80 5b       	subi	r24, 0xB0	; 176
     7b8:	96 4f       	sbci	r25, 0xF6	; 246
     7ba:	fc 01       	movw	r30, r24
     7bc:	31 83       	std	Z+1, r19	; 0x01
     7be:	20 83       	st	Z, r18
     7c0:	89 81       	ldd	r24, Y+1	; 0x01
     7c2:	8f 5f       	subi	r24, 0xFF	; 255
     7c4:	89 83       	std	Y+1, r24	; 0x01
     7c6:	89 81       	ldd	r24, Y+1	; 0x01
     7c8:	88 31       	cpi	r24, 0x18	; 24
     7ca:	74 f2       	brlt	.-100    	; 0x768 <save_preset_to_template+0x3e>
     7cc:	19 82       	std	Y+1, r1	; 0x01
     7ce:	57 c0       	rjmp	.+174    	; 0x87e <save_preset_to_template+0x154>
     7d0:	1a 82       	std	Y+2, r1	; 0x02
     7d2:	4e c0       	rjmp	.+156    	; 0x870 <save_preset_to_template+0x146>
     7d4:	1b 82       	std	Y+3, r1	; 0x03
     7d6:	45 c0       	rjmp	.+138    	; 0x862 <save_preset_to_template+0x138>
     7d8:	89 81       	ldd	r24, Y+1	; 0x01
     7da:	68 2f       	mov	r22, r24
     7dc:	88 0f       	add	r24, r24
     7de:	77 0b       	sbc	r23, r23
     7e0:	8a 81       	ldd	r24, Y+2	; 0x02
     7e2:	48 2f       	mov	r20, r24
     7e4:	88 0f       	add	r24, r24
     7e6:	55 0b       	sbc	r21, r21
     7e8:	8b 81       	ldd	r24, Y+3	; 0x03
     7ea:	08 2e       	mov	r0, r24
     7ec:	00 0c       	add	r0, r0
     7ee:	99 0b       	sbc	r25, r25
     7f0:	29 81       	ldd	r18, Y+1	; 0x01
     7f2:	a2 2f       	mov	r26, r18
     7f4:	22 0f       	add	r18, r18
     7f6:	bb 0b       	sbc	r27, r27
     7f8:	2a 81       	ldd	r18, Y+2	; 0x02
     7fa:	e2 2f       	mov	r30, r18
     7fc:	22 0f       	add	r18, r18
     7fe:	ff 0b       	sbc	r31, r31
     800:	2b 81       	ldd	r18, Y+3	; 0x03
     802:	02 2e       	mov	r0, r18
     804:	00 0c       	add	r0, r0
     806:	33 0b       	sbc	r19, r19
     808:	aa 0f       	add	r26, r26
     80a:	bb 1f       	adc	r27, r27
     80c:	aa 0f       	add	r26, r26
     80e:	bb 1f       	adc	r27, r27
     810:	aa 0f       	add	r26, r26
     812:	bb 1f       	adc	r27, r27
     814:	ea 0f       	add	r30, r26
     816:	fb 1f       	adc	r31, r27
     818:	ee 0f       	add	r30, r30
     81a:	ff 1f       	adc	r31, r31
     81c:	ee 0f       	add	r30, r30
     81e:	ff 1f       	adc	r31, r31
     820:	2e 0f       	add	r18, r30
     822:	3f 1f       	adc	r19, r31
     824:	22 0f       	add	r18, r18
     826:	33 1f       	adc	r19, r19
     828:	25 57       	subi	r18, 0x75	; 117
     82a:	38 4f       	sbci	r19, 0xF8	; 248
     82c:	f9 01       	movw	r30, r18
     82e:	20 81       	ld	r18, Z
     830:	31 81       	ldd	r19, Z+1	; 0x01
     832:	66 0f       	add	r22, r22
     834:	77 1f       	adc	r23, r23
     836:	66 0f       	add	r22, r22
     838:	77 1f       	adc	r23, r23
     83a:	66 0f       	add	r22, r22
     83c:	77 1f       	adc	r23, r23
     83e:	46 0f       	add	r20, r22
     840:	57 1f       	adc	r21, r23
     842:	44 0f       	add	r20, r20
     844:	55 1f       	adc	r21, r21
     846:	44 0f       	add	r20, r20
     848:	55 1f       	adc	r21, r21
     84a:	84 0f       	add	r24, r20
     84c:	95 1f       	adc	r25, r21
     84e:	88 0f       	add	r24, r24
     850:	99 1f       	adc	r25, r25
     852:	80 58       	subi	r24, 0x80	; 128
     854:	96 4f       	sbci	r25, 0xF6	; 246
     856:	fc 01       	movw	r30, r24
     858:	31 83       	std	Z+1, r19	; 0x01
     85a:	20 83       	st	Z, r18
     85c:	8b 81       	ldd	r24, Y+3	; 0x03
     85e:	8f 5f       	subi	r24, 0xFF	; 255
     860:	8b 83       	std	Y+3, r24	; 0x03
     862:	8b 81       	ldd	r24, Y+3	; 0x03
     864:	84 30       	cpi	r24, 0x04	; 4
     866:	0c f4       	brge	.+2      	; 0x86a <save_preset_to_template+0x140>
     868:	b7 cf       	rjmp	.-146    	; 0x7d8 <save_preset_to_template+0xae>
     86a:	8a 81       	ldd	r24, Y+2	; 0x02
     86c:	8f 5f       	subi	r24, 0xFF	; 255
     86e:	8a 83       	std	Y+2, r24	; 0x02
     870:	8a 81       	ldd	r24, Y+2	; 0x02
     872:	88 30       	cpi	r24, 0x08	; 8
     874:	0c f4       	brge	.+2      	; 0x878 <save_preset_to_template+0x14e>
     876:	ae cf       	rjmp	.-164    	; 0x7d4 <save_preset_to_template+0xaa>
     878:	89 81       	ldd	r24, Y+1	; 0x01
     87a:	8f 5f       	subi	r24, 0xFF	; 255
     87c:	89 83       	std	Y+1, r24	; 0x01
     87e:	89 81       	ldd	r24, Y+1	; 0x01
     880:	84 30       	cpi	r24, 0x04	; 4
     882:	0c f4       	brge	.+2      	; 0x886 <save_preset_to_template+0x15c>
     884:	a5 cf       	rjmp	.-182    	; 0x7d0 <save_preset_to_template+0xa6>
     886:	80 91 89 07 	lds	r24, 0x0789	; 0x800789 <template_eeaddr+0x56>
     88a:	90 91 8a 07 	lds	r25, 0x078A	; 0x80078a <template_eeaddr+0x57>
     88e:	9d 83       	std	Y+5, r25	; 0x05
     890:	8c 83       	std	Y+4, r24	; 0x04
     892:	8a e2       	ldi	r24, 0x2A	; 42
     894:	89 83       	std	Y+1, r24	; 0x01
     896:	1a c0       	rjmp	.+52     	; 0x8cc <save_preset_to_template+0x1a2>
     898:	89 81       	ldd	r24, Y+1	; 0x01
     89a:	08 2e       	mov	r0, r24
     89c:	00 0c       	add	r0, r0
     89e:	99 0b       	sbc	r25, r25
     8a0:	01 96       	adiw	r24, 0x01	; 1
     8a2:	29 81       	ldd	r18, Y+1	; 0x01
     8a4:	02 2e       	mov	r0, r18
     8a6:	00 0c       	add	r0, r0
     8a8:	33 0b       	sbc	r19, r19
     8aa:	22 0f       	add	r18, r18
     8ac:	33 1f       	adc	r19, r19
     8ae:	2d 5c       	subi	r18, 0xCD	; 205
     8b0:	38 4f       	sbci	r19, 0xF8	; 248
     8b2:	f9 01       	movw	r30, r18
     8b4:	20 81       	ld	r18, Z
     8b6:	31 81       	ldd	r19, Z+1	; 0x01
     8b8:	88 0f       	add	r24, r24
     8ba:	99 1f       	adc	r25, r25
     8bc:	8d 5c       	subi	r24, 0xCD	; 205
     8be:	98 4f       	sbci	r25, 0xF8	; 248
     8c0:	fc 01       	movw	r30, r24
     8c2:	31 83       	std	Z+1, r19	; 0x01
     8c4:	20 83       	st	Z, r18
     8c6:	89 81       	ldd	r24, Y+1	; 0x01
     8c8:	81 50       	subi	r24, 0x01	; 1
     8ca:	89 83       	std	Y+1, r24	; 0x01
     8cc:	89 81       	ldd	r24, Y+1	; 0x01
     8ce:	88 23       	and	r24, r24
     8d0:	1c f7       	brge	.-58     	; 0x898 <save_preset_to_template+0x16e>
     8d2:	8c 81       	ldd	r24, Y+4	; 0x04
     8d4:	9d 81       	ldd	r25, Y+5	; 0x05
     8d6:	90 93 34 07 	sts	0x0734, r25	; 0x800734 <template_eeaddr+0x1>
     8da:	80 93 33 07 	sts	0x0733, r24	; 0x800733 <template_eeaddr>
     8de:	61 e0       	ldi	r22, 0x01	; 1
     8e0:	8b e1       	ldi	r24, 0x1B	; 27
     8e2:	99 e0       	ldi	r25, 0x09	; 9
     8e4:	0e 94 a5 05 	call	0xb4a	; 0xb4a <write_template_to_eeprom>
     8e8:	81 e0       	ldi	r24, 0x01	; 1
     8ea:	80 93 06 01 	sts	0x0106, r24	; 0x800106 <pre_first_tpnum>
     8ee:	80 91 06 01 	lds	r24, 0x0106	; 0x800106 <pre_first_tpnum>
     8f2:	0e 94 04 24 	call	0x4808	; 0x4808 <update_template_page>
     8f6:	19 82       	std	Y+1, r1	; 0x01
     8f8:	19 c0       	rjmp	.+50     	; 0x92c <save_preset_to_template+0x202>
     8fa:	89 81       	ldd	r24, Y+1	; 0x01
     8fc:	08 2e       	mov	r0, r24
     8fe:	00 0c       	add	r0, r0
     900:	99 0b       	sbc	r25, r25
     902:	88 0f       	add	r24, r24
     904:	99 1f       	adc	r25, r25
     906:	8d 5c       	subi	r24, 0xCD	; 205
     908:	98 4f       	sbci	r25, 0xF8	; 248
     90a:	fc 01       	movw	r30, r24
     90c:	20 81       	ld	r18, Z
     90e:	31 81       	ldd	r19, Z+1	; 0x01
     910:	89 81       	ldd	r24, Y+1	; 0x01
     912:	08 2e       	mov	r0, r24
     914:	00 0c       	add	r0, r0
     916:	99 0b       	sbc	r25, r25
     918:	88 53       	subi	r24, 0x38	; 56
     91a:	9f 4f       	sbci	r25, 0xFF	; 255
     91c:	88 0f       	add	r24, r24
     91e:	99 1f       	adc	r25, r25
     920:	b9 01       	movw	r22, r18
     922:	0e 94 1b 38 	call	0x7036	; 0x7036 <eeprom_write_word>
     926:	89 81       	ldd	r24, Y+1	; 0x01
     928:	8f 5f       	subi	r24, 0xFF	; 255
     92a:	89 83       	std	Y+1, r24	; 0x01
     92c:	89 81       	ldd	r24, Y+1	; 0x01
     92e:	8c 32       	cpi	r24, 0x2C	; 44
     930:	24 f3       	brlt	.-56     	; 0x8fa <save_preset_to_template+0x1d0>
     932:	6e 81       	ldd	r22, Y+6	; 0x06
     934:	8f ef       	ldi	r24, 0xFF	; 255
     936:	91 e0       	ldi	r25, 0x01	; 1
     938:	0e 94 0e 38 	call	0x701c	; 0x701c <eeprom_write_byte>
     93c:	00 00       	nop
     93e:	26 96       	adiw	r28, 0x06	; 6
     940:	0f b6       	in	r0, 0x3f	; 63
     942:	f8 94       	cli
     944:	de bf       	out	0x3e, r29	; 62
     946:	0f be       	out	0x3f, r0	; 63
     948:	cd bf       	out	0x3d, r28	; 61
     94a:	df 91       	pop	r29
     94c:	cf 91       	pop	r28
     94e:	08 95       	ret

00000950 <read_sta_from_eeprom>:

uint8_t read_sta_from_eeprom(uint8_t template_num)
{
     950:	cf 93       	push	r28
     952:	df 93       	push	r29
     954:	00 d0       	rcall	.+0      	; 0x956 <read_sta_from_eeprom+0x6>
     956:	00 d0       	rcall	.+0      	; 0x958 <read_sta_from_eeprom+0x8>
     958:	cd b7       	in	r28, 0x3d	; 61
     95a:	de b7       	in	r29, 0x3e	; 62
     95c:	8c 83       	std	Y+4, r24	; 0x04
	uint8_t sta;
	uint16_t addr;

	addr = template_eeaddr[template_num-1];
     95e:	8c 81       	ldd	r24, Y+4	; 0x04
     960:	88 2f       	mov	r24, r24
     962:	90 e0       	ldi	r25, 0x00	; 0
     964:	01 97       	sbiw	r24, 0x01	; 1
     966:	88 0f       	add	r24, r24
     968:	99 1f       	adc	r25, r25
     96a:	8d 5c       	subi	r24, 0xCD	; 205
     96c:	98 4f       	sbci	r25, 0xF8	; 248
     96e:	fc 01       	movw	r30, r24
     970:	80 81       	ld	r24, Z
     972:	91 81       	ldd	r25, Z+1	; 0x01
     974:	9a 83       	std	Y+2, r25	; 0x02
     976:	89 83       	std	Y+1, r24	; 0x01
	sta = at24c128c_read_byte(addr);
     978:	89 81       	ldd	r24, Y+1	; 0x01
     97a:	9a 81       	ldd	r25, Y+2	; 0x02
     97c:	0e 94 10 07 	call	0xe20	; 0xe20 <at24c128c_read_byte>
     980:	8b 83       	std	Y+3, r24	; 0x03

	return sta;
     982:	8b 81       	ldd	r24, Y+3	; 0x03
}
     984:	0f 90       	pop	r0
     986:	0f 90       	pop	r0
     988:	0f 90       	pop	r0
     98a:	0f 90       	pop	r0
     98c:	df 91       	pop	r29
     98e:	cf 91       	pop	r28
     990:	08 95       	ret

00000992 <write_name_to_eeprom>:

void write_name_to_eeprom(uint8_t template_num, uint32_t name)
{
     992:	cf 93       	push	r28
     994:	df 93       	push	r29
     996:	cd b7       	in	r28, 0x3d	; 61
     998:	de b7       	in	r29, 0x3e	; 62
     99a:	27 97       	sbiw	r28, 0x07	; 7
     99c:	0f b6       	in	r0, 0x3f	; 63
     99e:	f8 94       	cli
     9a0:	de bf       	out	0x3e, r29	; 62
     9a2:	0f be       	out	0x3f, r0	; 63
     9a4:	cd bf       	out	0x3d, r28	; 61
     9a6:	8b 83       	std	Y+3, r24	; 0x03
     9a8:	4c 83       	std	Y+4, r20	; 0x04
     9aa:	5d 83       	std	Y+5, r21	; 0x05
     9ac:	6e 83       	std	Y+6, r22	; 0x06
     9ae:	7f 83       	std	Y+7, r23	; 0x07
	uint16_t addr;
	
	addr = template_eeaddr[template_num-1]+4;
     9b0:	8b 81       	ldd	r24, Y+3	; 0x03
     9b2:	88 2f       	mov	r24, r24
     9b4:	90 e0       	ldi	r25, 0x00	; 0
     9b6:	01 97       	sbiw	r24, 0x01	; 1
     9b8:	88 0f       	add	r24, r24
     9ba:	99 1f       	adc	r25, r25
     9bc:	8d 5c       	subi	r24, 0xCD	; 205
     9be:	98 4f       	sbci	r25, 0xF8	; 248
     9c0:	fc 01       	movw	r30, r24
     9c2:	80 81       	ld	r24, Z
     9c4:	91 81       	ldd	r25, Z+1	; 0x01
     9c6:	04 96       	adiw	r24, 0x04	; 4
     9c8:	9a 83       	std	Y+2, r25	; 0x02
     9ca:	89 83       	std	Y+1, r24	; 0x01
	
	at24c128c_write_byte(addr, name>>24);
     9cc:	8c 81       	ldd	r24, Y+4	; 0x04
     9ce:	9d 81       	ldd	r25, Y+5	; 0x05
     9d0:	ae 81       	ldd	r26, Y+6	; 0x06
     9d2:	bf 81       	ldd	r27, Y+7	; 0x07
     9d4:	8b 2f       	mov	r24, r27
     9d6:	99 27       	eor	r25, r25
     9d8:	aa 27       	eor	r26, r26
     9da:	bb 27       	eor	r27, r27
     9dc:	28 2f       	mov	r18, r24
     9de:	89 81       	ldd	r24, Y+1	; 0x01
     9e0:	9a 81       	ldd	r25, Y+2	; 0x02
     9e2:	62 2f       	mov	r22, r18
     9e4:	0e 94 2d 06 	call	0xc5a	; 0xc5a <at24c128c_write_byte>
	at24c128c_write_byte(addr-1, name>>16);
     9e8:	8c 81       	ldd	r24, Y+4	; 0x04
     9ea:	9d 81       	ldd	r25, Y+5	; 0x05
     9ec:	ae 81       	ldd	r26, Y+6	; 0x06
     9ee:	bf 81       	ldd	r27, Y+7	; 0x07
     9f0:	cd 01       	movw	r24, r26
     9f2:	aa 27       	eor	r26, r26
     9f4:	bb 27       	eor	r27, r27
     9f6:	28 2f       	mov	r18, r24
     9f8:	89 81       	ldd	r24, Y+1	; 0x01
     9fa:	9a 81       	ldd	r25, Y+2	; 0x02
     9fc:	01 97       	sbiw	r24, 0x01	; 1
     9fe:	62 2f       	mov	r22, r18
     a00:	0e 94 2d 06 	call	0xc5a	; 0xc5a <at24c128c_write_byte>
	at24c128c_write_byte(addr-2, name>>8);
     a04:	8c 81       	ldd	r24, Y+4	; 0x04
     a06:	9d 81       	ldd	r25, Y+5	; 0x05
     a08:	ae 81       	ldd	r26, Y+6	; 0x06
     a0a:	bf 81       	ldd	r27, Y+7	; 0x07
     a0c:	89 2f       	mov	r24, r25
     a0e:	9a 2f       	mov	r25, r26
     a10:	ab 2f       	mov	r26, r27
     a12:	bb 27       	eor	r27, r27
     a14:	28 2f       	mov	r18, r24
     a16:	89 81       	ldd	r24, Y+1	; 0x01
     a18:	9a 81       	ldd	r25, Y+2	; 0x02
     a1a:	02 97       	sbiw	r24, 0x02	; 2
     a1c:	62 2f       	mov	r22, r18
     a1e:	0e 94 2d 06 	call	0xc5a	; 0xc5a <at24c128c_write_byte>
	at24c128c_write_byte(addr-3, name);
     a22:	2c 81       	ldd	r18, Y+4	; 0x04
     a24:	89 81       	ldd	r24, Y+1	; 0x01
     a26:	9a 81       	ldd	r25, Y+2	; 0x02
     a28:	03 97       	sbiw	r24, 0x03	; 3
     a2a:	62 2f       	mov	r22, r18
     a2c:	0e 94 2d 06 	call	0xc5a	; 0xc5a <at24c128c_write_byte>
}
     a30:	00 00       	nop
     a32:	27 96       	adiw	r28, 0x07	; 7
     a34:	0f b6       	in	r0, 0x3f	; 63
     a36:	f8 94       	cli
     a38:	de bf       	out	0x3e, r29	; 62
     a3a:	0f be       	out	0x3f, r0	; 63
     a3c:	cd bf       	out	0x3d, r28	; 61
     a3e:	df 91       	pop	r29
     a40:	cf 91       	pop	r28
     a42:	08 95       	ret

00000a44 <read_name_from_eeprom>:

uint32_t read_name_from_eeprom(uint8_t template_num)
{
     a44:	cf 92       	push	r12
     a46:	df 92       	push	r13
     a48:	ef 92       	push	r14
     a4a:	ff 92       	push	r15
     a4c:	cf 93       	push	r28
     a4e:	df 93       	push	r29
     a50:	cd b7       	in	r28, 0x3d	; 61
     a52:	de b7       	in	r29, 0x3e	; 62
     a54:	27 97       	sbiw	r28, 0x07	; 7
     a56:	0f b6       	in	r0, 0x3f	; 63
     a58:	f8 94       	cli
     a5a:	de bf       	out	0x3e, r29	; 62
     a5c:	0f be       	out	0x3f, r0	; 63
     a5e:	cd bf       	out	0x3d, r28	; 61
     a60:	8f 83       	std	Y+7, r24	; 0x07
	uint16_t addr;
	uint32_t name;

	addr = template_eeaddr[template_num-1] + 4;
     a62:	8f 81       	ldd	r24, Y+7	; 0x07
     a64:	88 2f       	mov	r24, r24
     a66:	90 e0       	ldi	r25, 0x00	; 0
     a68:	01 97       	sbiw	r24, 0x01	; 1
     a6a:	88 0f       	add	r24, r24
     a6c:	99 1f       	adc	r25, r25
     a6e:	8d 5c       	subi	r24, 0xCD	; 205
     a70:	98 4f       	sbci	r25, 0xF8	; 248
     a72:	fc 01       	movw	r30, r24
     a74:	80 81       	ld	r24, Z
     a76:	91 81       	ldd	r25, Z+1	; 0x01
     a78:	04 96       	adiw	r24, 0x04	; 4
     a7a:	9a 83       	std	Y+2, r25	; 0x02
     a7c:	89 83       	std	Y+1, r24	; 0x01

	name = at24c128c_read_byte(addr);
     a7e:	89 81       	ldd	r24, Y+1	; 0x01
     a80:	9a 81       	ldd	r25, Y+2	; 0x02
     a82:	0e 94 10 07 	call	0xe20	; 0xe20 <at24c128c_read_byte>
     a86:	cc 01       	movw	r24, r24
     a88:	a0 e0       	ldi	r26, 0x00	; 0
     a8a:	b0 e0       	ldi	r27, 0x00	; 0
     a8c:	8b 83       	std	Y+3, r24	; 0x03
     a8e:	9c 83       	std	Y+4, r25	; 0x04
     a90:	ad 83       	std	Y+5, r26	; 0x05
     a92:	be 83       	std	Y+6, r27	; 0x06
	name = name << 8 | at24c128c_read_byte(addr - 1);
     a94:	8b 81       	ldd	r24, Y+3	; 0x03
     a96:	9c 81       	ldd	r25, Y+4	; 0x04
     a98:	ad 81       	ldd	r26, Y+5	; 0x05
     a9a:	be 81       	ldd	r27, Y+6	; 0x06
     a9c:	cc 24       	eor	r12, r12
     a9e:	d8 2e       	mov	r13, r24
     aa0:	e9 2e       	mov	r14, r25
     aa2:	fa 2e       	mov	r15, r26
     aa4:	89 81       	ldd	r24, Y+1	; 0x01
     aa6:	9a 81       	ldd	r25, Y+2	; 0x02
     aa8:	01 97       	sbiw	r24, 0x01	; 1
     aaa:	0e 94 10 07 	call	0xe20	; 0xe20 <at24c128c_read_byte>
     aae:	cc 01       	movw	r24, r24
     ab0:	a0 e0       	ldi	r26, 0x00	; 0
     ab2:	b0 e0       	ldi	r27, 0x00	; 0
     ab4:	8c 29       	or	r24, r12
     ab6:	9d 29       	or	r25, r13
     ab8:	ae 29       	or	r26, r14
     aba:	bf 29       	or	r27, r15
     abc:	8b 83       	std	Y+3, r24	; 0x03
     abe:	9c 83       	std	Y+4, r25	; 0x04
     ac0:	ad 83       	std	Y+5, r26	; 0x05
     ac2:	be 83       	std	Y+6, r27	; 0x06
	name = name << 8 | at24c128c_read_byte(addr - 2);
     ac4:	8b 81       	ldd	r24, Y+3	; 0x03
     ac6:	9c 81       	ldd	r25, Y+4	; 0x04
     ac8:	ad 81       	ldd	r26, Y+5	; 0x05
     aca:	be 81       	ldd	r27, Y+6	; 0x06
     acc:	cc 24       	eor	r12, r12
     ace:	d8 2e       	mov	r13, r24
     ad0:	e9 2e       	mov	r14, r25
     ad2:	fa 2e       	mov	r15, r26
     ad4:	89 81       	ldd	r24, Y+1	; 0x01
     ad6:	9a 81       	ldd	r25, Y+2	; 0x02
     ad8:	02 97       	sbiw	r24, 0x02	; 2
     ada:	0e 94 10 07 	call	0xe20	; 0xe20 <at24c128c_read_byte>
     ade:	cc 01       	movw	r24, r24
     ae0:	a0 e0       	ldi	r26, 0x00	; 0
     ae2:	b0 e0       	ldi	r27, 0x00	; 0
     ae4:	8c 29       	or	r24, r12
     ae6:	9d 29       	or	r25, r13
     ae8:	ae 29       	or	r26, r14
     aea:	bf 29       	or	r27, r15
     aec:	8b 83       	std	Y+3, r24	; 0x03
     aee:	9c 83       	std	Y+4, r25	; 0x04
     af0:	ad 83       	std	Y+5, r26	; 0x05
     af2:	be 83       	std	Y+6, r27	; 0x06
	name = name << 8 | at24c128c_read_byte(addr - 3);
     af4:	8b 81       	ldd	r24, Y+3	; 0x03
     af6:	9c 81       	ldd	r25, Y+4	; 0x04
     af8:	ad 81       	ldd	r26, Y+5	; 0x05
     afa:	be 81       	ldd	r27, Y+6	; 0x06
     afc:	cc 24       	eor	r12, r12
     afe:	d8 2e       	mov	r13, r24
     b00:	e9 2e       	mov	r14, r25
     b02:	fa 2e       	mov	r15, r26
     b04:	89 81       	ldd	r24, Y+1	; 0x01
     b06:	9a 81       	ldd	r25, Y+2	; 0x02
     b08:	03 97       	sbiw	r24, 0x03	; 3
     b0a:	0e 94 10 07 	call	0xe20	; 0xe20 <at24c128c_read_byte>
     b0e:	cc 01       	movw	r24, r24
     b10:	a0 e0       	ldi	r26, 0x00	; 0
     b12:	b0 e0       	ldi	r27, 0x00	; 0
     b14:	8c 29       	or	r24, r12
     b16:	9d 29       	or	r25, r13
     b18:	ae 29       	or	r26, r14
     b1a:	bf 29       	or	r27, r15
     b1c:	8b 83       	std	Y+3, r24	; 0x03
     b1e:	9c 83       	std	Y+4, r25	; 0x04
     b20:	ad 83       	std	Y+5, r26	; 0x05
     b22:	be 83       	std	Y+6, r27	; 0x06

	return name;
     b24:	8b 81       	ldd	r24, Y+3	; 0x03
     b26:	9c 81       	ldd	r25, Y+4	; 0x04
     b28:	ad 81       	ldd	r26, Y+5	; 0x05
     b2a:	be 81       	ldd	r27, Y+6	; 0x06
}
     b2c:	bc 01       	movw	r22, r24
     b2e:	cd 01       	movw	r24, r26
     b30:	27 96       	adiw	r28, 0x07	; 7
     b32:	0f b6       	in	r0, 0x3f	; 63
     b34:	f8 94       	cli
     b36:	de bf       	out	0x3e, r29	; 62
     b38:	0f be       	out	0x3f, r0	; 63
     b3a:	cd bf       	out	0x3d, r28	; 61
     b3c:	df 91       	pop	r29
     b3e:	cf 91       	pop	r28
     b40:	ff 90       	pop	r15
     b42:	ef 90       	pop	r14
     b44:	df 90       	pop	r13
     b46:	cf 90       	pop	r12
     b48:	08 95       	ret

00000b4a <write_template_to_eeprom>:

void write_template_to_eeprom(uint8_t *template_point, uint8_t template_num)
{
     b4a:	cf 93       	push	r28
     b4c:	df 93       	push	r29
     b4e:	cd b7       	in	r28, 0x3d	; 61
     b50:	de b7       	in	r29, 0x3e	; 62
     b52:	27 97       	sbiw	r28, 0x07	; 7
     b54:	0f b6       	in	r0, 0x3f	; 63
     b56:	f8 94       	cli
     b58:	de bf       	out	0x3e, r29	; 62
     b5a:	0f be       	out	0x3f, r0	; 63
     b5c:	cd bf       	out	0x3d, r28	; 61
     b5e:	9e 83       	std	Y+6, r25	; 0x06
     b60:	8d 83       	std	Y+5, r24	; 0x05
     b62:	6f 83       	std	Y+7, r22	; 0x07
	uint16_t i;

	uint16_t ee_begin_addr = template_eeaddr[template_num-1];
     b64:	8f 81       	ldd	r24, Y+7	; 0x07
     b66:	88 2f       	mov	r24, r24
     b68:	90 e0       	ldi	r25, 0x00	; 0
     b6a:	01 97       	sbiw	r24, 0x01	; 1
     b6c:	88 0f       	add	r24, r24
     b6e:	99 1f       	adc	r25, r25
     b70:	8d 5c       	subi	r24, 0xCD	; 205
     b72:	98 4f       	sbci	r25, 0xF8	; 248
     b74:	fc 01       	movw	r30, r24
     b76:	80 81       	ld	r24, Z
     b78:	91 81       	ldd	r25, Z+1	; 0x01
     b7a:	9c 83       	std	Y+4, r25	; 0x04
     b7c:	8b 83       	std	Y+3, r24	; 0x03
	//	uint16_t ee_end_addr = (template_num - 1) * TEMPLATE_SIZE + TEMPLATE_SIZE - 1;

	for (i = 0; i < TEMPLATE_SIZE; i++)
     b7e:	1a 82       	std	Y+2, r1	; 0x02
     b80:	19 82       	std	Y+1, r1	; 0x01
     b82:	16 c0       	rjmp	.+44     	; 0xbb0 <write_template_to_eeprom+0x66>
	{
		at24c128c_write_byte(i + ee_begin_addr, *(template_point + i));
     b84:	2d 81       	ldd	r18, Y+5	; 0x05
     b86:	3e 81       	ldd	r19, Y+6	; 0x06
     b88:	89 81       	ldd	r24, Y+1	; 0x01
     b8a:	9a 81       	ldd	r25, Y+2	; 0x02
     b8c:	82 0f       	add	r24, r18
     b8e:	93 1f       	adc	r25, r19
     b90:	fc 01       	movw	r30, r24
     b92:	40 81       	ld	r20, Z
     b94:	29 81       	ldd	r18, Y+1	; 0x01
     b96:	3a 81       	ldd	r19, Y+2	; 0x02
     b98:	8b 81       	ldd	r24, Y+3	; 0x03
     b9a:	9c 81       	ldd	r25, Y+4	; 0x04
     b9c:	82 0f       	add	r24, r18
     b9e:	93 1f       	adc	r25, r19
     ba0:	64 2f       	mov	r22, r20
     ba2:	0e 94 2d 06 	call	0xc5a	; 0xc5a <at24c128c_write_byte>
	uint16_t i;

	uint16_t ee_begin_addr = template_eeaddr[template_num-1];
	//	uint16_t ee_end_addr = (template_num - 1) * TEMPLATE_SIZE + TEMPLATE_SIZE - 1;

	for (i = 0; i < TEMPLATE_SIZE; i++)
     ba6:	89 81       	ldd	r24, Y+1	; 0x01
     ba8:	9a 81       	ldd	r25, Y+2	; 0x02
     baa:	01 96       	adiw	r24, 0x01	; 1
     bac:	9a 83       	std	Y+2, r25	; 0x02
     bae:	89 83       	std	Y+1, r24	; 0x01
     bb0:	89 81       	ldd	r24, Y+1	; 0x01
     bb2:	9a 81       	ldd	r25, Y+2	; 0x02
     bb4:	85 36       	cpi	r24, 0x65	; 101
     bb6:	91 40       	sbci	r25, 0x01	; 1
     bb8:	28 f3       	brcs	.-54     	; 0xb84 <write_template_to_eeprom+0x3a>
	{
		at24c128c_write_byte(i + ee_begin_addr, *(template_point + i));
	}
}
     bba:	00 00       	nop
     bbc:	27 96       	adiw	r28, 0x07	; 7
     bbe:	0f b6       	in	r0, 0x3f	; 63
     bc0:	f8 94       	cli
     bc2:	de bf       	out	0x3e, r29	; 62
     bc4:	0f be       	out	0x3f, r0	; 63
     bc6:	cd bf       	out	0x3d, r28	; 61
     bc8:	df 91       	pop	r29
     bca:	cf 91       	pop	r28
     bcc:	08 95       	ret

00000bce <read_template_from_eeprom>:

void read_template_from_eeprom(uint8_t *template_point, uint8_t template_num)
{
     bce:	0f 93       	push	r16
     bd0:	1f 93       	push	r17
     bd2:	cf 93       	push	r28
     bd4:	df 93       	push	r29
     bd6:	cd b7       	in	r28, 0x3d	; 61
     bd8:	de b7       	in	r29, 0x3e	; 62
     bda:	27 97       	sbiw	r28, 0x07	; 7
     bdc:	0f b6       	in	r0, 0x3f	; 63
     bde:	f8 94       	cli
     be0:	de bf       	out	0x3e, r29	; 62
     be2:	0f be       	out	0x3f, r0	; 63
     be4:	cd bf       	out	0x3d, r28	; 61
     be6:	9e 83       	std	Y+6, r25	; 0x06
     be8:	8d 83       	std	Y+5, r24	; 0x05
     bea:	6f 83       	std	Y+7, r22	; 0x07
	uint16_t i;

	uint16_t ee_begin_addr = template_eeaddr[template_num-1];
     bec:	8f 81       	ldd	r24, Y+7	; 0x07
     bee:	88 2f       	mov	r24, r24
     bf0:	90 e0       	ldi	r25, 0x00	; 0
     bf2:	01 97       	sbiw	r24, 0x01	; 1
     bf4:	88 0f       	add	r24, r24
     bf6:	99 1f       	adc	r25, r25
     bf8:	8d 5c       	subi	r24, 0xCD	; 205
     bfa:	98 4f       	sbci	r25, 0xF8	; 248
     bfc:	fc 01       	movw	r30, r24
     bfe:	80 81       	ld	r24, Z
     c00:	91 81       	ldd	r25, Z+1	; 0x01
     c02:	9c 83       	std	Y+4, r25	; 0x04
     c04:	8b 83       	std	Y+3, r24	; 0x03

	for (i = 0; i < TEMPLATE_SIZE; i++)
     c06:	1a 82       	std	Y+2, r1	; 0x02
     c08:	19 82       	std	Y+1, r1	; 0x01
     c0a:	16 c0       	rjmp	.+44     	; 0xc38 <read_template_from_eeprom+0x6a>
	{
		*(template_point + i) = at24c128c_read_byte(i + ee_begin_addr);
     c0c:	2d 81       	ldd	r18, Y+5	; 0x05
     c0e:	3e 81       	ldd	r19, Y+6	; 0x06
     c10:	89 81       	ldd	r24, Y+1	; 0x01
     c12:	9a 81       	ldd	r25, Y+2	; 0x02
     c14:	89 01       	movw	r16, r18
     c16:	08 0f       	add	r16, r24
     c18:	19 1f       	adc	r17, r25
     c1a:	29 81       	ldd	r18, Y+1	; 0x01
     c1c:	3a 81       	ldd	r19, Y+2	; 0x02
     c1e:	8b 81       	ldd	r24, Y+3	; 0x03
     c20:	9c 81       	ldd	r25, Y+4	; 0x04
     c22:	82 0f       	add	r24, r18
     c24:	93 1f       	adc	r25, r19
     c26:	0e 94 10 07 	call	0xe20	; 0xe20 <at24c128c_read_byte>
     c2a:	f8 01       	movw	r30, r16
     c2c:	80 83       	st	Z, r24
{
	uint16_t i;

	uint16_t ee_begin_addr = template_eeaddr[template_num-1];

	for (i = 0; i < TEMPLATE_SIZE; i++)
     c2e:	89 81       	ldd	r24, Y+1	; 0x01
     c30:	9a 81       	ldd	r25, Y+2	; 0x02
     c32:	01 96       	adiw	r24, 0x01	; 1
     c34:	9a 83       	std	Y+2, r25	; 0x02
     c36:	89 83       	std	Y+1, r24	; 0x01
     c38:	89 81       	ldd	r24, Y+1	; 0x01
     c3a:	9a 81       	ldd	r25, Y+2	; 0x02
     c3c:	85 36       	cpi	r24, 0x65	; 101
     c3e:	91 40       	sbci	r25, 0x01	; 1
     c40:	28 f3       	brcs	.-54     	; 0xc0c <read_template_from_eeprom+0x3e>
	{
		*(template_point + i) = at24c128c_read_byte(i + ee_begin_addr);
	}
}
     c42:	00 00       	nop
     c44:	27 96       	adiw	r28, 0x07	; 7
     c46:	0f b6       	in	r0, 0x3f	; 63
     c48:	f8 94       	cli
     c4a:	de bf       	out	0x3e, r29	; 62
     c4c:	0f be       	out	0x3f, r0	; 63
     c4e:	cd bf       	out	0x3d, r28	; 61
     c50:	df 91       	pop	r29
     c52:	cf 91       	pop	r28
     c54:	1f 91       	pop	r17
     c56:	0f 91       	pop	r16
     c58:	08 95       	ret

00000c5a <at24c128c_write_byte>:

/*at24c128c 0 1*/
uint8_t at24c128c_write_byte(uint16_t addr, uint8_t data)
{
     c5a:	cf 93       	push	r28
     c5c:	df 93       	push	r29
     c5e:	cd b7       	in	r28, 0x3d	; 61
     c60:	de b7       	in	r29, 0x3e	; 62
     c62:	64 97       	sbiw	r28, 0x14	; 20
     c64:	0f b6       	in	r0, 0x3f	; 63
     c66:	f8 94       	cli
     c68:	de bf       	out	0x3e, r29	; 62
     c6a:	0f be       	out	0x3f, r0	; 63
     c6c:	cd bf       	out	0x3d, r28	; 61
     c6e:	9b 8b       	std	Y+19, r25	; 0x13
     c70:	8a 8b       	std	Y+18, r24	; 0x12
     c72:	6c 8b       	std	Y+20, r22	; 0x14
	uint8_t addr_h, addr_l;
	uint8_t cnt = 0;
     c74:	19 82       	std	Y+1, r1	; 0x01

	addr_h = addr >> 8;
     c76:	8a 89       	ldd	r24, Y+18	; 0x12
     c78:	9b 89       	ldd	r25, Y+19	; 0x13
     c7a:	89 2f       	mov	r24, r25
     c7c:	99 27       	eor	r25, r25
     c7e:	8a 83       	std	Y+2, r24	; 0x02
	addr_l = addr;
     c80:	8a 89       	ldd	r24, Y+18	; 0x12
     c82:	8b 83       	std	Y+3, r24	; 0x03

	while (!twi_start())
     c84:	0a c0       	rjmp	.+20     	; 0xc9a <at24c128c_write_byte+0x40>
	{
		if (++cnt >= 5)
     c86:	89 81       	ldd	r24, Y+1	; 0x01
     c88:	8f 5f       	subi	r24, 0xFF	; 255
     c8a:	89 83       	std	Y+1, r24	; 0x01
     c8c:	89 81       	ldd	r24, Y+1	; 0x01
     c8e:	85 30       	cpi	r24, 0x05	; 5
     c90:	20 f0       	brcs	.+8      	; 0xc9a <at24c128c_write_byte+0x40>
		{
			twi_stop();
     c92:	0e 94 6c 2d 	call	0x5ad8	; 0x5ad8 <twi_stop>
			return 0;
     c96:	80 e0       	ldi	r24, 0x00	; 0
     c98:	ba c0       	rjmp	.+372    	; 0xe0e <at24c128c_write_byte+0x1b4>
	uint8_t cnt = 0;

	addr_h = addr >> 8;
	addr_l = addr;

	while (!twi_start())
     c9a:	0e 94 37 2d 	call	0x5a6e	; 0x5a6e <twi_start>
     c9e:	88 23       	and	r24, r24
     ca0:	91 f3       	breq	.-28     	; 0xc86 <at24c128c_write_byte+0x2c>
			twi_stop();
			return 0;
		}
	}

	while (!twi_adrsing(AT24C128C_ADDR, WRITE))
     ca2:	0a c0       	rjmp	.+20     	; 0xcb8 <at24c128c_write_byte+0x5e>
	{
		if (++cnt >= 5)
     ca4:	89 81       	ldd	r24, Y+1	; 0x01
     ca6:	8f 5f       	subi	r24, 0xFF	; 255
     ca8:	89 83       	std	Y+1, r24	; 0x01
     caa:	89 81       	ldd	r24, Y+1	; 0x01
     cac:	85 30       	cpi	r24, 0x05	; 5
     cae:	20 f0       	brcs	.+8      	; 0xcb8 <at24c128c_write_byte+0x5e>
		{
			twi_stop();
     cb0:	0e 94 6c 2d 	call	0x5ad8	; 0x5ad8 <twi_stop>
			return 0;
     cb4:	80 e0       	ldi	r24, 0x00	; 0
     cb6:	ab c0       	rjmp	.+342    	; 0xe0e <at24c128c_write_byte+0x1b4>
			twi_stop();
			return 0;
		}
	}

	while (!twi_adrsing(AT24C128C_ADDR, WRITE))
     cb8:	60 e0       	ldi	r22, 0x00	; 0
     cba:	80 e5       	ldi	r24, 0x50	; 80
     cbc:	0e 94 79 2d 	call	0x5af2	; 0x5af2 <twi_adrsing>
     cc0:	88 23       	and	r24, r24
     cc2:	81 f3       	breq	.-32     	; 0xca4 <at24c128c_write_byte+0x4a>
			twi_stop();
			return 0;
		}
	}

	while (!twi_write_byte(addr_h))
     cc4:	0a c0       	rjmp	.+20     	; 0xcda <at24c128c_write_byte+0x80>
	{
		if (++cnt >= 5)
     cc6:	89 81       	ldd	r24, Y+1	; 0x01
     cc8:	8f 5f       	subi	r24, 0xFF	; 255
     cca:	89 83       	std	Y+1, r24	; 0x01
     ccc:	89 81       	ldd	r24, Y+1	; 0x01
     cce:	85 30       	cpi	r24, 0x05	; 5
     cd0:	20 f0       	brcs	.+8      	; 0xcda <at24c128c_write_byte+0x80>
		{
			twi_stop();
     cd2:	0e 94 6c 2d 	call	0x5ad8	; 0x5ad8 <twi_stop>
			return 0;
     cd6:	80 e0       	ldi	r24, 0x00	; 0
     cd8:	9a c0       	rjmp	.+308    	; 0xe0e <at24c128c_write_byte+0x1b4>
			twi_stop();
			return 0;
		}
	}

	while (!twi_write_byte(addr_h))
     cda:	8a 81       	ldd	r24, Y+2	; 0x02
     cdc:	0e 94 c3 2d 	call	0x5b86	; 0x5b86 <twi_write_byte>
     ce0:	88 23       	and	r24, r24
     ce2:	89 f3       	breq	.-30     	; 0xcc6 <at24c128c_write_byte+0x6c>
			twi_stop();
			return 0;
		}
	}

	while (!twi_write_byte(addr_l))
     ce4:	0a c0       	rjmp	.+20     	; 0xcfa <at24c128c_write_byte+0xa0>
	{
		if (++cnt >= 5)
     ce6:	89 81       	ldd	r24, Y+1	; 0x01
     ce8:	8f 5f       	subi	r24, 0xFF	; 255
     cea:	89 83       	std	Y+1, r24	; 0x01
     cec:	89 81       	ldd	r24, Y+1	; 0x01
     cee:	85 30       	cpi	r24, 0x05	; 5
     cf0:	20 f0       	brcs	.+8      	; 0xcfa <at24c128c_write_byte+0xa0>
		{
			twi_stop();
     cf2:	0e 94 6c 2d 	call	0x5ad8	; 0x5ad8 <twi_stop>
			return 0;
     cf6:	80 e0       	ldi	r24, 0x00	; 0
     cf8:	8a c0       	rjmp	.+276    	; 0xe0e <at24c128c_write_byte+0x1b4>
			twi_stop();
			return 0;
		}
	}

	while (!twi_write_byte(addr_l))
     cfa:	8b 81       	ldd	r24, Y+3	; 0x03
     cfc:	0e 94 c3 2d 	call	0x5b86	; 0x5b86 <twi_write_byte>
     d00:	88 23       	and	r24, r24
     d02:	89 f3       	breq	.-30     	; 0xce6 <at24c128c_write_byte+0x8c>
			twi_stop();
			return 0;
		}
	}

	while (!twi_write_byte(data))
     d04:	0a c0       	rjmp	.+20     	; 0xd1a <at24c128c_write_byte+0xc0>
	{
		if (++cnt >= 5)
     d06:	89 81       	ldd	r24, Y+1	; 0x01
     d08:	8f 5f       	subi	r24, 0xFF	; 255
     d0a:	89 83       	std	Y+1, r24	; 0x01
     d0c:	89 81       	ldd	r24, Y+1	; 0x01
     d0e:	85 30       	cpi	r24, 0x05	; 5
     d10:	20 f0       	brcs	.+8      	; 0xd1a <at24c128c_write_byte+0xc0>
		{
			twi_stop();
     d12:	0e 94 6c 2d 	call	0x5ad8	; 0x5ad8 <twi_stop>
			return 0;
     d16:	80 e0       	ldi	r24, 0x00	; 0
     d18:	7a c0       	rjmp	.+244    	; 0xe0e <at24c128c_write_byte+0x1b4>
			twi_stop();
			return 0;
		}
	}

	while (!twi_write_byte(data))
     d1a:	8c 89       	ldd	r24, Y+20	; 0x14
     d1c:	0e 94 c3 2d 	call	0x5b86	; 0x5b86 <twi_write_byte>
     d20:	88 23       	and	r24, r24
     d22:	89 f3       	breq	.-30     	; 0xd06 <at24c128c_write_byte+0xac>
			twi_stop();
			return 0;
		}
	}

	twi_stop();
     d24:	0e 94 6c 2d 	call	0x5ad8	; 0x5ad8 <twi_stop>
     d28:	80 e0       	ldi	r24, 0x00	; 0
     d2a:	90 e0       	ldi	r25, 0x00	; 0
     d2c:	a0 e0       	ldi	r26, 0x00	; 0
     d2e:	b0 e4       	ldi	r27, 0x40	; 64
     d30:	8c 83       	std	Y+4, r24	; 0x04
     d32:	9d 83       	std	Y+5, r25	; 0x05
     d34:	ae 83       	std	Y+6, r26	; 0x06
     d36:	bf 83       	std	Y+7, r27	; 0x07

	__builtin_avr_delay_cycles(__ticks_dc);

#else
	uint16_t __ticks;
	__tmp = ((F_CPU) / 4e3) * __ms;
     d38:	20 e0       	ldi	r18, 0x00	; 0
     d3a:	30 e0       	ldi	r19, 0x00	; 0
     d3c:	4a e7       	ldi	r20, 0x7A	; 122
     d3e:	55 e4       	ldi	r21, 0x45	; 69
     d40:	6c 81       	ldd	r22, Y+4	; 0x04
     d42:	7d 81       	ldd	r23, Y+5	; 0x05
     d44:	8e 81       	ldd	r24, Y+6	; 0x06
     d46:	9f 81       	ldd	r25, Y+7	; 0x07
     d48:	0e 94 0c 37 	call	0x6e18	; 0x6e18 <__mulsf3>
     d4c:	dc 01       	movw	r26, r24
     d4e:	cb 01       	movw	r24, r22
     d50:	88 87       	std	Y+8, r24	; 0x08
     d52:	99 87       	std	Y+9, r25	; 0x09
     d54:	aa 87       	std	Y+10, r26	; 0x0a
     d56:	bb 87       	std	Y+11, r27	; 0x0b
	if (__tmp < 1.0)
     d58:	20 e0       	ldi	r18, 0x00	; 0
     d5a:	30 e0       	ldi	r19, 0x00	; 0
     d5c:	40 e8       	ldi	r20, 0x80	; 128
     d5e:	5f e3       	ldi	r21, 0x3F	; 63
     d60:	68 85       	ldd	r22, Y+8	; 0x08
     d62:	79 85       	ldd	r23, Y+9	; 0x09
     d64:	8a 85       	ldd	r24, Y+10	; 0x0a
     d66:	9b 85       	ldd	r25, Y+11	; 0x0b
     d68:	0e 94 86 36 	call	0x6d0c	; 0x6d0c <__cmpsf2>
     d6c:	88 23       	and	r24, r24
     d6e:	2c f4       	brge	.+10     	; 0xd7a <at24c128c_write_byte+0x120>
		__ticks = 1;
     d70:	81 e0       	ldi	r24, 0x01	; 1
     d72:	90 e0       	ldi	r25, 0x00	; 0
     d74:	9d 87       	std	Y+13, r25	; 0x0d
     d76:	8c 87       	std	Y+12, r24	; 0x0c
     d78:	3f c0       	rjmp	.+126    	; 0xdf8 <at24c128c_write_byte+0x19e>
	else if (__tmp > 65535)
     d7a:	20 e0       	ldi	r18, 0x00	; 0
     d7c:	3f ef       	ldi	r19, 0xFF	; 255
     d7e:	4f e7       	ldi	r20, 0x7F	; 127
     d80:	57 e4       	ldi	r21, 0x47	; 71
     d82:	68 85       	ldd	r22, Y+8	; 0x08
     d84:	79 85       	ldd	r23, Y+9	; 0x09
     d86:	8a 85       	ldd	r24, Y+10	; 0x0a
     d88:	9b 85       	ldd	r25, Y+11	; 0x0b
     d8a:	0e 94 07 37 	call	0x6e0e	; 0x6e0e <__gesf2>
     d8e:	18 16       	cp	r1, r24
     d90:	4c f5       	brge	.+82     	; 0xde4 <at24c128c_write_byte+0x18a>
	{
		//	__ticks = requested delay in 1/10 ms
		__ticks = (uint16_t) (__ms * 10.0);
     d92:	20 e0       	ldi	r18, 0x00	; 0
     d94:	30 e0       	ldi	r19, 0x00	; 0
     d96:	40 e2       	ldi	r20, 0x20	; 32
     d98:	51 e4       	ldi	r21, 0x41	; 65
     d9a:	6c 81       	ldd	r22, Y+4	; 0x04
     d9c:	7d 81       	ldd	r23, Y+5	; 0x05
     d9e:	8e 81       	ldd	r24, Y+6	; 0x06
     da0:	9f 81       	ldd	r25, Y+7	; 0x07
     da2:	0e 94 0c 37 	call	0x6e18	; 0x6e18 <__mulsf3>
     da6:	dc 01       	movw	r26, r24
     da8:	cb 01       	movw	r24, r22
     daa:	bc 01       	movw	r22, r24
     dac:	cd 01       	movw	r24, r26
     dae:	0e 94 8b 36 	call	0x6d16	; 0x6d16 <__fixunssfsi>
     db2:	dc 01       	movw	r26, r24
     db4:	cb 01       	movw	r24, r22
     db6:	9d 87       	std	Y+13, r25	; 0x0d
     db8:	8c 87       	std	Y+12, r24	; 0x0c
     dba:	0f c0       	rjmp	.+30     	; 0xdda <at24c128c_write_byte+0x180>
     dbc:	80 e9       	ldi	r24, 0x90	; 144
     dbe:	91 e0       	ldi	r25, 0x01	; 1
     dc0:	9f 87       	std	Y+15, r25	; 0x0f
     dc2:	8e 87       	std	Y+14, r24	; 0x0e
    milliseconds can be achieved.
 */
void
_delay_loop_2(uint16_t __count)
{
	__asm__ volatile (
     dc4:	8e 85       	ldd	r24, Y+14	; 0x0e
     dc6:	9f 85       	ldd	r25, Y+15	; 0x0f
     dc8:	01 97       	sbiw	r24, 0x01	; 1
     dca:	f1 f7       	brne	.-4      	; 0xdc8 <at24c128c_write_byte+0x16e>
     dcc:	9f 87       	std	Y+15, r25	; 0x0f
     dce:	8e 87       	std	Y+14, r24	; 0x0e
		while(__ticks)
		{
			// wait 1/10 ms
			_delay_loop_2(((F_CPU) / 4e3) / 10);
			__ticks --;
     dd0:	8c 85       	ldd	r24, Y+12	; 0x0c
     dd2:	9d 85       	ldd	r25, Y+13	; 0x0d
     dd4:	01 97       	sbiw	r24, 0x01	; 1
     dd6:	9d 87       	std	Y+13, r25	; 0x0d
     dd8:	8c 87       	std	Y+12, r24	; 0x0c
		__ticks = 1;
	else if (__tmp > 65535)
	{
		//	__ticks = requested delay in 1/10 ms
		__ticks = (uint16_t) (__ms * 10.0);
		while(__ticks)
     dda:	8c 85       	ldd	r24, Y+12	; 0x0c
     ddc:	9d 85       	ldd	r25, Y+13	; 0x0d
     dde:	89 2b       	or	r24, r25
     de0:	69 f7       	brne	.-38     	; 0xdbc <at24c128c_write_byte+0x162>
     de2:	14 c0       	rjmp	.+40     	; 0xe0c <at24c128c_write_byte+0x1b2>
			__ticks --;
		}
		return;
	}
	else
		__ticks = (uint16_t)__tmp;
     de4:	68 85       	ldd	r22, Y+8	; 0x08
     de6:	79 85       	ldd	r23, Y+9	; 0x09
     de8:	8a 85       	ldd	r24, Y+10	; 0x0a
     dea:	9b 85       	ldd	r25, Y+11	; 0x0b
     dec:	0e 94 8b 36 	call	0x6d16	; 0x6d16 <__fixunssfsi>
     df0:	dc 01       	movw	r26, r24
     df2:	cb 01       	movw	r24, r22
     df4:	9d 87       	std	Y+13, r25	; 0x0d
     df6:	8c 87       	std	Y+12, r24	; 0x0c
     df8:	8c 85       	ldd	r24, Y+12	; 0x0c
     dfa:	9d 85       	ldd	r25, Y+13	; 0x0d
     dfc:	99 8b       	std	Y+17, r25	; 0x11
     dfe:	88 8b       	std	Y+16, r24	; 0x10
     e00:	88 89       	ldd	r24, Y+16	; 0x10
     e02:	99 89       	ldd	r25, Y+17	; 0x11
     e04:	01 97       	sbiw	r24, 0x01	; 1
     e06:	f1 f7       	brne	.-4      	; 0xe04 <at24c128c_write_byte+0x1aa>
     e08:	99 8b       	std	Y+17, r25	; 0x11
     e0a:	88 8b       	std	Y+16, r24	; 0x10
	_delay_ms(2);
	return 1;
     e0c:	81 e0       	ldi	r24, 0x01	; 1
}
     e0e:	64 96       	adiw	r28, 0x14	; 20
     e10:	0f b6       	in	r0, 0x3f	; 63
     e12:	f8 94       	cli
     e14:	de bf       	out	0x3e, r29	; 62
     e16:	0f be       	out	0x3f, r0	; 63
     e18:	cd bf       	out	0x3d, r28	; 61
     e1a:	df 91       	pop	r29
     e1c:	cf 91       	pop	r28
     e1e:	08 95       	ret

00000e20 <at24c128c_read_byte>:

/*at24c128c 0-255  0xFFFF*/
uint16_t at24c128c_read_byte(uint16_t addr)
{
     e20:	cf 93       	push	r28
     e22:	df 93       	push	r29
     e24:	cd b7       	in	r28, 0x3d	; 61
     e26:	de b7       	in	r29, 0x3e	; 62
     e28:	64 97       	sbiw	r28, 0x14	; 20
     e2a:	0f b6       	in	r0, 0x3f	; 63
     e2c:	f8 94       	cli
     e2e:	de bf       	out	0x3e, r29	; 62
     e30:	0f be       	out	0x3f, r0	; 63
     e32:	cd bf       	out	0x3d, r28	; 61
     e34:	9c 8b       	std	Y+20, r25	; 0x14
     e36:	8b 8b       	std	Y+19, r24	; 0x13
	uint8_t data;
	uint8_t addr_h, addr_l;
	uint8_t cnt = 0;
     e38:	19 82       	std	Y+1, r1	; 0x01

	addr_h = addr >> 8;
     e3a:	8b 89       	ldd	r24, Y+19	; 0x13
     e3c:	9c 89       	ldd	r25, Y+20	; 0x14
     e3e:	89 2f       	mov	r24, r25
     e40:	99 27       	eor	r25, r25
     e42:	8a 83       	std	Y+2, r24	; 0x02
	addr_l = addr;
     e44:	8b 89       	ldd	r24, Y+19	; 0x13
     e46:	8b 83       	std	Y+3, r24	; 0x03

	while (!twi_start())
     e48:	0b c0       	rjmp	.+22     	; 0xe60 <at24c128c_read_byte+0x40>
	{
		if (++cnt >= 5)
     e4a:	89 81       	ldd	r24, Y+1	; 0x01
     e4c:	8f 5f       	subi	r24, 0xFF	; 255
     e4e:	89 83       	std	Y+1, r24	; 0x01
     e50:	89 81       	ldd	r24, Y+1	; 0x01
     e52:	85 30       	cpi	r24, 0x05	; 5
     e54:	28 f0       	brcs	.+10     	; 0xe60 <at24c128c_read_byte+0x40>
		{
			twi_stop();
     e56:	0e 94 6c 2d 	call	0x5ad8	; 0x5ad8 <twi_stop>
			return 0xFFFF;
     e5a:	8f ef       	ldi	r24, 0xFF	; 255
     e5c:	9f ef       	ldi	r25, 0xFF	; 255
     e5e:	d6 c0       	rjmp	.+428    	; 0x100c <at24c128c_read_byte+0x1ec>
	uint8_t cnt = 0;

	addr_h = addr >> 8;
	addr_l = addr;

	while (!twi_start())
     e60:	0e 94 37 2d 	call	0x5a6e	; 0x5a6e <twi_start>
     e64:	88 23       	and	r24, r24
     e66:	89 f3       	breq	.-30     	; 0xe4a <at24c128c_read_byte+0x2a>
			twi_stop();
			return 0xFFFF;
		}
	}

	while (!twi_adrsing(AT24C128C_ADDR, WRITE))
     e68:	0b c0       	rjmp	.+22     	; 0xe80 <at24c128c_read_byte+0x60>
	{
		if (++cnt >= 5)
     e6a:	89 81       	ldd	r24, Y+1	; 0x01
     e6c:	8f 5f       	subi	r24, 0xFF	; 255
     e6e:	89 83       	std	Y+1, r24	; 0x01
     e70:	89 81       	ldd	r24, Y+1	; 0x01
     e72:	85 30       	cpi	r24, 0x05	; 5
     e74:	28 f0       	brcs	.+10     	; 0xe80 <at24c128c_read_byte+0x60>
		{
			twi_stop();
     e76:	0e 94 6c 2d 	call	0x5ad8	; 0x5ad8 <twi_stop>
			return 0xFFFF;
     e7a:	8f ef       	ldi	r24, 0xFF	; 255
     e7c:	9f ef       	ldi	r25, 0xFF	; 255
     e7e:	c6 c0       	rjmp	.+396    	; 0x100c <at24c128c_read_byte+0x1ec>
			twi_stop();
			return 0xFFFF;
		}
	}

	while (!twi_adrsing(AT24C128C_ADDR, WRITE))
     e80:	60 e0       	ldi	r22, 0x00	; 0
     e82:	80 e5       	ldi	r24, 0x50	; 80
     e84:	0e 94 79 2d 	call	0x5af2	; 0x5af2 <twi_adrsing>
     e88:	88 23       	and	r24, r24
     e8a:	79 f3       	breq	.-34     	; 0xe6a <at24c128c_read_byte+0x4a>
			twi_stop();
			return 0xFFFF;
		}
	}

	while (!twi_write_byte(addr_h))
     e8c:	0b c0       	rjmp	.+22     	; 0xea4 <at24c128c_read_byte+0x84>
	{
		if (++cnt >= 5)
     e8e:	89 81       	ldd	r24, Y+1	; 0x01
     e90:	8f 5f       	subi	r24, 0xFF	; 255
     e92:	89 83       	std	Y+1, r24	; 0x01
     e94:	89 81       	ldd	r24, Y+1	; 0x01
     e96:	85 30       	cpi	r24, 0x05	; 5
     e98:	28 f0       	brcs	.+10     	; 0xea4 <at24c128c_read_byte+0x84>
		{
			twi_stop();
     e9a:	0e 94 6c 2d 	call	0x5ad8	; 0x5ad8 <twi_stop>
			return 0xFFFF;
     e9e:	8f ef       	ldi	r24, 0xFF	; 255
     ea0:	9f ef       	ldi	r25, 0xFF	; 255
     ea2:	b4 c0       	rjmp	.+360    	; 0x100c <at24c128c_read_byte+0x1ec>
			twi_stop();
			return 0xFFFF;
		}
	}

	while (!twi_write_byte(addr_h))
     ea4:	8a 81       	ldd	r24, Y+2	; 0x02
     ea6:	0e 94 c3 2d 	call	0x5b86	; 0x5b86 <twi_write_byte>
     eaa:	88 23       	and	r24, r24
     eac:	81 f3       	breq	.-32     	; 0xe8e <at24c128c_read_byte+0x6e>
			twi_stop();
			return 0xFFFF;
		}
	}

	while (!twi_write_byte(addr_l))
     eae:	0b c0       	rjmp	.+22     	; 0xec6 <at24c128c_read_byte+0xa6>
	{
		if (++cnt >= 5)
     eb0:	89 81       	ldd	r24, Y+1	; 0x01
     eb2:	8f 5f       	subi	r24, 0xFF	; 255
     eb4:	89 83       	std	Y+1, r24	; 0x01
     eb6:	89 81       	ldd	r24, Y+1	; 0x01
     eb8:	85 30       	cpi	r24, 0x05	; 5
     eba:	28 f0       	brcs	.+10     	; 0xec6 <at24c128c_read_byte+0xa6>
		{
			twi_stop();
     ebc:	0e 94 6c 2d 	call	0x5ad8	; 0x5ad8 <twi_stop>
			return 0xFFFF;
     ec0:	8f ef       	ldi	r24, 0xFF	; 255
     ec2:	9f ef       	ldi	r25, 0xFF	; 255
     ec4:	a3 c0       	rjmp	.+326    	; 0x100c <at24c128c_read_byte+0x1ec>
			twi_stop();
			return 0xFFFF;
		}
	}

	while (!twi_write_byte(addr_l))
     ec6:	8b 81       	ldd	r24, Y+3	; 0x03
     ec8:	0e 94 c3 2d 	call	0x5b86	; 0x5b86 <twi_write_byte>
     ecc:	88 23       	and	r24, r24
     ece:	81 f3       	breq	.-32     	; 0xeb0 <at24c128c_read_byte+0x90>
			twi_stop();
			return 0xFFFF;
		}
	}

	while (!twi_start())
     ed0:	0b c0       	rjmp	.+22     	; 0xee8 <at24c128c_read_byte+0xc8>
	{
		if (++cnt >= 5)
     ed2:	89 81       	ldd	r24, Y+1	; 0x01
     ed4:	8f 5f       	subi	r24, 0xFF	; 255
     ed6:	89 83       	std	Y+1, r24	; 0x01
     ed8:	89 81       	ldd	r24, Y+1	; 0x01
     eda:	85 30       	cpi	r24, 0x05	; 5
     edc:	28 f0       	brcs	.+10     	; 0xee8 <at24c128c_read_byte+0xc8>
		{
			twi_stop();
     ede:	0e 94 6c 2d 	call	0x5ad8	; 0x5ad8 <twi_stop>
			return 0xFFFF;
     ee2:	8f ef       	ldi	r24, 0xFF	; 255
     ee4:	9f ef       	ldi	r25, 0xFF	; 255
     ee6:	92 c0       	rjmp	.+292    	; 0x100c <at24c128c_read_byte+0x1ec>
			twi_stop();
			return 0xFFFF;
		}
	}

	while (!twi_start())
     ee8:	0e 94 37 2d 	call	0x5a6e	; 0x5a6e <twi_start>
     eec:	88 23       	and	r24, r24
     eee:	89 f3       	breq	.-30     	; 0xed2 <at24c128c_read_byte+0xb2>
			twi_stop();
			return 0xFFFF;
		}
	}

	while (!twi_adrsing(AT24C128C_ADDR, READ))
     ef0:	0b c0       	rjmp	.+22     	; 0xf08 <at24c128c_read_byte+0xe8>
	{
		if (++cnt >= 5)
     ef2:	89 81       	ldd	r24, Y+1	; 0x01
     ef4:	8f 5f       	subi	r24, 0xFF	; 255
     ef6:	89 83       	std	Y+1, r24	; 0x01
     ef8:	89 81       	ldd	r24, Y+1	; 0x01
     efa:	85 30       	cpi	r24, 0x05	; 5
     efc:	28 f0       	brcs	.+10     	; 0xf08 <at24c128c_read_byte+0xe8>
		{
			twi_stop();
     efe:	0e 94 6c 2d 	call	0x5ad8	; 0x5ad8 <twi_stop>
			return 0xFFFF;
     f02:	8f ef       	ldi	r24, 0xFF	; 255
     f04:	9f ef       	ldi	r25, 0xFF	; 255
     f06:	82 c0       	rjmp	.+260    	; 0x100c <at24c128c_read_byte+0x1ec>
			twi_stop();
			return 0xFFFF;
		}
	}

	while (!twi_adrsing(AT24C128C_ADDR, READ))
     f08:	61 e0       	ldi	r22, 0x01	; 1
     f0a:	80 e5       	ldi	r24, 0x50	; 80
     f0c:	0e 94 79 2d 	call	0x5af2	; 0x5af2 <twi_adrsing>
     f10:	88 23       	and	r24, r24
     f12:	79 f3       	breq	.-34     	; 0xef2 <at24c128c_read_byte+0xd2>
			twi_stop();
			return 0xFFFF;
		}
	}

	while ((data = twi_read_byte(NACK)) == 0xFFFF)
     f14:	00 00       	nop
     f16:	80 e0       	ldi	r24, 0x00	; 0
     f18:	0e 94 f5 2d 	call	0x5bea	; 0x5bea <twi_read_byte>
     f1c:	8c 83       	std	Y+4, r24	; 0x04
			twi_stop();
			return 0xFFFF;
		}
	}

	twi_stop();
     f1e:	0e 94 6c 2d 	call	0x5ad8	; 0x5ad8 <twi_stop>
     f22:	80 e0       	ldi	r24, 0x00	; 0
     f24:	90 e0       	ldi	r25, 0x00	; 0
     f26:	a0 e0       	ldi	r26, 0x00	; 0
     f28:	b0 e4       	ldi	r27, 0x40	; 64
     f2a:	8d 83       	std	Y+5, r24	; 0x05
     f2c:	9e 83       	std	Y+6, r25	; 0x06
     f2e:	af 83       	std	Y+7, r26	; 0x07
     f30:	b8 87       	std	Y+8, r27	; 0x08

	__builtin_avr_delay_cycles(__ticks_dc);

#else
	uint16_t __ticks;
	__tmp = ((F_CPU) / 4e3) * __ms;
     f32:	20 e0       	ldi	r18, 0x00	; 0
     f34:	30 e0       	ldi	r19, 0x00	; 0
     f36:	4a e7       	ldi	r20, 0x7A	; 122
     f38:	55 e4       	ldi	r21, 0x45	; 69
     f3a:	6d 81       	ldd	r22, Y+5	; 0x05
     f3c:	7e 81       	ldd	r23, Y+6	; 0x06
     f3e:	8f 81       	ldd	r24, Y+7	; 0x07
     f40:	98 85       	ldd	r25, Y+8	; 0x08
     f42:	0e 94 0c 37 	call	0x6e18	; 0x6e18 <__mulsf3>
     f46:	dc 01       	movw	r26, r24
     f48:	cb 01       	movw	r24, r22
     f4a:	89 87       	std	Y+9, r24	; 0x09
     f4c:	9a 87       	std	Y+10, r25	; 0x0a
     f4e:	ab 87       	std	Y+11, r26	; 0x0b
     f50:	bc 87       	std	Y+12, r27	; 0x0c
	if (__tmp < 1.0)
     f52:	20 e0       	ldi	r18, 0x00	; 0
     f54:	30 e0       	ldi	r19, 0x00	; 0
     f56:	40 e8       	ldi	r20, 0x80	; 128
     f58:	5f e3       	ldi	r21, 0x3F	; 63
     f5a:	69 85       	ldd	r22, Y+9	; 0x09
     f5c:	7a 85       	ldd	r23, Y+10	; 0x0a
     f5e:	8b 85       	ldd	r24, Y+11	; 0x0b
     f60:	9c 85       	ldd	r25, Y+12	; 0x0c
     f62:	0e 94 86 36 	call	0x6d0c	; 0x6d0c <__cmpsf2>
     f66:	88 23       	and	r24, r24
     f68:	2c f4       	brge	.+10     	; 0xf74 <at24c128c_read_byte+0x154>
		__ticks = 1;
     f6a:	81 e0       	ldi	r24, 0x01	; 1
     f6c:	90 e0       	ldi	r25, 0x00	; 0
     f6e:	9e 87       	std	Y+14, r25	; 0x0e
     f70:	8d 87       	std	Y+13, r24	; 0x0d
     f72:	3f c0       	rjmp	.+126    	; 0xff2 <at24c128c_read_byte+0x1d2>
	else if (__tmp > 65535)
     f74:	20 e0       	ldi	r18, 0x00	; 0
     f76:	3f ef       	ldi	r19, 0xFF	; 255
     f78:	4f e7       	ldi	r20, 0x7F	; 127
     f7a:	57 e4       	ldi	r21, 0x47	; 71
     f7c:	69 85       	ldd	r22, Y+9	; 0x09
     f7e:	7a 85       	ldd	r23, Y+10	; 0x0a
     f80:	8b 85       	ldd	r24, Y+11	; 0x0b
     f82:	9c 85       	ldd	r25, Y+12	; 0x0c
     f84:	0e 94 07 37 	call	0x6e0e	; 0x6e0e <__gesf2>
     f88:	18 16       	cp	r1, r24
     f8a:	4c f5       	brge	.+82     	; 0xfde <at24c128c_read_byte+0x1be>
	{
		//	__ticks = requested delay in 1/10 ms
		__ticks = (uint16_t) (__ms * 10.0);
     f8c:	20 e0       	ldi	r18, 0x00	; 0
     f8e:	30 e0       	ldi	r19, 0x00	; 0
     f90:	40 e2       	ldi	r20, 0x20	; 32
     f92:	51 e4       	ldi	r21, 0x41	; 65
     f94:	6d 81       	ldd	r22, Y+5	; 0x05
     f96:	7e 81       	ldd	r23, Y+6	; 0x06
     f98:	8f 81       	ldd	r24, Y+7	; 0x07
     f9a:	98 85       	ldd	r25, Y+8	; 0x08
     f9c:	0e 94 0c 37 	call	0x6e18	; 0x6e18 <__mulsf3>
     fa0:	dc 01       	movw	r26, r24
     fa2:	cb 01       	movw	r24, r22
     fa4:	bc 01       	movw	r22, r24
     fa6:	cd 01       	movw	r24, r26
     fa8:	0e 94 8b 36 	call	0x6d16	; 0x6d16 <__fixunssfsi>
     fac:	dc 01       	movw	r26, r24
     fae:	cb 01       	movw	r24, r22
     fb0:	9e 87       	std	Y+14, r25	; 0x0e
     fb2:	8d 87       	std	Y+13, r24	; 0x0d
     fb4:	0f c0       	rjmp	.+30     	; 0xfd4 <at24c128c_read_byte+0x1b4>
     fb6:	80 e9       	ldi	r24, 0x90	; 144
     fb8:	91 e0       	ldi	r25, 0x01	; 1
     fba:	98 8b       	std	Y+16, r25	; 0x10
     fbc:	8f 87       	std	Y+15, r24	; 0x0f
     fbe:	8f 85       	ldd	r24, Y+15	; 0x0f
     fc0:	98 89       	ldd	r25, Y+16	; 0x10
     fc2:	01 97       	sbiw	r24, 0x01	; 1
     fc4:	f1 f7       	brne	.-4      	; 0xfc2 <at24c128c_read_byte+0x1a2>
     fc6:	98 8b       	std	Y+16, r25	; 0x10
     fc8:	8f 87       	std	Y+15, r24	; 0x0f
		while(__ticks)
		{
			// wait 1/10 ms
			_delay_loop_2(((F_CPU) / 4e3) / 10);
			__ticks --;
     fca:	8d 85       	ldd	r24, Y+13	; 0x0d
     fcc:	9e 85       	ldd	r25, Y+14	; 0x0e
     fce:	01 97       	sbiw	r24, 0x01	; 1
     fd0:	9e 87       	std	Y+14, r25	; 0x0e
     fd2:	8d 87       	std	Y+13, r24	; 0x0d
		__ticks = 1;
	else if (__tmp > 65535)
	{
		//	__ticks = requested delay in 1/10 ms
		__ticks = (uint16_t) (__ms * 10.0);
		while(__ticks)
     fd4:	8d 85       	ldd	r24, Y+13	; 0x0d
     fd6:	9e 85       	ldd	r25, Y+14	; 0x0e
     fd8:	89 2b       	or	r24, r25
     fda:	69 f7       	brne	.-38     	; 0xfb6 <at24c128c_read_byte+0x196>
     fdc:	14 c0       	rjmp	.+40     	; 0x1006 <at24c128c_read_byte+0x1e6>
			__ticks --;
		}
		return;
	}
	else
		__ticks = (uint16_t)__tmp;
     fde:	69 85       	ldd	r22, Y+9	; 0x09
     fe0:	7a 85       	ldd	r23, Y+10	; 0x0a
     fe2:	8b 85       	ldd	r24, Y+11	; 0x0b
     fe4:	9c 85       	ldd	r25, Y+12	; 0x0c
     fe6:	0e 94 8b 36 	call	0x6d16	; 0x6d16 <__fixunssfsi>
     fea:	dc 01       	movw	r26, r24
     fec:	cb 01       	movw	r24, r22
     fee:	9e 87       	std	Y+14, r25	; 0x0e
     ff0:	8d 87       	std	Y+13, r24	; 0x0d
     ff2:	8d 85       	ldd	r24, Y+13	; 0x0d
     ff4:	9e 85       	ldd	r25, Y+14	; 0x0e
     ff6:	9a 8b       	std	Y+18, r25	; 0x12
     ff8:	89 8b       	std	Y+17, r24	; 0x11
     ffa:	89 89       	ldd	r24, Y+17	; 0x11
     ffc:	9a 89       	ldd	r25, Y+18	; 0x12
     ffe:	01 97       	sbiw	r24, 0x01	; 1
    1000:	f1 f7       	brne	.-4      	; 0xffe <at24c128c_read_byte+0x1de>
    1002:	9a 8b       	std	Y+18, r25	; 0x12
    1004:	89 8b       	std	Y+17, r24	; 0x11

	_delay_ms(2);

	return data;
    1006:	8c 81       	ldd	r24, Y+4	; 0x04
    1008:	88 2f       	mov	r24, r24
    100a:	90 e0       	ldi	r25, 0x00	; 0
    100c:	64 96       	adiw	r28, 0x14	; 20
    100e:	0f b6       	in	r0, 0x3f	; 63
    1010:	f8 94       	cli
    1012:	de bf       	out	0x3e, r29	; 62
    1014:	0f be       	out	0x3f, r0	; 63
    1016:	cd bf       	out	0x3d, r28	; 61
    1018:	df 91       	pop	r29
    101a:	cf 91       	pop	r28
    101c:	08 95       	ret

0000101e <init_variable>:
	{0xBC, 0xD3, 0xC8, 0xC8, 0xC6, 0xF7, 0xB6, 0xCF, 0xBF, 0xAA}, //
	{0xBC, 0xD3, 0xC8, 0xC8, 0xC6, 0xF7, 0xB6, 0xCC, 0xC2, 0xB7}, //
};

void init_variable(void)
{
    101e:	cf 93       	push	r28
    1020:	df 93       	push	r29
    1022:	00 d0       	rcall	.+0      	; 0x1024 <init_variable+0x6>
    1024:	00 d0       	rcall	.+0      	; 0x1026 <init_variable+0x8>
    1026:	00 d0       	rcall	.+0      	; 0x1028 <init_variable+0xa>
    1028:	cd b7       	in	r28, 0x3d	; 61
    102a:	de b7       	in	r29, 0x3e	; 62
	uint8_t i, j, k;
	uint8_t name1 = 0, name2 = 0, name3 = 0;
    102c:	1c 82       	std	Y+4, r1	; 0x04
    102e:	1d 82       	std	Y+5, r1	; 0x05
    1030:	1e 82       	std	Y+6, r1	; 0x06

	for (i = 0; i < 4; i++)
    1032:	19 82       	std	Y+1, r1	; 0x01
    1034:	55 c0       	rjmp	.+170    	; 0x10e0 <init_variable+0xc2>
	{
		for (j = 0; j < 8; j++)
    1036:	1a 82       	std	Y+2, r1	; 0x02
    1038:	4c c0       	rjmp	.+152    	; 0x10d2 <init_variable+0xb4>
		{
			for (k = 0; k < 4; k++)
    103a:	1b 82       	std	Y+3, r1	; 0x03
    103c:	43 c0       	rjmp	.+134    	; 0x10c4 <init_variable+0xa6>
			{
				time_ctrl_value[i][j][k] = 500; //
    103e:	89 81       	ldd	r24, Y+1	; 0x01
    1040:	48 2f       	mov	r20, r24
    1042:	50 e0       	ldi	r21, 0x00	; 0
    1044:	8a 81       	ldd	r24, Y+2	; 0x02
    1046:	28 2f       	mov	r18, r24
    1048:	30 e0       	ldi	r19, 0x00	; 0
    104a:	8b 81       	ldd	r24, Y+3	; 0x03
    104c:	88 2f       	mov	r24, r24
    104e:	90 e0       	ldi	r25, 0x00	; 0
    1050:	44 0f       	add	r20, r20
    1052:	55 1f       	adc	r21, r21
    1054:	44 0f       	add	r20, r20
    1056:	55 1f       	adc	r21, r21
    1058:	44 0f       	add	r20, r20
    105a:	55 1f       	adc	r21, r21
    105c:	24 0f       	add	r18, r20
    105e:	35 1f       	adc	r19, r21
    1060:	22 0f       	add	r18, r18
    1062:	33 1f       	adc	r19, r19
    1064:	22 0f       	add	r18, r18
    1066:	33 1f       	adc	r19, r19
    1068:	82 0f       	add	r24, r18
    106a:	93 1f       	adc	r25, r19
    106c:	88 0f       	add	r24, r24
    106e:	99 1f       	adc	r25, r25
    1070:	85 57       	subi	r24, 0x75	; 117
    1072:	98 4f       	sbci	r25, 0xF8	; 248
    1074:	24 ef       	ldi	r18, 0xF4	; 244
    1076:	31 e0       	ldi	r19, 0x01	; 1
    1078:	fc 01       	movw	r30, r24
    107a:	31 83       	std	Z+1, r19	; 0x01
    107c:	20 83       	st	Z, r18
				time_ctrl_value_buff[i][j][k] = 500;
    107e:	89 81       	ldd	r24, Y+1	; 0x01
    1080:	48 2f       	mov	r20, r24
    1082:	50 e0       	ldi	r21, 0x00	; 0
    1084:	8a 81       	ldd	r24, Y+2	; 0x02
    1086:	28 2f       	mov	r18, r24
    1088:	30 e0       	ldi	r19, 0x00	; 0
    108a:	8b 81       	ldd	r24, Y+3	; 0x03
    108c:	88 2f       	mov	r24, r24
    108e:	90 e0       	ldi	r25, 0x00	; 0
    1090:	44 0f       	add	r20, r20
    1092:	55 1f       	adc	r21, r21
    1094:	44 0f       	add	r20, r20
    1096:	55 1f       	adc	r21, r21
    1098:	44 0f       	add	r20, r20
    109a:	55 1f       	adc	r21, r21
    109c:	24 0f       	add	r18, r20
    109e:	35 1f       	adc	r19, r21
    10a0:	22 0f       	add	r18, r18
    10a2:	33 1f       	adc	r19, r19
    10a4:	22 0f       	add	r18, r18
    10a6:	33 1f       	adc	r19, r19
    10a8:	82 0f       	add	r24, r18
    10aa:	93 1f       	adc	r25, r19
    10ac:	88 0f       	add	r24, r24
    10ae:	99 1f       	adc	r25, r25
    10b0:	8f 51       	subi	r24, 0x1F	; 31
    10b2:	94 4f       	sbci	r25, 0xF4	; 244
    10b4:	24 ef       	ldi	r18, 0xF4	; 244
    10b6:	31 e0       	ldi	r19, 0x01	; 1
    10b8:	fc 01       	movw	r30, r24
    10ba:	31 83       	std	Z+1, r19	; 0x01
    10bc:	20 83       	st	Z, r18

	for (i = 0; i < 4; i++)
	{
		for (j = 0; j < 8; j++)
		{
			for (k = 0; k < 4; k++)
    10be:	8b 81       	ldd	r24, Y+3	; 0x03
    10c0:	8f 5f       	subi	r24, 0xFF	; 255
    10c2:	8b 83       	std	Y+3, r24	; 0x03
    10c4:	8b 81       	ldd	r24, Y+3	; 0x03
    10c6:	84 30       	cpi	r24, 0x04	; 4
    10c8:	08 f4       	brcc	.+2      	; 0x10cc <init_variable+0xae>
    10ca:	b9 cf       	rjmp	.-142    	; 0x103e <init_variable+0x20>
	uint8_t i, j, k;
	uint8_t name1 = 0, name2 = 0, name3 = 0;

	for (i = 0; i < 4; i++)
	{
		for (j = 0; j < 8; j++)
    10cc:	8a 81       	ldd	r24, Y+2	; 0x02
    10ce:	8f 5f       	subi	r24, 0xFF	; 255
    10d0:	8a 83       	std	Y+2, r24	; 0x02
    10d2:	8a 81       	ldd	r24, Y+2	; 0x02
    10d4:	88 30       	cpi	r24, 0x08	; 8
    10d6:	08 f4       	brcc	.+2      	; 0x10da <init_variable+0xbc>
    10d8:	b0 cf       	rjmp	.-160    	; 0x103a <init_variable+0x1c>
void init_variable(void)
{
	uint8_t i, j, k;
	uint8_t name1 = 0, name2 = 0, name3 = 0;

	for (i = 0; i < 4; i++)
    10da:	89 81       	ldd	r24, Y+1	; 0x01
    10dc:	8f 5f       	subi	r24, 0xFF	; 255
    10de:	89 83       	std	Y+1, r24	; 0x01
    10e0:	89 81       	ldd	r24, Y+1	; 0x01
    10e2:	84 30       	cpi	r24, 0x04	; 4
    10e4:	08 f4       	brcc	.+2      	; 0x10e8 <init_variable+0xca>
    10e6:	a7 cf       	rjmp	.-178    	; 0x1036 <init_variable+0x18>
				time_ctrl_value_buff[i][j][k] = 500;
			}
		}
	}

	for (i = 0; i < MAX_IQR_QUANTITY; i++)
    10e8:	19 82       	std	Y+1, r1	; 0x01
    10ea:	33 c1       	rjmp	.+614    	; 0x1352 <__stack+0x253>
	{
		set_temp[i] = 100;
    10ec:	89 81       	ldd	r24, Y+1	; 0x01
    10ee:	88 2f       	mov	r24, r24
    10f0:	90 e0       	ldi	r25, 0x00	; 0
    10f2:	88 0f       	add	r24, r24
    10f4:	99 1f       	adc	r25, r25
    10f6:	84 59       	subi	r24, 0x94	; 148
    10f8:	94 4f       	sbci	r25, 0xF4	; 244
    10fa:	24 e6       	ldi	r18, 0x64	; 100
    10fc:	30 e0       	ldi	r19, 0x00	; 0
    10fe:	fc 01       	movw	r30, r24
    1100:	31 83       	std	Z+1, r19	; 0x01
    1102:	20 83       	st	Z, r18
		set_temp_buff[i] = 100;
    1104:	89 81       	ldd	r24, Y+1	; 0x01
    1106:	88 2f       	mov	r24, r24
    1108:	90 e0       	ldi	r25, 0x00	; 0
    110a:	88 0f       	add	r24, r24
    110c:	99 1f       	adc	r25, r25
    110e:	80 55       	subi	r24, 0x50	; 80
    1110:	94 4f       	sbci	r25, 0xF4	; 244
    1112:	24 e6       	ldi	r18, 0x64	; 100
    1114:	30 e0       	ldi	r19, 0x00	; 0
    1116:	fc 01       	movw	r30, r24
    1118:	31 83       	std	Z+1, r19	; 0x01
    111a:	20 83       	st	Z, r18
		p_value[i] = 100;
    111c:	89 81       	ldd	r24, Y+1	; 0x01
    111e:	88 2f       	mov	r24, r24
    1120:	90 e0       	ldi	r25, 0x00	; 0
    1122:	88 0f       	add	r24, r24
    1124:	99 1f       	adc	r25, r25
    1126:	85 54       	subi	r24, 0x45	; 69
    1128:	97 4f       	sbci	r25, 0xF7	; 247
    112a:	24 e6       	ldi	r18, 0x64	; 100
    112c:	30 e0       	ldi	r19, 0x00	; 0
    112e:	fc 01       	movw	r30, r24
    1130:	31 83       	std	Z+1, r19	; 0x01
    1132:	20 83       	st	Z, r18
		i_value[i] = 100;
    1134:	89 81       	ldd	r24, Y+1	; 0x01
    1136:	88 2f       	mov	r24, r24
    1138:	90 e0       	ldi	r25, 0x00	; 0
    113a:	88 0f       	add	r24, r24
    113c:	99 1f       	adc	r25, r25
    113e:	85 51       	subi	r24, 0x15	; 21
    1140:	97 4f       	sbci	r25, 0xF7	; 247
    1142:	24 e6       	ldi	r18, 0x64	; 100
    1144:	30 e0       	ldi	r19, 0x00	; 0
    1146:	fc 01       	movw	r30, r24
    1148:	31 83       	std	Z+1, r19	; 0x01
    114a:	20 83       	st	Z, r18
		d_value[i] = 100;
    114c:	89 81       	ldd	r24, Y+1	; 0x01
    114e:	88 2f       	mov	r24, r24
    1150:	90 e0       	ldi	r25, 0x00	; 0
    1152:	88 0f       	add	r24, r24
    1154:	99 1f       	adc	r25, r25
    1156:	85 57       	subi	r24, 0x75	; 117
    1158:	97 4f       	sbci	r25, 0xF7	; 247
    115a:	24 e6       	ldi	r18, 0x64	; 100
    115c:	30 e0       	ldi	r19, 0x00	; 0
    115e:	fc 01       	movw	r30, r24
    1160:	31 83       	std	Z+1, r19	; 0x01
    1162:	20 83       	st	Z, r18

		if (i < 9)
    1164:	89 81       	ldd	r24, Y+1	; 0x01
    1166:	89 30       	cpi	r24, 0x09	; 9
    1168:	70 f4       	brcc	.+28     	; 0x1186 <__stack+0x87>
		{
			name3 = (i + 1) % 10 + 0x30;
    116a:	89 81       	ldd	r24, Y+1	; 0x01
    116c:	88 2f       	mov	r24, r24
    116e:	90 e0       	ldi	r25, 0x00	; 0
    1170:	01 96       	adiw	r24, 0x01	; 1
    1172:	2a e0       	ldi	r18, 0x0A	; 10
    1174:	30 e0       	ldi	r19, 0x00	; 0
    1176:	b9 01       	movw	r22, r18
    1178:	0e 94 a1 37 	call	0x6f42	; 0x6f42 <__divmodhi4>
    117c:	80 5d       	subi	r24, 0xD0	; 208
    117e:	8e 83       	std	Y+6, r24	; 0x06
			name2 = 0;
    1180:	1d 82       	std	Y+5, r1	; 0x05
			name1 = 0;
    1182:	1c 82       	std	Y+4, r1	; 0x04
    1184:	48 c0       	rjmp	.+144    	; 0x1216 <__stack+0x117>
		}
		else if (i >= 9 && i < 99)
    1186:	89 81       	ldd	r24, Y+1	; 0x01
    1188:	89 30       	cpi	r24, 0x09	; 9
    118a:	e0 f0       	brcs	.+56     	; 0x11c4 <__stack+0xc5>
    118c:	89 81       	ldd	r24, Y+1	; 0x01
    118e:	83 36       	cpi	r24, 0x63	; 99
    1190:	c8 f4       	brcc	.+50     	; 0x11c4 <__stack+0xc5>
		{
			name3 = (i + 1) / 10 + 0x30;
    1192:	89 81       	ldd	r24, Y+1	; 0x01
    1194:	88 2f       	mov	r24, r24
    1196:	90 e0       	ldi	r25, 0x00	; 0
    1198:	01 96       	adiw	r24, 0x01	; 1
    119a:	2a e0       	ldi	r18, 0x0A	; 10
    119c:	30 e0       	ldi	r19, 0x00	; 0
    119e:	b9 01       	movw	r22, r18
    11a0:	0e 94 a1 37 	call	0x6f42	; 0x6f42 <__divmodhi4>
    11a4:	cb 01       	movw	r24, r22
    11a6:	80 5d       	subi	r24, 0xD0	; 208
    11a8:	8e 83       	std	Y+6, r24	; 0x06
			name2 = (i + 1) % 10 + 0x30;
    11aa:	89 81       	ldd	r24, Y+1	; 0x01
    11ac:	88 2f       	mov	r24, r24
    11ae:	90 e0       	ldi	r25, 0x00	; 0
    11b0:	01 96       	adiw	r24, 0x01	; 1
    11b2:	2a e0       	ldi	r18, 0x0A	; 10
    11b4:	30 e0       	ldi	r19, 0x00	; 0
    11b6:	b9 01       	movw	r22, r18
    11b8:	0e 94 a1 37 	call	0x6f42	; 0x6f42 <__divmodhi4>
    11bc:	80 5d       	subi	r24, 0xD0	; 208
    11be:	8d 83       	std	Y+5, r24	; 0x05
			name1 = 0;
    11c0:	1c 82       	std	Y+4, r1	; 0x04
    11c2:	29 c0       	rjmp	.+82     	; 0x1216 <__stack+0x117>
		}
		else if (i >= 99 && i < 199)
    11c4:	89 81       	ldd	r24, Y+1	; 0x01
    11c6:	83 36       	cpi	r24, 0x63	; 99
    11c8:	30 f1       	brcs	.+76     	; 0x1216 <__stack+0x117>
    11ca:	89 81       	ldd	r24, Y+1	; 0x01
    11cc:	87 3c       	cpi	r24, 0xC7	; 199
    11ce:	18 f5       	brcc	.+70     	; 0x1216 <__stack+0x117>
		{
			name3 = (i + 1) / 100 + 0x30;
    11d0:	89 81       	ldd	r24, Y+1	; 0x01
    11d2:	88 2f       	mov	r24, r24
    11d4:	90 e0       	ldi	r25, 0x00	; 0
    11d6:	01 96       	adiw	r24, 0x01	; 1
    11d8:	24 e6       	ldi	r18, 0x64	; 100
    11da:	30 e0       	ldi	r19, 0x00	; 0
    11dc:	b9 01       	movw	r22, r18
    11de:	0e 94 a1 37 	call	0x6f42	; 0x6f42 <__divmodhi4>
    11e2:	cb 01       	movw	r24, r22
    11e4:	80 5d       	subi	r24, 0xD0	; 208
    11e6:	8e 83       	std	Y+6, r24	; 0x06
			name2 = (i + 1) / 10 + 0x30;
    11e8:	89 81       	ldd	r24, Y+1	; 0x01
    11ea:	88 2f       	mov	r24, r24
    11ec:	90 e0       	ldi	r25, 0x00	; 0
    11ee:	01 96       	adiw	r24, 0x01	; 1
    11f0:	2a e0       	ldi	r18, 0x0A	; 10
    11f2:	30 e0       	ldi	r19, 0x00	; 0
    11f4:	b9 01       	movw	r22, r18
    11f6:	0e 94 a1 37 	call	0x6f42	; 0x6f42 <__divmodhi4>
    11fa:	cb 01       	movw	r24, r22
    11fc:	80 5d       	subi	r24, 0xD0	; 208
    11fe:	8d 83       	std	Y+5, r24	; 0x05
			name1 = (i + 1) % 10 + 0x30;
    1200:	89 81       	ldd	r24, Y+1	; 0x01
    1202:	88 2f       	mov	r24, r24
    1204:	90 e0       	ldi	r25, 0x00	; 0
    1206:	01 96       	adiw	r24, 0x01	; 1
    1208:	2a e0       	ldi	r18, 0x0A	; 10
    120a:	30 e0       	ldi	r19, 0x00	; 0
    120c:	b9 01       	movw	r22, r18
    120e:	0e 94 a1 37 	call	0x6f42	; 0x6f42 <__divmodhi4>
    1212:	80 5d       	subi	r24, 0xD0	; 208
    1214:	8c 83       	std	Y+4, r24	; 0x04
		}
		set_name[i] |= 0x23; //#
    1216:	89 81       	ldd	r24, Y+1	; 0x01
    1218:	28 2f       	mov	r18, r24
    121a:	30 e0       	ldi	r19, 0x00	; 0
    121c:	89 81       	ldd	r24, Y+1	; 0x01
    121e:	88 2f       	mov	r24, r24
    1220:	90 e0       	ldi	r25, 0x00	; 0
    1222:	88 0f       	add	r24, r24
    1224:	99 1f       	adc	r25, r25
    1226:	88 0f       	add	r24, r24
    1228:	99 1f       	adc	r25, r25
    122a:	84 5f       	subi	r24, 0xF4	; 244
    122c:	94 4f       	sbci	r25, 0xF4	; 244
    122e:	fc 01       	movw	r30, r24
    1230:	80 81       	ld	r24, Z
    1232:	91 81       	ldd	r25, Z+1	; 0x01
    1234:	a2 81       	ldd	r26, Z+2	; 0x02
    1236:	b3 81       	ldd	r27, Z+3	; 0x03
    1238:	83 62       	ori	r24, 0x23	; 35
    123a:	22 0f       	add	r18, r18
    123c:	33 1f       	adc	r19, r19
    123e:	22 0f       	add	r18, r18
    1240:	33 1f       	adc	r19, r19
    1242:	24 5f       	subi	r18, 0xF4	; 244
    1244:	34 4f       	sbci	r19, 0xF4	; 244
    1246:	f9 01       	movw	r30, r18
    1248:	80 83       	st	Z, r24
    124a:	91 83       	std	Z+1, r25	; 0x01
    124c:	a2 83       	std	Z+2, r26	; 0x02
    124e:	b3 83       	std	Z+3, r27	; 0x03
		set_name[i] = (set_name[i] << 8) | name3;
    1250:	89 81       	ldd	r24, Y+1	; 0x01
    1252:	68 2f       	mov	r22, r24
    1254:	70 e0       	ldi	r23, 0x00	; 0
    1256:	89 81       	ldd	r24, Y+1	; 0x01
    1258:	88 2f       	mov	r24, r24
    125a:	90 e0       	ldi	r25, 0x00	; 0
    125c:	88 0f       	add	r24, r24
    125e:	99 1f       	adc	r25, r25
    1260:	88 0f       	add	r24, r24
    1262:	99 1f       	adc	r25, r25
    1264:	84 5f       	subi	r24, 0xF4	; 244
    1266:	94 4f       	sbci	r25, 0xF4	; 244
    1268:	fc 01       	movw	r30, r24
    126a:	80 81       	ld	r24, Z
    126c:	91 81       	ldd	r25, Z+1	; 0x01
    126e:	a2 81       	ldd	r26, Z+2	; 0x02
    1270:	b3 81       	ldd	r27, Z+3	; 0x03
    1272:	22 27       	eor	r18, r18
    1274:	38 2f       	mov	r19, r24
    1276:	49 2f       	mov	r20, r25
    1278:	5a 2f       	mov	r21, r26
    127a:	8e 81       	ldd	r24, Y+6	; 0x06
    127c:	88 2f       	mov	r24, r24
    127e:	90 e0       	ldi	r25, 0x00	; 0
    1280:	a0 e0       	ldi	r26, 0x00	; 0
    1282:	b0 e0       	ldi	r27, 0x00	; 0
    1284:	82 2b       	or	r24, r18
    1286:	93 2b       	or	r25, r19
    1288:	a4 2b       	or	r26, r20
    128a:	b5 2b       	or	r27, r21
    128c:	9b 01       	movw	r18, r22
    128e:	22 0f       	add	r18, r18
    1290:	33 1f       	adc	r19, r19
    1292:	22 0f       	add	r18, r18
    1294:	33 1f       	adc	r19, r19
    1296:	24 5f       	subi	r18, 0xF4	; 244
    1298:	34 4f       	sbci	r19, 0xF4	; 244
    129a:	f9 01       	movw	r30, r18
    129c:	80 83       	st	Z, r24
    129e:	91 83       	std	Z+1, r25	; 0x01
    12a0:	a2 83       	std	Z+2, r26	; 0x02
    12a2:	b3 83       	std	Z+3, r27	; 0x03
		set_name[i] = (set_name[i] << 8) | name2;
    12a4:	89 81       	ldd	r24, Y+1	; 0x01
    12a6:	68 2f       	mov	r22, r24
    12a8:	70 e0       	ldi	r23, 0x00	; 0
    12aa:	89 81       	ldd	r24, Y+1	; 0x01
    12ac:	88 2f       	mov	r24, r24
    12ae:	90 e0       	ldi	r25, 0x00	; 0
    12b0:	88 0f       	add	r24, r24
    12b2:	99 1f       	adc	r25, r25
    12b4:	88 0f       	add	r24, r24
    12b6:	99 1f       	adc	r25, r25
    12b8:	84 5f       	subi	r24, 0xF4	; 244
    12ba:	94 4f       	sbci	r25, 0xF4	; 244
    12bc:	fc 01       	movw	r30, r24
    12be:	80 81       	ld	r24, Z
    12c0:	91 81       	ldd	r25, Z+1	; 0x01
    12c2:	a2 81       	ldd	r26, Z+2	; 0x02
    12c4:	b3 81       	ldd	r27, Z+3	; 0x03
    12c6:	22 27       	eor	r18, r18
    12c8:	38 2f       	mov	r19, r24
    12ca:	49 2f       	mov	r20, r25
    12cc:	5a 2f       	mov	r21, r26
    12ce:	8d 81       	ldd	r24, Y+5	; 0x05
    12d0:	88 2f       	mov	r24, r24
    12d2:	90 e0       	ldi	r25, 0x00	; 0
    12d4:	a0 e0       	ldi	r26, 0x00	; 0
    12d6:	b0 e0       	ldi	r27, 0x00	; 0
    12d8:	82 2b       	or	r24, r18
    12da:	93 2b       	or	r25, r19
    12dc:	a4 2b       	or	r26, r20
    12de:	b5 2b       	or	r27, r21
    12e0:	9b 01       	movw	r18, r22
    12e2:	22 0f       	add	r18, r18
    12e4:	33 1f       	adc	r19, r19
    12e6:	22 0f       	add	r18, r18
    12e8:	33 1f       	adc	r19, r19
    12ea:	24 5f       	subi	r18, 0xF4	; 244
    12ec:	34 4f       	sbci	r19, 0xF4	; 244
    12ee:	f9 01       	movw	r30, r18
    12f0:	80 83       	st	Z, r24
    12f2:	91 83       	std	Z+1, r25	; 0x01
    12f4:	a2 83       	std	Z+2, r26	; 0x02
    12f6:	b3 83       	std	Z+3, r27	; 0x03
		set_name[i] = (set_name[i] << 8) | name1;
    12f8:	89 81       	ldd	r24, Y+1	; 0x01
    12fa:	68 2f       	mov	r22, r24
    12fc:	70 e0       	ldi	r23, 0x00	; 0
    12fe:	89 81       	ldd	r24, Y+1	; 0x01
    1300:	88 2f       	mov	r24, r24
    1302:	90 e0       	ldi	r25, 0x00	; 0
    1304:	88 0f       	add	r24, r24
    1306:	99 1f       	adc	r25, r25
    1308:	88 0f       	add	r24, r24
    130a:	99 1f       	adc	r25, r25
    130c:	84 5f       	subi	r24, 0xF4	; 244
    130e:	94 4f       	sbci	r25, 0xF4	; 244
    1310:	fc 01       	movw	r30, r24
    1312:	80 81       	ld	r24, Z
    1314:	91 81       	ldd	r25, Z+1	; 0x01
    1316:	a2 81       	ldd	r26, Z+2	; 0x02
    1318:	b3 81       	ldd	r27, Z+3	; 0x03
    131a:	22 27       	eor	r18, r18
    131c:	38 2f       	mov	r19, r24
    131e:	49 2f       	mov	r20, r25
    1320:	5a 2f       	mov	r21, r26
    1322:	8c 81       	ldd	r24, Y+4	; 0x04
    1324:	88 2f       	mov	r24, r24
    1326:	90 e0       	ldi	r25, 0x00	; 0
    1328:	a0 e0       	ldi	r26, 0x00	; 0
    132a:	b0 e0       	ldi	r27, 0x00	; 0
    132c:	82 2b       	or	r24, r18
    132e:	93 2b       	or	r25, r19
    1330:	a4 2b       	or	r26, r20
    1332:	b5 2b       	or	r27, r21
    1334:	9b 01       	movw	r18, r22
    1336:	22 0f       	add	r18, r18
    1338:	33 1f       	adc	r19, r19
    133a:	22 0f       	add	r18, r18
    133c:	33 1f       	adc	r19, r19
    133e:	24 5f       	subi	r18, 0xF4	; 244
    1340:	34 4f       	sbci	r19, 0xF4	; 244
    1342:	f9 01       	movw	r30, r18
    1344:	80 83       	st	Z, r24
    1346:	91 83       	std	Z+1, r25	; 0x01
    1348:	a2 83       	std	Z+2, r26	; 0x02
    134a:	b3 83       	std	Z+3, r27	; 0x03
				time_ctrl_value_buff[i][j][k] = 500;
			}
		}
	}

	for (i = 0; i < MAX_IQR_QUANTITY; i++)
    134c:	89 81       	ldd	r24, Y+1	; 0x01
    134e:	8f 5f       	subi	r24, 0xFF	; 255
    1350:	89 83       	std	Y+1, r24	; 0x01
    1352:	89 81       	ldd	r24, Y+1	; 0x01
    1354:	88 31       	cpi	r24, 0x18	; 24
    1356:	08 f4       	brcc	.+2      	; 0x135a <__stack+0x25b>
    1358:	c9 ce       	rjmp	.-622    	; 0x10ec <init_variable+0xce>
		set_name[i] |= 0x23; //#
		set_name[i] = (set_name[i] << 8) | name3;
		set_name[i] = (set_name[i] << 8) | name2;
		set_name[i] = (set_name[i] << 8) | name1;
	}
}
    135a:	00 00       	nop
    135c:	26 96       	adiw	r28, 0x06	; 6
    135e:	0f b6       	in	r0, 0x3f	; 63
    1360:	f8 94       	cli
    1362:	de bf       	out	0x3e, r29	; 62
    1364:	0f be       	out	0x3f, r0	; 63
    1366:	cd bf       	out	0x3d, r28	; 61
    1368:	df 91       	pop	r29
    136a:	cf 91       	pop	r28
    136c:	08 95       	ret

0000136e <update_main_page>:
// 		}
// 	}
// }

void update_main_page(void)
{
    136e:	cf 93       	push	r28
    1370:	df 93       	push	r29
    1372:	1f 92       	push	r1
    1374:	cd b7       	in	r28, 0x3d	; 61
    1376:	de b7       	in	r29, 0x3e	; 62
	uint8_t i = 0;
    1378:	19 82       	std	Y+1, r1	; 0x01

	for (i = 0; i < IQR_QUANTITY_PER_PAGE; i++)
    137a:	19 82       	std	Y+1, r1	; 0x01
    137c:	b8 c1       	rjmp	.+880    	; 0x16ee <update_main_page+0x380>
	{
		send_variables(MAINPAGE_NUM1_ADDR + (i * 2), (i + (pre_main_page * IQR_QUANTITY_PER_PAGE) + 1));		//
    137e:	89 81       	ldd	r24, Y+1	; 0x01
    1380:	48 2f       	mov	r20, r24
    1382:	50 e0       	ldi	r21, 0x00	; 0
    1384:	80 91 9b 01 	lds	r24, 0x019B	; 0x80019b <pre_main_page>
    1388:	28 2f       	mov	r18, r24
    138a:	88 0f       	add	r24, r24
    138c:	33 0b       	sbc	r19, r19
    138e:	c9 01       	movw	r24, r18
    1390:	88 0f       	add	r24, r24
    1392:	99 1f       	adc	r25, r25
    1394:	82 0f       	add	r24, r18
    1396:	93 1f       	adc	r25, r19
    1398:	88 0f       	add	r24, r24
    139a:	99 1f       	adc	r25, r25
    139c:	84 0f       	add	r24, r20
    139e:	95 1f       	adc	r25, r21
    13a0:	01 96       	adiw	r24, 0x01	; 1
    13a2:	9c 01       	movw	r18, r24
    13a4:	89 81       	ldd	r24, Y+1	; 0x01
    13a6:	88 2f       	mov	r24, r24
    13a8:	90 e0       	ldi	r25, 0x00	; 0
    13aa:	88 0f       	add	r24, r24
    13ac:	99 1f       	adc	r25, r25
    13ae:	b9 01       	movw	r22, r18
    13b0:	0e 94 1f 1c 	call	0x383e	; 0x383e <send_variables>
		send_variables(MAIN_OUTRATE1_ADDR + (i * 2), output_rate[i + (pre_main_page * IQR_QUANTITY_PER_PAGE)]); //
    13b4:	89 81       	ldd	r24, Y+1	; 0x01
    13b6:	48 2f       	mov	r20, r24
    13b8:	50 e0       	ldi	r21, 0x00	; 0
    13ba:	80 91 9b 01 	lds	r24, 0x019B	; 0x80019b <pre_main_page>
    13be:	28 2f       	mov	r18, r24
    13c0:	88 0f       	add	r24, r24
    13c2:	33 0b       	sbc	r19, r19
    13c4:	c9 01       	movw	r24, r18
    13c6:	88 0f       	add	r24, r24
    13c8:	99 1f       	adc	r25, r25
    13ca:	82 0f       	add	r24, r18
    13cc:	93 1f       	adc	r25, r19
    13ce:	88 0f       	add	r24, r24
    13d0:	99 1f       	adc	r25, r25
    13d2:	84 0f       	add	r24, r20
    13d4:	95 1f       	adc	r25, r21
    13d6:	87 55       	subi	r24, 0x57	; 87
    13d8:	9e 4f       	sbci	r25, 0xFE	; 254
    13da:	dc 01       	movw	r26, r24
    13dc:	8c 91       	ld	r24, X
    13de:	28 2f       	mov	r18, r24
    13e0:	30 e0       	ldi	r19, 0x00	; 0
    13e2:	89 81       	ldd	r24, Y+1	; 0x01
    13e4:	88 2f       	mov	r24, r24
    13e6:	90 e0       	ldi	r25, 0x00	; 0
    13e8:	06 96       	adiw	r24, 0x06	; 6
    13ea:	88 0f       	add	r24, r24
    13ec:	99 1f       	adc	r25, r25
    13ee:	b9 01       	movw	r22, r18
    13f0:	0e 94 1f 1c 	call	0x383e	; 0x383e <send_variables>
		send_variables(MAIN_RUNTEMP1_ADDR + (i * 2), run_temp[i + (pre_main_page * IQR_QUANTITY_PER_PAGE)] +
    13f4:	89 81       	ldd	r24, Y+1	; 0x01
    13f6:	48 2f       	mov	r20, r24
    13f8:	50 e0       	ldi	r21, 0x00	; 0
    13fa:	80 91 9b 01 	lds	r24, 0x019B	; 0x80019b <pre_main_page>
    13fe:	28 2f       	mov	r18, r24
    1400:	88 0f       	add	r24, r24
    1402:	33 0b       	sbc	r19, r19
    1404:	c9 01       	movw	r24, r18
    1406:	88 0f       	add	r24, r24
    1408:	99 1f       	adc	r25, r25
    140a:	82 0f       	add	r24, r18
    140c:	93 1f       	adc	r25, r19
    140e:	88 0f       	add	r24, r24
    1410:	99 1f       	adc	r25, r25
    1412:	84 0f       	add	r24, r20
    1414:	95 1f       	adc	r25, r21
    1416:	88 0f       	add	r24, r24
    1418:	99 1f       	adc	r25, r25
    141a:	8f 50       	subi	r24, 0x0F	; 15
    141c:	9e 4f       	sbci	r25, 0xFE	; 254
    141e:	fc 01       	movw	r30, r24
    1420:	80 81       	ld	r24, Z
    1422:	91 81       	ldd	r25, Z+1	; 0x01
    1424:	fc 01       	movw	r30, r24
														 temp_unit * (run_temp[i + (pre_main_page * IQR_QUANTITY_PER_PAGE)] * 8 / 10 + 32)); //
    1426:	89 81       	ldd	r24, Y+1	; 0x01
    1428:	48 2f       	mov	r20, r24
    142a:	50 e0       	ldi	r21, 0x00	; 0
    142c:	80 91 9b 01 	lds	r24, 0x019B	; 0x80019b <pre_main_page>
    1430:	28 2f       	mov	r18, r24
    1432:	88 0f       	add	r24, r24
    1434:	33 0b       	sbc	r19, r19
    1436:	c9 01       	movw	r24, r18
    1438:	88 0f       	add	r24, r24
    143a:	99 1f       	adc	r25, r25
    143c:	82 0f       	add	r24, r18
    143e:	93 1f       	adc	r25, r19
    1440:	88 0f       	add	r24, r24
    1442:	99 1f       	adc	r25, r25
    1444:	84 0f       	add	r24, r20
    1446:	95 1f       	adc	r25, r21
    1448:	88 0f       	add	r24, r24
    144a:	99 1f       	adc	r25, r25
    144c:	8f 50       	subi	r24, 0x0F	; 15
    144e:	9e 4f       	sbci	r25, 0xFE	; 254
    1450:	dc 01       	movw	r26, r24
    1452:	8d 91       	ld	r24, X+
    1454:	9c 91       	ld	r25, X
    1456:	88 0f       	add	r24, r24
    1458:	99 1f       	adc	r25, r25
    145a:	88 0f       	add	r24, r24
    145c:	99 1f       	adc	r25, r25
    145e:	88 0f       	add	r24, r24
    1460:	99 1f       	adc	r25, r25
    1462:	2a e0       	ldi	r18, 0x0A	; 10
    1464:	30 e0       	ldi	r19, 0x00	; 0
    1466:	b9 01       	movw	r22, r18
    1468:	0e 94 a1 37 	call	0x6f42	; 0x6f42 <__divmodhi4>
    146c:	cb 01       	movw	r24, r22
    146e:	80 96       	adiw	r24, 0x20	; 32
    1470:	ac 01       	movw	r20, r24
    1472:	20 91 b7 02 	lds	r18, 0x02B7	; 0x8002b7 <temp_unit>
    1476:	30 91 b8 02 	lds	r19, 0x02B8	; 0x8002b8 <temp_unit+0x1>
    147a:	42 9f       	mul	r20, r18
    147c:	c0 01       	movw	r24, r0
    147e:	43 9f       	mul	r20, r19
    1480:	90 0d       	add	r25, r0
    1482:	52 9f       	mul	r21, r18
    1484:	90 0d       	add	r25, r0
    1486:	11 24       	eor	r1, r1

	for (i = 0; i < IQR_QUANTITY_PER_PAGE; i++)
	{
		send_variables(MAINPAGE_NUM1_ADDR + (i * 2), (i + (pre_main_page * IQR_QUANTITY_PER_PAGE) + 1));		//
		send_variables(MAIN_OUTRATE1_ADDR + (i * 2), output_rate[i + (pre_main_page * IQR_QUANTITY_PER_PAGE)]); //
		send_variables(MAIN_RUNTEMP1_ADDR + (i * 2), run_temp[i + (pre_main_page * IQR_QUANTITY_PER_PAGE)] +
    1488:	9f 01       	movw	r18, r30
    148a:	28 0f       	add	r18, r24
    148c:	39 1f       	adc	r19, r25
    148e:	89 81       	ldd	r24, Y+1	; 0x01
    1490:	88 2f       	mov	r24, r24
    1492:	90 e0       	ldi	r25, 0x00	; 0
    1494:	0c 96       	adiw	r24, 0x0c	; 12
    1496:	88 0f       	add	r24, r24
    1498:	99 1f       	adc	r25, r25
    149a:	b9 01       	movw	r22, r18
    149c:	0e 94 1f 1c 	call	0x383e	; 0x383e <send_variables>
														 temp_unit * (run_temp[i + (pre_main_page * IQR_QUANTITY_PER_PAGE)] * 8 / 10 + 32)); //
		send_variables(MAIN_SETTEMP1_ADDR + (i * 2), set_temp[i + (pre_main_page * IQR_QUANTITY_PER_PAGE)] + 
    14a0:	89 81       	ldd	r24, Y+1	; 0x01
    14a2:	48 2f       	mov	r20, r24
    14a4:	50 e0       	ldi	r21, 0x00	; 0
    14a6:	80 91 9b 01 	lds	r24, 0x019B	; 0x80019b <pre_main_page>
    14aa:	28 2f       	mov	r18, r24
    14ac:	88 0f       	add	r24, r24
    14ae:	33 0b       	sbc	r19, r19
    14b0:	c9 01       	movw	r24, r18
    14b2:	88 0f       	add	r24, r24
    14b4:	99 1f       	adc	r25, r25
    14b6:	82 0f       	add	r24, r18
    14b8:	93 1f       	adc	r25, r19
    14ba:	88 0f       	add	r24, r24
    14bc:	99 1f       	adc	r25, r25
    14be:	84 0f       	add	r24, r20
    14c0:	95 1f       	adc	r25, r21
    14c2:	88 0f       	add	r24, r24
    14c4:	99 1f       	adc	r25, r25
    14c6:	84 59       	subi	r24, 0x94	; 148
    14c8:	94 4f       	sbci	r25, 0xF4	; 244
    14ca:	fc 01       	movw	r30, r24
    14cc:	80 81       	ld	r24, Z
    14ce:	91 81       	ldd	r25, Z+1	; 0x01
    14d0:	fc 01       	movw	r30, r24
														 temp_unit*(set_temp[i + (pre_main_page * IQR_QUANTITY_PER_PAGE)]*8/10+32));				//
    14d2:	89 81       	ldd	r24, Y+1	; 0x01
    14d4:	48 2f       	mov	r20, r24
    14d6:	50 e0       	ldi	r21, 0x00	; 0
    14d8:	80 91 9b 01 	lds	r24, 0x019B	; 0x80019b <pre_main_page>
    14dc:	28 2f       	mov	r18, r24
    14de:	88 0f       	add	r24, r24
    14e0:	33 0b       	sbc	r19, r19
    14e2:	c9 01       	movw	r24, r18
    14e4:	88 0f       	add	r24, r24
    14e6:	99 1f       	adc	r25, r25
    14e8:	82 0f       	add	r24, r18
    14ea:	93 1f       	adc	r25, r19
    14ec:	88 0f       	add	r24, r24
    14ee:	99 1f       	adc	r25, r25
    14f0:	84 0f       	add	r24, r20
    14f2:	95 1f       	adc	r25, r21
    14f4:	88 0f       	add	r24, r24
    14f6:	99 1f       	adc	r25, r25
    14f8:	84 59       	subi	r24, 0x94	; 148
    14fa:	94 4f       	sbci	r25, 0xF4	; 244
    14fc:	dc 01       	movw	r26, r24
    14fe:	8d 91       	ld	r24, X+
    1500:	9c 91       	ld	r25, X
    1502:	88 0f       	add	r24, r24
    1504:	99 1f       	adc	r25, r25
    1506:	88 0f       	add	r24, r24
    1508:	99 1f       	adc	r25, r25
    150a:	88 0f       	add	r24, r24
    150c:	99 1f       	adc	r25, r25
    150e:	2a e0       	ldi	r18, 0x0A	; 10
    1510:	30 e0       	ldi	r19, 0x00	; 0
    1512:	b9 01       	movw	r22, r18
    1514:	0e 94 a1 37 	call	0x6f42	; 0x6f42 <__divmodhi4>
    1518:	cb 01       	movw	r24, r22
    151a:	80 96       	adiw	r24, 0x20	; 32
    151c:	ac 01       	movw	r20, r24
    151e:	20 91 b7 02 	lds	r18, 0x02B7	; 0x8002b7 <temp_unit>
    1522:	30 91 b8 02 	lds	r19, 0x02B8	; 0x8002b8 <temp_unit+0x1>
    1526:	42 9f       	mul	r20, r18
    1528:	c0 01       	movw	r24, r0
    152a:	43 9f       	mul	r20, r19
    152c:	90 0d       	add	r25, r0
    152e:	52 9f       	mul	r21, r18
    1530:	90 0d       	add	r25, r0
    1532:	11 24       	eor	r1, r1
	{
		send_variables(MAINPAGE_NUM1_ADDR + (i * 2), (i + (pre_main_page * IQR_QUANTITY_PER_PAGE) + 1));		//
		send_variables(MAIN_OUTRATE1_ADDR + (i * 2), output_rate[i + (pre_main_page * IQR_QUANTITY_PER_PAGE)]); //
		send_variables(MAIN_RUNTEMP1_ADDR + (i * 2), run_temp[i + (pre_main_page * IQR_QUANTITY_PER_PAGE)] +
														 temp_unit * (run_temp[i + (pre_main_page * IQR_QUANTITY_PER_PAGE)] * 8 / 10 + 32)); //
		send_variables(MAIN_SETTEMP1_ADDR + (i * 2), set_temp[i + (pre_main_page * IQR_QUANTITY_PER_PAGE)] + 
    1534:	9f 01       	movw	r18, r30
    1536:	28 0f       	add	r18, r24
    1538:	39 1f       	adc	r19, r25
    153a:	89 81       	ldd	r24, Y+1	; 0x01
    153c:	88 2f       	mov	r24, r24
    153e:	90 e0       	ldi	r25, 0x00	; 0
    1540:	42 96       	adiw	r24, 0x12	; 18
    1542:	88 0f       	add	r24, r24
    1544:	99 1f       	adc	r25, r25
    1546:	b9 01       	movw	r22, r18
    1548:	0e 94 1f 1c 	call	0x383e	; 0x383e <send_variables>
														 temp_unit*(set_temp[i + (pre_main_page * IQR_QUANTITY_PER_PAGE)]*8/10+32));				//
		send_variables(MAIN_SENSOR1_TYPE_ADDR + (i * 2), TYPE_J + (sensor_type[i + (pre_main_page * IQR_QUANTITY_PER_PAGE)]) * TYPE_K);
    154c:	89 81       	ldd	r24, Y+1	; 0x01
    154e:	48 2f       	mov	r20, r24
    1550:	50 e0       	ldi	r21, 0x00	; 0
    1552:	80 91 9b 01 	lds	r24, 0x019B	; 0x80019b <pre_main_page>
    1556:	28 2f       	mov	r18, r24
    1558:	88 0f       	add	r24, r24
    155a:	33 0b       	sbc	r19, r19
    155c:	c9 01       	movw	r24, r18
    155e:	88 0f       	add	r24, r24
    1560:	99 1f       	adc	r25, r25
    1562:	82 0f       	add	r24, r18
    1564:	93 1f       	adc	r25, r19
    1566:	88 0f       	add	r24, r24
    1568:	99 1f       	adc	r25, r25
    156a:	84 0f       	add	r24, r20
    156c:	95 1f       	adc	r25, r21
    156e:	88 0f       	add	r24, r24
    1570:	99 1f       	adc	r25, r25
    1572:	8f 5a       	subi	r24, 0xAF	; 175
    1574:	9d 4f       	sbci	r25, 0xFD	; 253
    1576:	fc 01       	movw	r30, r24
    1578:	80 81       	ld	r24, Z
    157a:	91 81       	ldd	r25, Z+1	; 0x01
    157c:	86 5b       	subi	r24, 0xB6	; 182
    157e:	9f 4f       	sbci	r25, 0xFF	; 255
    1580:	38 2f       	mov	r19, r24
    1582:	22 27       	eor	r18, r18
    1584:	89 81       	ldd	r24, Y+1	; 0x01
    1586:	88 2f       	mov	r24, r24
    1588:	90 e0       	ldi	r25, 0x00	; 0
    158a:	88 5e       	subi	r24, 0xE8	; 232
    158c:	9e 4f       	sbci	r25, 0xFE	; 254
    158e:	88 0f       	add	r24, r24
    1590:	99 1f       	adc	r25, r25
    1592:	b9 01       	movw	r22, r18
    1594:	0e 94 1f 1c 	call	0x383e	; 0x383e <send_variables>

		send_name(MAIN_NAME1_ADDR + (i * 8), set_name[i + (pre_main_page * IQR_QUANTITY_PER_PAGE)]);
    1598:	89 81       	ldd	r24, Y+1	; 0x01
    159a:	48 2f       	mov	r20, r24
    159c:	50 e0       	ldi	r21, 0x00	; 0
    159e:	80 91 9b 01 	lds	r24, 0x019B	; 0x80019b <pre_main_page>
    15a2:	28 2f       	mov	r18, r24
    15a4:	88 0f       	add	r24, r24
    15a6:	33 0b       	sbc	r19, r19
    15a8:	c9 01       	movw	r24, r18
    15aa:	88 0f       	add	r24, r24
    15ac:	99 1f       	adc	r25, r25
    15ae:	82 0f       	add	r24, r18
    15b0:	93 1f       	adc	r25, r19
    15b2:	88 0f       	add	r24, r24
    15b4:	99 1f       	adc	r25, r25
    15b6:	84 0f       	add	r24, r20
    15b8:	95 1f       	adc	r25, r21
    15ba:	88 0f       	add	r24, r24
    15bc:	99 1f       	adc	r25, r25
    15be:	88 0f       	add	r24, r24
    15c0:	99 1f       	adc	r25, r25
    15c2:	84 5f       	subi	r24, 0xF4	; 244
    15c4:	94 4f       	sbci	r25, 0xF4	; 244
    15c6:	fc 01       	movw	r30, r24
    15c8:	80 81       	ld	r24, Z
    15ca:	91 81       	ldd	r25, Z+1	; 0x01
    15cc:	a2 81       	ldd	r26, Z+2	; 0x02
    15ce:	b3 81       	ldd	r27, Z+3	; 0x03
    15d0:	29 81       	ldd	r18, Y+1	; 0x01
    15d2:	22 2f       	mov	r18, r18
    15d4:	30 e0       	ldi	r19, 0x00	; 0
    15d6:	20 5c       	subi	r18, 0xC0	; 192
    15d8:	3f 4f       	sbci	r19, 0xFF	; 255
    15da:	22 0f       	add	r18, r18
    15dc:	33 1f       	adc	r19, r19
    15de:	22 0f       	add	r18, r18
    15e0:	33 1f       	adc	r19, r19
    15e2:	22 0f       	add	r18, r18
    15e4:	33 1f       	adc	r19, r19
    15e6:	ac 01       	movw	r20, r24
    15e8:	bd 01       	movw	r22, r26
    15ea:	c9 01       	movw	r24, r18
    15ec:	0e 94 69 1c 	call	0x38d2	; 0x38d2 <send_name>

		/* sensor_sta >= 3  0~2  */
		/* sensor_sta >= 3   0~2*/
		if (sensor_sta[i + (pre_main_page * IQR_QUANTITY_PER_PAGE)] >= 3)
    15f0:	89 81       	ldd	r24, Y+1	; 0x01
    15f2:	48 2f       	mov	r20, r24
    15f4:	50 e0       	ldi	r21, 0x00	; 0
    15f6:	80 91 9b 01 	lds	r24, 0x019B	; 0x80019b <pre_main_page>
    15fa:	28 2f       	mov	r18, r24
    15fc:	88 0f       	add	r24, r24
    15fe:	33 0b       	sbc	r19, r19
    1600:	c9 01       	movw	r24, r18
    1602:	88 0f       	add	r24, r24
    1604:	99 1f       	adc	r25, r25
    1606:	82 0f       	add	r24, r18
    1608:	93 1f       	adc	r25, r19
    160a:	88 0f       	add	r24, r24
    160c:	99 1f       	adc	r25, r25
    160e:	84 0f       	add	r24, r20
    1610:	95 1f       	adc	r25, r21
    1612:	8f 53       	subi	r24, 0x3F	; 63
    1614:	9e 4f       	sbci	r25, 0xFE	; 254
    1616:	dc 01       	movw	r26, r24
    1618:	8c 91       	ld	r24, X
    161a:	83 30       	cpi	r24, 0x03	; 3
    161c:	98 f1       	brcs	.+102    	; 0x1684 <update_main_page+0x316>
		{
			send_variables(MAIN_STA1_ADDR + (i * 4), 3);
    161e:	89 81       	ldd	r24, Y+1	; 0x01
    1620:	88 2f       	mov	r24, r24
    1622:	90 e0       	ldi	r25, 0x00	; 0
    1624:	84 56       	subi	r24, 0x64	; 100
    1626:	9f 4f       	sbci	r25, 0xFF	; 255
    1628:	88 0f       	add	r24, r24
    162a:	99 1f       	adc	r25, r25
    162c:	88 0f       	add	r24, r24
    162e:	99 1f       	adc	r25, r25
    1630:	63 e0       	ldi	r22, 0x03	; 3
    1632:	70 e0       	ldi	r23, 0x00	; 0
    1634:	0e 94 1f 1c 	call	0x383e	; 0x383e <send_variables>
			send_variables(MAIN_ALARM1_ADDR + (i * 8), sensor_sta[i + (pre_main_page * IQR_QUANTITY_PER_PAGE)]);
    1638:	89 81       	ldd	r24, Y+1	; 0x01
    163a:	48 2f       	mov	r20, r24
    163c:	50 e0       	ldi	r21, 0x00	; 0
    163e:	80 91 9b 01 	lds	r24, 0x019B	; 0x80019b <pre_main_page>
    1642:	28 2f       	mov	r18, r24
    1644:	88 0f       	add	r24, r24
    1646:	33 0b       	sbc	r19, r19
    1648:	c9 01       	movw	r24, r18
    164a:	88 0f       	add	r24, r24
    164c:	99 1f       	adc	r25, r25
    164e:	82 0f       	add	r24, r18
    1650:	93 1f       	adc	r25, r19
    1652:	88 0f       	add	r24, r24
    1654:	99 1f       	adc	r25, r25
    1656:	84 0f       	add	r24, r20
    1658:	95 1f       	adc	r25, r21
    165a:	8f 53       	subi	r24, 0x3F	; 63
    165c:	9e 4f       	sbci	r25, 0xFE	; 254
    165e:	fc 01       	movw	r30, r24
    1660:	80 81       	ld	r24, Z
    1662:	28 2f       	mov	r18, r24
    1664:	30 e0       	ldi	r19, 0x00	; 0
    1666:	89 81       	ldd	r24, Y+1	; 0x01
    1668:	88 2f       	mov	r24, r24
    166a:	90 e0       	ldi	r25, 0x00	; 0
    166c:	88 5b       	subi	r24, 0xB8	; 184
    166e:	9f 4f       	sbci	r25, 0xFF	; 255
    1670:	88 0f       	add	r24, r24
    1672:	99 1f       	adc	r25, r25
    1674:	88 0f       	add	r24, r24
    1676:	99 1f       	adc	r25, r25
    1678:	88 0f       	add	r24, r24
    167a:	99 1f       	adc	r25, r25
    167c:	b9 01       	movw	r22, r18
    167e:	0e 94 1f 1c 	call	0x383e	; 0x383e <send_variables>
    1682:	32 c0       	rjmp	.+100    	; 0x16e8 <update_main_page+0x37a>
		}
		else
		{
			send_variables(MAIN_STA1_ADDR + (i * 4), sensor_sta[i + (pre_main_page * IQR_QUANTITY_PER_PAGE)]);
    1684:	89 81       	ldd	r24, Y+1	; 0x01
    1686:	48 2f       	mov	r20, r24
    1688:	50 e0       	ldi	r21, 0x00	; 0
    168a:	80 91 9b 01 	lds	r24, 0x019B	; 0x80019b <pre_main_page>
    168e:	28 2f       	mov	r18, r24
    1690:	88 0f       	add	r24, r24
    1692:	33 0b       	sbc	r19, r19
    1694:	c9 01       	movw	r24, r18
    1696:	88 0f       	add	r24, r24
    1698:	99 1f       	adc	r25, r25
    169a:	82 0f       	add	r24, r18
    169c:	93 1f       	adc	r25, r19
    169e:	88 0f       	add	r24, r24
    16a0:	99 1f       	adc	r25, r25
    16a2:	84 0f       	add	r24, r20
    16a4:	95 1f       	adc	r25, r21
    16a6:	8f 53       	subi	r24, 0x3F	; 63
    16a8:	9e 4f       	sbci	r25, 0xFE	; 254
    16aa:	dc 01       	movw	r26, r24
    16ac:	8c 91       	ld	r24, X
    16ae:	28 2f       	mov	r18, r24
    16b0:	30 e0       	ldi	r19, 0x00	; 0
    16b2:	89 81       	ldd	r24, Y+1	; 0x01
    16b4:	88 2f       	mov	r24, r24
    16b6:	90 e0       	ldi	r25, 0x00	; 0
    16b8:	84 56       	subi	r24, 0x64	; 100
    16ba:	9f 4f       	sbci	r25, 0xFF	; 255
    16bc:	88 0f       	add	r24, r24
    16be:	99 1f       	adc	r25, r25
    16c0:	88 0f       	add	r24, r24
    16c2:	99 1f       	adc	r25, r25
    16c4:	b9 01       	movw	r22, r18
    16c6:	0e 94 1f 1c 	call	0x383e	; 0x383e <send_variables>
			send_variables(MAIN_ALARM1_ADDR + (i * 8), 2);
    16ca:	89 81       	ldd	r24, Y+1	; 0x01
    16cc:	88 2f       	mov	r24, r24
    16ce:	90 e0       	ldi	r25, 0x00	; 0
    16d0:	88 5b       	subi	r24, 0xB8	; 184
    16d2:	9f 4f       	sbci	r25, 0xFF	; 255
    16d4:	88 0f       	add	r24, r24
    16d6:	99 1f       	adc	r25, r25
    16d8:	88 0f       	add	r24, r24
    16da:	99 1f       	adc	r25, r25
    16dc:	88 0f       	add	r24, r24
    16de:	99 1f       	adc	r25, r25
    16e0:	62 e0       	ldi	r22, 0x02	; 2
    16e2:	70 e0       	ldi	r23, 0x00	; 0
    16e4:	0e 94 1f 1c 	call	0x383e	; 0x383e <send_variables>

void update_main_page(void)
{
	uint8_t i = 0;

	for (i = 0; i < IQR_QUANTITY_PER_PAGE; i++)
    16e8:	89 81       	ldd	r24, Y+1	; 0x01
    16ea:	8f 5f       	subi	r24, 0xFF	; 255
    16ec:	89 83       	std	Y+1, r24	; 0x01
    16ee:	89 81       	ldd	r24, Y+1	; 0x01
    16f0:	86 30       	cpi	r24, 0x06	; 6
    16f2:	08 f4       	brcc	.+2      	; 0x16f6 <update_main_page+0x388>
    16f4:	44 ce       	rjmp	.-888    	; 0x137e <update_main_page+0x10>
		{
			send_variables(MAIN_STA1_ADDR + (i * 4), sensor_sta[i + (pre_main_page * IQR_QUANTITY_PER_PAGE)]);
			send_variables(MAIN_ALARM1_ADDR + (i * 8), 2);
		}
	}
}
    16f6:	00 00       	nop
    16f8:	0f 90       	pop	r0
    16fa:	df 91       	pop	r29
    16fc:	cf 91       	pop	r28
    16fe:	08 95       	ret

00001700 <key_action>:

void key_action(uint16_t key_code)
{
    1700:	cf 93       	push	r28
    1702:	df 93       	push	r29
    1704:	00 d0       	rcall	.+0      	; 0x1706 <key_action+0x6>
    1706:	00 d0       	rcall	.+0      	; 0x1708 <key_action+0x8>
    1708:	cd b7       	in	r28, 0x3d	; 61
    170a:	de b7       	in	r29, 0x3e	; 62
    170c:	9c 83       	std	Y+4, r25	; 0x04
    170e:	8b 83       	std	Y+3, r24	; 0x03
	static uint8_t alarm_page_num = 1;
	uint8_t max_alarm_page_num;
	uint8_t first_tpnum_buff;
	
	if (alarm_cnt == 0)
    1710:	80 91 bd 02 	lds	r24, 0x02BD	; 0x8002bd <alarm_cnt>
    1714:	88 23       	and	r24, r24
    1716:	19 f4       	brne	.+6      	; 0x171e <key_action+0x1e>
	{
		max_alarm_page_num = 1;
    1718:	81 e0       	ldi	r24, 0x01	; 1
    171a:	89 83       	std	Y+1, r24	; 0x01
    171c:	30 c0       	rjmp	.+96     	; 0x177e <key_action+0x7e>
	}
	else if (alarm_cnt % 7 == 0)
    171e:	20 91 bd 02 	lds	r18, 0x02BD	; 0x8002bd <alarm_cnt>
    1722:	85 e2       	ldi	r24, 0x25	; 37
    1724:	28 9f       	mul	r18, r24
    1726:	81 2d       	mov	r24, r1
    1728:	11 24       	eor	r1, r1
    172a:	92 2f       	mov	r25, r18
    172c:	98 1b       	sub	r25, r24
    172e:	96 95       	lsr	r25
    1730:	89 0f       	add	r24, r25
    1732:	98 2f       	mov	r25, r24
    1734:	96 95       	lsr	r25
    1736:	96 95       	lsr	r25
    1738:	89 2f       	mov	r24, r25
    173a:	88 0f       	add	r24, r24
    173c:	88 0f       	add	r24, r24
    173e:	88 0f       	add	r24, r24
    1740:	89 1b       	sub	r24, r25
    1742:	92 2f       	mov	r25, r18
    1744:	98 1b       	sub	r25, r24
    1746:	99 23       	and	r25, r25
    1748:	69 f4       	brne	.+26     	; 0x1764 <key_action+0x64>
	{
		max_alarm_page_num = alarm_cnt / 7;
    174a:	90 91 bd 02 	lds	r25, 0x02BD	; 0x8002bd <alarm_cnt>
    174e:	85 e2       	ldi	r24, 0x25	; 37
    1750:	98 9f       	mul	r25, r24
    1752:	81 2d       	mov	r24, r1
    1754:	11 24       	eor	r1, r1
    1756:	98 1b       	sub	r25, r24
    1758:	96 95       	lsr	r25
    175a:	89 0f       	add	r24, r25
    175c:	86 95       	lsr	r24
    175e:	86 95       	lsr	r24
    1760:	89 83       	std	Y+1, r24	; 0x01
    1762:	0d c0       	rjmp	.+26     	; 0x177e <key_action+0x7e>
	}
	else
	{
		max_alarm_page_num = alarm_cnt / 7 + 1;
    1764:	90 91 bd 02 	lds	r25, 0x02BD	; 0x8002bd <alarm_cnt>
    1768:	85 e2       	ldi	r24, 0x25	; 37
    176a:	98 9f       	mul	r25, r24
    176c:	81 2d       	mov	r24, r1
    176e:	11 24       	eor	r1, r1
    1770:	98 1b       	sub	r25, r24
    1772:	96 95       	lsr	r25
    1774:	89 0f       	add	r24, r25
    1776:	86 95       	lsr	r24
    1778:	86 95       	lsr	r24
    177a:	8f 5f       	subi	r24, 0xFF	; 255
    177c:	89 83       	std	Y+1, r24	; 0x01
	}

	switch (key_code)
    177e:	8b 81       	ldd	r24, Y+3	; 0x03
    1780:	9c 81       	ldd	r25, Y+4	; 0x04
    1782:	cc 01       	movw	r24, r24
    1784:	a0 e0       	ldi	r26, 0x00	; 0
    1786:	b0 e0       	ldi	r27, 0x00	; 0
    1788:	40 e0       	ldi	r20, 0x00	; 0
    178a:	50 e0       	ldi	r21, 0x00	; 0
    178c:	29 e4       	ldi	r18, 0x49	; 73
    178e:	30 e0       	ldi	r19, 0x00	; 0
    1790:	84 1b       	sub	r24, r20
    1792:	95 0b       	sbc	r25, r21
    1794:	28 17       	cp	r18, r24
    1796:	39 07       	cpc	r19, r25
    1798:	08 f4       	brcc	.+2      	; 0x179c <key_action+0x9c>
    179a:	1d c4       	rjmp	.+2106   	; 0x1fd6 <key_action+0x8d6>
    179c:	8a 5b       	subi	r24, 0xBA	; 186
    179e:	9f 4f       	sbci	r25, 0xFF	; 255
    17a0:	fc 01       	movw	r30, r24
    17a2:	0c 94 d7 37 	jmp	0x6fae	; 0x6fae <__tablejump2__>
	{
	case SWITCH_LANGUAGE:
		pre_language ^= 0x01;
    17a6:	90 91 9a 01 	lds	r25, 0x019A	; 0x80019a <pre_language>
    17aa:	81 e0       	ldi	r24, 0x01	; 1
    17ac:	89 27       	eor	r24, r25
    17ae:	80 93 9a 01 	sts	0x019A, r24	; 0x80019a <pre_language>
		switch_language();
    17b2:	0e 94 cc 1b 	call	0x3798	; 0x3798 <switch_language>
		break;
    17b6:	12 c4       	rjmp	.+2084   	; 0x1fdc <key_action+0x8dc>
	case CLEAR_ALARM_SOUND:
		ALARM_OFF;
    17b8:	82 e3       	ldi	r24, 0x32	; 50
    17ba:	90 e0       	ldi	r25, 0x00	; 0
    17bc:	22 e3       	ldi	r18, 0x32	; 50
    17be:	30 e0       	ldi	r19, 0x00	; 0
    17c0:	f9 01       	movw	r30, r18
    17c2:	20 81       	ld	r18, Z
    17c4:	2f 7e       	andi	r18, 0xEF	; 239
    17c6:	fc 01       	movw	r30, r24
    17c8:	20 83       	st	Z, r18
		break;
    17ca:	08 c4       	rjmp	.+2064   	; 0x1fdc <key_action+0x8dc>
	case MAIN_PAGE_UP:
		if (--pre_main_page <= 0)
    17cc:	80 91 9b 01 	lds	r24, 0x019B	; 0x80019b <pre_main_page>
    17d0:	81 50       	subi	r24, 0x01	; 1
    17d2:	80 93 9b 01 	sts	0x019B, r24	; 0x80019b <pre_main_page>
    17d6:	80 91 9b 01 	lds	r24, 0x019B	; 0x80019b <pre_main_page>
    17da:	18 16       	cp	r1, r24
    17dc:	14 f0       	brlt	.+4      	; 0x17e2 <key_action+0xe2>
			pre_main_page = 0;
    17de:	10 92 9b 01 	sts	0x019B, r1	; 0x80019b <pre_main_page>
		update_main_page();
    17e2:	0e 94 b7 09 	call	0x136e	; 0x136e <update_main_page>
		break;
    17e6:	fa c3       	rjmp	.+2036   	; 0x1fdc <key_action+0x8dc>
	case MAIN_PAGE_DOWN:
		if (++pre_main_page >= MAX_PAGE_QUANTITY - 1)
    17e8:	80 91 9b 01 	lds	r24, 0x019B	; 0x80019b <pre_main_page>
    17ec:	8f 5f       	subi	r24, 0xFF	; 255
    17ee:	80 93 9b 01 	sts	0x019B, r24	; 0x80019b <pre_main_page>
    17f2:	80 91 9b 01 	lds	r24, 0x019B	; 0x80019b <pre_main_page>
    17f6:	83 30       	cpi	r24, 0x03	; 3
    17f8:	1c f0       	brlt	.+6      	; 0x1800 <key_action+0x100>
			pre_main_page = MAX_PAGE_QUANTITY - 1;
    17fa:	83 e0       	ldi	r24, 0x03	; 3
    17fc:	80 93 9b 01 	sts	0x019B, r24	; 0x80019b <pre_main_page>
		update_main_page();
    1800:	0e 94 b7 09 	call	0x136e	; 0x136e <update_main_page>
		break;
    1804:	eb c3       	rjmp	.+2006   	; 0x1fdc <key_action+0x8dc>
	case MAIN_SENSOR1_SET:
		set_num = 0 + (pre_main_page * IQR_QUANTITY_PER_PAGE);
    1806:	80 91 9b 01 	lds	r24, 0x019B	; 0x80019b <pre_main_page>
    180a:	98 2f       	mov	r25, r24
    180c:	89 2f       	mov	r24, r25
    180e:	88 0f       	add	r24, r24
    1810:	89 0f       	add	r24, r25
    1812:	88 0f       	add	r24, r24
    1814:	80 93 9e 01 	sts	0x019E, r24	; 0x80019e <set_num>
		update_single_set_page();
    1818:	0e 94 17 15 	call	0x2a2e	; 0x2a2e <update_single_set_page>
		break;
    181c:	df c3       	rjmp	.+1982   	; 0x1fdc <key_action+0x8dc>
	case MAIN_SENSOR2_SET:
		set_num = 1 + (pre_main_page * IQR_QUANTITY_PER_PAGE);
    181e:	80 91 9b 01 	lds	r24, 0x019B	; 0x80019b <pre_main_page>
    1822:	98 2f       	mov	r25, r24
    1824:	89 2f       	mov	r24, r25
    1826:	88 0f       	add	r24, r24
    1828:	89 0f       	add	r24, r25
    182a:	88 0f       	add	r24, r24
    182c:	8f 5f       	subi	r24, 0xFF	; 255
    182e:	80 93 9e 01 	sts	0x019E, r24	; 0x80019e <set_num>
		update_single_set_page();
    1832:	0e 94 17 15 	call	0x2a2e	; 0x2a2e <update_single_set_page>
		break;
    1836:	d2 c3       	rjmp	.+1956   	; 0x1fdc <key_action+0x8dc>
	case MAIN_SENSOR3_SET:
		set_num = 2 + (pre_main_page * IQR_QUANTITY_PER_PAGE);
    1838:	80 91 9b 01 	lds	r24, 0x019B	; 0x80019b <pre_main_page>
    183c:	98 2f       	mov	r25, r24
    183e:	89 2f       	mov	r24, r25
    1840:	88 0f       	add	r24, r24
    1842:	89 0f       	add	r24, r25
    1844:	88 0f       	add	r24, r24
    1846:	8e 5f       	subi	r24, 0xFE	; 254
    1848:	80 93 9e 01 	sts	0x019E, r24	; 0x80019e <set_num>
		update_single_set_page();
    184c:	0e 94 17 15 	call	0x2a2e	; 0x2a2e <update_single_set_page>
		break;
    1850:	c5 c3       	rjmp	.+1930   	; 0x1fdc <key_action+0x8dc>
	case MAIN_SENSOR4_SET:
		set_num = 3 + (pre_main_page * IQR_QUANTITY_PER_PAGE);
    1852:	80 91 9b 01 	lds	r24, 0x019B	; 0x80019b <pre_main_page>
    1856:	98 2f       	mov	r25, r24
    1858:	89 2f       	mov	r24, r25
    185a:	88 0f       	add	r24, r24
    185c:	89 0f       	add	r24, r25
    185e:	88 0f       	add	r24, r24
    1860:	8d 5f       	subi	r24, 0xFD	; 253
    1862:	80 93 9e 01 	sts	0x019E, r24	; 0x80019e <set_num>
		update_single_set_page();
    1866:	0e 94 17 15 	call	0x2a2e	; 0x2a2e <update_single_set_page>
		break;
    186a:	b8 c3       	rjmp	.+1904   	; 0x1fdc <key_action+0x8dc>
	case MAIN_SENSOR5_SET:
		set_num = 4 + (pre_main_page * IQR_QUANTITY_PER_PAGE);
    186c:	80 91 9b 01 	lds	r24, 0x019B	; 0x80019b <pre_main_page>
    1870:	98 2f       	mov	r25, r24
    1872:	89 2f       	mov	r24, r25
    1874:	88 0f       	add	r24, r24
    1876:	89 0f       	add	r24, r25
    1878:	88 0f       	add	r24, r24
    187a:	8c 5f       	subi	r24, 0xFC	; 252
    187c:	80 93 9e 01 	sts	0x019E, r24	; 0x80019e <set_num>
		update_single_set_page();
    1880:	0e 94 17 15 	call	0x2a2e	; 0x2a2e <update_single_set_page>
		break;
    1884:	ab c3       	rjmp	.+1878   	; 0x1fdc <key_action+0x8dc>
	case MAIN_SENSOR6_SET:
		set_num = 5 + (pre_main_page * IQR_QUANTITY_PER_PAGE);
    1886:	80 91 9b 01 	lds	r24, 0x019B	; 0x80019b <pre_main_page>
    188a:	98 2f       	mov	r25, r24
    188c:	89 2f       	mov	r24, r25
    188e:	88 0f       	add	r24, r24
    1890:	89 0f       	add	r24, r25
    1892:	88 0f       	add	r24, r24
    1894:	8b 5f       	subi	r24, 0xFB	; 251
    1896:	80 93 9e 01 	sts	0x019E, r24	; 0x80019e <set_num>
		update_single_set_page();
    189a:	0e 94 17 15 	call	0x2a2e	; 0x2a2e <update_single_set_page>
		break;
    189e:	9e c3       	rjmp	.+1852   	; 0x1fdc <key_action+0x8dc>
	case SINGLE_SET_OK:
		single_set_ok();
    18a0:	0e 94 f6 0f 	call	0x1fec	; 0x1fec <single_set_ok>
		break;
    18a4:	9b c3       	rjmp	.+1846   	; 0x1fdc <key_action+0x8dc>
	case ALL_SET_OK:
		all_set_ok();
    18a6:	0e 94 df 10 	call	0x21be	; 0x21be <all_set_ok>
		break;
    18aa:	98 c3       	rjmp	.+1840   	; 0x1fdc <key_action+0x8dc>
	case PID_SET_OK:
		pid_set_ok();
    18ac:	0e 94 81 11 	call	0x2302	; 0x2302 <pid_set_ok>
		break;
    18b0:	95 c3       	rjmp	.+1834   	; 0x1fdc <key_action+0x8dc>
	case PID_PAGE_ENTER:
		pid_page_num = 1;
    18b2:	81 e0       	ldi	r24, 0x01	; 1
    18b4:	80 93 a2 01 	sts	0x01A2, r24	; 0x8001a2 <pid_page_num>
		update_pid_page(pid_page_num);
    18b8:	80 91 a2 01 	lds	r24, 0x01A2	; 0x8001a2 <pid_page_num>
    18bc:	0e 94 4a 16 	call	0x2c94	; 0x2c94 <update_pid_page>
		break;
    18c0:	8d c3       	rjmp	.+1818   	; 0x1fdc <key_action+0x8dc>
	case PID_PAGE_UP:
		if (--pid_page_num < 1)
    18c2:	80 91 a2 01 	lds	r24, 0x01A2	; 0x8001a2 <pid_page_num>
    18c6:	81 50       	subi	r24, 0x01	; 1
    18c8:	80 93 a2 01 	sts	0x01A2, r24	; 0x8001a2 <pid_page_num>
    18cc:	80 91 a2 01 	lds	r24, 0x01A2	; 0x8001a2 <pid_page_num>
    18d0:	88 23       	and	r24, r24
    18d2:	19 f4       	brne	.+6      	; 0x18da <key_action+0x1da>
			pid_page_num = MAX_IQR_QUANTITY;
    18d4:	88 e1       	ldi	r24, 0x18	; 24
    18d6:	80 93 a2 01 	sts	0x01A2, r24	; 0x8001a2 <pid_page_num>
		update_pid_page(pid_page_num);
    18da:	80 91 a2 01 	lds	r24, 0x01A2	; 0x8001a2 <pid_page_num>
    18de:	0e 94 4a 16 	call	0x2c94	; 0x2c94 <update_pid_page>
		break;
    18e2:	7c c3       	rjmp	.+1784   	; 0x1fdc <key_action+0x8dc>
	case PID_PAGE_DOWN:
		if (++pid_page_num > MAX_IQR_QUANTITY)
    18e4:	80 91 a2 01 	lds	r24, 0x01A2	; 0x8001a2 <pid_page_num>
    18e8:	8f 5f       	subi	r24, 0xFF	; 255
    18ea:	80 93 a2 01 	sts	0x01A2, r24	; 0x8001a2 <pid_page_num>
    18ee:	80 91 a2 01 	lds	r24, 0x01A2	; 0x8001a2 <pid_page_num>
    18f2:	89 31       	cpi	r24, 0x19	; 25
    18f4:	18 f0       	brcs	.+6      	; 0x18fc <key_action+0x1fc>
			pid_page_num = 1;
    18f6:	81 e0       	ldi	r24, 0x01	; 1
    18f8:	80 93 a2 01 	sts	0x01A2, r24	; 0x8001a2 <pid_page_num>
		update_pid_page(pid_page_num);
    18fc:	80 91 a2 01 	lds	r24, 0x01A2	; 0x8001a2 <pid_page_num>
    1900:	0e 94 4a 16 	call	0x2c94	; 0x2c94 <update_pid_page>
		break;
    1904:	6b c3       	rjmp	.+1750   	; 0x1fdc <key_action+0x8dc>
	case CURVE_ZOOM_OUT:
		curve_time_level--;
    1906:	80 91 a1 01 	lds	r24, 0x01A1	; 0x8001a1 <curve_time_level>
    190a:	81 50       	subi	r24, 0x01	; 1
    190c:	80 93 a1 01 	sts	0x01A1, r24	; 0x8001a1 <curve_time_level>
		update_curve_page();
    1910:	0e 94 ed 16 	call	0x2dda	; 0x2dda <update_curve_page>
		break;
    1914:	63 c3       	rjmp	.+1734   	; 0x1fdc <key_action+0x8dc>
	case CURVE_ZOOM_IN:
		curve_time_level++;
    1916:	80 91 a1 01 	lds	r24, 0x01A1	; 0x8001a1 <curve_time_level>
    191a:	8f 5f       	subi	r24, 0xFF	; 255
    191c:	80 93 a1 01 	sts	0x01A1, r24	; 0x8001a1 <curve_time_level>
		update_curve_page();
    1920:	0e 94 ed 16 	call	0x2dda	; 0x2dda <update_curve_page>
		break;
    1924:	5b c3       	rjmp	.+1718   	; 0x1fdc <key_action+0x8dc>
	case CURVE_PAGE_UP:
		curve_page_num--;
    1926:	80 91 a0 01 	lds	r24, 0x01A0	; 0x8001a0 <curve_page_num>
    192a:	81 50       	subi	r24, 0x01	; 1
    192c:	80 93 a0 01 	sts	0x01A0, r24	; 0x8001a0 <curve_page_num>
		update_curve_page();
    1930:	0e 94 ed 16 	call	0x2dda	; 0x2dda <update_curve_page>
		break;
    1934:	53 c3       	rjmp	.+1702   	; 0x1fdc <key_action+0x8dc>
	case CURVE_PAGE_DOWN:
		curve_page_num++;
    1936:	80 91 a0 01 	lds	r24, 0x01A0	; 0x8001a0 <curve_page_num>
    193a:	8f 5f       	subi	r24, 0xFF	; 255
    193c:	80 93 a0 01 	sts	0x01A0, r24	; 0x8001a0 <curve_page_num>
		update_curve_page();
    1940:	0e 94 ed 16 	call	0x2dda	; 0x2dda <update_curve_page>
		break;
    1944:	4b c3       	rjmp	.+1686   	; 0x1fdc <key_action+0x8dc>
	case CLEAR_ALARM_MSG:
		clear_all_alarm_msg();
    1946:	0e 94 ad 22 	call	0x455a	; 0x455a <clear_all_alarm_msg>
		break;
    194a:	48 c3       	rjmp	.+1680   	; 0x1fdc <key_action+0x8dc>
	case ALARM_PAGE_UP:
		if (--alarm_page_num <= 0)
    194c:	80 91 77 01 	lds	r24, 0x0177	; 0x800177 <alarm_page_num.2308>
    1950:	81 50       	subi	r24, 0x01	; 1
    1952:	80 93 77 01 	sts	0x0177, r24	; 0x800177 <alarm_page_num.2308>
    1956:	80 91 77 01 	lds	r24, 0x0177	; 0x800177 <alarm_page_num.2308>
    195a:	88 23       	and	r24, r24
    195c:	19 f4       	brne	.+6      	; 0x1964 <key_action+0x264>
			alarm_page_num = 1;
    195e:	81 e0       	ldi	r24, 0x01	; 1
    1960:	80 93 77 01 	sts	0x0177, r24	; 0x800177 <alarm_page_num.2308>
		update_alarm_page(alarm_page_num);
    1964:	80 91 77 01 	lds	r24, 0x0177	; 0x800177 <alarm_page_num.2308>
    1968:	0e 94 4b 1b 	call	0x3696	; 0x3696 <update_alarm_page>
		break;
    196c:	37 c3       	rjmp	.+1646   	; 0x1fdc <key_action+0x8dc>
	case ALARM_PAGE_DOWN:
		if (++alarm_page_num >= max_alarm_page_num)
    196e:	80 91 77 01 	lds	r24, 0x0177	; 0x800177 <alarm_page_num.2308>
    1972:	8f 5f       	subi	r24, 0xFF	; 255
    1974:	80 93 77 01 	sts	0x0177, r24	; 0x800177 <alarm_page_num.2308>
    1978:	90 91 77 01 	lds	r25, 0x0177	; 0x800177 <alarm_page_num.2308>
    197c:	89 81       	ldd	r24, Y+1	; 0x01
    197e:	98 17       	cp	r25, r24
    1980:	18 f0       	brcs	.+6      	; 0x1988 <key_action+0x288>
			alarm_page_num = max_alarm_page_num;
    1982:	89 81       	ldd	r24, Y+1	; 0x01
    1984:	80 93 77 01 	sts	0x0177, r24	; 0x800177 <alarm_page_num.2308>
		update_alarm_page(alarm_page_num);
    1988:	80 91 77 01 	lds	r24, 0x0177	; 0x800177 <alarm_page_num.2308>
    198c:	0e 94 4b 1b 	call	0x3696	; 0x3696 <update_alarm_page>
		break;
    1990:	25 c3       	rjmp	.+1610   	; 0x1fdc <key_action+0x8dc>
	case SINGLE_SET_BACK:
		single_set_back();
    1992:	0e 94 79 12 	call	0x24f2	; 0x24f2 <single_set_back>
		break;
    1996:	22 c3       	rjmp	.+1604   	; 0x1fdc <key_action+0x8dc>
	case ALL_SET_BACK:
		all_set_back();
    1998:	0e 94 13 13 	call	0x2626	; 0x2626 <all_set_back>
		update_main_page();
    199c:	0e 94 b7 09 	call	0x136e	; 0x136e <update_main_page>
		break;
    19a0:	1d c3       	rjmp	.+1594   	; 0x1fdc <key_action+0x8dc>
	case ALARM_PAGE_ENTER:
		alarm_page_num = 1;
    19a2:	81 e0       	ldi	r24, 0x01	; 1
    19a4:	80 93 77 01 	sts	0x0177, r24	; 0x800177 <alarm_page_num.2308>
		update_alarm_page(alarm_page_num);
    19a8:	80 91 77 01 	lds	r24, 0x0177	; 0x800177 <alarm_page_num.2308>
    19ac:	0e 94 4b 1b 	call	0x3696	; 0x3696 <update_alarm_page>
		break;
    19b0:	15 c3       	rjmp	.+1578   	; 0x1fdc <key_action+0x8dc>
	case CURVE_PAGE_ENTER:
		update_curve_page();
    19b2:	0e 94 ed 16 	call	0x2dda	; 0x2dda <update_curve_page>
		break;
    19b6:	12 c3       	rjmp	.+1572   	; 0x1fdc <key_action+0x8dc>
	case CURVE_PAGE_BACK:
		CLOSE_CURVE;
    19b8:	85 e4       	ldi	r24, 0x45	; 69
    19ba:	90 e0       	ldi	r25, 0x00	; 0
    19bc:	25 e4       	ldi	r18, 0x45	; 69
    19be:	30 e0       	ldi	r19, 0x00	; 0
    19c0:	f9 01       	movw	r30, r18
    19c2:	20 81       	ld	r18, Z
    19c4:	28 7f       	andi	r18, 0xF8	; 248
    19c6:	fc 01       	movw	r30, r24
    19c8:	20 83       	st	Z, r18
		update_run_temp_flag = 0;
    19ca:	10 92 99 01 	sts	0x0199, r1	; 0x800199 <update_run_temp_flag>
		break;
    19ce:	06 c3       	rjmp	.+1548   	; 0x1fdc <key_action+0x8dc>
	case MENU_PAGE_ENTER:
 		send_variables(ALL_SET_TEMP, all_temp +
 					   temp_unit * (all_temp * 8 / 10 + 32));
    19d0:	80 91 03 01 	lds	r24, 0x0103	; 0x800103 <all_temp>
    19d4:	90 91 04 01 	lds	r25, 0x0104	; 0x800104 <all_temp+0x1>
    19d8:	88 0f       	add	r24, r24
    19da:	99 1f       	adc	r25, r25
    19dc:	88 0f       	add	r24, r24
    19de:	99 1f       	adc	r25, r25
    19e0:	88 0f       	add	r24, r24
    19e2:	99 1f       	adc	r25, r25
    19e4:	9c 01       	movw	r18, r24
    19e6:	ad ec       	ldi	r26, 0xCD	; 205
    19e8:	bc ec       	ldi	r27, 0xCC	; 204
    19ea:	0e 94 dd 37 	call	0x6fba	; 0x6fba <__umulhisi3>
    19ee:	96 95       	lsr	r25
    19f0:	87 95       	ror	r24
    19f2:	96 95       	lsr	r25
    19f4:	87 95       	ror	r24
    19f6:	96 95       	lsr	r25
    19f8:	87 95       	ror	r24
    19fa:	ac 01       	movw	r20, r24
    19fc:	40 5e       	subi	r20, 0xE0	; 224
    19fe:	5f 4f       	sbci	r21, 0xFF	; 255
    1a00:	80 91 b7 02 	lds	r24, 0x02B7	; 0x8002b7 <temp_unit>
    1a04:	90 91 b8 02 	lds	r25, 0x02B8	; 0x8002b8 <temp_unit+0x1>
    1a08:	48 9f       	mul	r20, r24
    1a0a:	90 01       	movw	r18, r0
    1a0c:	49 9f       	mul	r20, r25
    1a0e:	30 0d       	add	r19, r0
    1a10:	58 9f       	mul	r21, r24
    1a12:	30 0d       	add	r19, r0
    1a14:	11 24       	eor	r1, r1
	case CURVE_PAGE_BACK:
		CLOSE_CURVE;
		update_run_temp_flag = 0;
		break;
	case MENU_PAGE_ENTER:
 		send_variables(ALL_SET_TEMP, all_temp +
    1a16:	80 91 03 01 	lds	r24, 0x0103	; 0x800103 <all_temp>
    1a1a:	90 91 04 01 	lds	r25, 0x0104	; 0x800104 <all_temp+0x1>
    1a1e:	82 0f       	add	r24, r18
    1a20:	93 1f       	adc	r25, r19
    1a22:	bc 01       	movw	r22, r24
    1a24:	88 e4       	ldi	r24, 0x48	; 72
    1a26:	91 e0       	ldi	r25, 0x01	; 1
    1a28:	0e 94 1f 1c 	call	0x383e	; 0x383e <send_variables>
 					   temp_unit * (all_temp * 8 / 10 + 32));
		in_main_page = 0;
    1a2c:	10 92 00 01 	sts	0x0100, r1	; 0x800100 <__data_start>
		break;
    1a30:	d5 c2       	rjmp	.+1450   	; 0x1fdc <key_action+0x8dc>
	case TIME_CTRL_ENTER:
		module_num = 1;
    1a32:	81 e0       	ldi	r24, 0x01	; 1
    1a34:	80 93 05 01 	sts	0x0105, r24	; 0x800105 <module_num>
		update_time_ctrl_page();
    1a38:	0e 94 5a 18 	call	0x30b4	; 0x30b4 <update_time_ctrl_page>
		break;
    1a3c:	cf c2       	rjmp	.+1438   	; 0x1fdc <key_action+0x8dc>
	case TIME_CTRL_STOP:
		stop_time_ctrl(module_num);
    1a3e:	80 91 05 01 	lds	r24, 0x0105	; 0x800105 <module_num>
    1a42:	0e 94 e7 1a 	call	0x35ce	; 0x35ce <stop_time_ctrl>
		break;
    1a46:	ca c2       	rjmp	.+1428   	; 0x1fdc <key_action+0x8dc>
	case TIME_CTRL_START:
		start_time_ctrl(module_num);
    1a48:	80 91 05 01 	lds	r24, 0x0105	; 0x800105 <module_num>
    1a4c:	0e 94 72 19 	call	0x32e4	; 0x32e4 <start_time_ctrl>
		break;
    1a50:	c5 c2       	rjmp	.+1418   	; 0x1fdc <key_action+0x8dc>
	case TIME_CTRL_SAVEDAT:
		save_time_ctrl_data();
    1a52:	0e 94 ce 18 	call	0x319c	; 0x319c <save_time_ctrl_data>
		break;
    1a56:	c2 c2       	rjmp	.+1412   	; 0x1fdc <key_action+0x8dc>
	case TIME_CTRL_PAGEUP:
		module_num -= 1;
    1a58:	80 91 05 01 	lds	r24, 0x0105	; 0x800105 <module_num>
    1a5c:	81 50       	subi	r24, 0x01	; 1
    1a5e:	80 93 05 01 	sts	0x0105, r24	; 0x800105 <module_num>
		update_time_ctrl_page();
    1a62:	0e 94 5a 18 	call	0x30b4	; 0x30b4 <update_time_ctrl_page>
		break;
    1a66:	ba c2       	rjmp	.+1396   	; 0x1fdc <key_action+0x8dc>
	case TIME_CTRL_PAGEDOWN:
		module_num += 1;
    1a68:	80 91 05 01 	lds	r24, 0x0105	; 0x800105 <module_num>
    1a6c:	8f 5f       	subi	r24, 0xFF	; 255
    1a6e:	80 93 05 01 	sts	0x0105, r24	; 0x800105 <module_num>
		update_time_ctrl_page();
    1a72:	0e 94 5a 18 	call	0x30b4	; 0x30b4 <update_time_ctrl_page>
		break;
    1a76:	b2 c2       	rjmp	.+1380   	; 0x1fdc <key_action+0x8dc>
	case IQR1_TEST:
		time_ctrl_test(module_num, IQR1_TEST);
    1a78:	80 91 05 01 	lds	r24, 0x0105	; 0x800105 <module_num>
    1a7c:	61 e2       	ldi	r22, 0x21	; 33
    1a7e:	0e 94 46 1a 	call	0x348c	; 0x348c <time_ctrl_test>
		break;
    1a82:	ac c2       	rjmp	.+1368   	; 0x1fdc <key_action+0x8dc>
	case IQR2_TEST:
		time_ctrl_test(module_num, IQR2_TEST);
    1a84:	80 91 05 01 	lds	r24, 0x0105	; 0x800105 <module_num>
    1a88:	62 e2       	ldi	r22, 0x22	; 34
    1a8a:	0e 94 46 1a 	call	0x348c	; 0x348c <time_ctrl_test>
		break;
    1a8e:	a6 c2       	rjmp	.+1356   	; 0x1fdc <key_action+0x8dc>
	case IQR3_TEST:
		time_ctrl_test(module_num, IQR3_TEST);
    1a90:	80 91 05 01 	lds	r24, 0x0105	; 0x800105 <module_num>
    1a94:	63 e2       	ldi	r22, 0x23	; 35
    1a96:	0e 94 46 1a 	call	0x348c	; 0x348c <time_ctrl_test>
		break;
    1a9a:	a0 c2       	rjmp	.+1344   	; 0x1fdc <key_action+0x8dc>
	case IQR4_TEST:
		time_ctrl_test(module_num, IQR4_TEST);
    1a9c:	80 91 05 01 	lds	r24, 0x0105	; 0x800105 <module_num>
    1aa0:	64 e2       	ldi	r22, 0x24	; 36
    1aa2:	0e 94 46 1a 	call	0x348c	; 0x348c <time_ctrl_test>
		break;
    1aa6:	9a c2       	rjmp	.+1332   	; 0x1fdc <key_action+0x8dc>
	case IQR5_TEST:
		time_ctrl_test(module_num, IQR5_TEST);
    1aa8:	80 91 05 01 	lds	r24, 0x0105	; 0x800105 <module_num>
    1aac:	65 e2       	ldi	r22, 0x25	; 37
    1aae:	0e 94 46 1a 	call	0x348c	; 0x348c <time_ctrl_test>
		break;
    1ab2:	94 c2       	rjmp	.+1320   	; 0x1fdc <key_action+0x8dc>
	case IQR6_TEST:
		time_ctrl_test(module_num, IQR6_TEST);
    1ab4:	80 91 05 01 	lds	r24, 0x0105	; 0x800105 <module_num>
    1ab8:	66 e2       	ldi	r22, 0x26	; 38
    1aba:	0e 94 46 1a 	call	0x348c	; 0x348c <time_ctrl_test>
		break;
    1abe:	8e c2       	rjmp	.+1308   	; 0x1fdc <key_action+0x8dc>
	case IQR7_TEST:
		time_ctrl_test(module_num, IQR7_TEST);
    1ac0:	80 91 05 01 	lds	r24, 0x0105	; 0x800105 <module_num>
    1ac4:	67 e2       	ldi	r22, 0x27	; 39
    1ac6:	0e 94 46 1a 	call	0x348c	; 0x348c <time_ctrl_test>
		break;
    1aca:	88 c2       	rjmp	.+1296   	; 0x1fdc <key_action+0x8dc>
	case IQR8_TEST:
		time_ctrl_test(module_num, IQR8_TEST);
    1acc:	80 91 05 01 	lds	r24, 0x0105	; 0x800105 <module_num>
    1ad0:	68 e2       	ldi	r22, 0x28	; 40
    1ad2:	0e 94 46 1a 	call	0x348c	; 0x348c <time_ctrl_test>
		break;
    1ad6:	82 c2       	rjmp	.+1284   	; 0x1fdc <key_action+0x8dc>
	case TEMPLATE_PAGE_ENTER:
		update_template_page(pre_first_tpnum);
    1ad8:	80 91 06 01 	lds	r24, 0x0106	; 0x800106 <pre_first_tpnum>
    1adc:	0e 94 04 24 	call	0x4808	; 0x4808 <update_template_page>
		break;
    1ae0:	7d c2       	rjmp	.+1274   	; 0x1fdc <key_action+0x8dc>
	case TEMPLATE_PAGE_BACK:
		pre_first_tpnum = 1;
    1ae2:	81 e0       	ldi	r24, 0x01	; 1
    1ae4:	80 93 06 01 	sts	0x0106, r24	; 0x800106 <pre_first_tpnum>
		tp_find_name = 0;
    1ae8:	10 92 c3 02 	sts	0x02C3, r1	; 0x8002c3 <tp_find_name>
    1aec:	10 92 c4 02 	sts	0x02C4, r1	; 0x8002c4 <tp_find_name+0x1>
    1af0:	10 92 c5 02 	sts	0x02C5, r1	; 0x8002c5 <tp_find_name+0x2>
    1af4:	10 92 c6 02 	sts	0x02C6, r1	; 0x8002c6 <tp_find_name+0x3>
		tp_save_name = 0;
    1af8:	10 92 c7 02 	sts	0x02C7, r1	; 0x8002c7 <tp_save_name>
    1afc:	10 92 c8 02 	sts	0x02C8, r1	; 0x8002c8 <tp_save_name+0x1>
    1b00:	10 92 c9 02 	sts	0x02C9, r1	; 0x8002c9 <tp_save_name+0x2>
    1b04:	10 92 ca 02 	sts	0x02CA, r1	; 0x8002ca <tp_save_name+0x3>
		template_tip_msg = ICON_NONE;
    1b08:	10 92 c2 02 	sts	0x02C2, r1	; 0x8002c2 <template_tip_msg>
		break;
    1b0c:	67 c2       	rjmp	.+1230   	; 0x1fdc <key_action+0x8dc>
	case TEMPLATE_PRESET_SAVE:
		if (!tp_save_name)
    1b0e:	80 91 c7 02 	lds	r24, 0x02C7	; 0x8002c7 <tp_save_name>
    1b12:	90 91 c8 02 	lds	r25, 0x02C8	; 0x8002c8 <tp_save_name+0x1>
    1b16:	a0 91 c9 02 	lds	r26, 0x02C9	; 0x8002c9 <tp_save_name+0x2>
    1b1a:	b0 91 ca 02 	lds	r27, 0x02CA	; 0x8002ca <tp_save_name+0x3>
    1b1e:	89 2b       	or	r24, r25
    1b20:	8a 2b       	or	r24, r26
    1b22:	8b 2b       	or	r24, r27
    1b24:	41 f4       	brne	.+16     	; 0x1b36 <key_action+0x436>
		{
			template_tip_msg = ICON_NSAVE;
    1b26:	86 e0       	ldi	r24, 0x06	; 6
    1b28:	80 93 c2 02 	sts	0x02C2, r24	; 0x8002c2 <template_tip_msg>
			update_template_page(pre_first_tpnum);
    1b2c:	80 91 06 01 	lds	r24, 0x0106	; 0x800106 <pre_first_tpnum>
    1b30:	0e 94 04 24 	call	0x4808	; 0x4808 <update_template_page>
			break;
    1b34:	53 c2       	rjmp	.+1190   	; 0x1fdc <key_action+0x8dc>
		}
		if(find_template(tp_save_name))
    1b36:	80 91 c7 02 	lds	r24, 0x02C7	; 0x8002c7 <tp_save_name>
    1b3a:	90 91 c8 02 	lds	r25, 0x02C8	; 0x8002c8 <tp_save_name+0x1>
    1b3e:	a0 91 c9 02 	lds	r26, 0x02C9	; 0x8002c9 <tp_save_name+0x2>
    1b42:	b0 91 ca 02 	lds	r27, 0x02CA	; 0x8002ca <tp_save_name+0x3>
    1b46:	bc 01       	movw	r22, r24
    1b48:	cd 01       	movw	r24, r26
    1b4a:	0e 94 ad 02 	call	0x55a	; 0x55a <find_template>
    1b4e:	88 23       	and	r24, r24
    1b50:	41 f0       	breq	.+16     	; 0x1b62 <key_action+0x462>
		{
			template_tip_msg = ICON_SAVE_RENAME;
    1b52:	88 e0       	ldi	r24, 0x08	; 8
    1b54:	80 93 c2 02 	sts	0x02C2, r24	; 0x8002c2 <template_tip_msg>
			update_template_page(pre_first_tpnum);
    1b58:	80 91 06 01 	lds	r24, 0x0106	; 0x800106 <pre_first_tpnum>
    1b5c:	0e 94 04 24 	call	0x4808	; 0x4808 <update_template_page>
			break;
    1b60:	3d c2       	rjmp	.+1146   	; 0x1fdc <key_action+0x8dc>
		}
		if(++template_cnt > MAX_TEMPLATE_QUANTITY)
    1b62:	80 91 c1 02 	lds	r24, 0x02C1	; 0x8002c1 <template_cnt>
    1b66:	8f 5f       	subi	r24, 0xFF	; 255
    1b68:	80 93 c1 02 	sts	0x02C1, r24	; 0x8002c1 <template_cnt>
    1b6c:	80 91 c1 02 	lds	r24, 0x02C1	; 0x8002c1 <template_cnt>
    1b70:	8d 32       	cpi	r24, 0x2D	; 45
    1b72:	58 f0       	brcs	.+22     	; 0x1b8a <key_action+0x48a>
		{
			template_cnt = MAX_TEMPLATE_QUANTITY;
    1b74:	8c e2       	ldi	r24, 0x2C	; 44
    1b76:	80 93 c1 02 	sts	0x02C1, r24	; 0x8002c1 <template_cnt>
			template_tip_msg = ICON_SAVE_OVER;
    1b7a:	89 e0       	ldi	r24, 0x09	; 9
    1b7c:	80 93 c2 02 	sts	0x02C2, r24	; 0x8002c2 <template_tip_msg>
			update_template_page(pre_first_tpnum);
    1b80:	80 91 06 01 	lds	r24, 0x0106	; 0x800106 <pre_first_tpnum>
    1b84:	0e 94 04 24 	call	0x4808	; 0x4808 <update_template_page>
			break;
    1b88:	29 c2       	rjmp	.+1106   	; 0x1fdc <key_action+0x8dc>
		}
		save_preset_to_template(template_cnt);
    1b8a:	80 91 c1 02 	lds	r24, 0x02C1	; 0x8002c1 <template_cnt>
    1b8e:	0e 94 95 03 	call	0x72a	; 0x72a <save_preset_to_template>
		break;
    1b92:	24 c2       	rjmp	.+1096   	; 0x1fdc <key_action+0x8dc>
	case TEMPLATE_PAGE_UP:
		if (pre_first_tpnum - 5 <= 0)
    1b94:	80 91 06 01 	lds	r24, 0x0106	; 0x800106 <pre_first_tpnum>
    1b98:	88 2f       	mov	r24, r24
    1b9a:	90 e0       	ldi	r25, 0x00	; 0
    1b9c:	05 97       	sbiw	r24, 0x05	; 5
    1b9e:	18 16       	cp	r1, r24
    1ba0:	19 06       	cpc	r1, r25
    1ba2:	24 f0       	brlt	.+8      	; 0x1bac <key_action+0x4ac>
		{
			pre_first_tpnum = 1;
    1ba4:	81 e0       	ldi	r24, 0x01	; 1
    1ba6:	80 93 06 01 	sts	0x0106, r24	; 0x800106 <pre_first_tpnum>
    1baa:	05 c0       	rjmp	.+10     	; 0x1bb6 <key_action+0x4b6>
		}
		else
		{
			pre_first_tpnum -= 5; 
    1bac:	80 91 06 01 	lds	r24, 0x0106	; 0x800106 <pre_first_tpnum>
    1bb0:	85 50       	subi	r24, 0x05	; 5
    1bb2:	80 93 06 01 	sts	0x0106, r24	; 0x800106 <pre_first_tpnum>
		}
		update_template_page(pre_first_tpnum);
    1bb6:	80 91 06 01 	lds	r24, 0x0106	; 0x800106 <pre_first_tpnum>
    1bba:	0e 94 04 24 	call	0x4808	; 0x4808 <update_template_page>
		break;
    1bbe:	0e c2       	rjmp	.+1052   	; 0x1fdc <key_action+0x8dc>
	case TEMPLATE_PAGE_DOWN:
		if (pre_first_tpnum + 5 <= template_cnt)
    1bc0:	80 91 06 01 	lds	r24, 0x0106	; 0x800106 <pre_first_tpnum>
    1bc4:	88 2f       	mov	r24, r24
    1bc6:	90 e0       	ldi	r25, 0x00	; 0
    1bc8:	9c 01       	movw	r18, r24
    1bca:	2b 5f       	subi	r18, 0xFB	; 251
    1bcc:	3f 4f       	sbci	r19, 0xFF	; 255
    1bce:	80 91 c1 02 	lds	r24, 0x02C1	; 0x8002c1 <template_cnt>
    1bd2:	88 2f       	mov	r24, r24
    1bd4:	90 e0       	ldi	r25, 0x00	; 0
    1bd6:	82 17       	cp	r24, r18
    1bd8:	93 07       	cpc	r25, r19
    1bda:	54 f0       	brlt	.+20     	; 0x1bf0 <key_action+0x4f0>
		{
			pre_first_tpnum += 5;
    1bdc:	80 91 06 01 	lds	r24, 0x0106	; 0x800106 <pre_first_tpnum>
    1be0:	8b 5f       	subi	r24, 0xFB	; 251
    1be2:	80 93 06 01 	sts	0x0106, r24	; 0x800106 <pre_first_tpnum>
			update_template_page(pre_first_tpnum);
    1be6:	80 91 06 01 	lds	r24, 0x0106	; 0x800106 <pre_first_tpnum>
    1bea:	0e 94 04 24 	call	0x4808	; 0x4808 <update_template_page>
		else if(template_cnt <= 5)
		{
			pre_first_tpnum = 1;
			update_template_page(pre_first_tpnum);
		}
		break;
    1bee:	f5 c1       	rjmp	.+1002   	; 0x1fda <key_action+0x8da>
		if (pre_first_tpnum + 5 <= template_cnt)
		{
			pre_first_tpnum += 5;
			update_template_page(pre_first_tpnum);
		}
		else if(template_cnt <= 5)
    1bf0:	80 91 c1 02 	lds	r24, 0x02C1	; 0x8002c1 <template_cnt>
    1bf4:	86 30       	cpi	r24, 0x06	; 6
    1bf6:	08 f0       	brcs	.+2      	; 0x1bfa <key_action+0x4fa>
    1bf8:	f0 c1       	rjmp	.+992    	; 0x1fda <key_action+0x8da>
		{
			pre_first_tpnum = 1;
    1bfa:	81 e0       	ldi	r24, 0x01	; 1
    1bfc:	80 93 06 01 	sts	0x0106, r24	; 0x800106 <pre_first_tpnum>
			update_template_page(pre_first_tpnum);
    1c00:	80 91 06 01 	lds	r24, 0x0106	; 0x800106 <pre_first_tpnum>
    1c04:	0e 94 04 24 	call	0x4808	; 0x4808 <update_template_page>
		}
		break;
    1c08:	e8 c1       	rjmp	.+976    	; 0x1fda <key_action+0x8da>
	case TEMPLATE_NUM1_DEL:
		template_del(pre_first_tpnum);
    1c0a:	80 91 06 01 	lds	r24, 0x0106	; 0x800106 <pre_first_tpnum>
    1c0e:	0e 94 03 03 	call	0x606	; 0x606 <template_del>
		break;
    1c12:	e4 c1       	rjmp	.+968    	; 0x1fdc <key_action+0x8dc>
	case TEMPLATE_NUM2_DEL:
		template_del(pre_first_tpnum+1);
    1c14:	80 91 06 01 	lds	r24, 0x0106	; 0x800106 <pre_first_tpnum>
    1c18:	8f 5f       	subi	r24, 0xFF	; 255
    1c1a:	0e 94 03 03 	call	0x606	; 0x606 <template_del>
		break;		
    1c1e:	de c1       	rjmp	.+956    	; 0x1fdc <key_action+0x8dc>
	case TEMPLATE_NUM3_DEL:
		template_del(pre_first_tpnum+2);
    1c20:	80 91 06 01 	lds	r24, 0x0106	; 0x800106 <pre_first_tpnum>
    1c24:	8e 5f       	subi	r24, 0xFE	; 254
    1c26:	0e 94 03 03 	call	0x606	; 0x606 <template_del>
		break;	
    1c2a:	d8 c1       	rjmp	.+944    	; 0x1fdc <key_action+0x8dc>
	case TEMPLATE_NUM4_DEL:
		template_del(pre_first_tpnum+3);
    1c2c:	80 91 06 01 	lds	r24, 0x0106	; 0x800106 <pre_first_tpnum>
    1c30:	8d 5f       	subi	r24, 0xFD	; 253
    1c32:	0e 94 03 03 	call	0x606	; 0x606 <template_del>
		break;
    1c36:	d2 c1       	rjmp	.+932    	; 0x1fdc <key_action+0x8dc>
	case TEMPLATE_NUM5_DEL:
		template_del(pre_first_tpnum+4);
    1c38:	80 91 06 01 	lds	r24, 0x0106	; 0x800106 <pre_first_tpnum>
    1c3c:	8c 5f       	subi	r24, 0xFC	; 252
    1c3e:	0e 94 03 03 	call	0x606	; 0x606 <template_del>
		break;
    1c42:	cc c1       	rjmp	.+920    	; 0x1fdc <key_action+0x8dc>
	case TEMPLATE_FIND:
		first_tpnum_buff = find_template(tp_find_name);
    1c44:	80 91 c3 02 	lds	r24, 0x02C3	; 0x8002c3 <tp_find_name>
    1c48:	90 91 c4 02 	lds	r25, 0x02C4	; 0x8002c4 <tp_find_name+0x1>
    1c4c:	a0 91 c5 02 	lds	r26, 0x02C5	; 0x8002c5 <tp_find_name+0x2>
    1c50:	b0 91 c6 02 	lds	r27, 0x02C6	; 0x8002c6 <tp_find_name+0x3>
    1c54:	bc 01       	movw	r22, r24
    1c56:	cd 01       	movw	r24, r26
    1c58:	0e 94 ad 02 	call	0x55a	; 0x55a <find_template>
    1c5c:	8a 83       	std	Y+2, r24	; 0x02
		if (first_tpnum_buff)
    1c5e:	8a 81       	ldd	r24, Y+2	; 0x02
    1c60:	88 23       	and	r24, r24
    1c62:	39 f0       	breq	.+14     	; 0x1c72 <key_action+0x572>
		{
			pre_first_tpnum = first_tpnum_buff;
    1c64:	8a 81       	ldd	r24, Y+2	; 0x02
    1c66:	80 93 06 01 	sts	0x0106, r24	; 0x800106 <pre_first_tpnum>
			template_tip_msg = ICON_FINDED;
    1c6a:	82 e0       	ldi	r24, 0x02	; 2
    1c6c:	80 93 c2 02 	sts	0x02C2, r24	; 0x8002c2 <template_tip_msg>
    1c70:	03 c0       	rjmp	.+6      	; 0x1c78 <key_action+0x578>
		}
		else
		{
			template_tip_msg = ICON_NFIND;
    1c72:	83 e0       	ldi	r24, 0x03	; 3
    1c74:	80 93 c2 02 	sts	0x02C2, r24	; 0x8002c2 <template_tip_msg>
		}
		update_template_page(pre_first_tpnum);
    1c78:	80 91 06 01 	lds	r24, 0x0106	; 0x800106 <pre_first_tpnum>
    1c7c:	0e 94 04 24 	call	0x4808	; 0x4808 <update_template_page>
		break;
    1c80:	ad c1       	rjmp	.+858    	; 0x1fdc <key_action+0x8dc>
	case TEMPLATE_NUM1_VIEW:
		view_tp_num = pre_first_tpnum;
    1c82:	80 91 06 01 	lds	r24, 0x0106	; 0x800106 <pre_first_tpnum>
    1c86:	80 93 be 02 	sts	0x02BE, r24	; 0x8002be <view_tp_num>
		temp_view_page_num = 1;
    1c8a:	81 e0       	ldi	r24, 0x01	; 1
    1c8c:	80 93 bf 02 	sts	0x02BF, r24	; 0x8002bf <temp_view_page_num>
		if (view_tp_num > template_cnt)
    1c90:	90 91 be 02 	lds	r25, 0x02BE	; 0x8002be <view_tp_num>
    1c94:	80 91 c1 02 	lds	r24, 0x02C1	; 0x8002c1 <template_cnt>
    1c98:	89 17       	cp	r24, r25
    1c9a:	40 f4       	brcc	.+16     	; 0x1cac <key_action+0x5ac>
		{
			template_tip_msg = 7;
    1c9c:	87 e0       	ldi	r24, 0x07	; 7
    1c9e:	80 93 c2 02 	sts	0x02C2, r24	; 0x8002c2 <template_tip_msg>
			update_template_page(pre_first_tpnum);
    1ca2:	80 91 06 01 	lds	r24, 0x0106	; 0x800106 <pre_first_tpnum>
    1ca6:	0e 94 04 24 	call	0x4808	; 0x4808 <update_template_page>
			break;
    1caa:	98 c1       	rjmp	.+816    	; 0x1fdc <key_action+0x8dc>
		}
		else
		{
			change_page(21);
    1cac:	85 e1       	ldi	r24, 0x15	; 21
    1cae:	0e 94 e6 1b 	call	0x37cc	; 0x37cc <change_page>
			read_template_from_eeprom((uint8_t *)&template_structure, view_tp_num);
    1cb2:	80 91 be 02 	lds	r24, 0x02BE	; 0x8002be <view_tp_num>
    1cb6:	68 2f       	mov	r22, r24
    1cb8:	8b e1       	ldi	r24, 0x1B	; 27
    1cba:	99 e0       	ldi	r25, 0x09	; 9
    1cbc:	0e 94 e7 05 	call	0xbce	; 0xbce <read_template_from_eeprom>
			update_tp_temp(temp_view_page_num);
    1cc0:	80 91 bf 02 	lds	r24, 0x02BF	; 0x8002bf <temp_view_page_num>
    1cc4:	0e 94 b5 24 	call	0x496a	; 0x496a <update_tp_temp>
		}
		break;
    1cc8:	89 c1       	rjmp	.+786    	; 0x1fdc <key_action+0x8dc>
	case TEMPLATE_NUM2_VIEW:
		view_tp_num = pre_first_tpnum+1;
    1cca:	80 91 06 01 	lds	r24, 0x0106	; 0x800106 <pre_first_tpnum>
    1cce:	8f 5f       	subi	r24, 0xFF	; 255
    1cd0:	80 93 be 02 	sts	0x02BE, r24	; 0x8002be <view_tp_num>
		temp_view_page_num = 1;
    1cd4:	81 e0       	ldi	r24, 0x01	; 1
    1cd6:	80 93 bf 02 	sts	0x02BF, r24	; 0x8002bf <temp_view_page_num>
		if (view_tp_num > template_cnt)
    1cda:	90 91 be 02 	lds	r25, 0x02BE	; 0x8002be <view_tp_num>
    1cde:	80 91 c1 02 	lds	r24, 0x02C1	; 0x8002c1 <template_cnt>
    1ce2:	89 17       	cp	r24, r25
    1ce4:	40 f4       	brcc	.+16     	; 0x1cf6 <key_action+0x5f6>
		{
			template_tip_msg = 7;
    1ce6:	87 e0       	ldi	r24, 0x07	; 7
    1ce8:	80 93 c2 02 	sts	0x02C2, r24	; 0x8002c2 <template_tip_msg>
			update_template_page(pre_first_tpnum);
    1cec:	80 91 06 01 	lds	r24, 0x0106	; 0x800106 <pre_first_tpnum>
    1cf0:	0e 94 04 24 	call	0x4808	; 0x4808 <update_template_page>
			break;
    1cf4:	73 c1       	rjmp	.+742    	; 0x1fdc <key_action+0x8dc>
		}
		else
		{
			change_page(21);
    1cf6:	85 e1       	ldi	r24, 0x15	; 21
    1cf8:	0e 94 e6 1b 	call	0x37cc	; 0x37cc <change_page>
			read_template_from_eeprom((uint8_t *)&template_structure, view_tp_num);
    1cfc:	80 91 be 02 	lds	r24, 0x02BE	; 0x8002be <view_tp_num>
    1d00:	68 2f       	mov	r22, r24
    1d02:	8b e1       	ldi	r24, 0x1B	; 27
    1d04:	99 e0       	ldi	r25, 0x09	; 9
    1d06:	0e 94 e7 05 	call	0xbce	; 0xbce <read_template_from_eeprom>
			update_tp_temp(temp_view_page_num);
    1d0a:	80 91 bf 02 	lds	r24, 0x02BF	; 0x8002bf <temp_view_page_num>
    1d0e:	0e 94 b5 24 	call	0x496a	; 0x496a <update_tp_temp>
		}
		break;
    1d12:	64 c1       	rjmp	.+712    	; 0x1fdc <key_action+0x8dc>
	case TEMPLATE_NUM3_VIEW:
		view_tp_num = pre_first_tpnum+2;
    1d14:	80 91 06 01 	lds	r24, 0x0106	; 0x800106 <pre_first_tpnum>
    1d18:	8e 5f       	subi	r24, 0xFE	; 254
    1d1a:	80 93 be 02 	sts	0x02BE, r24	; 0x8002be <view_tp_num>
		temp_view_page_num = 1;
    1d1e:	81 e0       	ldi	r24, 0x01	; 1
    1d20:	80 93 bf 02 	sts	0x02BF, r24	; 0x8002bf <temp_view_page_num>
		if (view_tp_num > template_cnt)
    1d24:	90 91 be 02 	lds	r25, 0x02BE	; 0x8002be <view_tp_num>
    1d28:	80 91 c1 02 	lds	r24, 0x02C1	; 0x8002c1 <template_cnt>
    1d2c:	89 17       	cp	r24, r25
    1d2e:	40 f4       	brcc	.+16     	; 0x1d40 <key_action+0x640>
		{
			template_tip_msg = 7;
    1d30:	87 e0       	ldi	r24, 0x07	; 7
    1d32:	80 93 c2 02 	sts	0x02C2, r24	; 0x8002c2 <template_tip_msg>
			update_template_page(pre_first_tpnum);
    1d36:	80 91 06 01 	lds	r24, 0x0106	; 0x800106 <pre_first_tpnum>
    1d3a:	0e 94 04 24 	call	0x4808	; 0x4808 <update_template_page>
			break;
    1d3e:	4e c1       	rjmp	.+668    	; 0x1fdc <key_action+0x8dc>
		}
		else
		{
			change_page(21);
    1d40:	85 e1       	ldi	r24, 0x15	; 21
    1d42:	0e 94 e6 1b 	call	0x37cc	; 0x37cc <change_page>
			read_template_from_eeprom((uint8_t *)&template_structure, view_tp_num);
    1d46:	80 91 be 02 	lds	r24, 0x02BE	; 0x8002be <view_tp_num>
    1d4a:	68 2f       	mov	r22, r24
    1d4c:	8b e1       	ldi	r24, 0x1B	; 27
    1d4e:	99 e0       	ldi	r25, 0x09	; 9
    1d50:	0e 94 e7 05 	call	0xbce	; 0xbce <read_template_from_eeprom>
			update_tp_temp(temp_view_page_num);
    1d54:	80 91 bf 02 	lds	r24, 0x02BF	; 0x8002bf <temp_view_page_num>
    1d58:	0e 94 b5 24 	call	0x496a	; 0x496a <update_tp_temp>
		}
		break;
    1d5c:	3f c1       	rjmp	.+638    	; 0x1fdc <key_action+0x8dc>
	case TEMPLATE_NUM4_VIEW:
		view_tp_num = pre_first_tpnum+3;
    1d5e:	80 91 06 01 	lds	r24, 0x0106	; 0x800106 <pre_first_tpnum>
    1d62:	8d 5f       	subi	r24, 0xFD	; 253
    1d64:	80 93 be 02 	sts	0x02BE, r24	; 0x8002be <view_tp_num>
		temp_view_page_num = 1;
    1d68:	81 e0       	ldi	r24, 0x01	; 1
    1d6a:	80 93 bf 02 	sts	0x02BF, r24	; 0x8002bf <temp_view_page_num>
		if (view_tp_num > template_cnt)
    1d6e:	90 91 be 02 	lds	r25, 0x02BE	; 0x8002be <view_tp_num>
    1d72:	80 91 c1 02 	lds	r24, 0x02C1	; 0x8002c1 <template_cnt>
    1d76:	89 17       	cp	r24, r25
    1d78:	40 f4       	brcc	.+16     	; 0x1d8a <key_action+0x68a>
		{
			template_tip_msg = 7;
    1d7a:	87 e0       	ldi	r24, 0x07	; 7
    1d7c:	80 93 c2 02 	sts	0x02C2, r24	; 0x8002c2 <template_tip_msg>
			update_template_page(pre_first_tpnum);
    1d80:	80 91 06 01 	lds	r24, 0x0106	; 0x800106 <pre_first_tpnum>
    1d84:	0e 94 04 24 	call	0x4808	; 0x4808 <update_template_page>
			break;
    1d88:	29 c1       	rjmp	.+594    	; 0x1fdc <key_action+0x8dc>
		}
		else
		{
			change_page(21);
    1d8a:	85 e1       	ldi	r24, 0x15	; 21
    1d8c:	0e 94 e6 1b 	call	0x37cc	; 0x37cc <change_page>
			read_template_from_eeprom((uint8_t *)&template_structure, view_tp_num);
    1d90:	80 91 be 02 	lds	r24, 0x02BE	; 0x8002be <view_tp_num>
    1d94:	68 2f       	mov	r22, r24
    1d96:	8b e1       	ldi	r24, 0x1B	; 27
    1d98:	99 e0       	ldi	r25, 0x09	; 9
    1d9a:	0e 94 e7 05 	call	0xbce	; 0xbce <read_template_from_eeprom>
			update_tp_temp(temp_view_page_num);
    1d9e:	80 91 bf 02 	lds	r24, 0x02BF	; 0x8002bf <temp_view_page_num>
    1da2:	0e 94 b5 24 	call	0x496a	; 0x496a <update_tp_temp>
		}
		break;
    1da6:	1a c1       	rjmp	.+564    	; 0x1fdc <key_action+0x8dc>
	case TEMPLATE_NUM5_VIEW:
		view_tp_num = pre_first_tpnum+4;
    1da8:	80 91 06 01 	lds	r24, 0x0106	; 0x800106 <pre_first_tpnum>
    1dac:	8c 5f       	subi	r24, 0xFC	; 252
    1dae:	80 93 be 02 	sts	0x02BE, r24	; 0x8002be <view_tp_num>
		temp_view_page_num = 1;
    1db2:	81 e0       	ldi	r24, 0x01	; 1
    1db4:	80 93 bf 02 	sts	0x02BF, r24	; 0x8002bf <temp_view_page_num>
		if (view_tp_num > template_cnt)
    1db8:	90 91 be 02 	lds	r25, 0x02BE	; 0x8002be <view_tp_num>
    1dbc:	80 91 c1 02 	lds	r24, 0x02C1	; 0x8002c1 <template_cnt>
    1dc0:	89 17       	cp	r24, r25
    1dc2:	40 f4       	brcc	.+16     	; 0x1dd4 <key_action+0x6d4>
		{
			template_tip_msg = 7;
    1dc4:	87 e0       	ldi	r24, 0x07	; 7
    1dc6:	80 93 c2 02 	sts	0x02C2, r24	; 0x8002c2 <template_tip_msg>
			update_template_page(pre_first_tpnum);
    1dca:	80 91 06 01 	lds	r24, 0x0106	; 0x800106 <pre_first_tpnum>
    1dce:	0e 94 04 24 	call	0x4808	; 0x4808 <update_template_page>
			break;
    1dd2:	04 c1       	rjmp	.+520    	; 0x1fdc <key_action+0x8dc>
		}
		else
		{
			change_page(21);
    1dd4:	85 e1       	ldi	r24, 0x15	; 21
    1dd6:	0e 94 e6 1b 	call	0x37cc	; 0x37cc <change_page>
			read_template_from_eeprom((uint8_t *)&template_structure, view_tp_num);
    1dda:	80 91 be 02 	lds	r24, 0x02BE	; 0x8002be <view_tp_num>
    1dde:	68 2f       	mov	r22, r24
    1de0:	8b e1       	ldi	r24, 0x1B	; 27
    1de2:	99 e0       	ldi	r25, 0x09	; 9
    1de4:	0e 94 e7 05 	call	0xbce	; 0xbce <read_template_from_eeprom>
			update_tp_temp(temp_view_page_num);
    1de8:	80 91 bf 02 	lds	r24, 0x02BF	; 0x8002bf <temp_view_page_num>
    1dec:	0e 94 b5 24 	call	0x496a	; 0x496a <update_tp_temp>
		}
		break;
    1df0:	f5 c0       	rjmp	.+490    	; 0x1fdc <key_action+0x8dc>
		case TEMP_VIEW_PAGE_UP:
			if(--temp_view_page_num <= 0)
    1df2:	80 91 bf 02 	lds	r24, 0x02BF	; 0x8002bf <temp_view_page_num>
    1df6:	81 50       	subi	r24, 0x01	; 1
    1df8:	80 93 bf 02 	sts	0x02BF, r24	; 0x8002bf <temp_view_page_num>
    1dfc:	80 91 bf 02 	lds	r24, 0x02BF	; 0x8002bf <temp_view_page_num>
    1e00:	88 23       	and	r24, r24
    1e02:	19 f4       	brne	.+6      	; 0x1e0a <key_action+0x70a>
			{
				temp_view_page_num = 1;
    1e04:	81 e0       	ldi	r24, 0x01	; 1
    1e06:	80 93 bf 02 	sts	0x02BF, r24	; 0x8002bf <temp_view_page_num>
			}
			update_tp_temp(temp_view_page_num);
    1e0a:	80 91 bf 02 	lds	r24, 0x02BF	; 0x8002bf <temp_view_page_num>
    1e0e:	0e 94 b5 24 	call	0x496a	; 0x496a <update_tp_temp>
			break;
    1e12:	e4 c0       	rjmp	.+456    	; 0x1fdc <key_action+0x8dc>
		case TEMP_VIEW_PAGE_DOWN:
			if(++temp_view_page_num >= MAX_IQR_QUANTITY/12)
    1e14:	80 91 bf 02 	lds	r24, 0x02BF	; 0x8002bf <temp_view_page_num>
    1e18:	8f 5f       	subi	r24, 0xFF	; 255
    1e1a:	80 93 bf 02 	sts	0x02BF, r24	; 0x8002bf <temp_view_page_num>
    1e1e:	80 91 bf 02 	lds	r24, 0x02BF	; 0x8002bf <temp_view_page_num>
    1e22:	82 30       	cpi	r24, 0x02	; 2
    1e24:	18 f0       	brcs	.+6      	; 0x1e2c <key_action+0x72c>
			{
				temp_view_page_num = MAX_IQR_QUANTITY/12;
    1e26:	82 e0       	ldi	r24, 0x02	; 2
    1e28:	80 93 bf 02 	sts	0x02BF, r24	; 0x8002bf <temp_view_page_num>
			}
			update_tp_temp(temp_view_page_num);
    1e2c:	80 91 bf 02 	lds	r24, 0x02BF	; 0x8002bf <temp_view_page_num>
    1e30:	0e 94 b5 24 	call	0x496a	; 0x496a <update_tp_temp>
			break;
    1e34:	d3 c0       	rjmp	.+422    	; 0x1fdc <key_action+0x8dc>
		case TEMP_VIEW_TOTIME:
			time_view_page_num = 1;
    1e36:	81 e0       	ldi	r24, 0x01	; 1
    1e38:	80 93 c0 02 	sts	0x02C0, r24	; 0x8002c0 <time_view_page_num>
			update_tp_time(time_view_page_num);
    1e3c:	80 91 c0 02 	lds	r24, 0x02C0	; 0x8002c0 <time_view_page_num>
    1e40:	0e 94 33 25 	call	0x4a66	; 0x4a66 <update_tp_time>
			break;
    1e44:	cb c0       	rjmp	.+406    	; 0x1fdc <key_action+0x8dc>
		case TIME_VIEW_PAGE_UP:
			if (--time_view_page_num <= 0)
    1e46:	80 91 c0 02 	lds	r24, 0x02C0	; 0x8002c0 <time_view_page_num>
    1e4a:	81 50       	subi	r24, 0x01	; 1
    1e4c:	80 93 c0 02 	sts	0x02C0, r24	; 0x8002c0 <time_view_page_num>
    1e50:	80 91 c0 02 	lds	r24, 0x02C0	; 0x8002c0 <time_view_page_num>
    1e54:	88 23       	and	r24, r24
    1e56:	19 f4       	brne	.+6      	; 0x1e5e <key_action+0x75e>
			{
				time_view_page_num = 1;
    1e58:	81 e0       	ldi	r24, 0x01	; 1
    1e5a:	80 93 c0 02 	sts	0x02C0, r24	; 0x8002c0 <time_view_page_num>
			}
			update_tp_time(time_view_page_num);
    1e5e:	80 91 c0 02 	lds	r24, 0x02C0	; 0x8002c0 <time_view_page_num>
    1e62:	0e 94 33 25 	call	0x4a66	; 0x4a66 <update_tp_time>
			break;
    1e66:	ba c0       	rjmp	.+372    	; 0x1fdc <key_action+0x8dc>
		case TIME_VIEW_PAGE_DOWN:
			if (++time_view_page_num >= 4)
    1e68:	80 91 c0 02 	lds	r24, 0x02C0	; 0x8002c0 <time_view_page_num>
    1e6c:	8f 5f       	subi	r24, 0xFF	; 255
    1e6e:	80 93 c0 02 	sts	0x02C0, r24	; 0x8002c0 <time_view_page_num>
    1e72:	80 91 c0 02 	lds	r24, 0x02C0	; 0x8002c0 <time_view_page_num>
    1e76:	84 30       	cpi	r24, 0x04	; 4
    1e78:	18 f0       	brcs	.+6      	; 0x1e80 <key_action+0x780>
			{
				time_view_page_num = 4;
    1e7a:	84 e0       	ldi	r24, 0x04	; 4
    1e7c:	80 93 c0 02 	sts	0x02C0, r24	; 0x8002c0 <time_view_page_num>
			}
			update_tp_time(time_view_page_num);
    1e80:	80 91 c0 02 	lds	r24, 0x02C0	; 0x8002c0 <time_view_page_num>
    1e84:	0e 94 33 25 	call	0x4a66	; 0x4a66 <update_tp_time>
			break;
    1e88:	a9 c0       	rjmp	.+338    	; 0x1fdc <key_action+0x8dc>
		case TEMPLATE_NUM1_APPLY:
			if (pre_first_tpnum > template_cnt)
    1e8a:	90 91 06 01 	lds	r25, 0x0106	; 0x800106 <pre_first_tpnum>
    1e8e:	80 91 c1 02 	lds	r24, 0x02C1	; 0x8002c1 <template_cnt>
    1e92:	89 17       	cp	r24, r25
    1e94:	40 f4       	brcc	.+16     	; 0x1ea6 <key_action+0x7a6>
			{
				template_tip_msg = ICON_NTP;
    1e96:	87 e0       	ldi	r24, 0x07	; 7
    1e98:	80 93 c2 02 	sts	0x02C2, r24	; 0x8002c2 <template_tip_msg>
				update_template_page(pre_first_tpnum);
    1e9c:	80 91 06 01 	lds	r24, 0x0106	; 0x800106 <pre_first_tpnum>
    1ea0:	0e 94 04 24 	call	0x4808	; 0x4808 <update_template_page>
				break;
    1ea4:	9b c0       	rjmp	.+310    	; 0x1fdc <key_action+0x8dc>
			}
			else
			{
				apply_template(pre_first_tpnum);
    1ea6:	80 91 06 01 	lds	r24, 0x0106	; 0x800106 <pre_first_tpnum>
    1eaa:	0e 94 6f 01 	call	0x2de	; 0x2de <apply_template>
				template_tip_msg = ICON_APPLIED;
    1eae:	84 e0       	ldi	r24, 0x04	; 4
    1eb0:	80 93 c2 02 	sts	0x02C2, r24	; 0x8002c2 <template_tip_msg>
				update_template_page(pre_first_tpnum);
    1eb4:	80 91 06 01 	lds	r24, 0x0106	; 0x800106 <pre_first_tpnum>
    1eb8:	0e 94 04 24 	call	0x4808	; 0x4808 <update_template_page>
			}
			break;
    1ebc:	8f c0       	rjmp	.+286    	; 0x1fdc <key_action+0x8dc>
		case TEMPLATE_NUM2_APPLY:
			if (pre_first_tpnum+1 > template_cnt)
    1ebe:	80 91 06 01 	lds	r24, 0x0106	; 0x800106 <pre_first_tpnum>
    1ec2:	88 2f       	mov	r24, r24
    1ec4:	90 e0       	ldi	r25, 0x00	; 0
    1ec6:	9c 01       	movw	r18, r24
    1ec8:	2f 5f       	subi	r18, 0xFF	; 255
    1eca:	3f 4f       	sbci	r19, 0xFF	; 255
    1ecc:	80 91 c1 02 	lds	r24, 0x02C1	; 0x8002c1 <template_cnt>
    1ed0:	88 2f       	mov	r24, r24
    1ed2:	90 e0       	ldi	r25, 0x00	; 0
    1ed4:	82 17       	cp	r24, r18
    1ed6:	93 07       	cpc	r25, r19
    1ed8:	44 f4       	brge	.+16     	; 0x1eea <key_action+0x7ea>
			{
				template_tip_msg = ICON_NTP;
    1eda:	87 e0       	ldi	r24, 0x07	; 7
    1edc:	80 93 c2 02 	sts	0x02C2, r24	; 0x8002c2 <template_tip_msg>
				update_template_page(pre_first_tpnum);
    1ee0:	80 91 06 01 	lds	r24, 0x0106	; 0x800106 <pre_first_tpnum>
    1ee4:	0e 94 04 24 	call	0x4808	; 0x4808 <update_template_page>
				break;
    1ee8:	79 c0       	rjmp	.+242    	; 0x1fdc <key_action+0x8dc>
			}
			else
			{
				apply_template(pre_first_tpnum+1);
    1eea:	80 91 06 01 	lds	r24, 0x0106	; 0x800106 <pre_first_tpnum>
    1eee:	8f 5f       	subi	r24, 0xFF	; 255
    1ef0:	0e 94 6f 01 	call	0x2de	; 0x2de <apply_template>
				template_tip_msg = ICON_APPLIED;
    1ef4:	84 e0       	ldi	r24, 0x04	; 4
    1ef6:	80 93 c2 02 	sts	0x02C2, r24	; 0x8002c2 <template_tip_msg>
				update_template_page(pre_first_tpnum);
    1efa:	80 91 06 01 	lds	r24, 0x0106	; 0x800106 <pre_first_tpnum>
    1efe:	0e 94 04 24 	call	0x4808	; 0x4808 <update_template_page>
			}
			break;
    1f02:	6c c0       	rjmp	.+216    	; 0x1fdc <key_action+0x8dc>
		case TEMPLATE_NUM3_APPLY:
			if (pre_first_tpnum+2 > template_cnt)
    1f04:	80 91 06 01 	lds	r24, 0x0106	; 0x800106 <pre_first_tpnum>
    1f08:	88 2f       	mov	r24, r24
    1f0a:	90 e0       	ldi	r25, 0x00	; 0
    1f0c:	9c 01       	movw	r18, r24
    1f0e:	2e 5f       	subi	r18, 0xFE	; 254
    1f10:	3f 4f       	sbci	r19, 0xFF	; 255
    1f12:	80 91 c1 02 	lds	r24, 0x02C1	; 0x8002c1 <template_cnt>
    1f16:	88 2f       	mov	r24, r24
    1f18:	90 e0       	ldi	r25, 0x00	; 0
    1f1a:	82 17       	cp	r24, r18
    1f1c:	93 07       	cpc	r25, r19
    1f1e:	44 f4       	brge	.+16     	; 0x1f30 <key_action+0x830>
			{
				template_tip_msg = ICON_NTP;
    1f20:	87 e0       	ldi	r24, 0x07	; 7
    1f22:	80 93 c2 02 	sts	0x02C2, r24	; 0x8002c2 <template_tip_msg>
				update_template_page(pre_first_tpnum);
    1f26:	80 91 06 01 	lds	r24, 0x0106	; 0x800106 <pre_first_tpnum>
    1f2a:	0e 94 04 24 	call	0x4808	; 0x4808 <update_template_page>
				break;
    1f2e:	56 c0       	rjmp	.+172    	; 0x1fdc <key_action+0x8dc>
			}
			else
			{
				apply_template(pre_first_tpnum+2);
    1f30:	80 91 06 01 	lds	r24, 0x0106	; 0x800106 <pre_first_tpnum>
    1f34:	8e 5f       	subi	r24, 0xFE	; 254
    1f36:	0e 94 6f 01 	call	0x2de	; 0x2de <apply_template>
				template_tip_msg = ICON_APPLIED;
    1f3a:	84 e0       	ldi	r24, 0x04	; 4
    1f3c:	80 93 c2 02 	sts	0x02C2, r24	; 0x8002c2 <template_tip_msg>
				update_template_page(pre_first_tpnum);
    1f40:	80 91 06 01 	lds	r24, 0x0106	; 0x800106 <pre_first_tpnum>
    1f44:	0e 94 04 24 	call	0x4808	; 0x4808 <update_template_page>
			}
			break;
    1f48:	49 c0       	rjmp	.+146    	; 0x1fdc <key_action+0x8dc>
		case TEMPLATE_NUM4_APPLY:
			if (pre_first_tpnum+3 > template_cnt)
    1f4a:	80 91 06 01 	lds	r24, 0x0106	; 0x800106 <pre_first_tpnum>
    1f4e:	88 2f       	mov	r24, r24
    1f50:	90 e0       	ldi	r25, 0x00	; 0
    1f52:	9c 01       	movw	r18, r24
    1f54:	2d 5f       	subi	r18, 0xFD	; 253
    1f56:	3f 4f       	sbci	r19, 0xFF	; 255
    1f58:	80 91 c1 02 	lds	r24, 0x02C1	; 0x8002c1 <template_cnt>
    1f5c:	88 2f       	mov	r24, r24
    1f5e:	90 e0       	ldi	r25, 0x00	; 0
    1f60:	82 17       	cp	r24, r18
    1f62:	93 07       	cpc	r25, r19
    1f64:	44 f4       	brge	.+16     	; 0x1f76 <key_action+0x876>
			{
				template_tip_msg = ICON_NTP;
    1f66:	87 e0       	ldi	r24, 0x07	; 7
    1f68:	80 93 c2 02 	sts	0x02C2, r24	; 0x8002c2 <template_tip_msg>
				update_template_page(pre_first_tpnum);
    1f6c:	80 91 06 01 	lds	r24, 0x0106	; 0x800106 <pre_first_tpnum>
    1f70:	0e 94 04 24 	call	0x4808	; 0x4808 <update_template_page>
				break;
    1f74:	33 c0       	rjmp	.+102    	; 0x1fdc <key_action+0x8dc>
			}
			else
			{
				apply_template(pre_first_tpnum+3);
    1f76:	80 91 06 01 	lds	r24, 0x0106	; 0x800106 <pre_first_tpnum>
    1f7a:	8d 5f       	subi	r24, 0xFD	; 253
    1f7c:	0e 94 6f 01 	call	0x2de	; 0x2de <apply_template>
				template_tip_msg = ICON_APPLIED;
    1f80:	84 e0       	ldi	r24, 0x04	; 4
    1f82:	80 93 c2 02 	sts	0x02C2, r24	; 0x8002c2 <template_tip_msg>
				update_template_page(pre_first_tpnum);
    1f86:	80 91 06 01 	lds	r24, 0x0106	; 0x800106 <pre_first_tpnum>
    1f8a:	0e 94 04 24 	call	0x4808	; 0x4808 <update_template_page>
			}
			break;
    1f8e:	26 c0       	rjmp	.+76     	; 0x1fdc <key_action+0x8dc>
		case TEMPLATE_NUM5_APPLY:
			if (pre_first_tpnum+4 > template_cnt)
    1f90:	80 91 06 01 	lds	r24, 0x0106	; 0x800106 <pre_first_tpnum>
    1f94:	88 2f       	mov	r24, r24
    1f96:	90 e0       	ldi	r25, 0x00	; 0
    1f98:	9c 01       	movw	r18, r24
    1f9a:	2c 5f       	subi	r18, 0xFC	; 252
    1f9c:	3f 4f       	sbci	r19, 0xFF	; 255
    1f9e:	80 91 c1 02 	lds	r24, 0x02C1	; 0x8002c1 <template_cnt>
    1fa2:	88 2f       	mov	r24, r24
    1fa4:	90 e0       	ldi	r25, 0x00	; 0
    1fa6:	82 17       	cp	r24, r18
    1fa8:	93 07       	cpc	r25, r19
    1faa:	44 f4       	brge	.+16     	; 0x1fbc <key_action+0x8bc>
			{
				template_tip_msg = ICON_NTP;
    1fac:	87 e0       	ldi	r24, 0x07	; 7
    1fae:	80 93 c2 02 	sts	0x02C2, r24	; 0x8002c2 <template_tip_msg>
				update_template_page(pre_first_tpnum);
    1fb2:	80 91 06 01 	lds	r24, 0x0106	; 0x800106 <pre_first_tpnum>
    1fb6:	0e 94 04 24 	call	0x4808	; 0x4808 <update_template_page>
				break;
    1fba:	10 c0       	rjmp	.+32     	; 0x1fdc <key_action+0x8dc>
			}
			else
			{
				apply_template(pre_first_tpnum+4);
    1fbc:	80 91 06 01 	lds	r24, 0x0106	; 0x800106 <pre_first_tpnum>
    1fc0:	8c 5f       	subi	r24, 0xFC	; 252
    1fc2:	0e 94 6f 01 	call	0x2de	; 0x2de <apply_template>
				template_tip_msg = ICON_APPLIED;
    1fc6:	84 e0       	ldi	r24, 0x04	; 4
    1fc8:	80 93 c2 02 	sts	0x02C2, r24	; 0x8002c2 <template_tip_msg>
				update_template_page(pre_first_tpnum);
    1fcc:	80 91 06 01 	lds	r24, 0x0106	; 0x800106 <pre_first_tpnum>
    1fd0:	0e 94 04 24 	call	0x4808	; 0x4808 <update_template_page>
			}
			break;
    1fd4:	03 c0       	rjmp	.+6      	; 0x1fdc <key_action+0x8dc>
	default: break;
    1fd6:	00 00       	nop
    1fd8:	01 c0       	rjmp	.+2      	; 0x1fdc <key_action+0x8dc>
		else if(template_cnt <= 5)
		{
			pre_first_tpnum = 1;
			update_template_page(pre_first_tpnum);
		}
		break;
    1fda:	00 00       	nop
				update_template_page(pre_first_tpnum);
			}
			break;
	default: break;
	}
}
    1fdc:	00 00       	nop
    1fde:	0f 90       	pop	r0
    1fe0:	0f 90       	pop	r0
    1fe2:	0f 90       	pop	r0
    1fe4:	0f 90       	pop	r0
    1fe6:	df 91       	pop	r29
    1fe8:	cf 91       	pop	r28
    1fea:	08 95       	ret

00001fec <single_set_ok>:

void single_set_ok(void)
{
    1fec:	cf 93       	push	r28
    1fee:	df 93       	push	r29
    1ff0:	cd b7       	in	r28, 0x3d	; 61
    1ff2:	de b7       	in	r29, 0x3e	; 62
	if (set_temp_buff[set_num] != set_temp[set_num])
    1ff4:	80 91 9e 01 	lds	r24, 0x019E	; 0x80019e <set_num>
    1ff8:	88 2f       	mov	r24, r24
    1ffa:	90 e0       	ldi	r25, 0x00	; 0
    1ffc:	88 0f       	add	r24, r24
    1ffe:	99 1f       	adc	r25, r25
    2000:	80 55       	subi	r24, 0x50	; 80
    2002:	94 4f       	sbci	r25, 0xF4	; 244
    2004:	fc 01       	movw	r30, r24
    2006:	80 81       	ld	r24, Z
    2008:	91 81       	ldd	r25, Z+1	; 0x01
    200a:	20 91 9e 01 	lds	r18, 0x019E	; 0x80019e <set_num>
    200e:	22 2f       	mov	r18, r18
    2010:	30 e0       	ldi	r19, 0x00	; 0
    2012:	22 0f       	add	r18, r18
    2014:	33 1f       	adc	r19, r19
    2016:	24 59       	subi	r18, 0x94	; 148
    2018:	34 4f       	sbci	r19, 0xF4	; 244
    201a:	f9 01       	movw	r30, r18
    201c:	20 81       	ld	r18, Z
    201e:	31 81       	ldd	r19, Z+1	; 0x01
    2020:	82 17       	cp	r24, r18
    2022:	93 07       	cpc	r25, r19
    2024:	19 f1       	breq	.+70     	; 0x206c <single_set_ok+0x80>
	{
		set_temp[set_num] = set_temp_buff[set_num];
    2026:	80 91 9e 01 	lds	r24, 0x019E	; 0x80019e <set_num>
    202a:	88 2f       	mov	r24, r24
    202c:	90 e0       	ldi	r25, 0x00	; 0
    202e:	20 91 9e 01 	lds	r18, 0x019E	; 0x80019e <set_num>
    2032:	22 2f       	mov	r18, r18
    2034:	30 e0       	ldi	r19, 0x00	; 0
    2036:	22 0f       	add	r18, r18
    2038:	33 1f       	adc	r19, r19
    203a:	20 55       	subi	r18, 0x50	; 80
    203c:	34 4f       	sbci	r19, 0xF4	; 244
    203e:	f9 01       	movw	r30, r18
    2040:	20 81       	ld	r18, Z
    2042:	31 81       	ldd	r19, Z+1	; 0x01
    2044:	88 0f       	add	r24, r24
    2046:	99 1f       	adc	r25, r25
    2048:	84 59       	subi	r24, 0x94	; 148
    204a:	94 4f       	sbci	r25, 0xF4	; 244
    204c:	fc 01       	movw	r30, r24
    204e:	31 83       	std	Z+1, r19	; 0x01
    2050:	20 83       	st	Z, r18
		ctrl_command[ctrl_index++] = TEMP;
    2052:	80 91 cc 02 	lds	r24, 0x02CC	; 0x8002cc <ctrl_index>
    2056:	91 e0       	ldi	r25, 0x01	; 1
    2058:	98 0f       	add	r25, r24
    205a:	90 93 cc 02 	sts	0x02CC, r25	; 0x8002cc <ctrl_index>
    205e:	88 2f       	mov	r24, r24
    2060:	90 e0       	ldi	r25, 0x00	; 0
    2062:	84 56       	subi	r24, 0x64	; 100
    2064:	94 4f       	sbci	r25, 0xF4	; 244
    2066:	23 e0       	ldi	r18, 0x03	; 3
    2068:	fc 01       	movw	r30, r24
    206a:	20 83       	st	Z, r18
		// single_set(TEMP, set_temp[set_num]);
		// 		eeprom_write(SINGLE_SETTEMP_EEADDR + (set_num * 2), set_temp[set_num]);
		// 		eeprom_write(SINGLE_SETTEMP_EEADDR + (set_num * 2) + 1, set_temp[set_num] >> 8);
	}

	if (switch_sensor_buff[set_num] != switch_sensor[set_num])
    206c:	80 91 9e 01 	lds	r24, 0x019E	; 0x80019e <set_num>
    2070:	88 2f       	mov	r24, r24
    2072:	90 e0       	ldi	r25, 0x00	; 0
    2074:	88 0f       	add	r24, r24
    2076:	99 1f       	adc	r25, r25
    2078:	8d 52       	subi	r24, 0x2D	; 45
    207a:	99 4f       	sbci	r25, 0xF9	; 249
    207c:	fc 01       	movw	r30, r24
    207e:	20 81       	ld	r18, Z
    2080:	31 81       	ldd	r19, Z+1	; 0x01
    2082:	80 91 9e 01 	lds	r24, 0x019E	; 0x80019e <set_num>
    2086:	88 2f       	mov	r24, r24
    2088:	90 e0       	ldi	r25, 0x00	; 0
    208a:	88 0f       	add	r24, r24
    208c:	99 1f       	adc	r25, r25
    208e:	8f 5d       	subi	r24, 0xDF	; 223
    2090:	9d 4f       	sbci	r25, 0xFD	; 253
    2092:	fc 01       	movw	r30, r24
    2094:	80 81       	ld	r24, Z
    2096:	91 81       	ldd	r25, Z+1	; 0x01
    2098:	28 17       	cp	r18, r24
    209a:	39 07       	cpc	r19, r25
    209c:	19 f1       	breq	.+70     	; 0x20e4 <single_set_ok+0xf8>
	{
		switch_sensor[set_num] = switch_sensor_buff[set_num];
    209e:	80 91 9e 01 	lds	r24, 0x019E	; 0x80019e <set_num>
    20a2:	88 2f       	mov	r24, r24
    20a4:	90 e0       	ldi	r25, 0x00	; 0
    20a6:	20 91 9e 01 	lds	r18, 0x019E	; 0x80019e <set_num>
    20aa:	22 2f       	mov	r18, r18
    20ac:	30 e0       	ldi	r19, 0x00	; 0
    20ae:	22 0f       	add	r18, r18
    20b0:	33 1f       	adc	r19, r19
    20b2:	2d 52       	subi	r18, 0x2D	; 45
    20b4:	39 4f       	sbci	r19, 0xF9	; 249
    20b6:	f9 01       	movw	r30, r18
    20b8:	20 81       	ld	r18, Z
    20ba:	31 81       	ldd	r19, Z+1	; 0x01
    20bc:	88 0f       	add	r24, r24
    20be:	99 1f       	adc	r25, r25
    20c0:	8f 5d       	subi	r24, 0xDF	; 223
    20c2:	9d 4f       	sbci	r25, 0xFD	; 253
    20c4:	fc 01       	movw	r30, r24
    20c6:	31 83       	std	Z+1, r19	; 0x01
    20c8:	20 83       	st	Z, r18
		ctrl_command[ctrl_index++] = SWITCH_SENSOR;
    20ca:	80 91 cc 02 	lds	r24, 0x02CC	; 0x8002cc <ctrl_index>
    20ce:	91 e0       	ldi	r25, 0x01	; 1
    20d0:	98 0f       	add	r25, r24
    20d2:	90 93 cc 02 	sts	0x02CC, r25	; 0x8002cc <ctrl_index>
    20d6:	88 2f       	mov	r24, r24
    20d8:	90 e0       	ldi	r25, 0x00	; 0
    20da:	84 56       	subi	r24, 0x64	; 100
    20dc:	94 4f       	sbci	r25, 0xF4	; 244
    20de:	26 e0       	ldi	r18, 0x06	; 6
    20e0:	fc 01       	movw	r30, r24
    20e2:	20 83       	st	Z, r18
	// 		sensor_type[set_num] = sensor_type_buff[set_num];
	// 		ctrl_command = SENSOR_TYPE;
	// //		eeprom_write(SINGLE_SENSORTYPE_EEADDR + set_num, sensor_type[set_num]);
	// 	}

	if (follow_sta_buff[set_num] != follow_sta[set_num])
    20e4:	80 91 9e 01 	lds	r24, 0x019E	; 0x80019e <set_num>
    20e8:	88 2f       	mov	r24, r24
    20ea:	90 e0       	ldi	r25, 0x00	; 0
    20ec:	83 56       	subi	r24, 0x63	; 99
    20ee:	9d 4f       	sbci	r25, 0xFD	; 253
    20f0:	fc 01       	movw	r30, r24
    20f2:	20 81       	ld	r18, Z
    20f4:	80 91 9e 01 	lds	r24, 0x019E	; 0x80019e <set_num>
    20f8:	88 2f       	mov	r24, r24
    20fa:	90 e0       	ldi	r25, 0x00	; 0
    20fc:	8b 57       	subi	r24, 0x7B	; 123
    20fe:	9d 4f       	sbci	r25, 0xFD	; 253
    2100:	fc 01       	movw	r30, r24
    2102:	80 81       	ld	r24, Z
    2104:	28 17       	cp	r18, r24
    2106:	e9 f0       	breq	.+58     	; 0x2142 <single_set_ok+0x156>
	{
		follow_sta[set_num] = follow_sta_buff[set_num];
    2108:	80 91 9e 01 	lds	r24, 0x019E	; 0x80019e <set_num>
    210c:	88 2f       	mov	r24, r24
    210e:	90 e0       	ldi	r25, 0x00	; 0
    2110:	20 91 9e 01 	lds	r18, 0x019E	; 0x80019e <set_num>
    2114:	22 2f       	mov	r18, r18
    2116:	30 e0       	ldi	r19, 0x00	; 0
    2118:	23 56       	subi	r18, 0x63	; 99
    211a:	3d 4f       	sbci	r19, 0xFD	; 253
    211c:	f9 01       	movw	r30, r18
    211e:	20 81       	ld	r18, Z
    2120:	8b 57       	subi	r24, 0x7B	; 123
    2122:	9d 4f       	sbci	r25, 0xFD	; 253
    2124:	fc 01       	movw	r30, r24
    2126:	20 83       	st	Z, r18
		ctrl_command[ctrl_index++] = SET_FOLLOW;
    2128:	80 91 cc 02 	lds	r24, 0x02CC	; 0x8002cc <ctrl_index>
    212c:	91 e0       	ldi	r25, 0x01	; 1
    212e:	98 0f       	add	r25, r24
    2130:	90 93 cc 02 	sts	0x02CC, r25	; 0x8002cc <ctrl_index>
    2134:	88 2f       	mov	r24, r24
    2136:	90 e0       	ldi	r25, 0x00	; 0
    2138:	84 56       	subi	r24, 0x64	; 100
    213a:	94 4f       	sbci	r25, 0xF4	; 244
    213c:	28 e0       	ldi	r18, 0x08	; 8
    213e:	fc 01       	movw	r30, r24
    2140:	20 83       	st	Z, r18
		// single_set(SET_FOLLOW, follow_sta[set_num]);
	}

	if (set_name_buff != set_name[set_num])
    2142:	80 91 9e 01 	lds	r24, 0x019E	; 0x80019e <set_num>
    2146:	88 2f       	mov	r24, r24
    2148:	90 e0       	ldi	r25, 0x00	; 0
    214a:	88 0f       	add	r24, r24
    214c:	99 1f       	adc	r25, r25
    214e:	88 0f       	add	r24, r24
    2150:	99 1f       	adc	r25, r25
    2152:	84 5f       	subi	r24, 0xF4	; 244
    2154:	94 4f       	sbci	r25, 0xF4	; 244
    2156:	fc 01       	movw	r30, r24
    2158:	20 81       	ld	r18, Z
    215a:	31 81       	ldd	r19, Z+1	; 0x01
    215c:	42 81       	ldd	r20, Z+2	; 0x02
    215e:	53 81       	ldd	r21, Z+3	; 0x03
    2160:	80 91 81 02 	lds	r24, 0x0281	; 0x800281 <set_name_buff>
    2164:	90 91 82 02 	lds	r25, 0x0282	; 0x800282 <set_name_buff+0x1>
    2168:	a0 91 83 02 	lds	r26, 0x0283	; 0x800283 <set_name_buff+0x2>
    216c:	b0 91 84 02 	lds	r27, 0x0284	; 0x800284 <set_name_buff+0x3>
    2170:	28 17       	cp	r18, r24
    2172:	39 07       	cpc	r19, r25
    2174:	4a 07       	cpc	r20, r26
    2176:	5b 07       	cpc	r21, r27
    2178:	b9 f0       	breq	.+46     	; 0x21a8 <single_set_ok+0x1bc>
	{
		set_name[set_num] = set_name_buff;
    217a:	80 91 9e 01 	lds	r24, 0x019E	; 0x80019e <set_num>
    217e:	28 2f       	mov	r18, r24
    2180:	30 e0       	ldi	r19, 0x00	; 0
    2182:	80 91 81 02 	lds	r24, 0x0281	; 0x800281 <set_name_buff>
    2186:	90 91 82 02 	lds	r25, 0x0282	; 0x800282 <set_name_buff+0x1>
    218a:	a0 91 83 02 	lds	r26, 0x0283	; 0x800283 <set_name_buff+0x2>
    218e:	b0 91 84 02 	lds	r27, 0x0284	; 0x800284 <set_name_buff+0x3>
    2192:	22 0f       	add	r18, r18
    2194:	33 1f       	adc	r19, r19
    2196:	22 0f       	add	r18, r18
    2198:	33 1f       	adc	r19, r19
    219a:	24 5f       	subi	r18, 0xF4	; 244
    219c:	34 4f       	sbci	r19, 0xF4	; 244
    219e:	f9 01       	movw	r30, r18
    21a0:	80 83       	st	Z, r24
    21a2:	91 83       	std	Z+1, r25	; 0x01
    21a4:	a2 83       	std	Z+2, r26	; 0x02
    21a6:	b3 83       	std	Z+3, r27	; 0x03
		// 		eeprom_write(SET_NAME_EEADDR + (set_num * 4) + 1, set_name[set_num] >> 8);
		// 		eeprom_write(SET_NAME_EEADDR + (set_num * 4) + 2, set_name[set_num] >> 16);
		// 		eeprom_write(SET_NAME_EEADDR + (set_num * 4) + 3, set_name[set_num] >> 24);
	}

	update_main_page();
    21a8:	0e 94 b7 09 	call	0x136e	; 0x136e <update_main_page>
	in_main_page = 1;
    21ac:	81 e0       	ldi	r24, 0x01	; 1
    21ae:	80 93 00 01 	sts	0x0100, r24	; 0x800100 <__data_start>
	update_run_temp_flag = 0;
    21b2:	10 92 99 01 	sts	0x0199, r1	; 0x800199 <update_run_temp_flag>
}
    21b6:	00 00       	nop
    21b8:	df 91       	pop	r29
    21ba:	cf 91       	pop	r28
    21bc:	08 95       	ret

000021be <all_set_ok>:

void all_set_ok(void)
{
    21be:	cf 93       	push	r28
    21c0:	df 93       	push	r29
    21c2:	1f 92       	push	r1
    21c4:	cd b7       	in	r28, 0x3d	; 61
    21c6:	de b7       	in	r29, 0x3e	; 62
	uint8_t i = 0;
    21c8:	19 82       	std	Y+1, r1	; 0x01

	all_temp = all_temp_buff;
    21ca:	80 91 7a 01 	lds	r24, 0x017A	; 0x80017a <all_temp_buff>
    21ce:	90 91 7b 01 	lds	r25, 0x017B	; 0x80017b <all_temp_buff+0x1>
    21d2:	90 93 04 01 	sts	0x0104, r25	; 0x800104 <all_temp+0x1>
    21d6:	80 93 03 01 	sts	0x0103, r24	; 0x800103 <all_temp>

	for (i = 0; i < MAX_IQR_QUANTITY; i++)
    21da:	19 82       	std	Y+1, r1	; 0x01
    21dc:	1f c0       	rjmp	.+62     	; 0x221c <all_set_ok+0x5e>
	{
		set_temp[i] = all_temp;
    21de:	89 81       	ldd	r24, Y+1	; 0x01
    21e0:	88 2f       	mov	r24, r24
    21e2:	90 e0       	ldi	r25, 0x00	; 0
    21e4:	20 91 03 01 	lds	r18, 0x0103	; 0x800103 <all_temp>
    21e8:	30 91 04 01 	lds	r19, 0x0104	; 0x800104 <all_temp+0x1>
    21ec:	88 0f       	add	r24, r24
    21ee:	99 1f       	adc	r25, r25
    21f0:	84 59       	subi	r24, 0x94	; 148
    21f2:	94 4f       	sbci	r25, 0xF4	; 244
    21f4:	fc 01       	movw	r30, r24
    21f6:	31 83       	std	Z+1, r19	; 0x01
    21f8:	20 83       	st	Z, r18
		set_temp_buff[i] = all_temp;
    21fa:	89 81       	ldd	r24, Y+1	; 0x01
    21fc:	88 2f       	mov	r24, r24
    21fe:	90 e0       	ldi	r25, 0x00	; 0
    2200:	20 91 03 01 	lds	r18, 0x0103	; 0x800103 <all_temp>
    2204:	30 91 04 01 	lds	r19, 0x0104	; 0x800104 <all_temp+0x1>
    2208:	88 0f       	add	r24, r24
    220a:	99 1f       	adc	r25, r25
    220c:	80 55       	subi	r24, 0x50	; 80
    220e:	94 4f       	sbci	r25, 0xF4	; 244
    2210:	fc 01       	movw	r30, r24
    2212:	31 83       	std	Z+1, r19	; 0x01
    2214:	20 83       	st	Z, r18
{
	uint8_t i = 0;

	all_temp = all_temp_buff;

	for (i = 0; i < MAX_IQR_QUANTITY; i++)
    2216:	89 81       	ldd	r24, Y+1	; 0x01
    2218:	8f 5f       	subi	r24, 0xFF	; 255
    221a:	89 83       	std	Y+1, r24	; 0x01
    221c:	89 81       	ldd	r24, Y+1	; 0x01
    221e:	88 31       	cpi	r24, 0x18	; 24
    2220:	f0 f2       	brcs	.-68     	; 0x21de <all_set_ok+0x20>
		// 		eeprom_write(SINGLE_SETTEMP_EEADDR + (i * 2) + 1, set_temp[i] >> 8);
	}

	// 	if (temp_unit_buff != temp_unit)
	// 	{
	temp_unit = temp_unit_buff;
    2222:	80 91 d1 06 	lds	r24, 0x06D1	; 0x8006d1 <temp_unit_buff>
    2226:	90 91 d2 06 	lds	r25, 0x06D2	; 0x8006d2 <temp_unit_buff+0x1>
    222a:	90 93 b8 02 	sts	0x02B8, r25	; 0x8002b8 <temp_unit+0x1>
    222e:	80 93 b7 02 	sts	0x02B7, r24	; 0x8002b7 <temp_unit>
	//
	// 		//  
	// 		/*		eeprom_write(TEMP_UNIT_EEADDR, temp_unit);*/
	// 	}

	preheat_time = preheat_time_buff;
    2232:	80 91 7c 01 	lds	r24, 0x017C	; 0x80017c <preheat_time_buff>
    2236:	90 91 7d 01 	lds	r25, 0x017D	; 0x80017d <preheat_time_buff+0x1>
    223a:	90 93 02 01 	sts	0x0102, r25	; 0x800102 <preheat_time+0x1>
    223e:	80 93 01 01 	sts	0x0101, r24	; 0x800101 <preheat_time>

	all_sensor_type = all_sensor_type_buff;
    2242:	80 91 cf 06 	lds	r24, 0x06CF	; 0x8006cf <all_sensor_type_buff>
    2246:	90 91 d0 06 	lds	r25, 0x06D0	; 0x8006d0 <all_sensor_type_buff+0x1>
    224a:	90 93 b6 02 	sts	0x02B6, r25	; 0x8002b6 <all_sensor_type+0x1>
    224e:	80 93 b5 02 	sts	0x02B5, r24	; 0x8002b5 <all_sensor_type>

	for (i = 0; i < MAX_IQR_QUANTITY; i++)
    2252:	19 82       	std	Y+1, r1	; 0x01
    2254:	1f c0       	rjmp	.+62     	; 0x2294 <all_set_ok+0xd6>
	{
		sensor_type[i] = all_sensor_type;
    2256:	89 81       	ldd	r24, Y+1	; 0x01
    2258:	88 2f       	mov	r24, r24
    225a:	90 e0       	ldi	r25, 0x00	; 0
    225c:	20 91 b5 02 	lds	r18, 0x02B5	; 0x8002b5 <all_sensor_type>
    2260:	30 91 b6 02 	lds	r19, 0x02B6	; 0x8002b6 <all_sensor_type+0x1>
    2264:	88 0f       	add	r24, r24
    2266:	99 1f       	adc	r25, r25
    2268:	8f 5a       	subi	r24, 0xAF	; 175
    226a:	9d 4f       	sbci	r25, 0xFD	; 253
    226c:	fc 01       	movw	r30, r24
    226e:	31 83       	std	Z+1, r19	; 0x01
    2270:	20 83       	st	Z, r18
		sensor_type_buff[i] = all_sensor_type;
    2272:	89 81       	ldd	r24, Y+1	; 0x01
    2274:	88 2f       	mov	r24, r24
    2276:	90 e0       	ldi	r25, 0x00	; 0
    2278:	20 91 b5 02 	lds	r18, 0x02B5	; 0x8002b5 <all_sensor_type>
    227c:	30 91 b6 02 	lds	r19, 0x02B6	; 0x8002b6 <all_sensor_type+0x1>
    2280:	88 0f       	add	r24, r24
    2282:	99 1f       	adc	r25, r25
    2284:	8d 5f       	subi	r24, 0xFD	; 253
    2286:	98 4f       	sbci	r25, 0xF8	; 248
    2288:	fc 01       	movw	r30, r24
    228a:	31 83       	std	Z+1, r19	; 0x01
    228c:	20 83       	st	Z, r18

	preheat_time = preheat_time_buff;

	all_sensor_type = all_sensor_type_buff;

	for (i = 0; i < MAX_IQR_QUANTITY; i++)
    228e:	89 81       	ldd	r24, Y+1	; 0x01
    2290:	8f 5f       	subi	r24, 0xFF	; 255
    2292:	89 83       	std	Y+1, r24	; 0x01
    2294:	89 81       	ldd	r24, Y+1	; 0x01
    2296:	88 31       	cpi	r24, 0x18	; 24
    2298:	f0 f2       	brcs	.-68     	; 0x2256 <all_set_ok+0x98>
		sensor_type_buff[i] = all_sensor_type;
		//			eeprom_write(SINGLE_SENSORTYPE_EEADDR + i, sensor_type[i]);
	}
	//	send_variables(ALL_SENSOR_TYPE_ADDR, TYPE_J + (all_sensor_type * TYPE_K));

	update_main_page();
    229a:	0e 94 b7 09 	call	0x136e	; 0x136e <update_main_page>

	ctrl_command[ctrl_index++] = PREHEAT_TIME;
    229e:	80 91 cc 02 	lds	r24, 0x02CC	; 0x8002cc <ctrl_index>
    22a2:	91 e0       	ldi	r25, 0x01	; 1
    22a4:	98 0f       	add	r25, r24
    22a6:	90 93 cc 02 	sts	0x02CC, r25	; 0x8002cc <ctrl_index>
    22aa:	88 2f       	mov	r24, r24
    22ac:	90 e0       	ldi	r25, 0x00	; 0
    22ae:	84 56       	subi	r24, 0x64	; 100
    22b0:	94 4f       	sbci	r25, 0xF4	; 244
    22b2:	24 e0       	ldi	r18, 0x04	; 4
    22b4:	fc 01       	movw	r30, r24
    22b6:	20 83       	st	Z, r18
	ctrl_command[ctrl_index++] = SENSOR_TYPE;
    22b8:	80 91 cc 02 	lds	r24, 0x02CC	; 0x8002cc <ctrl_index>
    22bc:	91 e0       	ldi	r25, 0x01	; 1
    22be:	98 0f       	add	r25, r24
    22c0:	90 93 cc 02 	sts	0x02CC, r25	; 0x8002cc <ctrl_index>
    22c4:	88 2f       	mov	r24, r24
    22c6:	90 e0       	ldi	r25, 0x00	; 0
    22c8:	84 56       	subi	r24, 0x64	; 100
    22ca:	94 4f       	sbci	r25, 0xF4	; 244
    22cc:	25 e0       	ldi	r18, 0x05	; 5
    22ce:	fc 01       	movw	r30, r24
    22d0:	20 83       	st	Z, r18
	ctrl_command[ctrl_index++] = TEMP;
    22d2:	80 91 cc 02 	lds	r24, 0x02CC	; 0x8002cc <ctrl_index>
    22d6:	91 e0       	ldi	r25, 0x01	; 1
    22d8:	98 0f       	add	r25, r24
    22da:	90 93 cc 02 	sts	0x02CC, r25	; 0x8002cc <ctrl_index>
    22de:	88 2f       	mov	r24, r24
    22e0:	90 e0       	ldi	r25, 0x00	; 0
    22e2:	84 56       	subi	r24, 0x64	; 100
    22e4:	94 4f       	sbci	r25, 0xF4	; 244
    22e6:	23 e0       	ldi	r18, 0x03	; 3
    22e8:	fc 01       	movw	r30, r24
    22ea:	20 83       	st	Z, r18
	all_set_flag = 1;
    22ec:	81 e0       	ldi	r24, 0x01	; 1
    22ee:	80 93 cd 02 	sts	0x02CD, r24	; 0x8002cd <all_set_flag>
	// //			eeprom_write(SINGLE_SENSORTYPE_EEADDR + i, sensor_type[i]);
	// 		}
	// 		send_variables(ALL_SENSOR_TYPE_ADDR, TYPE_J + (all_sensor_type * TYPE_K));
	// 	}
	//
	in_main_page = 1;
    22f2:	81 e0       	ldi	r24, 0x01	; 1
    22f4:	80 93 00 01 	sts	0x0100, r24	; 0x800100 <__data_start>
}
    22f8:	00 00       	nop
    22fa:	0f 90       	pop	r0
    22fc:	df 91       	pop	r29
    22fe:	cf 91       	pop	r28
    2300:	08 95       	ret

00002302 <pid_set_ok>:

void pid_set_ok(void)
{
    2302:	cf 93       	push	r28
    2304:	df 93       	push	r29
    2306:	cd b7       	in	r28, 0x3d	; 61
    2308:	de b7       	in	r29, 0x3e	; 62
	p_value[set_pid_channel - 1] = p_value_buff;
    230a:	80 91 9f 01 	lds	r24, 0x019F	; 0x80019f <set_pid_channel>
    230e:	88 2f       	mov	r24, r24
    2310:	90 e0       	ldi	r25, 0x00	; 0
    2312:	01 97       	sbiw	r24, 0x01	; 1
    2314:	20 91 7e 01 	lds	r18, 0x017E	; 0x80017e <p_value_buff>
    2318:	30 91 7f 01 	lds	r19, 0x017F	; 0x80017f <p_value_buff+0x1>
    231c:	88 0f       	add	r24, r24
    231e:	99 1f       	adc	r25, r25
    2320:	85 54       	subi	r24, 0x45	; 69
    2322:	97 4f       	sbci	r25, 0xF7	; 247
    2324:	fc 01       	movw	r30, r24
    2326:	31 83       	std	Z+1, r19	; 0x01
    2328:	20 83       	st	Z, r18
	i_value[set_pid_channel - 1] = i_value_buff;
    232a:	80 91 9f 01 	lds	r24, 0x019F	; 0x80019f <set_pid_channel>
    232e:	88 2f       	mov	r24, r24
    2330:	90 e0       	ldi	r25, 0x00	; 0
    2332:	01 97       	sbiw	r24, 0x01	; 1
    2334:	20 91 80 01 	lds	r18, 0x0180	; 0x800180 <i_value_buff>
    2338:	30 91 81 01 	lds	r19, 0x0181	; 0x800181 <i_value_buff+0x1>
    233c:	88 0f       	add	r24, r24
    233e:	99 1f       	adc	r25, r25
    2340:	85 51       	subi	r24, 0x15	; 21
    2342:	97 4f       	sbci	r25, 0xF7	; 247
    2344:	fc 01       	movw	r30, r24
    2346:	31 83       	std	Z+1, r19	; 0x01
    2348:	20 83       	st	Z, r18
	d_value[set_pid_channel - 1] = d_value_buff;
    234a:	80 91 9f 01 	lds	r24, 0x019F	; 0x80019f <set_pid_channel>
    234e:	88 2f       	mov	r24, r24
    2350:	90 e0       	ldi	r25, 0x00	; 0
    2352:	01 97       	sbiw	r24, 0x01	; 1
    2354:	20 91 82 01 	lds	r18, 0x0182	; 0x800182 <d_value_buff>
    2358:	30 91 83 01 	lds	r19, 0x0183	; 0x800183 <d_value_buff+0x1>
    235c:	88 0f       	add	r24, r24
    235e:	99 1f       	adc	r25, r25
    2360:	85 57       	subi	r24, 0x75	; 117
    2362:	97 4f       	sbci	r25, 0xF7	; 247
    2364:	fc 01       	movw	r30, r24
    2366:	31 83       	std	Z+1, r19	; 0x01
    2368:	20 83       	st	Z, r18
	// 	eeprom_write(PID_I_EEADDR + ((set_pid_channel - 1) * 2) + 1, i_value[set_pid_channel - 1] >> 8);
	//
	// 	eeprom_write(PID_D_EEADDR + ((set_pid_channel - 1) * 2), d_value[set_pid_channel - 1]);
	// 	eeprom_write(PID_D_EEADDR + ((set_pid_channel - 1) * 2) + 1, d_value[set_pid_channel - 1] >> 8);

	send_variables(PID_P_ADDR, p_value[set_pid_channel - 1]);
    236a:	80 91 9f 01 	lds	r24, 0x019F	; 0x80019f <set_pid_channel>
    236e:	88 2f       	mov	r24, r24
    2370:	90 e0       	ldi	r25, 0x00	; 0
    2372:	01 97       	sbiw	r24, 0x01	; 1
    2374:	88 0f       	add	r24, r24
    2376:	99 1f       	adc	r25, r25
    2378:	85 54       	subi	r24, 0x45	; 69
    237a:	97 4f       	sbci	r25, 0xF7	; 247
    237c:	fc 01       	movw	r30, r24
    237e:	80 81       	ld	r24, Z
    2380:	91 81       	ldd	r25, Z+1	; 0x01
    2382:	bc 01       	movw	r22, r24
    2384:	86 e3       	ldi	r24, 0x36	; 54
    2386:	90 e0       	ldi	r25, 0x00	; 0
    2388:	0e 94 1f 1c 	call	0x383e	; 0x383e <send_variables>
	send_variables(PID_I_ADDR, i_value[set_pid_channel - 1]);
    238c:	80 91 9f 01 	lds	r24, 0x019F	; 0x80019f <set_pid_channel>
    2390:	88 2f       	mov	r24, r24
    2392:	90 e0       	ldi	r25, 0x00	; 0
    2394:	01 97       	sbiw	r24, 0x01	; 1
    2396:	88 0f       	add	r24, r24
    2398:	99 1f       	adc	r25, r25
    239a:	85 51       	subi	r24, 0x15	; 21
    239c:	97 4f       	sbci	r25, 0xF7	; 247
    239e:	fc 01       	movw	r30, r24
    23a0:	80 81       	ld	r24, Z
    23a2:	91 81       	ldd	r25, Z+1	; 0x01
    23a4:	bc 01       	movw	r22, r24
    23a6:	88 e3       	ldi	r24, 0x38	; 56
    23a8:	90 e0       	ldi	r25, 0x00	; 0
    23aa:	0e 94 1f 1c 	call	0x383e	; 0x383e <send_variables>
	send_variables(PID_D_ADDR, d_value[set_pid_channel - 1]);
    23ae:	80 91 9f 01 	lds	r24, 0x019F	; 0x80019f <set_pid_channel>
    23b2:	88 2f       	mov	r24, r24
    23b4:	90 e0       	ldi	r25, 0x00	; 0
    23b6:	01 97       	sbiw	r24, 0x01	; 1
    23b8:	88 0f       	add	r24, r24
    23ba:	99 1f       	adc	r25, r25
    23bc:	85 57       	subi	r24, 0x75	; 117
    23be:	97 4f       	sbci	r25, 0xF7	; 247
    23c0:	fc 01       	movw	r30, r24
    23c2:	80 81       	ld	r24, Z
    23c4:	91 81       	ldd	r25, Z+1	; 0x01
    23c6:	bc 01       	movw	r22, r24
    23c8:	8a e3       	ldi	r24, 0x3A	; 58
    23ca:	90 e0       	ldi	r25, 0x00	; 0
    23cc:	0e 94 1f 1c 	call	0x383e	; 0x383e <send_variables>

	// set_pid();
	ctrl_command[ctrl_index++] = PID;
    23d0:	80 91 cc 02 	lds	r24, 0x02CC	; 0x8002cc <ctrl_index>
    23d4:	91 e0       	ldi	r25, 0x01	; 1
    23d6:	98 0f       	add	r25, r24
    23d8:	90 93 cc 02 	sts	0x02CC, r25	; 0x8002cc <ctrl_index>
    23dc:	88 2f       	mov	r24, r24
    23de:	90 e0       	ldi	r25, 0x00	; 0
    23e0:	84 56       	subi	r24, 0x64	; 100
    23e2:	94 4f       	sbci	r25, 0xF4	; 244
    23e4:	22 e0       	ldi	r18, 0x02	; 2
    23e6:	fc 01       	movw	r30, r24
    23e8:	20 83       	st	Z, r18
}
    23ea:	00 00       	nop
    23ec:	df 91       	pop	r29
    23ee:	cf 91       	pop	r28
    23f0:	08 95       	ret

000023f2 <set_pid>:

/*
**PID1
*/
void set_pid(void)
{
    23f2:	cf 93       	push	r28
    23f4:	df 93       	push	r29
    23f6:	00 d0       	rcall	.+0      	; 0x23f8 <set_pid+0x6>
    23f8:	1f 92       	push	r1
    23fa:	cd b7       	in	r28, 0x3d	; 61
    23fc:	de b7       	in	r29, 0x3e	; 62
	uint16_t crc = 0;
    23fe:	1a 82       	std	Y+2, r1	; 0x02
    2400:	19 82       	std	Y+1, r1	; 0x01
	uint8_t addr = 0;
    2402:	1b 82       	std	Y+3, r1	; 0x03

	/**/
	addr = (set_pid_channel - 1) / 4 + 1;
    2404:	80 91 9f 01 	lds	r24, 0x019F	; 0x80019f <set_pid_channel>
    2408:	88 2f       	mov	r24, r24
    240a:	90 e0       	ldi	r25, 0x00	; 0
    240c:	01 97       	sbiw	r24, 0x01	; 1
    240e:	99 23       	and	r25, r25
    2410:	0c f4       	brge	.+2      	; 0x2414 <set_pid+0x22>
    2412:	03 96       	adiw	r24, 0x03	; 3
    2414:	95 95       	asr	r25
    2416:	87 95       	ror	r24
    2418:	95 95       	asr	r25
    241a:	87 95       	ror	r24
    241c:	8f 5f       	subi	r24, 0xFF	; 255
    241e:	8b 83       	std	Y+3, r24	; 0x03
	addr = (addr << 4) + ((set_pid_channel - 1) % 4) + 1;
    2420:	8b 81       	ldd	r24, Y+3	; 0x03
    2422:	28 2f       	mov	r18, r24
    2424:	22 95       	swap	r18
    2426:	20 7f       	andi	r18, 0xF0	; 240
    2428:	80 91 9f 01 	lds	r24, 0x019F	; 0x80019f <set_pid_channel>
    242c:	88 2f       	mov	r24, r24
    242e:	90 e0       	ldi	r25, 0x00	; 0
    2430:	01 97       	sbiw	r24, 0x01	; 1
    2432:	83 70       	andi	r24, 0x03	; 3
    2434:	90 78       	andi	r25, 0x80	; 128
    2436:	99 23       	and	r25, r25
    2438:	24 f4       	brge	.+8      	; 0x2442 <set_pid+0x50>
    243a:	01 97       	sbiw	r24, 0x01	; 1
    243c:	8c 6f       	ori	r24, 0xFC	; 252
    243e:	9f 6f       	ori	r25, 0xFF	; 255
    2440:	01 96       	adiw	r24, 0x01	; 1
    2442:	82 0f       	add	r24, r18
    2444:	8f 5f       	subi	r24, 0xFF	; 255
    2446:	8b 83       	std	Y+3, r24	; 0x03

	usart1_tx_buff[0] = 0xA5;
    2448:	85 ea       	ldi	r24, 0xA5	; 165
    244a:	80 93 3b 05 	sts	0x053B, r24	; 0x80053b <usart1_tx_buff>
	usart1_tx_buff[1] = 0x5A;
    244e:	8a e5       	ldi	r24, 0x5A	; 90
    2450:	80 93 3c 05 	sts	0x053C, r24	; 0x80053c <usart1_tx_buff+0x1>
	usart1_tx_buff[2] = 0x08;
    2454:	88 e0       	ldi	r24, 0x08	; 8
    2456:	80 93 3d 05 	sts	0x053D, r24	; 0x80053d <usart1_tx_buff+0x2>
	usart1_tx_buff[3] = PID;
    245a:	82 e0       	ldi	r24, 0x02	; 2
    245c:	80 93 3e 05 	sts	0x053E, r24	; 0x80053e <usart1_tx_buff+0x3>
	usart1_tx_buff[4] = addr;
    2460:	8b 81       	ldd	r24, Y+3	; 0x03
    2462:	80 93 3f 05 	sts	0x053F, r24	; 0x80053f <usart1_tx_buff+0x4>

	usart1_tx_buff[5] = (uint8_t)(p_value_buff >> 8);
    2466:	80 91 7e 01 	lds	r24, 0x017E	; 0x80017e <p_value_buff>
    246a:	90 91 7f 01 	lds	r25, 0x017F	; 0x80017f <p_value_buff+0x1>
    246e:	89 2f       	mov	r24, r25
    2470:	99 27       	eor	r25, r25
    2472:	80 93 40 05 	sts	0x0540, r24	; 0x800540 <usart1_tx_buff+0x5>
	usart1_tx_buff[6] = (uint8_t)(p_value_buff);
    2476:	80 91 7e 01 	lds	r24, 0x017E	; 0x80017e <p_value_buff>
    247a:	90 91 7f 01 	lds	r25, 0x017F	; 0x80017f <p_value_buff+0x1>
    247e:	80 93 41 05 	sts	0x0541, r24	; 0x800541 <usart1_tx_buff+0x6>

	usart1_tx_buff[7] = (uint8_t)(i_value_buff >> 8);
    2482:	80 91 80 01 	lds	r24, 0x0180	; 0x800180 <i_value_buff>
    2486:	90 91 81 01 	lds	r25, 0x0181	; 0x800181 <i_value_buff+0x1>
    248a:	89 2f       	mov	r24, r25
    248c:	99 27       	eor	r25, r25
    248e:	80 93 42 05 	sts	0x0542, r24	; 0x800542 <usart1_tx_buff+0x7>
	usart1_tx_buff[8] = (uint8_t)(i_value_buff);
    2492:	80 91 80 01 	lds	r24, 0x0180	; 0x800180 <i_value_buff>
    2496:	90 91 81 01 	lds	r25, 0x0181	; 0x800181 <i_value_buff+0x1>
    249a:	80 93 43 05 	sts	0x0543, r24	; 0x800543 <usart1_tx_buff+0x8>

	usart1_tx_buff[9] = (uint8_t)(d_value_buff >> 8);
    249e:	80 91 82 01 	lds	r24, 0x0182	; 0x800182 <d_value_buff>
    24a2:	90 91 83 01 	lds	r25, 0x0183	; 0x800183 <d_value_buff+0x1>
    24a6:	89 2f       	mov	r24, r25
    24a8:	99 27       	eor	r25, r25
    24aa:	80 93 44 05 	sts	0x0544, r24	; 0x800544 <usart1_tx_buff+0x9>
	usart1_tx_buff[10] = (uint8_t)(d_value_buff);
    24ae:	80 91 82 01 	lds	r24, 0x0182	; 0x800182 <d_value_buff>
    24b2:	90 91 83 01 	lds	r25, 0x0183	; 0x800183 <d_value_buff+0x1>
    24b6:	80 93 45 05 	sts	0x0545, r24	; 0x800545 <usart1_tx_buff+0xa>

	crc = crc_check(usart1_tx_buff, 13);
    24ba:	6d e0       	ldi	r22, 0x0D	; 13
    24bc:	8b e3       	ldi	r24, 0x3B	; 59
    24be:	95 e0       	ldi	r25, 0x05	; 5
    24c0:	0e 94 4d 35 	call	0x6a9a	; 0x6a9a <crc_check>
    24c4:	9a 83       	std	Y+2, r25	; 0x02
    24c6:	89 83       	std	Y+1, r24	; 0x01

	usart1_tx_buff[11] = crc & 0x00FF;
    24c8:	89 81       	ldd	r24, Y+1	; 0x01
    24ca:	80 93 46 05 	sts	0x0546, r24	; 0x800546 <usart1_tx_buff+0xb>
	usart1_tx_buff[12] = crc >> 8;
    24ce:	89 81       	ldd	r24, Y+1	; 0x01
    24d0:	9a 81       	ldd	r25, Y+2	; 0x02
    24d2:	89 2f       	mov	r24, r25
    24d4:	99 27       	eor	r25, r25
    24d6:	80 93 47 05 	sts	0x0547, r24	; 0x800547 <usart1_tx_buff+0xc>
	// while (usart1_tx_overtime_mask != 1)
	// 	;
	// usart1_tx_overtime_mask = 0;
	// usart1_tx_timecnt = 0;

	usart1_send_str(usart1_tx_buff, 13);
    24da:	6d e0       	ldi	r22, 0x0D	; 13
    24dc:	8b e3       	ldi	r24, 0x3B	; 59
    24de:	95 e0       	ldi	r25, 0x05	; 5
    24e0:	0e 94 d5 34 	call	0x69aa	; 0x69aa <usart1_send_str>

	// ctrl_command = READ_DATA_ALL;
}
    24e4:	00 00       	nop
    24e6:	0f 90       	pop	r0
    24e8:	0f 90       	pop	r0
    24ea:	0f 90       	pop	r0
    24ec:	df 91       	pop	r29
    24ee:	cf 91       	pop	r28
    24f0:	08 95       	ret

000024f2 <single_set_back>:

void single_set_back(void)
{
    24f2:	cf 93       	push	r28
    24f4:	df 93       	push	r29
    24f6:	cd b7       	in	r28, 0x3d	; 61
    24f8:	de b7       	in	r29, 0x3e	; 62
	if (set_temp_buff[set_num] != set_temp[set_num])
    24fa:	80 91 9e 01 	lds	r24, 0x019E	; 0x80019e <set_num>
    24fe:	88 2f       	mov	r24, r24
    2500:	90 e0       	ldi	r25, 0x00	; 0
    2502:	88 0f       	add	r24, r24
    2504:	99 1f       	adc	r25, r25
    2506:	80 55       	subi	r24, 0x50	; 80
    2508:	94 4f       	sbci	r25, 0xF4	; 244
    250a:	fc 01       	movw	r30, r24
    250c:	80 81       	ld	r24, Z
    250e:	91 81       	ldd	r25, Z+1	; 0x01
    2510:	20 91 9e 01 	lds	r18, 0x019E	; 0x80019e <set_num>
    2514:	22 2f       	mov	r18, r18
    2516:	30 e0       	ldi	r19, 0x00	; 0
    2518:	22 0f       	add	r18, r18
    251a:	33 1f       	adc	r19, r19
    251c:	24 59       	subi	r18, 0x94	; 148
    251e:	34 4f       	sbci	r19, 0xF4	; 244
    2520:	f9 01       	movw	r30, r18
    2522:	20 81       	ld	r18, Z
    2524:	31 81       	ldd	r19, Z+1	; 0x01
    2526:	82 17       	cp	r24, r18
    2528:	93 07       	cpc	r25, r19
    252a:	b1 f0       	breq	.+44     	; 0x2558 <single_set_back+0x66>
	{
		set_temp_buff[set_num] = set_temp[set_num];
    252c:	80 91 9e 01 	lds	r24, 0x019E	; 0x80019e <set_num>
    2530:	88 2f       	mov	r24, r24
    2532:	90 e0       	ldi	r25, 0x00	; 0
    2534:	20 91 9e 01 	lds	r18, 0x019E	; 0x80019e <set_num>
    2538:	22 2f       	mov	r18, r18
    253a:	30 e0       	ldi	r19, 0x00	; 0
    253c:	22 0f       	add	r18, r18
    253e:	33 1f       	adc	r19, r19
    2540:	24 59       	subi	r18, 0x94	; 148
    2542:	34 4f       	sbci	r19, 0xF4	; 244
    2544:	f9 01       	movw	r30, r18
    2546:	20 81       	ld	r18, Z
    2548:	31 81       	ldd	r19, Z+1	; 0x01
    254a:	88 0f       	add	r24, r24
    254c:	99 1f       	adc	r25, r25
    254e:	80 55       	subi	r24, 0x50	; 80
    2550:	94 4f       	sbci	r25, 0xF4	; 244
    2552:	fc 01       	movw	r30, r24
    2554:	31 83       	std	Z+1, r19	; 0x01
    2556:	20 83       	st	Z, r18
	}

	if (switch_sensor_buff[set_num] != switch_sensor[set_num])
    2558:	80 91 9e 01 	lds	r24, 0x019E	; 0x80019e <set_num>
    255c:	88 2f       	mov	r24, r24
    255e:	90 e0       	ldi	r25, 0x00	; 0
    2560:	88 0f       	add	r24, r24
    2562:	99 1f       	adc	r25, r25
    2564:	8d 52       	subi	r24, 0x2D	; 45
    2566:	99 4f       	sbci	r25, 0xF9	; 249
    2568:	fc 01       	movw	r30, r24
    256a:	20 81       	ld	r18, Z
    256c:	31 81       	ldd	r19, Z+1	; 0x01
    256e:	80 91 9e 01 	lds	r24, 0x019E	; 0x80019e <set_num>
    2572:	88 2f       	mov	r24, r24
    2574:	90 e0       	ldi	r25, 0x00	; 0
    2576:	88 0f       	add	r24, r24
    2578:	99 1f       	adc	r25, r25
    257a:	8f 5d       	subi	r24, 0xDF	; 223
    257c:	9d 4f       	sbci	r25, 0xFD	; 253
    257e:	fc 01       	movw	r30, r24
    2580:	80 81       	ld	r24, Z
    2582:	91 81       	ldd	r25, Z+1	; 0x01
    2584:	28 17       	cp	r18, r24
    2586:	39 07       	cpc	r19, r25
    2588:	b1 f0       	breq	.+44     	; 0x25b6 <single_set_back+0xc4>
	{
		switch_sensor_buff[set_num] = switch_sensor[set_num];
    258a:	80 91 9e 01 	lds	r24, 0x019E	; 0x80019e <set_num>
    258e:	88 2f       	mov	r24, r24
    2590:	90 e0       	ldi	r25, 0x00	; 0
    2592:	20 91 9e 01 	lds	r18, 0x019E	; 0x80019e <set_num>
    2596:	22 2f       	mov	r18, r18
    2598:	30 e0       	ldi	r19, 0x00	; 0
    259a:	22 0f       	add	r18, r18
    259c:	33 1f       	adc	r19, r19
    259e:	2f 5d       	subi	r18, 0xDF	; 223
    25a0:	3d 4f       	sbci	r19, 0xFD	; 253
    25a2:	f9 01       	movw	r30, r18
    25a4:	20 81       	ld	r18, Z
    25a6:	31 81       	ldd	r19, Z+1	; 0x01
    25a8:	88 0f       	add	r24, r24
    25aa:	99 1f       	adc	r25, r25
    25ac:	8d 52       	subi	r24, 0x2D	; 45
    25ae:	99 4f       	sbci	r25, 0xF9	; 249
    25b0:	fc 01       	movw	r30, r24
    25b2:	31 83       	std	Z+1, r19	; 0x01
    25b4:	20 83       	st	Z, r18
	}

	if (sensor_type_buff[set_num] != sensor_type[set_num])
    25b6:	80 91 9e 01 	lds	r24, 0x019E	; 0x80019e <set_num>
    25ba:	88 2f       	mov	r24, r24
    25bc:	90 e0       	ldi	r25, 0x00	; 0
    25be:	88 0f       	add	r24, r24
    25c0:	99 1f       	adc	r25, r25
    25c2:	8d 5f       	subi	r24, 0xFD	; 253
    25c4:	98 4f       	sbci	r25, 0xF8	; 248
    25c6:	fc 01       	movw	r30, r24
    25c8:	20 81       	ld	r18, Z
    25ca:	31 81       	ldd	r19, Z+1	; 0x01
    25cc:	80 91 9e 01 	lds	r24, 0x019E	; 0x80019e <set_num>
    25d0:	88 2f       	mov	r24, r24
    25d2:	90 e0       	ldi	r25, 0x00	; 0
    25d4:	88 0f       	add	r24, r24
    25d6:	99 1f       	adc	r25, r25
    25d8:	8f 5a       	subi	r24, 0xAF	; 175
    25da:	9d 4f       	sbci	r25, 0xFD	; 253
    25dc:	fc 01       	movw	r30, r24
    25de:	80 81       	ld	r24, Z
    25e0:	91 81       	ldd	r25, Z+1	; 0x01
    25e2:	28 17       	cp	r18, r24
    25e4:	39 07       	cpc	r19, r25
    25e6:	b1 f0       	breq	.+44     	; 0x2614 <single_set_back+0x122>
	{
		sensor_type_buff[set_num] = sensor_type[set_num];
    25e8:	80 91 9e 01 	lds	r24, 0x019E	; 0x80019e <set_num>
    25ec:	88 2f       	mov	r24, r24
    25ee:	90 e0       	ldi	r25, 0x00	; 0
    25f0:	20 91 9e 01 	lds	r18, 0x019E	; 0x80019e <set_num>
    25f4:	22 2f       	mov	r18, r18
    25f6:	30 e0       	ldi	r19, 0x00	; 0
    25f8:	22 0f       	add	r18, r18
    25fa:	33 1f       	adc	r19, r19
    25fc:	2f 5a       	subi	r18, 0xAF	; 175
    25fe:	3d 4f       	sbci	r19, 0xFD	; 253
    2600:	f9 01       	movw	r30, r18
    2602:	20 81       	ld	r18, Z
    2604:	31 81       	ldd	r19, Z+1	; 0x01
    2606:	88 0f       	add	r24, r24
    2608:	99 1f       	adc	r25, r25
    260a:	8d 5f       	subi	r24, 0xFD	; 253
    260c:	98 4f       	sbci	r25, 0xF8	; 248
    260e:	fc 01       	movw	r30, r24
    2610:	31 83       	std	Z+1, r19	; 0x01
    2612:	20 83       	st	Z, r18
	}

	in_main_page = 1;
    2614:	81 e0       	ldi	r24, 0x01	; 1
    2616:	80 93 00 01 	sts	0x0100, r24	; 0x800100 <__data_start>
	update_run_temp_flag = 0;
    261a:	10 92 99 01 	sts	0x0199, r1	; 0x800199 <update_run_temp_flag>
}
    261e:	00 00       	nop
    2620:	df 91       	pop	r29
    2622:	cf 91       	pop	r28
    2624:	08 95       	ret

00002626 <all_set_back>:

void all_set_back(void)
{
    2626:	cf 93       	push	r28
    2628:	df 93       	push	r29
    262a:	cd b7       	in	r28, 0x3d	; 61
    262c:	de b7       	in	r29, 0x3e	; 62
	if (all_temp_buff != all_temp)
    262e:	20 91 7a 01 	lds	r18, 0x017A	; 0x80017a <all_temp_buff>
    2632:	30 91 7b 01 	lds	r19, 0x017B	; 0x80017b <all_temp_buff+0x1>
    2636:	80 91 03 01 	lds	r24, 0x0103	; 0x800103 <all_temp>
    263a:	90 91 04 01 	lds	r25, 0x0104	; 0x800104 <all_temp+0x1>
    263e:	28 17       	cp	r18, r24
    2640:	39 07       	cpc	r19, r25
    2642:	89 f0       	breq	.+34     	; 0x2666 <all_set_back+0x40>
	{
		all_temp_buff = all_temp;
    2644:	80 91 03 01 	lds	r24, 0x0103	; 0x800103 <all_temp>
    2648:	90 91 04 01 	lds	r25, 0x0104	; 0x800104 <all_temp+0x1>
    264c:	90 93 7b 01 	sts	0x017B, r25	; 0x80017b <all_temp_buff+0x1>
    2650:	80 93 7a 01 	sts	0x017A, r24	; 0x80017a <all_temp_buff>
		send_variables(ALL_SET_TEMP, all_temp);
    2654:	80 91 03 01 	lds	r24, 0x0103	; 0x800103 <all_temp>
    2658:	90 91 04 01 	lds	r25, 0x0104	; 0x800104 <all_temp+0x1>
    265c:	bc 01       	movw	r22, r24
    265e:	88 e4       	ldi	r24, 0x48	; 72
    2660:	91 e0       	ldi	r25, 0x01	; 1
    2662:	0e 94 1f 1c 	call	0x383e	; 0x383e <send_variables>
	}

	if (preheat_time_buff != preheat_time)
    2666:	20 91 7c 01 	lds	r18, 0x017C	; 0x80017c <preheat_time_buff>
    266a:	30 91 7d 01 	lds	r19, 0x017D	; 0x80017d <preheat_time_buff+0x1>
    266e:	80 91 01 01 	lds	r24, 0x0101	; 0x800101 <preheat_time>
    2672:	90 91 02 01 	lds	r25, 0x0102	; 0x800102 <preheat_time+0x1>
    2676:	28 17       	cp	r18, r24
    2678:	39 07       	cpc	r19, r25
    267a:	89 f0       	breq	.+34     	; 0x269e <all_set_back+0x78>
	{
		preheat_time_buff = preheat_time;
    267c:	80 91 01 01 	lds	r24, 0x0101	; 0x800101 <preheat_time>
    2680:	90 91 02 01 	lds	r25, 0x0102	; 0x800102 <preheat_time+0x1>
    2684:	90 93 7d 01 	sts	0x017D, r25	; 0x80017d <preheat_time_buff+0x1>
    2688:	80 93 7c 01 	sts	0x017C, r24	; 0x80017c <preheat_time_buff>
		send_variables(SET_PREHEAT_TIME, preheat_time);
    268c:	80 91 01 01 	lds	r24, 0x0101	; 0x800101 <preheat_time>
    2690:	90 91 02 01 	lds	r25, 0x0102	; 0x800102 <preheat_time+0x1>
    2694:	bc 01       	movw	r22, r24
    2696:	8a e4       	ldi	r24, 0x4A	; 74
    2698:	91 e0       	ldi	r25, 0x01	; 1
    269a:	0e 94 1f 1c 	call	0x383e	; 0x383e <send_variables>
	}

	if (all_sensor_type_buff != all_sensor_type)
    269e:	20 91 cf 06 	lds	r18, 0x06CF	; 0x8006cf <all_sensor_type_buff>
    26a2:	30 91 d0 06 	lds	r19, 0x06D0	; 0x8006d0 <all_sensor_type_buff+0x1>
    26a6:	80 91 b5 02 	lds	r24, 0x02B5	; 0x8002b5 <all_sensor_type>
    26aa:	90 91 b6 02 	lds	r25, 0x02B6	; 0x8002b6 <all_sensor_type+0x1>
    26ae:	28 17       	cp	r18, r24
    26b0:	39 07       	cpc	r19, r25
    26b2:	a9 f0       	breq	.+42     	; 0x26de <all_set_back+0xb8>
	{
		all_sensor_type_buff = all_sensor_type;
    26b4:	80 91 b5 02 	lds	r24, 0x02B5	; 0x8002b5 <all_sensor_type>
    26b8:	90 91 b6 02 	lds	r25, 0x02B6	; 0x8002b6 <all_sensor_type+0x1>
    26bc:	90 93 d0 06 	sts	0x06D0, r25	; 0x8006d0 <all_sensor_type_buff+0x1>
    26c0:	80 93 cf 06 	sts	0x06CF, r24	; 0x8006cf <all_sensor_type_buff>
		send_variables(ALL_SENSOR_TYPE_ADDR, TYPE_J + (all_sensor_type * TYPE_K));
    26c4:	80 91 b5 02 	lds	r24, 0x02B5	; 0x8002b5 <all_sensor_type>
    26c8:	90 91 b6 02 	lds	r25, 0x02B6	; 0x8002b6 <all_sensor_type+0x1>
    26cc:	86 5b       	subi	r24, 0xB6	; 182
    26ce:	9f 4f       	sbci	r25, 0xFF	; 255
    26d0:	98 2f       	mov	r25, r24
    26d2:	88 27       	eor	r24, r24
    26d4:	bc 01       	movw	r22, r24
    26d6:	84 e9       	ldi	r24, 0x94	; 148
    26d8:	92 e0       	ldi	r25, 0x02	; 2
    26da:	0e 94 1f 1c 	call	0x383e	; 0x383e <send_variables>
	}

	if (temp_unit_buff != temp_unit)
    26de:	20 91 d1 06 	lds	r18, 0x06D1	; 0x8006d1 <temp_unit_buff>
    26e2:	30 91 d2 06 	lds	r19, 0x06D2	; 0x8006d2 <temp_unit_buff+0x1>
    26e6:	80 91 b7 02 	lds	r24, 0x02B7	; 0x8002b7 <temp_unit>
    26ea:	90 91 b8 02 	lds	r25, 0x02B8	; 0x8002b8 <temp_unit+0x1>
    26ee:	28 17       	cp	r18, r24
    26f0:	39 07       	cpc	r19, r25
    26f2:	d9 f0       	breq	.+54     	; 0x272a <all_set_back+0x104>
	{
		temp_unit_buff = temp_unit;
    26f4:	80 91 b7 02 	lds	r24, 0x02B7	; 0x8002b7 <temp_unit>
    26f8:	90 91 b8 02 	lds	r25, 0x02B8	; 0x8002b8 <temp_unit+0x1>
    26fc:	90 93 d2 06 	sts	0x06D2, r25	; 0x8006d2 <temp_unit_buff+0x1>
    2700:	80 93 d1 06 	sts	0x06D1, r24	; 0x8006d1 <temp_unit_buff>
		send_variables(TEMP_UINT_ADDR, (CELSIUS + temp_unit * FAHRENHEIT));
    2704:	40 91 b7 02 	lds	r20, 0x02B7	; 0x8002b7 <temp_unit>
    2708:	50 91 b8 02 	lds	r21, 0x02B8	; 0x8002b8 <temp_unit+0x1>
    270c:	20 e0       	ldi	r18, 0x00	; 0
    270e:	33 e0       	ldi	r19, 0x03	; 3
    2710:	42 9f       	mul	r20, r18
    2712:	c0 01       	movw	r24, r0
    2714:	43 9f       	mul	r20, r19
    2716:	90 0d       	add	r25, r0
    2718:	52 9f       	mul	r21, r18
    271a:	90 0d       	add	r25, r0
    271c:	11 24       	eor	r1, r1
    271e:	9d 5b       	subi	r25, 0xBD	; 189
    2720:	bc 01       	movw	r22, r24
    2722:	8c e3       	ldi	r24, 0x3C	; 60
    2724:	92 e0       	ldi	r25, 0x02	; 2
    2726:	0e 94 1f 1c 	call	0x383e	; 0x383e <send_variables>
	}

	in_main_page = 1;
    272a:	81 e0       	ldi	r24, 0x01	; 1
    272c:	80 93 00 01 	sts	0x0100, r24	; 0x800100 <__data_start>
}
    2730:	00 00       	nop
    2732:	df 91       	pop	r29
    2734:	cf 91       	pop	r28
    2736:	08 95       	ret

00002738 <switch_all_sensor>:

void switch_all_sensor(uint16_t sta)
{
    2738:	cf 93       	push	r28
    273a:	df 93       	push	r29
    273c:	00 d0       	rcall	.+0      	; 0x273e <switch_all_sensor+0x6>
    273e:	00 d0       	rcall	.+0      	; 0x2740 <switch_all_sensor+0x8>
    2740:	1f 92       	push	r1
    2742:	cd b7       	in	r28, 0x3d	; 61
    2744:	de b7       	in	r29, 0x3e	; 62
    2746:	9d 83       	std	Y+5, r25	; 0x05
    2748:	8c 83       	std	Y+4, r24	; 0x04
	uint8_t i = 0;
    274a:	19 82       	std	Y+1, r1	; 0x01
	uint16_t crc = 0;
    274c:	1b 82       	std	Y+3, r1	; 0x03
    274e:	1a 82       	std	Y+2, r1	; 0x02
	static uint8_t slave_num = 1;

	// ctrl_command = 0; //READ_DATA_ALL ok

	usart1_tx_buff[0] = 0xA5;
    2750:	85 ea       	ldi	r24, 0xA5	; 165
    2752:	80 93 3b 05 	sts	0x053B, r24	; 0x80053b <usart1_tx_buff>
	usart1_tx_buff[1] = 0x5A;
    2756:	8a e5       	ldi	r24, 0x5A	; 90
    2758:	80 93 3c 05 	sts	0x053C, r24	; 0x80053c <usart1_tx_buff+0x1>
	usart1_tx_buff[2] = 0x04;
    275c:	84 e0       	ldi	r24, 0x04	; 4
    275e:	80 93 3d 05 	sts	0x053D, r24	; 0x80053d <usart1_tx_buff+0x2>
	usart1_tx_buff[3] = 0x06;
    2762:	86 e0       	ldi	r24, 0x06	; 6
    2764:	80 93 3e 05 	sts	0x053E, r24	; 0x80053e <usart1_tx_buff+0x3>
	usart1_tx_buff[5] = 0x00;
    2768:	10 92 40 05 	sts	0x0540, r1	; 0x800540 <usart1_tx_buff+0x5>
	usart1_tx_buff[6] = sta;
    276c:	8c 81       	ldd	r24, Y+4	; 0x04
    276e:	80 93 41 05 	sts	0x0541, r24	; 0x800541 <usart1_tx_buff+0x6>

	if (slave_num == 1)
    2772:	80 91 78 01 	lds	r24, 0x0178	; 0x800178 <slave_num.2414>
    2776:	81 30       	cpi	r24, 0x01	; 1
    2778:	01 f5       	brne	.+64     	; 0x27ba <switch_all_sensor+0x82>
	{
		for (i = 0; i < MAX_IQR_QUANTITY; i++)
    277a:	19 82       	std	Y+1, r1	; 0x01
    277c:	1b c0       	rjmp	.+54     	; 0x27b4 <switch_all_sensor+0x7c>
		{
			switch_sensor[i] = sta;
    277e:	89 81       	ldd	r24, Y+1	; 0x01
    2780:	88 2f       	mov	r24, r24
    2782:	90 e0       	ldi	r25, 0x00	; 0
    2784:	88 0f       	add	r24, r24
    2786:	99 1f       	adc	r25, r25
    2788:	8f 5d       	subi	r24, 0xDF	; 223
    278a:	9d 4f       	sbci	r25, 0xFD	; 253
    278c:	2c 81       	ldd	r18, Y+4	; 0x04
    278e:	3d 81       	ldd	r19, Y+5	; 0x05
    2790:	fc 01       	movw	r30, r24
    2792:	31 83       	std	Z+1, r19	; 0x01
    2794:	20 83       	st	Z, r18
			switch_sensor_buff[i] = sta;
    2796:	89 81       	ldd	r24, Y+1	; 0x01
    2798:	88 2f       	mov	r24, r24
    279a:	90 e0       	ldi	r25, 0x00	; 0
    279c:	88 0f       	add	r24, r24
    279e:	99 1f       	adc	r25, r25
    27a0:	8d 52       	subi	r24, 0x2D	; 45
    27a2:	99 4f       	sbci	r25, 0xF9	; 249
    27a4:	2c 81       	ldd	r18, Y+4	; 0x04
    27a6:	3d 81       	ldd	r19, Y+5	; 0x05
    27a8:	fc 01       	movw	r30, r24
    27aa:	31 83       	std	Z+1, r19	; 0x01
    27ac:	20 83       	st	Z, r18
	usart1_tx_buff[5] = 0x00;
	usart1_tx_buff[6] = sta;

	if (slave_num == 1)
	{
		for (i = 0; i < MAX_IQR_QUANTITY; i++)
    27ae:	89 81       	ldd	r24, Y+1	; 0x01
    27b0:	8f 5f       	subi	r24, 0xFF	; 255
    27b2:	89 83       	std	Y+1, r24	; 0x01
    27b4:	89 81       	ldd	r24, Y+1	; 0x01
    27b6:	88 31       	cpi	r24, 0x18	; 24
    27b8:	10 f3       	brcs	.-60     	; 0x277e <switch_all_sensor+0x46>
		}
	}

	// for (; slave_num <= TEMP_CTRL_BOARD_QUANTITY; slave_num++)
	// {
	usart1_tx_buff[4] = slave_num << 4;
    27ba:	80 91 78 01 	lds	r24, 0x0178	; 0x800178 <slave_num.2414>
    27be:	82 95       	swap	r24
    27c0:	80 7f       	andi	r24, 0xF0	; 240
    27c2:	80 93 3f 05 	sts	0x053F, r24	; 0x80053f <usart1_tx_buff+0x4>

	crc = crc_check(usart1_tx_buff, 9);
    27c6:	69 e0       	ldi	r22, 0x09	; 9
    27c8:	8b e3       	ldi	r24, 0x3B	; 59
    27ca:	95 e0       	ldi	r25, 0x05	; 5
    27cc:	0e 94 4d 35 	call	0x6a9a	; 0x6a9a <crc_check>
    27d0:	9b 83       	std	Y+3, r25	; 0x03
    27d2:	8a 83       	std	Y+2, r24	; 0x02

	usart1_tx_buff[7] = crc & 0x00FF;
    27d4:	8a 81       	ldd	r24, Y+2	; 0x02
    27d6:	80 93 42 05 	sts	0x0542, r24	; 0x800542 <usart1_tx_buff+0x7>
	usart1_tx_buff[8] = crc >> 8;
    27da:	8a 81       	ldd	r24, Y+2	; 0x02
    27dc:	9b 81       	ldd	r25, Y+3	; 0x03
    27de:	89 2f       	mov	r24, r25
    27e0:	99 27       	eor	r25, r25
    27e2:	80 93 43 05 	sts	0x0543, r24	; 0x800543 <usart1_tx_buff+0x8>
	// while (usart1_tx_overtime_mask != 1)
	// 	;
	// usart1_tx_overtime_mask = 0;
	// usart1_tx_timecnt = 0;

	usart1_send_str(usart1_tx_buff, 9);
    27e6:	69 e0       	ldi	r22, 0x09	; 9
    27e8:	8b e3       	ldi	r24, 0x3B	; 59
    27ea:	95 e0       	ldi	r25, 0x05	; 5
    27ec:	0e 94 d5 34 	call	0x69aa	; 0x69aa <usart1_send_str>
	// }

	if(++slave_num > TEMP_CTRL_BOARD_QUANTITY)
    27f0:	80 91 78 01 	lds	r24, 0x0178	; 0x800178 <slave_num.2414>
    27f4:	8f 5f       	subi	r24, 0xFF	; 255
    27f6:	80 93 78 01 	sts	0x0178, r24	; 0x800178 <slave_num.2414>
    27fa:	80 91 78 01 	lds	r24, 0x0178	; 0x800178 <slave_num.2414>
    27fe:	87 30       	cpi	r24, 0x07	; 7
    2800:	18 f0       	brcs	.+6      	; 0x2808 <switch_all_sensor+0xd0>
	{
		slave_num = 1;
    2802:	81 e0       	ldi	r24, 0x01	; 1
    2804:	80 93 78 01 	sts	0x0178, r24	; 0x800178 <slave_num.2414>
	}
}
    2808:	00 00       	nop
    280a:	0f 90       	pop	r0
    280c:	0f 90       	pop	r0
    280e:	0f 90       	pop	r0
    2810:	0f 90       	pop	r0
    2812:	0f 90       	pop	r0
    2814:	df 91       	pop	r29
    2816:	cf 91       	pop	r28
    2818:	08 95       	ret

0000281a <get_name>:

uint32_t get_name(void)
{
    281a:	cf 93       	push	r28
    281c:	df 93       	push	r29
    281e:	00 d0       	rcall	.+0      	; 0x2820 <get_name+0x6>
    2820:	00 d0       	rcall	.+0      	; 0x2822 <get_name+0x8>
    2822:	cd b7       	in	r28, 0x3d	; 61
    2824:	de b7       	in	r29, 0x3e	; 62
	uint32_t name;
	
	name = usart0_rx_buff[7];
    2826:	80 91 e7 02 	lds	r24, 0x02E7	; 0x8002e7 <usart0_rx_buff+0x7>
    282a:	88 2f       	mov	r24, r24
    282c:	90 e0       	ldi	r25, 0x00	; 0
    282e:	a0 e0       	ldi	r26, 0x00	; 0
    2830:	b0 e0       	ldi	r27, 0x00	; 0
    2832:	89 83       	std	Y+1, r24	; 0x01
    2834:	9a 83       	std	Y+2, r25	; 0x02
    2836:	ab 83       	std	Y+3, r26	; 0x03
    2838:	bc 83       	std	Y+4, r27	; 0x04
	name = (name << 8) | usart0_rx_buff[8];
    283a:	89 81       	ldd	r24, Y+1	; 0x01
    283c:	9a 81       	ldd	r25, Y+2	; 0x02
    283e:	ab 81       	ldd	r26, Y+3	; 0x03
    2840:	bc 81       	ldd	r27, Y+4	; 0x04
    2842:	22 27       	eor	r18, r18
    2844:	38 2f       	mov	r19, r24
    2846:	49 2f       	mov	r20, r25
    2848:	5a 2f       	mov	r21, r26
    284a:	80 91 e8 02 	lds	r24, 0x02E8	; 0x8002e8 <usart0_rx_buff+0x8>
    284e:	88 2f       	mov	r24, r24
    2850:	90 e0       	ldi	r25, 0x00	; 0
    2852:	a0 e0       	ldi	r26, 0x00	; 0
    2854:	b0 e0       	ldi	r27, 0x00	; 0
    2856:	82 2b       	or	r24, r18
    2858:	93 2b       	or	r25, r19
    285a:	a4 2b       	or	r26, r20
    285c:	b5 2b       	or	r27, r21
    285e:	89 83       	std	Y+1, r24	; 0x01
    2860:	9a 83       	std	Y+2, r25	; 0x02
    2862:	ab 83       	std	Y+3, r26	; 0x03
    2864:	bc 83       	std	Y+4, r27	; 0x04
	name = (name << 8) | usart0_rx_buff[9];
    2866:	89 81       	ldd	r24, Y+1	; 0x01
    2868:	9a 81       	ldd	r25, Y+2	; 0x02
    286a:	ab 81       	ldd	r26, Y+3	; 0x03
    286c:	bc 81       	ldd	r27, Y+4	; 0x04
    286e:	22 27       	eor	r18, r18
    2870:	38 2f       	mov	r19, r24
    2872:	49 2f       	mov	r20, r25
    2874:	5a 2f       	mov	r21, r26
    2876:	80 91 e9 02 	lds	r24, 0x02E9	; 0x8002e9 <usart0_rx_buff+0x9>
    287a:	88 2f       	mov	r24, r24
    287c:	90 e0       	ldi	r25, 0x00	; 0
    287e:	a0 e0       	ldi	r26, 0x00	; 0
    2880:	b0 e0       	ldi	r27, 0x00	; 0
    2882:	82 2b       	or	r24, r18
    2884:	93 2b       	or	r25, r19
    2886:	a4 2b       	or	r26, r20
    2888:	b5 2b       	or	r27, r21
    288a:	89 83       	std	Y+1, r24	; 0x01
    288c:	9a 83       	std	Y+2, r25	; 0x02
    288e:	ab 83       	std	Y+3, r26	; 0x03
    2890:	bc 83       	std	Y+4, r27	; 0x04
	name = (name << 8) | usart0_rx_buff[10];
    2892:	89 81       	ldd	r24, Y+1	; 0x01
    2894:	9a 81       	ldd	r25, Y+2	; 0x02
    2896:	ab 81       	ldd	r26, Y+3	; 0x03
    2898:	bc 81       	ldd	r27, Y+4	; 0x04
    289a:	22 27       	eor	r18, r18
    289c:	38 2f       	mov	r19, r24
    289e:	49 2f       	mov	r20, r25
    28a0:	5a 2f       	mov	r21, r26
    28a2:	80 91 ea 02 	lds	r24, 0x02EA	; 0x8002ea <usart0_rx_buff+0xa>
    28a6:	88 2f       	mov	r24, r24
    28a8:	90 e0       	ldi	r25, 0x00	; 0
    28aa:	a0 e0       	ldi	r26, 0x00	; 0
    28ac:	b0 e0       	ldi	r27, 0x00	; 0
    28ae:	82 2b       	or	r24, r18
    28b0:	93 2b       	or	r25, r19
    28b2:	a4 2b       	or	r26, r20
    28b4:	b5 2b       	or	r27, r21
    28b6:	89 83       	std	Y+1, r24	; 0x01
    28b8:	9a 83       	std	Y+2, r25	; 0x02
    28ba:	ab 83       	std	Y+3, r26	; 0x03
    28bc:	bc 83       	std	Y+4, r27	; 0x04
	
	return name;
    28be:	89 81       	ldd	r24, Y+1	; 0x01
    28c0:	9a 81       	ldd	r25, Y+2	; 0x02
    28c2:	ab 81       	ldd	r26, Y+3	; 0x03
    28c4:	bc 81       	ldd	r27, Y+4	; 0x04
}
    28c6:	bc 01       	movw	r22, r24
    28c8:	cd 01       	movw	r24, r26
    28ca:	0f 90       	pop	r0
    28cc:	0f 90       	pop	r0
    28ce:	0f 90       	pop	r0
    28d0:	0f 90       	pop	r0
    28d2:	df 91       	pop	r29
    28d4:	cf 91       	pop	r28
    28d6:	08 95       	ret

000028d8 <single_set>:

void single_set(uint8_t command, uint16_t value)
{
    28d8:	cf 93       	push	r28
    28da:	df 93       	push	r29
    28dc:	00 d0       	rcall	.+0      	; 0x28de <single_set+0x6>
    28de:	00 d0       	rcall	.+0      	; 0x28e0 <single_set+0x8>
    28e0:	00 d0       	rcall	.+0      	; 0x28e2 <single_set+0xa>
    28e2:	cd b7       	in	r28, 0x3d	; 61
    28e4:	de b7       	in	r29, 0x3e	; 62
    28e6:	8c 83       	std	Y+4, r24	; 0x04
    28e8:	7e 83       	std	Y+6, r23	; 0x06
    28ea:	6d 83       	std	Y+5, r22	; 0x05
	uint16_t crc = 0;
    28ec:	1a 82       	std	Y+2, r1	; 0x02
    28ee:	19 82       	std	Y+1, r1	; 0x01
	uint8_t addr = 0;
    28f0:	1b 82       	std	Y+3, r1	; 0x03
// 	if (temp_unit == 1)
// 	{
// 		value = ((value - 32) * 10 / 18);
// 	}

	addr = (set_num / 4) + 1;
    28f2:	80 91 9e 01 	lds	r24, 0x019E	; 0x80019e <set_num>
    28f6:	86 95       	lsr	r24
    28f8:	86 95       	lsr	r24
    28fa:	8f 5f       	subi	r24, 0xFF	; 255
    28fc:	8b 83       	std	Y+3, r24	; 0x03
	addr = (addr << 4) | ((set_num % 4) + 1);
    28fe:	8b 81       	ldd	r24, Y+3	; 0x03
    2900:	88 2f       	mov	r24, r24
    2902:	90 e0       	ldi	r25, 0x00	; 0
    2904:	82 95       	swap	r24
    2906:	92 95       	swap	r25
    2908:	90 7f       	andi	r25, 0xF0	; 240
    290a:	98 27       	eor	r25, r24
    290c:	80 7f       	andi	r24, 0xF0	; 240
    290e:	98 27       	eor	r25, r24
    2910:	98 2f       	mov	r25, r24
    2912:	80 91 9e 01 	lds	r24, 0x019E	; 0x80019e <set_num>
    2916:	83 70       	andi	r24, 0x03	; 3
    2918:	8f 5f       	subi	r24, 0xFF	; 255
    291a:	89 2b       	or	r24, r25
    291c:	8b 83       	std	Y+3, r24	; 0x03

	usart1_tx_buff[0] = 0xA5;
    291e:	85 ea       	ldi	r24, 0xA5	; 165
    2920:	80 93 3b 05 	sts	0x053B, r24	; 0x80053b <usart1_tx_buff>
	usart1_tx_buff[1] = 0x5A;
    2924:	8a e5       	ldi	r24, 0x5A	; 90
    2926:	80 93 3c 05 	sts	0x053C, r24	; 0x80053c <usart1_tx_buff+0x1>
	usart1_tx_buff[2] = 0x04;
    292a:	84 e0       	ldi	r24, 0x04	; 4
    292c:	80 93 3d 05 	sts	0x053D, r24	; 0x80053d <usart1_tx_buff+0x2>
	usart1_tx_buff[3] = command;
    2930:	8c 81       	ldd	r24, Y+4	; 0x04
    2932:	80 93 3e 05 	sts	0x053E, r24	; 0x80053e <usart1_tx_buff+0x3>
	usart1_tx_buff[4] = addr;
    2936:	8b 81       	ldd	r24, Y+3	; 0x03
    2938:	80 93 3f 05 	sts	0x053F, r24	; 0x80053f <usart1_tx_buff+0x4>
	usart1_tx_buff[5] = (value >> 8);
    293c:	8d 81       	ldd	r24, Y+5	; 0x05
    293e:	9e 81       	ldd	r25, Y+6	; 0x06
    2940:	89 2f       	mov	r24, r25
    2942:	99 27       	eor	r25, r25
    2944:	80 93 40 05 	sts	0x0540, r24	; 0x800540 <usart1_tx_buff+0x5>
	usart1_tx_buff[6] = value;
    2948:	8d 81       	ldd	r24, Y+5	; 0x05
    294a:	80 93 41 05 	sts	0x0541, r24	; 0x800541 <usart1_tx_buff+0x6>

	crc = crc_check(usart1_tx_buff, 9);
    294e:	69 e0       	ldi	r22, 0x09	; 9
    2950:	8b e3       	ldi	r24, 0x3B	; 59
    2952:	95 e0       	ldi	r25, 0x05	; 5
    2954:	0e 94 4d 35 	call	0x6a9a	; 0x6a9a <crc_check>
    2958:	9a 83       	std	Y+2, r25	; 0x02
    295a:	89 83       	std	Y+1, r24	; 0x01

	usart1_tx_buff[7] = crc & 0x00FF;
    295c:	89 81       	ldd	r24, Y+1	; 0x01
    295e:	80 93 42 05 	sts	0x0542, r24	; 0x800542 <usart1_tx_buff+0x7>
	usart1_tx_buff[8] = crc >> 8;
    2962:	89 81       	ldd	r24, Y+1	; 0x01
    2964:	9a 81       	ldd	r25, Y+2	; 0x02
    2966:	89 2f       	mov	r24, r25
    2968:	99 27       	eor	r25, r25
    296a:	80 93 43 05 	sts	0x0543, r24	; 0x800543 <usart1_tx_buff+0x8>
	// while (usart1_tx_overtime_mask != 1)
	// 	;
	// usart1_tx_overtime_mask = 0;
	// usart1_tx_timecnt = 0;

	usart1_send_str(usart1_tx_buff, 9);
    296e:	69 e0       	ldi	r22, 0x09	; 9
    2970:	8b e3       	ldi	r24, 0x3B	; 59
    2972:	95 e0       	ldi	r25, 0x05	; 5
    2974:	0e 94 d5 34 	call	0x69aa	; 0x69aa <usart1_send_str>

	// ctrl_command = READ_DATA_ALL;
}
    2978:	00 00       	nop
    297a:	26 96       	adiw	r28, 0x06	; 6
    297c:	0f b6       	in	r0, 0x3f	; 63
    297e:	f8 94       	cli
    2980:	de bf       	out	0x3e, r29	; 62
    2982:	0f be       	out	0x3f, r0	; 63
    2984:	cd bf       	out	0x3d, r28	; 61
    2986:	df 91       	pop	r29
    2988:	cf 91       	pop	r28
    298a:	08 95       	ret

0000298c <all_set>:

void all_set(uint8_t command, uint16_t value)
{
    298c:	cf 93       	push	r28
    298e:	df 93       	push	r29
    2990:	00 d0       	rcall	.+0      	; 0x2992 <all_set+0x6>
    2992:	00 d0       	rcall	.+0      	; 0x2994 <all_set+0x8>
    2994:	1f 92       	push	r1
    2996:	cd b7       	in	r28, 0x3d	; 61
    2998:	de b7       	in	r29, 0x3e	; 62
    299a:	8b 83       	std	Y+3, r24	; 0x03
    299c:	7d 83       	std	Y+5, r23	; 0x05
    299e:	6c 83       	std	Y+4, r22	; 0x04
	uint16_t crc = 0;
    29a0:	1a 82       	std	Y+2, r1	; 0x02
    29a2:	19 82       	std	Y+1, r1	; 0x01
// 		{
// 			value = ((value - 32) * 10 / 18);
// 		}
// 	}

	usart1_tx_buff[0] = 0xA5;
    29a4:	85 ea       	ldi	r24, 0xA5	; 165
    29a6:	80 93 3b 05 	sts	0x053B, r24	; 0x80053b <usart1_tx_buff>
	usart1_tx_buff[1] = 0x5A;
    29aa:	8a e5       	ldi	r24, 0x5A	; 90
    29ac:	80 93 3c 05 	sts	0x053C, r24	; 0x80053c <usart1_tx_buff+0x1>
	usart1_tx_buff[2] = 0x04;
    29b0:	84 e0       	ldi	r24, 0x04	; 4
    29b2:	80 93 3d 05 	sts	0x053D, r24	; 0x80053d <usart1_tx_buff+0x2>
	usart1_tx_buff[3] = command;
    29b6:	8b 81       	ldd	r24, Y+3	; 0x03
    29b8:	80 93 3e 05 	sts	0x053E, r24	; 0x80053e <usart1_tx_buff+0x3>
	usart1_tx_buff[5] = (value >> 8);
    29bc:	8c 81       	ldd	r24, Y+4	; 0x04
    29be:	9d 81       	ldd	r25, Y+5	; 0x05
    29c0:	89 2f       	mov	r24, r25
    29c2:	99 27       	eor	r25, r25
    29c4:	80 93 40 05 	sts	0x0540, r24	; 0x800540 <usart1_tx_buff+0x5>
	usart1_tx_buff[6] = value;
    29c8:	8c 81       	ldd	r24, Y+4	; 0x04
    29ca:	80 93 41 05 	sts	0x0541, r24	; 0x800541 <usart1_tx_buff+0x6>

	// for (; slave_num <= TEMP_CTRL_BOARD_QUANTITY; slave_num++)
	// {
	usart1_tx_buff[4] = slave_num << 4;
    29ce:	80 91 79 01 	lds	r24, 0x0179	; 0x800179 <slave_num.2433>
    29d2:	82 95       	swap	r24
    29d4:	80 7f       	andi	r24, 0xF0	; 240
    29d6:	80 93 3f 05 	sts	0x053F, r24	; 0x80053f <usart1_tx_buff+0x4>

	crc = crc_check(usart1_tx_buff, 9);
    29da:	69 e0       	ldi	r22, 0x09	; 9
    29dc:	8b e3       	ldi	r24, 0x3B	; 59
    29de:	95 e0       	ldi	r25, 0x05	; 5
    29e0:	0e 94 4d 35 	call	0x6a9a	; 0x6a9a <crc_check>
    29e4:	9a 83       	std	Y+2, r25	; 0x02
    29e6:	89 83       	std	Y+1, r24	; 0x01

	usart1_tx_buff[7] = crc & 0x00FF;
    29e8:	89 81       	ldd	r24, Y+1	; 0x01
    29ea:	80 93 42 05 	sts	0x0542, r24	; 0x800542 <usart1_tx_buff+0x7>
	usart1_tx_buff[8] = crc >> 8;
    29ee:	89 81       	ldd	r24, Y+1	; 0x01
    29f0:	9a 81       	ldd	r25, Y+2	; 0x02
    29f2:	89 2f       	mov	r24, r25
    29f4:	99 27       	eor	r25, r25
    29f6:	80 93 43 05 	sts	0x0543, r24	; 0x800543 <usart1_tx_buff+0x8>
	// while (usart1_tx_overtime_mask != 1)
	// 	;
	// usart1_tx_overtime_mask = 0;
	// usart1_tx_timecnt = 0;

	usart1_send_str(usart1_tx_buff, 9);
    29fa:	69 e0       	ldi	r22, 0x09	; 9
    29fc:	8b e3       	ldi	r24, 0x3B	; 59
    29fe:	95 e0       	ldi	r25, 0x05	; 5
    2a00:	0e 94 d5 34 	call	0x69aa	; 0x69aa <usart1_send_str>
	// }

	if (++slave_num > TEMP_CTRL_BOARD_QUANTITY)
    2a04:	80 91 79 01 	lds	r24, 0x0179	; 0x800179 <slave_num.2433>
    2a08:	8f 5f       	subi	r24, 0xFF	; 255
    2a0a:	80 93 79 01 	sts	0x0179, r24	; 0x800179 <slave_num.2433>
    2a0e:	80 91 79 01 	lds	r24, 0x0179	; 0x800179 <slave_num.2433>
    2a12:	87 30       	cpi	r24, 0x07	; 7
    2a14:	18 f0       	brcs	.+6      	; 0x2a1c <all_set+0x90>
	{
		slave_num = 1;
    2a16:	81 e0       	ldi	r24, 0x01	; 1
    2a18:	80 93 79 01 	sts	0x0179, r24	; 0x800179 <slave_num.2433>
	}
	// ctrl_command = READ_DATA_ALL;
}
    2a1c:	00 00       	nop
    2a1e:	0f 90       	pop	r0
    2a20:	0f 90       	pop	r0
    2a22:	0f 90       	pop	r0
    2a24:	0f 90       	pop	r0
    2a26:	0f 90       	pop	r0
    2a28:	df 91       	pop	r29
    2a2a:	cf 91       	pop	r28
    2a2c:	08 95       	ret

00002a2e <update_single_set_page>:

void update_single_set_page(void)
{
    2a2e:	cf 93       	push	r28
    2a30:	df 93       	push	r29
    2a32:	cd b7       	in	r28, 0x3d	; 61
    2a34:	de b7       	in	r29, 0x3e	; 62
	in_main_page = 0;
    2a36:	10 92 00 01 	sts	0x0100, r1	; 0x800100 <__data_start>

	update_run_temp_flag = 1;
    2a3a:	81 e0       	ldi	r24, 0x01	; 1
    2a3c:	80 93 99 01 	sts	0x0199, r24	; 0x800199 <update_run_temp_flag>
	run_temp_page = 1;
    2a40:	81 e0       	ldi	r24, 0x01	; 1
    2a42:	80 93 98 01 	sts	0x0198, r24	; 0x800198 <__data_end>

	send_variables(SINGLE_NUM_ADDR, set_num + 1);															  //
    2a46:	80 91 9e 01 	lds	r24, 0x019E	; 0x80019e <set_num>
    2a4a:	88 2f       	mov	r24, r24
    2a4c:	90 e0       	ldi	r25, 0x00	; 0
    2a4e:	01 96       	adiw	r24, 0x01	; 1
    2a50:	bc 01       	movw	r22, r24
    2a52:	80 e3       	ldi	r24, 0x30	; 48
    2a54:	90 e0       	ldi	r25, 0x00	; 0
    2a56:	0e 94 1f 1c 	call	0x383e	; 0x383e <send_variables>
	send_variables(SINGLE_RUNTEMP_ADDR, run_temp[set_num] + temp_unit * (run_temp[set_num] * 8 / 10 + 32)); //
    2a5a:	80 91 9e 01 	lds	r24, 0x019E	; 0x80019e <set_num>
    2a5e:	88 2f       	mov	r24, r24
    2a60:	90 e0       	ldi	r25, 0x00	; 0
    2a62:	88 0f       	add	r24, r24
    2a64:	99 1f       	adc	r25, r25
    2a66:	8f 50       	subi	r24, 0x0F	; 15
    2a68:	9e 4f       	sbci	r25, 0xFE	; 254
    2a6a:	dc 01       	movw	r26, r24
    2a6c:	8d 91       	ld	r24, X+
    2a6e:	9c 91       	ld	r25, X
    2a70:	fc 01       	movw	r30, r24
    2a72:	80 91 9e 01 	lds	r24, 0x019E	; 0x80019e <set_num>
    2a76:	88 2f       	mov	r24, r24
    2a78:	90 e0       	ldi	r25, 0x00	; 0
    2a7a:	88 0f       	add	r24, r24
    2a7c:	99 1f       	adc	r25, r25
    2a7e:	8f 50       	subi	r24, 0x0F	; 15
    2a80:	9e 4f       	sbci	r25, 0xFE	; 254
    2a82:	dc 01       	movw	r26, r24
    2a84:	8d 91       	ld	r24, X+
    2a86:	9c 91       	ld	r25, X
    2a88:	88 0f       	add	r24, r24
    2a8a:	99 1f       	adc	r25, r25
    2a8c:	88 0f       	add	r24, r24
    2a8e:	99 1f       	adc	r25, r25
    2a90:	88 0f       	add	r24, r24
    2a92:	99 1f       	adc	r25, r25
    2a94:	2a e0       	ldi	r18, 0x0A	; 10
    2a96:	30 e0       	ldi	r19, 0x00	; 0
    2a98:	b9 01       	movw	r22, r18
    2a9a:	0e 94 a1 37 	call	0x6f42	; 0x6f42 <__divmodhi4>
    2a9e:	cb 01       	movw	r24, r22
    2aa0:	80 96       	adiw	r24, 0x20	; 32
    2aa2:	ac 01       	movw	r20, r24
    2aa4:	20 91 b7 02 	lds	r18, 0x02B7	; 0x8002b7 <temp_unit>
    2aa8:	30 91 b8 02 	lds	r19, 0x02B8	; 0x8002b8 <temp_unit+0x1>
    2aac:	42 9f       	mul	r20, r18
    2aae:	c0 01       	movw	r24, r0
    2ab0:	43 9f       	mul	r20, r19
    2ab2:	90 0d       	add	r25, r0
    2ab4:	52 9f       	mul	r21, r18
    2ab6:	90 0d       	add	r25, r0
    2ab8:	11 24       	eor	r1, r1
    2aba:	8e 0f       	add	r24, r30
    2abc:	9f 1f       	adc	r25, r31
    2abe:	bc 01       	movw	r22, r24
    2ac0:	82 e3       	ldi	r24, 0x32	; 50
    2ac2:	90 e0       	ldi	r25, 0x00	; 0
    2ac4:	0e 94 1f 1c 	call	0x383e	; 0x383e <send_variables>
	send_variables(SINGLE_SETTEMP_ADDR, set_temp[set_num] + temp_unit * (set_temp[set_num] * 8 / 10 + 32));  //
    2ac8:	80 91 9e 01 	lds	r24, 0x019E	; 0x80019e <set_num>
    2acc:	88 2f       	mov	r24, r24
    2ace:	90 e0       	ldi	r25, 0x00	; 0
    2ad0:	88 0f       	add	r24, r24
    2ad2:	99 1f       	adc	r25, r25
    2ad4:	84 59       	subi	r24, 0x94	; 148
    2ad6:	94 4f       	sbci	r25, 0xF4	; 244
    2ad8:	fc 01       	movw	r30, r24
    2ada:	80 81       	ld	r24, Z
    2adc:	91 81       	ldd	r25, Z+1	; 0x01
    2ade:	fc 01       	movw	r30, r24
    2ae0:	80 91 9e 01 	lds	r24, 0x019E	; 0x80019e <set_num>
    2ae4:	88 2f       	mov	r24, r24
    2ae6:	90 e0       	ldi	r25, 0x00	; 0
    2ae8:	88 0f       	add	r24, r24
    2aea:	99 1f       	adc	r25, r25
    2aec:	84 59       	subi	r24, 0x94	; 148
    2aee:	94 4f       	sbci	r25, 0xF4	; 244
    2af0:	dc 01       	movw	r26, r24
    2af2:	8d 91       	ld	r24, X+
    2af4:	9c 91       	ld	r25, X
    2af6:	88 0f       	add	r24, r24
    2af8:	99 1f       	adc	r25, r25
    2afa:	88 0f       	add	r24, r24
    2afc:	99 1f       	adc	r25, r25
    2afe:	88 0f       	add	r24, r24
    2b00:	99 1f       	adc	r25, r25
    2b02:	2a e0       	ldi	r18, 0x0A	; 10
    2b04:	30 e0       	ldi	r19, 0x00	; 0
    2b06:	b9 01       	movw	r22, r18
    2b08:	0e 94 a1 37 	call	0x6f42	; 0x6f42 <__divmodhi4>
    2b0c:	cb 01       	movw	r24, r22
    2b0e:	80 96       	adiw	r24, 0x20	; 32
    2b10:	ac 01       	movw	r20, r24
    2b12:	20 91 b7 02 	lds	r18, 0x02B7	; 0x8002b7 <temp_unit>
    2b16:	30 91 b8 02 	lds	r19, 0x02B8	; 0x8002b8 <temp_unit+0x1>
    2b1a:	42 9f       	mul	r20, r18
    2b1c:	c0 01       	movw	r24, r0
    2b1e:	43 9f       	mul	r20, r19
    2b20:	90 0d       	add	r25, r0
    2b22:	52 9f       	mul	r21, r18
    2b24:	90 0d       	add	r25, r0
    2b26:	11 24       	eor	r1, r1
    2b28:	8e 0f       	add	r24, r30
    2b2a:	9f 1f       	adc	r25, r31
    2b2c:	bc 01       	movw	r22, r24
    2b2e:	84 e3       	ldi	r24, 0x34	; 52
    2b30:	90 e0       	ldi	r25, 0x00	; 0
    2b32:	0e 94 1f 1c 	call	0x383e	; 0x383e <send_variables>
	send_variables(SINGLE_SET_TEMP, set_temp[set_num] + temp_unit * (set_temp[set_num] * 8 / 10 + 32));	 //
    2b36:	80 91 9e 01 	lds	r24, 0x019E	; 0x80019e <set_num>
    2b3a:	88 2f       	mov	r24, r24
    2b3c:	90 e0       	ldi	r25, 0x00	; 0
    2b3e:	88 0f       	add	r24, r24
    2b40:	99 1f       	adc	r25, r25
    2b42:	84 59       	subi	r24, 0x94	; 148
    2b44:	94 4f       	sbci	r25, 0xF4	; 244
    2b46:	fc 01       	movw	r30, r24
    2b48:	80 81       	ld	r24, Z
    2b4a:	91 81       	ldd	r25, Z+1	; 0x01
    2b4c:	fc 01       	movw	r30, r24
    2b4e:	80 91 9e 01 	lds	r24, 0x019E	; 0x80019e <set_num>
    2b52:	88 2f       	mov	r24, r24
    2b54:	90 e0       	ldi	r25, 0x00	; 0
    2b56:	88 0f       	add	r24, r24
    2b58:	99 1f       	adc	r25, r25
    2b5a:	84 59       	subi	r24, 0x94	; 148
    2b5c:	94 4f       	sbci	r25, 0xF4	; 244
    2b5e:	dc 01       	movw	r26, r24
    2b60:	8d 91       	ld	r24, X+
    2b62:	9c 91       	ld	r25, X
    2b64:	88 0f       	add	r24, r24
    2b66:	99 1f       	adc	r25, r25
    2b68:	88 0f       	add	r24, r24
    2b6a:	99 1f       	adc	r25, r25
    2b6c:	88 0f       	add	r24, r24
    2b6e:	99 1f       	adc	r25, r25
    2b70:	2a e0       	ldi	r18, 0x0A	; 10
    2b72:	30 e0       	ldi	r19, 0x00	; 0
    2b74:	b9 01       	movw	r22, r18
    2b76:	0e 94 a1 37 	call	0x6f42	; 0x6f42 <__divmodhi4>
    2b7a:	cb 01       	movw	r24, r22
    2b7c:	80 96       	adiw	r24, 0x20	; 32
    2b7e:	ac 01       	movw	r20, r24
    2b80:	20 91 b7 02 	lds	r18, 0x02B7	; 0x8002b7 <temp_unit>
    2b84:	30 91 b8 02 	lds	r19, 0x02B8	; 0x8002b8 <temp_unit+0x1>
    2b88:	42 9f       	mul	r20, r18
    2b8a:	c0 01       	movw	r24, r0
    2b8c:	43 9f       	mul	r20, r19
    2b8e:	90 0d       	add	r25, r0
    2b90:	52 9f       	mul	r21, r18
    2b92:	90 0d       	add	r25, r0
    2b94:	11 24       	eor	r1, r1
    2b96:	8e 0f       	add	r24, r30
    2b98:	9f 1f       	adc	r25, r31
    2b9a:	bc 01       	movw	r22, r24
    2b9c:	86 e4       	ldi	r24, 0x46	; 70
    2b9e:	91 e0       	ldi	r25, 0x01	; 1
    2ba0:	0e 94 1f 1c 	call	0x383e	; 0x383e <send_variables>
	send_variables(SINGLE_SET_SWITCH, switch_sensor[set_num]);												  ///
    2ba4:	80 91 9e 01 	lds	r24, 0x019E	; 0x80019e <set_num>
    2ba8:	88 2f       	mov	r24, r24
    2baa:	90 e0       	ldi	r25, 0x00	; 0
    2bac:	88 0f       	add	r24, r24
    2bae:	99 1f       	adc	r25, r25
    2bb0:	8f 5d       	subi	r24, 0xDF	; 223
    2bb2:	9d 4f       	sbci	r25, 0xFD	; 253
    2bb4:	fc 01       	movw	r30, r24
    2bb6:	80 81       	ld	r24, Z
    2bb8:	91 81       	ldd	r25, Z+1	; 0x01
    2bba:	bc 01       	movw	r22, r24
    2bbc:	84 e4       	ldi	r24, 0x44	; 68
    2bbe:	91 e0       	ldi	r25, 0x01	; 1
    2bc0:	0e 94 1f 1c 	call	0x383e	; 0x383e <send_variables>
	send_variables(SINGLE_SENSORTYPE_ADDR, TYPE_J + (sensor_type[set_num] * TYPE_K));						  //DANDUPAGE
    2bc4:	80 91 9e 01 	lds	r24, 0x019E	; 0x80019e <set_num>
    2bc8:	88 2f       	mov	r24, r24
    2bca:	90 e0       	ldi	r25, 0x00	; 0
    2bcc:	88 0f       	add	r24, r24
    2bce:	99 1f       	adc	r25, r25
    2bd0:	8f 5a       	subi	r24, 0xAF	; 175
    2bd2:	9d 4f       	sbci	r25, 0xFD	; 253
    2bd4:	dc 01       	movw	r26, r24
    2bd6:	8d 91       	ld	r24, X+
    2bd8:	9c 91       	ld	r25, X
    2bda:	86 5b       	subi	r24, 0xB6	; 182
    2bdc:	9f 4f       	sbci	r25, 0xFF	; 255
    2bde:	98 2f       	mov	r25, r24
    2be0:	88 27       	eor	r24, r24
    2be2:	bc 01       	movw	r22, r24
    2be4:	80 e9       	ldi	r24, 0x90	; 144
    2be6:	92 e0       	ldi	r25, 0x02	; 2
    2be8:	0e 94 1f 1c 	call	0x383e	; 0x383e <send_variables>
	send_variables(SINGLE_SET_FOLLOW, follow_sta[set_num]);
    2bec:	80 91 9e 01 	lds	r24, 0x019E	; 0x80019e <set_num>
    2bf0:	88 2f       	mov	r24, r24
    2bf2:	90 e0       	ldi	r25, 0x00	; 0
    2bf4:	8b 57       	subi	r24, 0x7B	; 123
    2bf6:	9d 4f       	sbci	r25, 0xFD	; 253
    2bf8:	fc 01       	movw	r30, r24
    2bfa:	80 81       	ld	r24, Z
    2bfc:	88 2f       	mov	r24, r24
    2bfe:	90 e0       	ldi	r25, 0x00	; 0
    2c00:	bc 01       	movw	r22, r24
    2c02:	8a eb       	ldi	r24, 0xBA	; 186
    2c04:	91 e0       	ldi	r25, 0x01	; 1
    2c06:	0e 94 1f 1c 	call	0x383e	; 0x383e <send_variables>
	
	send_name(SINGLE_NAME_ADDR, set_name[set_num]);
    2c0a:	80 91 9e 01 	lds	r24, 0x019E	; 0x80019e <set_num>
    2c0e:	88 2f       	mov	r24, r24
    2c10:	90 e0       	ldi	r25, 0x00	; 0
    2c12:	88 0f       	add	r24, r24
    2c14:	99 1f       	adc	r25, r25
    2c16:	88 0f       	add	r24, r24
    2c18:	99 1f       	adc	r25, r25
    2c1a:	84 5f       	subi	r24, 0xF4	; 244
    2c1c:	94 4f       	sbci	r25, 0xF4	; 244
    2c1e:	fc 01       	movw	r30, r24
    2c20:	80 81       	ld	r24, Z
    2c22:	91 81       	ldd	r25, Z+1	; 0x01
    2c24:	a2 81       	ldd	r26, Z+2	; 0x02
    2c26:	b3 81       	ldd	r27, Z+3	; 0x03
    2c28:	ac 01       	movw	r20, r24
    2c2a:	bd 01       	movw	r22, r26
    2c2c:	88 e8       	ldi	r24, 0x88	; 136
    2c2e:	92 e0       	ldi	r25, 0x02	; 2
    2c30:	0e 94 69 1c 	call	0x38d2	; 0x38d2 <send_name>

	send_name(SINGLE_SET_NAME, set_name[set_num]);
    2c34:	80 91 9e 01 	lds	r24, 0x019E	; 0x80019e <set_num>
    2c38:	88 2f       	mov	r24, r24
    2c3a:	90 e0       	ldi	r25, 0x00	; 0
    2c3c:	88 0f       	add	r24, r24
    2c3e:	99 1f       	adc	r25, r25
    2c40:	88 0f       	add	r24, r24
    2c42:	99 1f       	adc	r25, r25
    2c44:	84 5f       	subi	r24, 0xF4	; 244
    2c46:	94 4f       	sbci	r25, 0xF4	; 244
    2c48:	fc 01       	movw	r30, r24
    2c4a:	80 81       	ld	r24, Z
    2c4c:	91 81       	ldd	r25, Z+1	; 0x01
    2c4e:	a2 81       	ldd	r26, Z+2	; 0x02
    2c50:	b3 81       	ldd	r27, Z+3	; 0x03
    2c52:	ac 01       	movw	r20, r24
    2c54:	bd 01       	movw	r22, r26
    2c56:	88 e5       	ldi	r24, 0x58	; 88
    2c58:	91 e0       	ldi	r25, 0x01	; 1
    2c5a:	0e 94 69 1c 	call	0x38d2	; 0x38d2 <send_name>

	set_name_buff = set_name[set_num];
    2c5e:	80 91 9e 01 	lds	r24, 0x019E	; 0x80019e <set_num>
    2c62:	88 2f       	mov	r24, r24
    2c64:	90 e0       	ldi	r25, 0x00	; 0
    2c66:	88 0f       	add	r24, r24
    2c68:	99 1f       	adc	r25, r25
    2c6a:	88 0f       	add	r24, r24
    2c6c:	99 1f       	adc	r25, r25
    2c6e:	84 5f       	subi	r24, 0xF4	; 244
    2c70:	94 4f       	sbci	r25, 0xF4	; 244
    2c72:	fc 01       	movw	r30, r24
    2c74:	80 81       	ld	r24, Z
    2c76:	91 81       	ldd	r25, Z+1	; 0x01
    2c78:	a2 81       	ldd	r26, Z+2	; 0x02
    2c7a:	b3 81       	ldd	r27, Z+3	; 0x03
    2c7c:	80 93 81 02 	sts	0x0281, r24	; 0x800281 <set_name_buff>
    2c80:	90 93 82 02 	sts	0x0282, r25	; 0x800282 <set_name_buff+0x1>
    2c84:	a0 93 83 02 	sts	0x0283, r26	; 0x800283 <set_name_buff+0x2>
    2c88:	b0 93 84 02 	sts	0x0284, r27	; 0x800284 <set_name_buff+0x3>
}
    2c8c:	00 00       	nop
    2c8e:	df 91       	pop	r29
    2c90:	cf 91       	pop	r28
    2c92:	08 95       	ret

00002c94 <update_pid_page>:

void update_pid_page(uint8_t channel)
{
    2c94:	cf 93       	push	r28
    2c96:	df 93       	push	r29
    2c98:	1f 92       	push	r1
    2c9a:	cd b7       	in	r28, 0x3d	; 61
    2c9c:	de b7       	in	r29, 0x3e	; 62
    2c9e:	89 83       	std	Y+1, r24	; 0x01
	set_pid_channel = channel;
    2ca0:	89 81       	ldd	r24, Y+1	; 0x01
    2ca2:	80 93 9f 01 	sts	0x019F, r24	; 0x80019f <set_pid_channel>

	send_variables(PID_CHANNEL, channel);
    2ca6:	89 81       	ldd	r24, Y+1	; 0x01
    2ca8:	88 2f       	mov	r24, r24
    2caa:	90 e0       	ldi	r25, 0x00	; 0
    2cac:	bc 01       	movw	r22, r24
    2cae:	80 e5       	ldi	r24, 0x50	; 80
    2cb0:	91 e0       	ldi	r25, 0x01	; 1
    2cb2:	0e 94 1f 1c 	call	0x383e	; 0x383e <send_variables>

	send_variables(PID_P_ADDR, p_value[channel - 1]);
    2cb6:	89 81       	ldd	r24, Y+1	; 0x01
    2cb8:	88 2f       	mov	r24, r24
    2cba:	90 e0       	ldi	r25, 0x00	; 0
    2cbc:	01 97       	sbiw	r24, 0x01	; 1
    2cbe:	88 0f       	add	r24, r24
    2cc0:	99 1f       	adc	r25, r25
    2cc2:	85 54       	subi	r24, 0x45	; 69
    2cc4:	97 4f       	sbci	r25, 0xF7	; 247
    2cc6:	fc 01       	movw	r30, r24
    2cc8:	80 81       	ld	r24, Z
    2cca:	91 81       	ldd	r25, Z+1	; 0x01
    2ccc:	bc 01       	movw	r22, r24
    2cce:	86 e3       	ldi	r24, 0x36	; 54
    2cd0:	90 e0       	ldi	r25, 0x00	; 0
    2cd2:	0e 94 1f 1c 	call	0x383e	; 0x383e <send_variables>
	send_variables(PID_I_ADDR, i_value[channel - 1]);
    2cd6:	89 81       	ldd	r24, Y+1	; 0x01
    2cd8:	88 2f       	mov	r24, r24
    2cda:	90 e0       	ldi	r25, 0x00	; 0
    2cdc:	01 97       	sbiw	r24, 0x01	; 1
    2cde:	88 0f       	add	r24, r24
    2ce0:	99 1f       	adc	r25, r25
    2ce2:	85 51       	subi	r24, 0x15	; 21
    2ce4:	97 4f       	sbci	r25, 0xF7	; 247
    2ce6:	fc 01       	movw	r30, r24
    2ce8:	80 81       	ld	r24, Z
    2cea:	91 81       	ldd	r25, Z+1	; 0x01
    2cec:	bc 01       	movw	r22, r24
    2cee:	88 e3       	ldi	r24, 0x38	; 56
    2cf0:	90 e0       	ldi	r25, 0x00	; 0
    2cf2:	0e 94 1f 1c 	call	0x383e	; 0x383e <send_variables>
	send_variables(PID_D_ADDR, d_value[channel - 1]);
    2cf6:	89 81       	ldd	r24, Y+1	; 0x01
    2cf8:	88 2f       	mov	r24, r24
    2cfa:	90 e0       	ldi	r25, 0x00	; 0
    2cfc:	01 97       	sbiw	r24, 0x01	; 1
    2cfe:	88 0f       	add	r24, r24
    2d00:	99 1f       	adc	r25, r25
    2d02:	85 57       	subi	r24, 0x75	; 117
    2d04:	97 4f       	sbci	r25, 0xF7	; 247
    2d06:	fc 01       	movw	r30, r24
    2d08:	80 81       	ld	r24, Z
    2d0a:	91 81       	ldd	r25, Z+1	; 0x01
    2d0c:	bc 01       	movw	r22, r24
    2d0e:	8a e3       	ldi	r24, 0x3A	; 58
    2d10:	90 e0       	ldi	r25, 0x00	; 0
    2d12:	0e 94 1f 1c 	call	0x383e	; 0x383e <send_variables>

	send_variables(PID_P, p_value[channel - 1]);
    2d16:	89 81       	ldd	r24, Y+1	; 0x01
    2d18:	88 2f       	mov	r24, r24
    2d1a:	90 e0       	ldi	r25, 0x00	; 0
    2d1c:	01 97       	sbiw	r24, 0x01	; 1
    2d1e:	88 0f       	add	r24, r24
    2d20:	99 1f       	adc	r25, r25
    2d22:	85 54       	subi	r24, 0x45	; 69
    2d24:	97 4f       	sbci	r25, 0xF7	; 247
    2d26:	fc 01       	movw	r30, r24
    2d28:	80 81       	ld	r24, Z
    2d2a:	91 81       	ldd	r25, Z+1	; 0x01
    2d2c:	bc 01       	movw	r22, r24
    2d2e:	82 e5       	ldi	r24, 0x52	; 82
    2d30:	91 e0       	ldi	r25, 0x01	; 1
    2d32:	0e 94 1f 1c 	call	0x383e	; 0x383e <send_variables>
	send_variables(PID_I, i_value[channel - 1]);
    2d36:	89 81       	ldd	r24, Y+1	; 0x01
    2d38:	88 2f       	mov	r24, r24
    2d3a:	90 e0       	ldi	r25, 0x00	; 0
    2d3c:	01 97       	sbiw	r24, 0x01	; 1
    2d3e:	88 0f       	add	r24, r24
    2d40:	99 1f       	adc	r25, r25
    2d42:	85 51       	subi	r24, 0x15	; 21
    2d44:	97 4f       	sbci	r25, 0xF7	; 247
    2d46:	fc 01       	movw	r30, r24
    2d48:	80 81       	ld	r24, Z
    2d4a:	91 81       	ldd	r25, Z+1	; 0x01
    2d4c:	bc 01       	movw	r22, r24
    2d4e:	84 e5       	ldi	r24, 0x54	; 84
    2d50:	91 e0       	ldi	r25, 0x01	; 1
    2d52:	0e 94 1f 1c 	call	0x383e	; 0x383e <send_variables>
	send_variables(PID_D, d_value[channel - 1]);
    2d56:	89 81       	ldd	r24, Y+1	; 0x01
    2d58:	88 2f       	mov	r24, r24
    2d5a:	90 e0       	ldi	r25, 0x00	; 0
    2d5c:	01 97       	sbiw	r24, 0x01	; 1
    2d5e:	88 0f       	add	r24, r24
    2d60:	99 1f       	adc	r25, r25
    2d62:	85 57       	subi	r24, 0x75	; 117
    2d64:	97 4f       	sbci	r25, 0xF7	; 247
    2d66:	fc 01       	movw	r30, r24
    2d68:	80 81       	ld	r24, Z
    2d6a:	91 81       	ldd	r25, Z+1	; 0x01
    2d6c:	bc 01       	movw	r22, r24
    2d6e:	86 e5       	ldi	r24, 0x56	; 86
    2d70:	91 e0       	ldi	r25, 0x01	; 1
    2d72:	0e 94 1f 1c 	call	0x383e	; 0x383e <send_variables>

	p_value_buff = p_value[channel - 1];
    2d76:	89 81       	ldd	r24, Y+1	; 0x01
    2d78:	88 2f       	mov	r24, r24
    2d7a:	90 e0       	ldi	r25, 0x00	; 0
    2d7c:	01 97       	sbiw	r24, 0x01	; 1
    2d7e:	88 0f       	add	r24, r24
    2d80:	99 1f       	adc	r25, r25
    2d82:	85 54       	subi	r24, 0x45	; 69
    2d84:	97 4f       	sbci	r25, 0xF7	; 247
    2d86:	fc 01       	movw	r30, r24
    2d88:	80 81       	ld	r24, Z
    2d8a:	91 81       	ldd	r25, Z+1	; 0x01
    2d8c:	90 93 7f 01 	sts	0x017F, r25	; 0x80017f <p_value_buff+0x1>
    2d90:	80 93 7e 01 	sts	0x017E, r24	; 0x80017e <p_value_buff>
	i_value_buff = i_value[channel - 1];
    2d94:	89 81       	ldd	r24, Y+1	; 0x01
    2d96:	88 2f       	mov	r24, r24
    2d98:	90 e0       	ldi	r25, 0x00	; 0
    2d9a:	01 97       	sbiw	r24, 0x01	; 1
    2d9c:	88 0f       	add	r24, r24
    2d9e:	99 1f       	adc	r25, r25
    2da0:	85 51       	subi	r24, 0x15	; 21
    2da2:	97 4f       	sbci	r25, 0xF7	; 247
    2da4:	fc 01       	movw	r30, r24
    2da6:	80 81       	ld	r24, Z
    2da8:	91 81       	ldd	r25, Z+1	; 0x01
    2daa:	90 93 81 01 	sts	0x0181, r25	; 0x800181 <i_value_buff+0x1>
    2dae:	80 93 80 01 	sts	0x0180, r24	; 0x800180 <i_value_buff>
	d_value_buff = d_value[channel - 1];
    2db2:	89 81       	ldd	r24, Y+1	; 0x01
    2db4:	88 2f       	mov	r24, r24
    2db6:	90 e0       	ldi	r25, 0x00	; 0
    2db8:	01 97       	sbiw	r24, 0x01	; 1
    2dba:	88 0f       	add	r24, r24
    2dbc:	99 1f       	adc	r25, r25
    2dbe:	85 57       	subi	r24, 0x75	; 117
    2dc0:	97 4f       	sbci	r25, 0xF7	; 247
    2dc2:	fc 01       	movw	r30, r24
    2dc4:	80 81       	ld	r24, Z
    2dc6:	91 81       	ldd	r25, Z+1	; 0x01
    2dc8:	90 93 83 01 	sts	0x0183, r25	; 0x800183 <d_value_buff+0x1>
    2dcc:	80 93 82 01 	sts	0x0182, r24	; 0x800182 <d_value_buff>
}
    2dd0:	00 00       	nop
    2dd2:	0f 90       	pop	r0
    2dd4:	df 91       	pop	r29
    2dd6:	cf 91       	pop	r28
    2dd8:	08 95       	ret

00002dda <update_curve_page>:

void update_curve_page(void)
{
    2dda:	cf 93       	push	r28
    2ddc:	df 93       	push	r29
    2dde:	cd b7       	in	r28, 0x3d	; 61
    2de0:	de b7       	in	r29, 0x3e	; 62
    2de2:	66 97       	sbiw	r28, 0x16	; 22
    2de4:	0f b6       	in	r0, 0x3f	; 63
    2de6:	f8 94       	cli
    2de8:	de bf       	out	0x3e, r29	; 62
    2dea:	0f be       	out	0x3f, r0	; 63
    2dec:	cd bf       	out	0x3d, r28	; 61
	uint8_t i = 0;
    2dee:	19 82       	std	Y+1, r1	; 0x01
	uint8_t count = 0;
    2df0:	1a 82       	std	Y+2, r1	; 0x02
	uint16_t time_line[10] = {2, 4, 6, 8, 10, 12, 14, 16, 18, 20};
    2df2:	84 e1       	ldi	r24, 0x14	; 20
    2df4:	e4 e8       	ldi	r30, 0x84	; 132
    2df6:	f1 e0       	ldi	r31, 0x01	; 1
    2df8:	de 01       	movw	r26, r28
    2dfa:	13 96       	adiw	r26, 0x03	; 3
    2dfc:	01 90       	ld	r0, Z+
    2dfe:	0d 92       	st	X+, r0
    2e00:	8a 95       	dec	r24
    2e02:	e1 f7       	brne	.-8      	; 0x2dfc <update_curve_page+0x22>

	update_run_temp_flag = 1;
    2e04:	81 e0       	ldi	r24, 0x01	; 1
    2e06:	80 93 99 01 	sts	0x0199, r24	; 0x800199 <update_run_temp_flag>
	run_temp_page = 0;
    2e0a:	10 92 98 01 	sts	0x0198, r1	; 0x800198 <__data_end>

	if (curve_time_level >= 4)
    2e0e:	80 91 a1 01 	lds	r24, 0x01A1	; 0x8001a1 <curve_time_level>
    2e12:	84 30       	cpi	r24, 0x04	; 4
    2e14:	24 f0       	brlt	.+8      	; 0x2e1e <update_curve_page+0x44>
	{
		curve_time_level = 3;
    2e16:	83 e0       	ldi	r24, 0x03	; 3
    2e18:	80 93 a1 01 	sts	0x01A1, r24	; 0x8001a1 <curve_time_level>
    2e1c:	06 c0       	rjmp	.+12     	; 0x2e2a <update_curve_page+0x50>
	}
	else if (curve_time_level < 0)
    2e1e:	80 91 a1 01 	lds	r24, 0x01A1	; 0x8001a1 <curve_time_level>
    2e22:	88 23       	and	r24, r24
    2e24:	14 f4       	brge	.+4      	; 0x2e2a <update_curve_page+0x50>
	{
		curve_time_level = 0;
    2e26:	10 92 a1 01 	sts	0x01A1, r1	; 0x8001a1 <curve_time_level>
	}

	if (curve_page_num >= MAX_IQR_QUANTITY)
    2e2a:	80 91 a0 01 	lds	r24, 0x01A0	; 0x8001a0 <curve_page_num>
    2e2e:	88 31       	cpi	r24, 0x18	; 24
    2e30:	1c f0       	brlt	.+6      	; 0x2e38 <update_curve_page+0x5e>
	{
		curve_page_num = 0;
    2e32:	10 92 a0 01 	sts	0x01A0, r1	; 0x8001a0 <curve_page_num>
    2e36:	07 c0       	rjmp	.+14     	; 0x2e46 <update_curve_page+0x6c>
	}
	else if (curve_page_num < 0)
    2e38:	80 91 a0 01 	lds	r24, 0x01A0	; 0x8001a0 <curve_page_num>
    2e3c:	88 23       	and	r24, r24
    2e3e:	1c f4       	brge	.+6      	; 0x2e46 <update_curve_page+0x6c>
	{
		curve_page_num = MAX_IQR_QUANTITY - 1;
    2e40:	87 e1       	ldi	r24, 0x17	; 23
    2e42:	80 93 a0 01 	sts	0x01A0, r24	; 0x8001a0 <curve_page_num>
	}

	count = 10 * (curve_time_level + 1);
    2e46:	80 91 a1 01 	lds	r24, 0x01A1	; 0x8001a1 <curve_time_level>
    2e4a:	08 2e       	mov	r0, r24
    2e4c:	00 0c       	add	r0, r0
    2e4e:	99 0b       	sbc	r25, r25
    2e50:	01 96       	adiw	r24, 0x01	; 1
    2e52:	88 0f       	add	r24, r24
    2e54:	98 2f       	mov	r25, r24
    2e56:	99 0f       	add	r25, r25
    2e58:	99 0f       	add	r25, r25
    2e5a:	89 0f       	add	r24, r25
    2e5c:	8a 83       	std	Y+2, r24	; 0x02

	CLOSE_CURVE;
    2e5e:	85 e4       	ldi	r24, 0x45	; 69
    2e60:	90 e0       	ldi	r25, 0x00	; 0
    2e62:	25 e4       	ldi	r18, 0x45	; 69
    2e64:	30 e0       	ldi	r19, 0x00	; 0
    2e66:	d9 01       	movw	r26, r18
    2e68:	2c 91       	ld	r18, X
    2e6a:	28 7f       	andi	r18, 0xF8	; 248
    2e6c:	fc 01       	movw	r30, r24
    2e6e:	20 83       	st	Z, r18
	clear_curve_buff(CHANNEL0_BUFF);
    2e70:	8a e5       	ldi	r24, 0x5A	; 90
    2e72:	0e 94 ce 22 	call	0x459c	; 0x459c <clear_curve_buff>

	for (i = 0; i < 10; i++)
    2e76:	19 82       	std	Y+1, r1	; 0x01
    2e78:	46 c0       	rjmp	.+140    	; 0x2f06 <update_curve_page+0x12c>
	{
		time_line[i] *= (curve_time_level + 1);
    2e7a:	89 81       	ldd	r24, Y+1	; 0x01
    2e7c:	88 2f       	mov	r24, r24
    2e7e:	90 e0       	ldi	r25, 0x00	; 0
    2e80:	29 81       	ldd	r18, Y+1	; 0x01
    2e82:	22 2f       	mov	r18, r18
    2e84:	30 e0       	ldi	r19, 0x00	; 0
    2e86:	22 0f       	add	r18, r18
    2e88:	33 1f       	adc	r19, r19
    2e8a:	ae 01       	movw	r20, r28
    2e8c:	4f 5f       	subi	r20, 0xFF	; 255
    2e8e:	5f 4f       	sbci	r21, 0xFF	; 255
    2e90:	24 0f       	add	r18, r20
    2e92:	35 1f       	adc	r19, r21
    2e94:	2e 5f       	subi	r18, 0xFE	; 254
    2e96:	3f 4f       	sbci	r19, 0xFF	; 255
    2e98:	d9 01       	movw	r26, r18
    2e9a:	4d 91       	ld	r20, X+
    2e9c:	5c 91       	ld	r21, X
    2e9e:	20 91 a1 01 	lds	r18, 0x01A1	; 0x8001a1 <curve_time_level>
    2ea2:	02 2e       	mov	r0, r18
    2ea4:	00 0c       	add	r0, r0
    2ea6:	33 0b       	sbc	r19, r19
    2ea8:	2f 5f       	subi	r18, 0xFF	; 255
    2eaa:	3f 4f       	sbci	r19, 0xFF	; 255
    2eac:	b9 01       	movw	r22, r18
    2eae:	46 9f       	mul	r20, r22
    2eb0:	90 01       	movw	r18, r0
    2eb2:	47 9f       	mul	r20, r23
    2eb4:	30 0d       	add	r19, r0
    2eb6:	56 9f       	mul	r21, r22
    2eb8:	30 0d       	add	r19, r0
    2eba:	11 24       	eor	r1, r1
    2ebc:	88 0f       	add	r24, r24
    2ebe:	99 1f       	adc	r25, r25
    2ec0:	ae 01       	movw	r20, r28
    2ec2:	4f 5f       	subi	r20, 0xFF	; 255
    2ec4:	5f 4f       	sbci	r21, 0xFF	; 255
    2ec6:	84 0f       	add	r24, r20
    2ec8:	95 1f       	adc	r25, r21
    2eca:	02 96       	adiw	r24, 0x02	; 2
    2ecc:	fc 01       	movw	r30, r24
    2ece:	31 83       	std	Z+1, r19	; 0x01
    2ed0:	20 83       	st	Z, r18
		send_variables(CURVE_TIMELINE_ADDR + (i * 2), time_line[i]);
    2ed2:	89 81       	ldd	r24, Y+1	; 0x01
    2ed4:	88 2f       	mov	r24, r24
    2ed6:	90 e0       	ldi	r25, 0x00	; 0
    2ed8:	88 0f       	add	r24, r24
    2eda:	99 1f       	adc	r25, r25
    2edc:	9e 01       	movw	r18, r28
    2ede:	2f 5f       	subi	r18, 0xFF	; 255
    2ee0:	3f 4f       	sbci	r19, 0xFF	; 255
    2ee2:	82 0f       	add	r24, r18
    2ee4:	93 1f       	adc	r25, r19
    2ee6:	02 96       	adiw	r24, 0x02	; 2
    2ee8:	dc 01       	movw	r26, r24
    2eea:	2d 91       	ld	r18, X+
    2eec:	3c 91       	ld	r19, X
    2eee:	89 81       	ldd	r24, Y+1	; 0x01
    2ef0:	88 2f       	mov	r24, r24
    2ef2:	90 e0       	ldi	r25, 0x00	; 0
    2ef4:	89 96       	adiw	r24, 0x29	; 41
    2ef6:	88 0f       	add	r24, r24
    2ef8:	99 1f       	adc	r25, r25
    2efa:	b9 01       	movw	r22, r18
    2efc:	0e 94 1f 1c 	call	0x383e	; 0x383e <send_variables>
	count = 10 * (curve_time_level + 1);

	CLOSE_CURVE;
	clear_curve_buff(CHANNEL0_BUFF);

	for (i = 0; i < 10; i++)
    2f00:	89 81       	ldd	r24, Y+1	; 0x01
    2f02:	8f 5f       	subi	r24, 0xFF	; 255
    2f04:	89 83       	std	Y+1, r24	; 0x01
    2f06:	89 81       	ldd	r24, Y+1	; 0x01
    2f08:	8a 30       	cpi	r24, 0x0A	; 10
    2f0a:	08 f4       	brcc	.+2      	; 0x2f0e <update_curve_page+0x134>
    2f0c:	b6 cf       	rjmp	.-148    	; 0x2e7a <update_curve_page+0xa0>
	{
		time_line[i] *= (curve_time_level + 1);
		send_variables(CURVE_TIMELINE_ADDR + (i * 2), time_line[i]);
	}

	send_variables(CURVE_PAGE_NUM_ADDR, curve_page_num + 1);
    2f0e:	80 91 a0 01 	lds	r24, 0x01A0	; 0x8001a0 <curve_page_num>
    2f12:	08 2e       	mov	r0, r24
    2f14:	00 0c       	add	r0, r0
    2f16:	99 0b       	sbc	r25, r25
    2f18:	01 96       	adiw	r24, 0x01	; 1
    2f1a:	bc 01       	movw	r22, r24
    2f1c:	8c e3       	ldi	r24, 0x3C	; 60
    2f1e:	90 e0       	ldi	r25, 0x00	; 0
    2f20:	0e 94 1f 1c 	call	0x383e	; 0x383e <send_variables>
	send_variables(CURVE_PAGE_RUNTEMP_ADDR, run_temp[curve_page_num] +
    2f24:	80 91 a0 01 	lds	r24, 0x01A0	; 0x8001a0 <curve_page_num>
    2f28:	08 2e       	mov	r0, r24
    2f2a:	00 0c       	add	r0, r0
    2f2c:	99 0b       	sbc	r25, r25
    2f2e:	88 0f       	add	r24, r24
    2f30:	99 1f       	adc	r25, r25
    2f32:	8f 50       	subi	r24, 0x0F	; 15
    2f34:	9e 4f       	sbci	r25, 0xFE	; 254
    2f36:	fc 01       	movw	r30, r24
    2f38:	80 81       	ld	r24, Z
    2f3a:	91 81       	ldd	r25, Z+1	; 0x01
    2f3c:	fc 01       	movw	r30, r24
												temp_unit * (run_temp[curve_page_num] * 8 / 10 + 32));	//
    2f3e:	80 91 a0 01 	lds	r24, 0x01A0	; 0x8001a0 <curve_page_num>
    2f42:	08 2e       	mov	r0, r24
    2f44:	00 0c       	add	r0, r0
    2f46:	99 0b       	sbc	r25, r25
    2f48:	88 0f       	add	r24, r24
    2f4a:	99 1f       	adc	r25, r25
    2f4c:	8f 50       	subi	r24, 0x0F	; 15
    2f4e:	9e 4f       	sbci	r25, 0xFE	; 254
    2f50:	dc 01       	movw	r26, r24
    2f52:	8d 91       	ld	r24, X+
    2f54:	9c 91       	ld	r25, X
    2f56:	88 0f       	add	r24, r24
    2f58:	99 1f       	adc	r25, r25
    2f5a:	88 0f       	add	r24, r24
    2f5c:	99 1f       	adc	r25, r25
    2f5e:	88 0f       	add	r24, r24
    2f60:	99 1f       	adc	r25, r25
    2f62:	2a e0       	ldi	r18, 0x0A	; 10
    2f64:	30 e0       	ldi	r19, 0x00	; 0
    2f66:	b9 01       	movw	r22, r18
    2f68:	0e 94 a1 37 	call	0x6f42	; 0x6f42 <__divmodhi4>
    2f6c:	cb 01       	movw	r24, r22
    2f6e:	80 96       	adiw	r24, 0x20	; 32
    2f70:	ac 01       	movw	r20, r24
    2f72:	20 91 b7 02 	lds	r18, 0x02B7	; 0x8002b7 <temp_unit>
    2f76:	30 91 b8 02 	lds	r19, 0x02B8	; 0x8002b8 <temp_unit+0x1>
    2f7a:	42 9f       	mul	r20, r18
    2f7c:	c0 01       	movw	r24, r0
    2f7e:	43 9f       	mul	r20, r19
    2f80:	90 0d       	add	r25, r0
    2f82:	52 9f       	mul	r21, r18
    2f84:	90 0d       	add	r25, r0
    2f86:	11 24       	eor	r1, r1
		time_line[i] *= (curve_time_level + 1);
		send_variables(CURVE_TIMELINE_ADDR + (i * 2), time_line[i]);
	}

	send_variables(CURVE_PAGE_NUM_ADDR, curve_page_num + 1);
	send_variables(CURVE_PAGE_RUNTEMP_ADDR, run_temp[curve_page_num] +
    2f88:	8e 0f       	add	r24, r30
    2f8a:	9f 1f       	adc	r25, r31
    2f8c:	bc 01       	movw	r22, r24
    2f8e:	8e e3       	ldi	r24, 0x3E	; 62
    2f90:	90 e0       	ldi	r25, 0x00	; 0
    2f92:	0e 94 1f 1c 	call	0x383e	; 0x383e <send_variables>
												temp_unit * (run_temp[curve_page_num] * 8 / 10 + 32));	//
	send_variables(CURVE_PAGE_SETTEMP_ADDR, set_temp[curve_page_num] + 
    2f96:	80 91 a0 01 	lds	r24, 0x01A0	; 0x8001a0 <curve_page_num>
    2f9a:	08 2e       	mov	r0, r24
    2f9c:	00 0c       	add	r0, r0
    2f9e:	99 0b       	sbc	r25, r25
    2fa0:	88 0f       	add	r24, r24
    2fa2:	99 1f       	adc	r25, r25
    2fa4:	84 59       	subi	r24, 0x94	; 148
    2fa6:	94 4f       	sbci	r25, 0xF4	; 244
    2fa8:	fc 01       	movw	r30, r24
    2faa:	80 81       	ld	r24, Z
    2fac:	91 81       	ldd	r25, Z+1	; 0x01
    2fae:	fc 01       	movw	r30, r24
												temp_unit * (set_temp[curve_page_num] * 8 / 10 + 32));		   //
    2fb0:	80 91 a0 01 	lds	r24, 0x01A0	; 0x8001a0 <curve_page_num>
    2fb4:	08 2e       	mov	r0, r24
    2fb6:	00 0c       	add	r0, r0
    2fb8:	99 0b       	sbc	r25, r25
    2fba:	88 0f       	add	r24, r24
    2fbc:	99 1f       	adc	r25, r25
    2fbe:	84 59       	subi	r24, 0x94	; 148
    2fc0:	94 4f       	sbci	r25, 0xF4	; 244
    2fc2:	dc 01       	movw	r26, r24
    2fc4:	8d 91       	ld	r24, X+
    2fc6:	9c 91       	ld	r25, X
    2fc8:	88 0f       	add	r24, r24
    2fca:	99 1f       	adc	r25, r25
    2fcc:	88 0f       	add	r24, r24
    2fce:	99 1f       	adc	r25, r25
    2fd0:	88 0f       	add	r24, r24
    2fd2:	99 1f       	adc	r25, r25
    2fd4:	2a e0       	ldi	r18, 0x0A	; 10
    2fd6:	30 e0       	ldi	r19, 0x00	; 0
    2fd8:	b9 01       	movw	r22, r18
    2fda:	0e 94 a1 37 	call	0x6f42	; 0x6f42 <__divmodhi4>
    2fde:	cb 01       	movw	r24, r22
    2fe0:	80 96       	adiw	r24, 0x20	; 32
    2fe2:	ac 01       	movw	r20, r24
    2fe4:	20 91 b7 02 	lds	r18, 0x02B7	; 0x8002b7 <temp_unit>
    2fe8:	30 91 b8 02 	lds	r19, 0x02B8	; 0x8002b8 <temp_unit+0x1>
    2fec:	42 9f       	mul	r20, r18
    2fee:	c0 01       	movw	r24, r0
    2ff0:	43 9f       	mul	r20, r19
    2ff2:	90 0d       	add	r25, r0
    2ff4:	52 9f       	mul	r21, r18
    2ff6:	90 0d       	add	r25, r0
    2ff8:	11 24       	eor	r1, r1
	}

	send_variables(CURVE_PAGE_NUM_ADDR, curve_page_num + 1);
	send_variables(CURVE_PAGE_RUNTEMP_ADDR, run_temp[curve_page_num] +
												temp_unit * (run_temp[curve_page_num] * 8 / 10 + 32));	//
	send_variables(CURVE_PAGE_SETTEMP_ADDR, set_temp[curve_page_num] + 
    2ffa:	8e 0f       	add	r24, r30
    2ffc:	9f 1f       	adc	r25, r31
    2ffe:	bc 01       	movw	r22, r24
    3000:	80 e4       	ldi	r24, 0x40	; 64
    3002:	90 e0       	ldi	r25, 0x00	; 0
    3004:	0e 94 1f 1c 	call	0x383e	; 0x383e <send_variables>
												temp_unit * (set_temp[curve_page_num] * 8 / 10 + 32));		   //
	send_variables(CURVE_PAGE_OUTRATE_ADDR, output_rate[curve_page_num]);
    3008:	80 91 a0 01 	lds	r24, 0x01A0	; 0x8001a0 <curve_page_num>
    300c:	08 2e       	mov	r0, r24
    300e:	00 0c       	add	r0, r0
    3010:	99 0b       	sbc	r25, r25
    3012:	87 55       	subi	r24, 0x57	; 87
    3014:	9e 4f       	sbci	r25, 0xFE	; 254
    3016:	fc 01       	movw	r30, r24
    3018:	80 81       	ld	r24, Z
    301a:	88 2f       	mov	r24, r24
    301c:	90 e0       	ldi	r25, 0x00	; 0
    301e:	bc 01       	movw	r22, r24
    3020:	82 e4       	ldi	r24, 0x42	; 66
    3022:	90 e0       	ldi	r25, 0x00	; 0
    3024:	0e 94 1f 1c 	call	0x383e	; 0x383e <send_variables>
	send_variables(CURVE_PAGE_SENSORTYPE_ADDR, TYPE_J + (sensor_type[curve_page_num] * TYPE_K));
    3028:	80 91 a0 01 	lds	r24, 0x01A0	; 0x8001a0 <curve_page_num>
    302c:	08 2e       	mov	r0, r24
    302e:	00 0c       	add	r0, r0
    3030:	99 0b       	sbc	r25, r25
    3032:	88 0f       	add	r24, r24
    3034:	99 1f       	adc	r25, r25
    3036:	8f 5a       	subi	r24, 0xAF	; 175
    3038:	9d 4f       	sbci	r25, 0xFD	; 253
    303a:	dc 01       	movw	r26, r24
    303c:	8d 91       	ld	r24, X+
    303e:	9c 91       	ld	r25, X
    3040:	86 5b       	subi	r24, 0xB6	; 182
    3042:	9f 4f       	sbci	r25, 0xFF	; 255
    3044:	98 2f       	mov	r25, r24
    3046:	88 27       	eor	r24, r24
    3048:	bc 01       	movw	r22, r24
    304a:	80 ea       	ldi	r24, 0xA0	; 160
    304c:	92 e0       	ldi	r25, 0x02	; 2
    304e:	0e 94 1f 1c 	call	0x383e	; 0x383e <send_variables>
	send_name(CURVE_PAGE_NAME_ADDR, set_name[curve_page_num]);
    3052:	80 91 a0 01 	lds	r24, 0x01A0	; 0x8001a0 <curve_page_num>
    3056:	08 2e       	mov	r0, r24
    3058:	00 0c       	add	r0, r0
    305a:	99 0b       	sbc	r25, r25
    305c:	88 0f       	add	r24, r24
    305e:	99 1f       	adc	r25, r25
    3060:	88 0f       	add	r24, r24
    3062:	99 1f       	adc	r25, r25
    3064:	84 5f       	subi	r24, 0xF4	; 244
    3066:	94 4f       	sbci	r25, 0xF4	; 244
    3068:	fc 01       	movw	r30, r24
    306a:	80 81       	ld	r24, Z
    306c:	91 81       	ldd	r25, Z+1	; 0x01
    306e:	a2 81       	ldd	r26, Z+2	; 0x02
    3070:	b3 81       	ldd	r27, Z+3	; 0x03
    3072:	ac 01       	movw	r20, r24
    3074:	bd 01       	movw	r22, r26
    3076:	88 e9       	ldi	r24, 0x98	; 152
    3078:	92 e0       	ldi	r25, 0x02	; 2
    307a:	0e 94 69 1c 	call	0x38d2	; 0x38d2 <send_name>

	OPEN_CURVE(count);
    307e:	8a 81       	ldd	r24, Y+2	; 0x02
    3080:	80 93 cb 02 	sts	0x02CB, r24	; 0x8002cb <timer2_ovf>
    3084:	84 e4       	ldi	r24, 0x44	; 68
    3086:	90 e0       	ldi	r25, 0x00	; 0
    3088:	22 eb       	ldi	r18, 0xB2	; 178
    308a:	dc 01       	movw	r26, r24
    308c:	2c 93       	st	X, r18
    308e:	85 e4       	ldi	r24, 0x45	; 69
    3090:	90 e0       	ldi	r25, 0x00	; 0
    3092:	25 e4       	ldi	r18, 0x45	; 69
    3094:	30 e0       	ldi	r19, 0x00	; 0
    3096:	f9 01       	movw	r30, r18
    3098:	20 81       	ld	r18, Z
    309a:	25 60       	ori	r18, 0x05	; 5
    309c:	dc 01       	movw	r26, r24
    309e:	2c 93       	st	X, r18
}
    30a0:	00 00       	nop
    30a2:	66 96       	adiw	r28, 0x16	; 22
    30a4:	0f b6       	in	r0, 0x3f	; 63
    30a6:	f8 94       	cli
    30a8:	de bf       	out	0x3e, r29	; 62
    30aa:	0f be       	out	0x3f, r0	; 63
    30ac:	cd bf       	out	0x3d, r28	; 61
    30ae:	df 91       	pop	r29
    30b0:	cf 91       	pop	r28
    30b2:	08 95       	ret

000030b4 <update_time_ctrl_page>:

/**/
void update_time_ctrl_page(void)
{
    30b4:	cf 93       	push	r28
    30b6:	df 93       	push	r29
    30b8:	00 d0       	rcall	.+0      	; 0x30ba <update_time_ctrl_page+0x6>
    30ba:	1f 92       	push	r1
    30bc:	cd b7       	in	r28, 0x3d	; 61
    30be:	de b7       	in	r29, 0x3e	; 62
	uint8_t j, k;
	uint8_t addr_offset = 0x00;
    30c0:	1b 82       	std	Y+3, r1	; 0x03

	if (module_num < 1)
    30c2:	80 91 05 01 	lds	r24, 0x0105	; 0x800105 <module_num>
    30c6:	88 23       	and	r24, r24
    30c8:	21 f4       	brne	.+8      	; 0x30d2 <update_time_ctrl_page+0x1e>
	{
		module_num = 1;
    30ca:	81 e0       	ldi	r24, 0x01	; 1
    30cc:	80 93 05 01 	sts	0x0105, r24	; 0x800105 <module_num>
				send_variables(IQR1_T1 + addr_offset, time_ctrl_value[module_num - 1][j][k]);
				addr_offset += 0x02;
			}
		}
	}
}
    30d0:	5e c0       	rjmp	.+188    	; 0x318e <update_time_ctrl_page+0xda>

	if (module_num < 1)
	{
		module_num = 1;
	}
	else if (module_num > 4)
    30d2:	80 91 05 01 	lds	r24, 0x0105	; 0x800105 <module_num>
    30d6:	85 30       	cpi	r24, 0x05	; 5
    30d8:	20 f0       	brcs	.+8      	; 0x30e2 <update_time_ctrl_page+0x2e>
	{
		module_num = 4;
    30da:	84 e0       	ldi	r24, 0x04	; 4
    30dc:	80 93 05 01 	sts	0x0105, r24	; 0x800105 <module_num>
				send_variables(IQR1_T1 + addr_offset, time_ctrl_value[module_num - 1][j][k]);
				addr_offset += 0x02;
			}
		}
	}
}
    30e0:	56 c0       	rjmp	.+172    	; 0x318e <update_time_ctrl_page+0xda>
	{
		module_num = 4;
	}
	else
	{
		send_variables(MODULE_NUM_ADDR, module_num);
    30e2:	80 91 05 01 	lds	r24, 0x0105	; 0x800105 <module_num>
    30e6:	88 2f       	mov	r24, r24
    30e8:	90 e0       	ldi	r25, 0x00	; 0
    30ea:	bc 01       	movw	r22, r24
    30ec:	82 e7       	ldi	r24, 0x72	; 114
    30ee:	90 e0       	ldi	r25, 0x00	; 0
    30f0:	0e 94 1f 1c 	call	0x383e	; 0x383e <send_variables>
		send_variables(MODULE_STATUS_ADDR, module_status[module_num - 1]);
    30f4:	80 91 05 01 	lds	r24, 0x0105	; 0x800105 <module_num>
    30f8:	88 2f       	mov	r24, r24
    30fa:	90 e0       	ldi	r25, 0x00	; 0
    30fc:	01 97       	sbiw	r24, 0x01	; 1
    30fe:	87 54       	subi	r24, 0x47	; 71
    3100:	9d 4f       	sbci	r25, 0xFD	; 253
    3102:	fc 01       	movw	r30, r24
    3104:	80 81       	ld	r24, Z
    3106:	88 2f       	mov	r24, r24
    3108:	90 e0       	ldi	r25, 0x00	; 0
    310a:	bc 01       	movw	r22, r24
    310c:	80 e7       	ldi	r24, 0x70	; 112
    310e:	90 e0       	ldi	r25, 0x00	; 0
    3110:	0e 94 1f 1c 	call	0x383e	; 0x383e <send_variables>

		for (j = 0; j < 8; j++)
    3114:	19 82       	std	Y+1, r1	; 0x01
    3116:	38 c0       	rjmp	.+112    	; 0x3188 <update_time_ctrl_page+0xd4>
		{
			for (k = 0; k < 4; k++)
    3118:	1a 82       	std	Y+2, r1	; 0x02
    311a:	30 c0       	rjmp	.+96     	; 0x317c <update_time_ctrl_page+0xc8>
			{
				send_variables(IQR1_T1 + addr_offset, time_ctrl_value[module_num - 1][j][k]);
    311c:	80 91 05 01 	lds	r24, 0x0105	; 0x800105 <module_num>
    3120:	88 2f       	mov	r24, r24
    3122:	90 e0       	ldi	r25, 0x00	; 0
    3124:	ac 01       	movw	r20, r24
    3126:	41 50       	subi	r20, 0x01	; 1
    3128:	51 09       	sbc	r21, r1
    312a:	89 81       	ldd	r24, Y+1	; 0x01
    312c:	28 2f       	mov	r18, r24
    312e:	30 e0       	ldi	r19, 0x00	; 0
    3130:	8a 81       	ldd	r24, Y+2	; 0x02
    3132:	88 2f       	mov	r24, r24
    3134:	90 e0       	ldi	r25, 0x00	; 0
    3136:	44 0f       	add	r20, r20
    3138:	55 1f       	adc	r21, r21
    313a:	44 0f       	add	r20, r20
    313c:	55 1f       	adc	r21, r21
    313e:	44 0f       	add	r20, r20
    3140:	55 1f       	adc	r21, r21
    3142:	24 0f       	add	r18, r20
    3144:	35 1f       	adc	r19, r21
    3146:	22 0f       	add	r18, r18
    3148:	33 1f       	adc	r19, r19
    314a:	22 0f       	add	r18, r18
    314c:	33 1f       	adc	r19, r19
    314e:	82 0f       	add	r24, r18
    3150:	93 1f       	adc	r25, r19
    3152:	88 0f       	add	r24, r24
    3154:	99 1f       	adc	r25, r25
    3156:	85 57       	subi	r24, 0x75	; 117
    3158:	98 4f       	sbci	r25, 0xF8	; 248
    315a:	fc 01       	movw	r30, r24
    315c:	20 81       	ld	r18, Z
    315e:	31 81       	ldd	r19, Z+1	; 0x01
    3160:	8b 81       	ldd	r24, Y+3	; 0x03
    3162:	88 2f       	mov	r24, r24
    3164:	90 e0       	ldi	r25, 0x00	; 0
    3166:	8e 59       	subi	r24, 0x9E	; 158
    3168:	9e 4f       	sbci	r25, 0xFE	; 254
    316a:	b9 01       	movw	r22, r18
    316c:	0e 94 1f 1c 	call	0x383e	; 0x383e <send_variables>
				addr_offset += 0x02;
    3170:	8b 81       	ldd	r24, Y+3	; 0x03
    3172:	8e 5f       	subi	r24, 0xFE	; 254
    3174:	8b 83       	std	Y+3, r24	; 0x03
		send_variables(MODULE_NUM_ADDR, module_num);
		send_variables(MODULE_STATUS_ADDR, module_status[module_num - 1]);

		for (j = 0; j < 8; j++)
		{
			for (k = 0; k < 4; k++)
    3176:	8a 81       	ldd	r24, Y+2	; 0x02
    3178:	8f 5f       	subi	r24, 0xFF	; 255
    317a:	8a 83       	std	Y+2, r24	; 0x02
    317c:	8a 81       	ldd	r24, Y+2	; 0x02
    317e:	84 30       	cpi	r24, 0x04	; 4
    3180:	68 f2       	brcs	.-102    	; 0x311c <update_time_ctrl_page+0x68>
	else
	{
		send_variables(MODULE_NUM_ADDR, module_num);
		send_variables(MODULE_STATUS_ADDR, module_status[module_num - 1]);

		for (j = 0; j < 8; j++)
    3182:	89 81       	ldd	r24, Y+1	; 0x01
    3184:	8f 5f       	subi	r24, 0xFF	; 255
    3186:	89 83       	std	Y+1, r24	; 0x01
    3188:	89 81       	ldd	r24, Y+1	; 0x01
    318a:	88 30       	cpi	r24, 0x08	; 8
    318c:	28 f2       	brcs	.-118    	; 0x3118 <update_time_ctrl_page+0x64>
				send_variables(IQR1_T1 + addr_offset, time_ctrl_value[module_num - 1][j][k]);
				addr_offset += 0x02;
			}
		}
	}
}
    318e:	00 00       	nop
    3190:	0f 90       	pop	r0
    3192:	0f 90       	pop	r0
    3194:	0f 90       	pop	r0
    3196:	df 91       	pop	r29
    3198:	cf 91       	pop	r28
    319a:	08 95       	ret

0000319c <save_time_ctrl_data>:

/*     */
void save_time_ctrl_data(void)
{
    319c:	cf 93       	push	r28
    319e:	df 93       	push	r29
    31a0:	00 d0       	rcall	.+0      	; 0x31a2 <save_time_ctrl_data+0x6>
    31a2:	cd b7       	in	r28, 0x3d	; 61
    31a4:	de b7       	in	r29, 0x3e	; 62
	uint8_t i, j;

	for (i = 0; i < 8; i++)
    31a6:	19 82       	std	Y+1, r1	; 0x01
    31a8:	93 c0       	rjmp	.+294    	; 0x32d0 <save_time_ctrl_data+0x134>
	{
		for (j = 0; j < 4; j++)
    31aa:	1a 82       	std	Y+2, r1	; 0x02
    31ac:	8a c0       	rjmp	.+276    	; 0x32c2 <save_time_ctrl_data+0x126>
		{
			time_ctrl_value[module_num - 1][i][j] = time_ctrl_value_buff[module_num - 1][i][j];
    31ae:	80 91 05 01 	lds	r24, 0x0105	; 0x800105 <module_num>
    31b2:	88 2f       	mov	r24, r24
    31b4:	90 e0       	ldi	r25, 0x00	; 0
    31b6:	bc 01       	movw	r22, r24
    31b8:	61 50       	subi	r22, 0x01	; 1
    31ba:	71 09       	sbc	r23, r1
    31bc:	89 81       	ldd	r24, Y+1	; 0x01
    31be:	48 2f       	mov	r20, r24
    31c0:	50 e0       	ldi	r21, 0x00	; 0
    31c2:	8a 81       	ldd	r24, Y+2	; 0x02
    31c4:	88 2f       	mov	r24, r24
    31c6:	90 e0       	ldi	r25, 0x00	; 0
    31c8:	20 91 05 01 	lds	r18, 0x0105	; 0x800105 <module_num>
    31cc:	22 2f       	mov	r18, r18
    31ce:	30 e0       	ldi	r19, 0x00	; 0
    31d0:	d9 01       	movw	r26, r18
    31d2:	11 97       	sbiw	r26, 0x01	; 1
    31d4:	29 81       	ldd	r18, Y+1	; 0x01
    31d6:	e2 2f       	mov	r30, r18
    31d8:	f0 e0       	ldi	r31, 0x00	; 0
    31da:	2a 81       	ldd	r18, Y+2	; 0x02
    31dc:	22 2f       	mov	r18, r18
    31de:	30 e0       	ldi	r19, 0x00	; 0
    31e0:	aa 0f       	add	r26, r26
    31e2:	bb 1f       	adc	r27, r27
    31e4:	aa 0f       	add	r26, r26
    31e6:	bb 1f       	adc	r27, r27
    31e8:	aa 0f       	add	r26, r26
    31ea:	bb 1f       	adc	r27, r27
    31ec:	ea 0f       	add	r30, r26
    31ee:	fb 1f       	adc	r31, r27
    31f0:	ee 0f       	add	r30, r30
    31f2:	ff 1f       	adc	r31, r31
    31f4:	ee 0f       	add	r30, r30
    31f6:	ff 1f       	adc	r31, r31
    31f8:	2e 0f       	add	r18, r30
    31fa:	3f 1f       	adc	r19, r31
    31fc:	22 0f       	add	r18, r18
    31fe:	33 1f       	adc	r19, r19
    3200:	2f 51       	subi	r18, 0x1F	; 31
    3202:	34 4f       	sbci	r19, 0xF4	; 244
    3204:	f9 01       	movw	r30, r18
    3206:	20 81       	ld	r18, Z
    3208:	31 81       	ldd	r19, Z+1	; 0x01
    320a:	66 0f       	add	r22, r22
    320c:	77 1f       	adc	r23, r23
    320e:	66 0f       	add	r22, r22
    3210:	77 1f       	adc	r23, r23
    3212:	66 0f       	add	r22, r22
    3214:	77 1f       	adc	r23, r23
    3216:	46 0f       	add	r20, r22
    3218:	57 1f       	adc	r21, r23
    321a:	44 0f       	add	r20, r20
    321c:	55 1f       	adc	r21, r21
    321e:	44 0f       	add	r20, r20
    3220:	55 1f       	adc	r21, r21
    3222:	84 0f       	add	r24, r20
    3224:	95 1f       	adc	r25, r21
    3226:	88 0f       	add	r24, r24
    3228:	99 1f       	adc	r25, r25
    322a:	85 57       	subi	r24, 0x75	; 117
    322c:	98 4f       	sbci	r25, 0xF8	; 248
    322e:	fc 01       	movw	r30, r24
    3230:	31 83       	std	Z+1, r19	; 0x01
    3232:	20 83       	st	Z, r18
			eeprom_write_word((uint16_t *)(TIME_CTRL_VALUE_EEADDR + ((module_num - 1) * 32 + i * 4 + j) * 2), time_ctrl_value[module_num - 1][i][j]);
    3234:	80 91 05 01 	lds	r24, 0x0105	; 0x800105 <module_num>
    3238:	88 2f       	mov	r24, r24
    323a:	90 e0       	ldi	r25, 0x00	; 0
    323c:	ac 01       	movw	r20, r24
    323e:	41 50       	subi	r20, 0x01	; 1
    3240:	51 09       	sbc	r21, r1
    3242:	89 81       	ldd	r24, Y+1	; 0x01
    3244:	28 2f       	mov	r18, r24
    3246:	30 e0       	ldi	r19, 0x00	; 0
    3248:	8a 81       	ldd	r24, Y+2	; 0x02
    324a:	88 2f       	mov	r24, r24
    324c:	90 e0       	ldi	r25, 0x00	; 0
    324e:	44 0f       	add	r20, r20
    3250:	55 1f       	adc	r21, r21
    3252:	44 0f       	add	r20, r20
    3254:	55 1f       	adc	r21, r21
    3256:	44 0f       	add	r20, r20
    3258:	55 1f       	adc	r21, r21
    325a:	24 0f       	add	r18, r20
    325c:	35 1f       	adc	r19, r21
    325e:	22 0f       	add	r18, r18
    3260:	33 1f       	adc	r19, r19
    3262:	22 0f       	add	r18, r18
    3264:	33 1f       	adc	r19, r19
    3266:	82 0f       	add	r24, r18
    3268:	93 1f       	adc	r25, r19
    326a:	88 0f       	add	r24, r24
    326c:	99 1f       	adc	r25, r25
    326e:	85 57       	subi	r24, 0x75	; 117
    3270:	98 4f       	sbci	r25, 0xF8	; 248
    3272:	fc 01       	movw	r30, r24
    3274:	40 81       	ld	r20, Z
    3276:	51 81       	ldd	r21, Z+1	; 0x01
    3278:	80 91 05 01 	lds	r24, 0x0105	; 0x800105 <module_num>
    327c:	88 2f       	mov	r24, r24
    327e:	90 e0       	ldi	r25, 0x00	; 0
    3280:	01 97       	sbiw	r24, 0x01	; 1
    3282:	9c 01       	movw	r18, r24
    3284:	22 0f       	add	r18, r18
    3286:	33 1f       	adc	r19, r19
    3288:	22 0f       	add	r18, r18
    328a:	33 1f       	adc	r19, r19
    328c:	22 0f       	add	r18, r18
    328e:	33 1f       	adc	r19, r19
    3290:	89 81       	ldd	r24, Y+1	; 0x01
    3292:	88 2f       	mov	r24, r24
    3294:	90 e0       	ldi	r25, 0x00	; 0
    3296:	82 0f       	add	r24, r18
    3298:	93 1f       	adc	r25, r19
    329a:	9c 01       	movw	r18, r24
    329c:	22 0f       	add	r18, r18
    329e:	33 1f       	adc	r19, r19
    32a0:	22 0f       	add	r18, r18
    32a2:	33 1f       	adc	r19, r19
    32a4:	8a 81       	ldd	r24, Y+2	; 0x02
    32a6:	88 2f       	mov	r24, r24
    32a8:	90 e0       	ldi	r25, 0x00	; 0
    32aa:	82 0f       	add	r24, r18
    32ac:	93 1f       	adc	r25, r19
    32ae:	88 0f       	add	r24, r24
    32b0:	99 1f       	adc	r25, r25
    32b2:	81 57       	subi	r24, 0x71	; 113
    32b4:	9f 4f       	sbci	r25, 0xFF	; 255
    32b6:	ba 01       	movw	r22, r20
    32b8:	0e 94 1b 38 	call	0x7036	; 0x7036 <eeprom_write_word>
{
	uint8_t i, j;

	for (i = 0; i < 8; i++)
	{
		for (j = 0; j < 4; j++)
    32bc:	8a 81       	ldd	r24, Y+2	; 0x02
    32be:	8f 5f       	subi	r24, 0xFF	; 255
    32c0:	8a 83       	std	Y+2, r24	; 0x02
    32c2:	8a 81       	ldd	r24, Y+2	; 0x02
    32c4:	84 30       	cpi	r24, 0x04	; 4
    32c6:	08 f4       	brcc	.+2      	; 0x32ca <save_time_ctrl_data+0x12e>
    32c8:	72 cf       	rjmp	.-284    	; 0x31ae <save_time_ctrl_data+0x12>
/*     */
void save_time_ctrl_data(void)
{
	uint8_t i, j;

	for (i = 0; i < 8; i++)
    32ca:	89 81       	ldd	r24, Y+1	; 0x01
    32cc:	8f 5f       	subi	r24, 0xFF	; 255
    32ce:	89 83       	std	Y+1, r24	; 0x01
    32d0:	89 81       	ldd	r24, Y+1	; 0x01
    32d2:	88 30       	cpi	r24, 0x08	; 8
    32d4:	08 f4       	brcc	.+2      	; 0x32d8 <save_time_ctrl_data+0x13c>
    32d6:	69 cf       	rjmp	.-302    	; 0x31aa <save_time_ctrl_data+0xe>
		{
			time_ctrl_value[module_num - 1][i][j] = time_ctrl_value_buff[module_num - 1][i][j];
			eeprom_write_word((uint16_t *)(TIME_CTRL_VALUE_EEADDR + ((module_num - 1) * 32 + i * 4 + j) * 2), time_ctrl_value[module_num - 1][i][j]);
		}
	}
}
    32d8:	00 00       	nop
    32da:	0f 90       	pop	r0
    32dc:	0f 90       	pop	r0
    32de:	df 91       	pop	r29
    32e0:	cf 91       	pop	r28
    32e2:	08 95       	ret

000032e4 <start_time_ctrl>:

/*  T1T4 */
void start_time_ctrl(uint8_t slave_num)
{
    32e4:	cf 93       	push	r28
    32e6:	df 93       	push	r29
    32e8:	00 d0       	rcall	.+0      	; 0x32ea <start_time_ctrl+0x6>
    32ea:	00 d0       	rcall	.+0      	; 0x32ec <start_time_ctrl+0x8>
    32ec:	00 d0       	rcall	.+0      	; 0x32ee <start_time_ctrl+0xa>
    32ee:	cd b7       	in	r28, 0x3d	; 61
    32f0:	de b7       	in	r29, 0x3e	; 62
    32f2:	8e 83       	std	Y+6, r24	; 0x06
	uint8_t i, j;
	uint8_t cnt = 0; //
    32f4:	1b 82       	std	Y+3, r1	; 0x03
	uint16_t crc = 0;
    32f6:	1d 82       	std	Y+5, r1	; 0x05
    32f8:	1c 82       	std	Y+4, r1	; 0x04

	usart2_tx_buff[0] = 0xA5;
    32fa:	85 ea       	ldi	r24, 0xA5	; 165
    32fc:	80 93 06 06 	sts	0x0606, r24	; 0x800606 <usart2_tx_buff>
	usart2_tx_buff[1] = 0x5A;
    3300:	8a e5       	ldi	r24, 0x5A	; 90
    3302:	80 93 07 06 	sts	0x0607, r24	; 0x800607 <usart2_tx_buff+0x1>
	usart2_tx_buff[2] = 0x42;
    3306:	82 e4       	ldi	r24, 0x42	; 66
    3308:	80 93 08 06 	sts	0x0608, r24	; 0x800608 <usart2_tx_buff+0x2>
	usart2_tx_buff[3] = TIME_CTRL_START;
    330c:	8d e1       	ldi	r24, 0x1D	; 29
    330e:	80 93 09 06 	sts	0x0609, r24	; 0x800609 <usart2_tx_buff+0x3>
	usart2_tx_buff[4] = slave_num - 1;
    3312:	8e 81       	ldd	r24, Y+6	; 0x06
    3314:	81 50       	subi	r24, 0x01	; 1
    3316:	80 93 0a 06 	sts	0x060A, r24	; 0x80060a <usart2_tx_buff+0x4>

	for (i = 0; i < 8; i++)
    331a:	19 82       	std	Y+1, r1	; 0x01
    331c:	63 c0       	rjmp	.+198    	; 0x33e4 <start_time_ctrl+0x100>
	{
		for (j = 0; j < 4; j++)
    331e:	1a 82       	std	Y+2, r1	; 0x02
    3320:	5a c0       	rjmp	.+180    	; 0x33d6 <start_time_ctrl+0xf2>
		{
			usart2_tx_buff[cnt + 5] = time_ctrl_value[slave_num - 1][i][j] >> 8;
    3322:	8b 81       	ldd	r24, Y+3	; 0x03
    3324:	88 2f       	mov	r24, r24
    3326:	90 e0       	ldi	r25, 0x00	; 0
    3328:	05 96       	adiw	r24, 0x05	; 5
    332a:	2e 81       	ldd	r18, Y+6	; 0x06
    332c:	22 2f       	mov	r18, r18
    332e:	30 e0       	ldi	r19, 0x00	; 0
    3330:	b9 01       	movw	r22, r18
    3332:	61 50       	subi	r22, 0x01	; 1
    3334:	71 09       	sbc	r23, r1
    3336:	29 81       	ldd	r18, Y+1	; 0x01
    3338:	42 2f       	mov	r20, r18
    333a:	50 e0       	ldi	r21, 0x00	; 0
    333c:	2a 81       	ldd	r18, Y+2	; 0x02
    333e:	22 2f       	mov	r18, r18
    3340:	30 e0       	ldi	r19, 0x00	; 0
    3342:	66 0f       	add	r22, r22
    3344:	77 1f       	adc	r23, r23
    3346:	66 0f       	add	r22, r22
    3348:	77 1f       	adc	r23, r23
    334a:	66 0f       	add	r22, r22
    334c:	77 1f       	adc	r23, r23
    334e:	46 0f       	add	r20, r22
    3350:	57 1f       	adc	r21, r23
    3352:	44 0f       	add	r20, r20
    3354:	55 1f       	adc	r21, r21
    3356:	44 0f       	add	r20, r20
    3358:	55 1f       	adc	r21, r21
    335a:	24 0f       	add	r18, r20
    335c:	35 1f       	adc	r19, r21
    335e:	22 0f       	add	r18, r18
    3360:	33 1f       	adc	r19, r19
    3362:	25 57       	subi	r18, 0x75	; 117
    3364:	38 4f       	sbci	r19, 0xF8	; 248
    3366:	f9 01       	movw	r30, r18
    3368:	20 81       	ld	r18, Z
    336a:	31 81       	ldd	r19, Z+1	; 0x01
    336c:	23 2f       	mov	r18, r19
    336e:	33 27       	eor	r19, r19
    3370:	8a 5f       	subi	r24, 0xFA	; 250
    3372:	99 4f       	sbci	r25, 0xF9	; 249
    3374:	fc 01       	movw	r30, r24
    3376:	20 83       	st	Z, r18
			usart2_tx_buff[cnt + 6] = time_ctrl_value[slave_num - 1][i][j];
    3378:	8b 81       	ldd	r24, Y+3	; 0x03
    337a:	88 2f       	mov	r24, r24
    337c:	90 e0       	ldi	r25, 0x00	; 0
    337e:	06 96       	adiw	r24, 0x06	; 6
    3380:	2e 81       	ldd	r18, Y+6	; 0x06
    3382:	22 2f       	mov	r18, r18
    3384:	30 e0       	ldi	r19, 0x00	; 0
    3386:	b9 01       	movw	r22, r18
    3388:	61 50       	subi	r22, 0x01	; 1
    338a:	71 09       	sbc	r23, r1
    338c:	29 81       	ldd	r18, Y+1	; 0x01
    338e:	42 2f       	mov	r20, r18
    3390:	50 e0       	ldi	r21, 0x00	; 0
    3392:	2a 81       	ldd	r18, Y+2	; 0x02
    3394:	22 2f       	mov	r18, r18
    3396:	30 e0       	ldi	r19, 0x00	; 0
    3398:	66 0f       	add	r22, r22
    339a:	77 1f       	adc	r23, r23
    339c:	66 0f       	add	r22, r22
    339e:	77 1f       	adc	r23, r23
    33a0:	66 0f       	add	r22, r22
    33a2:	77 1f       	adc	r23, r23
    33a4:	46 0f       	add	r20, r22
    33a6:	57 1f       	adc	r21, r23
    33a8:	44 0f       	add	r20, r20
    33aa:	55 1f       	adc	r21, r21
    33ac:	44 0f       	add	r20, r20
    33ae:	55 1f       	adc	r21, r21
    33b0:	24 0f       	add	r18, r20
    33b2:	35 1f       	adc	r19, r21
    33b4:	22 0f       	add	r18, r18
    33b6:	33 1f       	adc	r19, r19
    33b8:	25 57       	subi	r18, 0x75	; 117
    33ba:	38 4f       	sbci	r19, 0xF8	; 248
    33bc:	f9 01       	movw	r30, r18
    33be:	20 81       	ld	r18, Z
    33c0:	31 81       	ldd	r19, Z+1	; 0x01
    33c2:	8a 5f       	subi	r24, 0xFA	; 250
    33c4:	99 4f       	sbci	r25, 0xF9	; 249
    33c6:	fc 01       	movw	r30, r24
    33c8:	20 83       	st	Z, r18
			cnt += 2;
    33ca:	8b 81       	ldd	r24, Y+3	; 0x03
    33cc:	8e 5f       	subi	r24, 0xFE	; 254
    33ce:	8b 83       	std	Y+3, r24	; 0x03
	usart2_tx_buff[3] = TIME_CTRL_START;
	usart2_tx_buff[4] = slave_num - 1;

	for (i = 0; i < 8; i++)
	{
		for (j = 0; j < 4; j++)
    33d0:	8a 81       	ldd	r24, Y+2	; 0x02
    33d2:	8f 5f       	subi	r24, 0xFF	; 255
    33d4:	8a 83       	std	Y+2, r24	; 0x02
    33d6:	8a 81       	ldd	r24, Y+2	; 0x02
    33d8:	84 30       	cpi	r24, 0x04	; 4
    33da:	08 f4       	brcc	.+2      	; 0x33de <start_time_ctrl+0xfa>
    33dc:	a2 cf       	rjmp	.-188    	; 0x3322 <start_time_ctrl+0x3e>
	usart2_tx_buff[1] = 0x5A;
	usart2_tx_buff[2] = 0x42;
	usart2_tx_buff[3] = TIME_CTRL_START;
	usart2_tx_buff[4] = slave_num - 1;

	for (i = 0; i < 8; i++)
    33de:	89 81       	ldd	r24, Y+1	; 0x01
    33e0:	8f 5f       	subi	r24, 0xFF	; 255
    33e2:	89 83       	std	Y+1, r24	; 0x01
    33e4:	89 81       	ldd	r24, Y+1	; 0x01
    33e6:	88 30       	cpi	r24, 0x08	; 8
    33e8:	08 f4       	brcc	.+2      	; 0x33ec <start_time_ctrl+0x108>
    33ea:	99 cf       	rjmp	.-206    	; 0x331e <start_time_ctrl+0x3a>
			usart2_tx_buff[cnt + 6] = time_ctrl_value[slave_num - 1][i][j];
			cnt += 2;
		}
	}

	crc = crc_check(usart2_tx_buff, 71);
    33ec:	67 e4       	ldi	r22, 0x47	; 71
    33ee:	86 e0       	ldi	r24, 0x06	; 6
    33f0:	96 e0       	ldi	r25, 0x06	; 6
    33f2:	0e 94 4d 35 	call	0x6a9a	; 0x6a9a <crc_check>
    33f6:	9d 83       	std	Y+5, r25	; 0x05
    33f8:	8c 83       	std	Y+4, r24	; 0x04

	usart2_tx_buff[69] = crc & 0x00FF;
    33fa:	8c 81       	ldd	r24, Y+4	; 0x04
    33fc:	80 93 4b 06 	sts	0x064B, r24	; 0x80064b <usart2_tx_buff+0x45>
	usart2_tx_buff[70] = crc >> 8;
    3400:	8c 81       	ldd	r24, Y+4	; 0x04
    3402:	9d 81       	ldd	r25, Y+5	; 0x05
    3404:	89 2f       	mov	r24, r25
    3406:	99 27       	eor	r25, r25
    3408:	80 93 4c 06 	sts	0x064C, r24	; 0x80064c <usart2_tx_buff+0x46>

	usart2_send_str(usart2_tx_buff, 71);
    340c:	67 e4       	ldi	r22, 0x47	; 71
    340e:	86 e0       	ldi	r24, 0x06	; 6
    3410:	96 e0       	ldi	r25, 0x06	; 6
    3412:	0e 94 22 35 	call	0x6a44	; 0x6a44 <usart2_send_str>

	module_status[slave_num - 1] = 1;
    3416:	8e 81       	ldd	r24, Y+6	; 0x06
    3418:	88 2f       	mov	r24, r24
    341a:	90 e0       	ldi	r25, 0x00	; 0
    341c:	01 97       	sbiw	r24, 0x01	; 1
    341e:	87 54       	subi	r24, 0x47	; 71
    3420:	9d 4f       	sbci	r25, 0xFD	; 253
    3422:	21 e0       	ldi	r18, 0x01	; 1
    3424:	fc 01       	movw	r30, r24
    3426:	20 83       	st	Z, r18
	send_variables(MODULE_STATUS_ADDR, module_status[slave_num - 1]);
    3428:	8e 81       	ldd	r24, Y+6	; 0x06
    342a:	88 2f       	mov	r24, r24
    342c:	90 e0       	ldi	r25, 0x00	; 0
    342e:	01 97       	sbiw	r24, 0x01	; 1
    3430:	87 54       	subi	r24, 0x47	; 71
    3432:	9d 4f       	sbci	r25, 0xFD	; 253
    3434:	fc 01       	movw	r30, r24
    3436:	80 81       	ld	r24, Z
    3438:	88 2f       	mov	r24, r24
    343a:	90 e0       	ldi	r25, 0x00	; 0
    343c:	bc 01       	movw	r22, r24
    343e:	80 e7       	ldi	r24, 0x70	; 112
    3440:	90 e0       	ldi	r25, 0x00	; 0
    3442:	0e 94 1f 1c 	call	0x383e	; 0x383e <send_variables>
	PORTA &= ~(1 << (7 - slave_num));
    3446:	8b e3       	ldi	r24, 0x3B	; 59
    3448:	90 e0       	ldi	r25, 0x00	; 0
    344a:	2b e3       	ldi	r18, 0x3B	; 59
    344c:	30 e0       	ldi	r19, 0x00	; 0
    344e:	f9 01       	movw	r30, r18
    3450:	20 81       	ld	r18, Z
    3452:	62 2f       	mov	r22, r18
    3454:	2e 81       	ldd	r18, Y+6	; 0x06
    3456:	22 2f       	mov	r18, r18
    3458:	30 e0       	ldi	r19, 0x00	; 0
    345a:	47 e0       	ldi	r20, 0x07	; 7
    345c:	50 e0       	ldi	r21, 0x00	; 0
    345e:	42 1b       	sub	r20, r18
    3460:	53 0b       	sbc	r21, r19
    3462:	21 e0       	ldi	r18, 0x01	; 1
    3464:	30 e0       	ldi	r19, 0x00	; 0
    3466:	02 c0       	rjmp	.+4      	; 0x346c <start_time_ctrl+0x188>
    3468:	22 0f       	add	r18, r18
    346a:	33 1f       	adc	r19, r19
    346c:	4a 95       	dec	r20
    346e:	e2 f7       	brpl	.-8      	; 0x3468 <start_time_ctrl+0x184>
    3470:	20 95       	com	r18
    3472:	26 23       	and	r18, r22
    3474:	fc 01       	movw	r30, r24
    3476:	20 83       	st	Z, r18
}
    3478:	00 00       	nop
    347a:	26 96       	adiw	r28, 0x06	; 6
    347c:	0f b6       	in	r0, 0x3f	; 63
    347e:	f8 94       	cli
    3480:	de bf       	out	0x3e, r29	; 62
    3482:	0f be       	out	0x3f, r0	; 63
    3484:	cd bf       	out	0x3d, r28	; 61
    3486:	df 91       	pop	r29
    3488:	cf 91       	pop	r28
    348a:	08 95       	ret

0000348c <time_ctrl_test>:

/**/
void time_ctrl_test(uint8_t slave_num, uint8_t command)
{
    348c:	cf 93       	push	r28
    348e:	df 93       	push	r29
    3490:	00 d0       	rcall	.+0      	; 0x3492 <time_ctrl_test+0x6>
    3492:	00 d0       	rcall	.+0      	; 0x3494 <time_ctrl_test+0x8>
    3494:	00 d0       	rcall	.+0      	; 0x3496 <time_ctrl_test+0xa>
    3496:	cd b7       	in	r28, 0x3d	; 61
    3498:	de b7       	in	r29, 0x3e	; 62
    349a:	8d 83       	std	Y+5, r24	; 0x05
    349c:	6e 83       	std	Y+6, r22	; 0x06
	uint8_t i;
	uint8_t cnt = 0; //
    349e:	1a 82       	std	Y+2, r1	; 0x02
	uint16_t crc = 0;
    34a0:	1c 82       	std	Y+4, r1	; 0x04
    34a2:	1b 82       	std	Y+3, r1	; 0x03

	usart2_tx_buff[0] = 0xA5;
    34a4:	85 ea       	ldi	r24, 0xA5	; 165
    34a6:	80 93 06 06 	sts	0x0606, r24	; 0x800606 <usart2_tx_buff>
	usart2_tx_buff[1] = 0x5A;
    34aa:	8a e5       	ldi	r24, 0x5A	; 90
    34ac:	80 93 07 06 	sts	0x0607, r24	; 0x800607 <usart2_tx_buff+0x1>
	usart2_tx_buff[2] = 0x0A;
    34b0:	8a e0       	ldi	r24, 0x0A	; 10
    34b2:	80 93 08 06 	sts	0x0608, r24	; 0x800608 <usart2_tx_buff+0x2>
	usart2_tx_buff[3] = command;
    34b6:	8e 81       	ldd	r24, Y+6	; 0x06
    34b8:	80 93 09 06 	sts	0x0609, r24	; 0x800609 <usart2_tx_buff+0x3>
	usart2_tx_buff[4] = slave_num - 1;
    34bc:	8d 81       	ldd	r24, Y+5	; 0x05
    34be:	81 50       	subi	r24, 0x01	; 1
    34c0:	80 93 0a 06 	sts	0x060A, r24	; 0x80060a <usart2_tx_buff+0x4>

	for (i = 0; i < 4; i++)
    34c4:	19 82       	std	Y+1, r1	; 0x01
    34c6:	60 c0       	rjmp	.+192    	; 0x3588 <time_ctrl_test+0xfc>
	{
		usart2_tx_buff[cnt + 5] = time_ctrl_value[slave_num - 1][command - 0x21][i] >> 8;
    34c8:	8a 81       	ldd	r24, Y+2	; 0x02
    34ca:	88 2f       	mov	r24, r24
    34cc:	90 e0       	ldi	r25, 0x00	; 0
    34ce:	05 96       	adiw	r24, 0x05	; 5
    34d0:	2d 81       	ldd	r18, Y+5	; 0x05
    34d2:	22 2f       	mov	r18, r18
    34d4:	30 e0       	ldi	r19, 0x00	; 0
    34d6:	b9 01       	movw	r22, r18
    34d8:	61 50       	subi	r22, 0x01	; 1
    34da:	71 09       	sbc	r23, r1
    34dc:	2e 81       	ldd	r18, Y+6	; 0x06
    34de:	22 2f       	mov	r18, r18
    34e0:	30 e0       	ldi	r19, 0x00	; 0
    34e2:	a9 01       	movw	r20, r18
    34e4:	41 52       	subi	r20, 0x21	; 33
    34e6:	51 09       	sbc	r21, r1
    34e8:	29 81       	ldd	r18, Y+1	; 0x01
    34ea:	22 2f       	mov	r18, r18
    34ec:	30 e0       	ldi	r19, 0x00	; 0
    34ee:	66 0f       	add	r22, r22
    34f0:	77 1f       	adc	r23, r23
    34f2:	66 0f       	add	r22, r22
    34f4:	77 1f       	adc	r23, r23
    34f6:	66 0f       	add	r22, r22
    34f8:	77 1f       	adc	r23, r23
    34fa:	46 0f       	add	r20, r22
    34fc:	57 1f       	adc	r21, r23
    34fe:	44 0f       	add	r20, r20
    3500:	55 1f       	adc	r21, r21
    3502:	44 0f       	add	r20, r20
    3504:	55 1f       	adc	r21, r21
    3506:	24 0f       	add	r18, r20
    3508:	35 1f       	adc	r19, r21
    350a:	22 0f       	add	r18, r18
    350c:	33 1f       	adc	r19, r19
    350e:	25 57       	subi	r18, 0x75	; 117
    3510:	38 4f       	sbci	r19, 0xF8	; 248
    3512:	f9 01       	movw	r30, r18
    3514:	20 81       	ld	r18, Z
    3516:	31 81       	ldd	r19, Z+1	; 0x01
    3518:	23 2f       	mov	r18, r19
    351a:	33 27       	eor	r19, r19
    351c:	8a 5f       	subi	r24, 0xFA	; 250
    351e:	99 4f       	sbci	r25, 0xF9	; 249
    3520:	fc 01       	movw	r30, r24
    3522:	20 83       	st	Z, r18
		usart2_tx_buff[cnt + 6] = time_ctrl_value[slave_num - 1][command - 0x21][i];
    3524:	8a 81       	ldd	r24, Y+2	; 0x02
    3526:	88 2f       	mov	r24, r24
    3528:	90 e0       	ldi	r25, 0x00	; 0
    352a:	06 96       	adiw	r24, 0x06	; 6
    352c:	2d 81       	ldd	r18, Y+5	; 0x05
    352e:	22 2f       	mov	r18, r18
    3530:	30 e0       	ldi	r19, 0x00	; 0
    3532:	b9 01       	movw	r22, r18
    3534:	61 50       	subi	r22, 0x01	; 1
    3536:	71 09       	sbc	r23, r1
    3538:	2e 81       	ldd	r18, Y+6	; 0x06
    353a:	22 2f       	mov	r18, r18
    353c:	30 e0       	ldi	r19, 0x00	; 0
    353e:	a9 01       	movw	r20, r18
    3540:	41 52       	subi	r20, 0x21	; 33
    3542:	51 09       	sbc	r21, r1
    3544:	29 81       	ldd	r18, Y+1	; 0x01
    3546:	22 2f       	mov	r18, r18
    3548:	30 e0       	ldi	r19, 0x00	; 0
    354a:	66 0f       	add	r22, r22
    354c:	77 1f       	adc	r23, r23
    354e:	66 0f       	add	r22, r22
    3550:	77 1f       	adc	r23, r23
    3552:	66 0f       	add	r22, r22
    3554:	77 1f       	adc	r23, r23
    3556:	46 0f       	add	r20, r22
    3558:	57 1f       	adc	r21, r23
    355a:	44 0f       	add	r20, r20
    355c:	55 1f       	adc	r21, r21
    355e:	44 0f       	add	r20, r20
    3560:	55 1f       	adc	r21, r21
    3562:	24 0f       	add	r18, r20
    3564:	35 1f       	adc	r19, r21
    3566:	22 0f       	add	r18, r18
    3568:	33 1f       	adc	r19, r19
    356a:	25 57       	subi	r18, 0x75	; 117
    356c:	38 4f       	sbci	r19, 0xF8	; 248
    356e:	f9 01       	movw	r30, r18
    3570:	20 81       	ld	r18, Z
    3572:	31 81       	ldd	r19, Z+1	; 0x01
    3574:	8a 5f       	subi	r24, 0xFA	; 250
    3576:	99 4f       	sbci	r25, 0xF9	; 249
    3578:	fc 01       	movw	r30, r24
    357a:	20 83       	st	Z, r18
		cnt += 2;
    357c:	8a 81       	ldd	r24, Y+2	; 0x02
    357e:	8e 5f       	subi	r24, 0xFE	; 254
    3580:	8a 83       	std	Y+2, r24	; 0x02
	usart2_tx_buff[1] = 0x5A;
	usart2_tx_buff[2] = 0x0A;
	usart2_tx_buff[3] = command;
	usart2_tx_buff[4] = slave_num - 1;

	for (i = 0; i < 4; i++)
    3582:	89 81       	ldd	r24, Y+1	; 0x01
    3584:	8f 5f       	subi	r24, 0xFF	; 255
    3586:	89 83       	std	Y+1, r24	; 0x01
    3588:	89 81       	ldd	r24, Y+1	; 0x01
    358a:	84 30       	cpi	r24, 0x04	; 4
    358c:	08 f4       	brcc	.+2      	; 0x3590 <time_ctrl_test+0x104>
    358e:	9c cf       	rjmp	.-200    	; 0x34c8 <time_ctrl_test+0x3c>
		usart2_tx_buff[cnt + 5] = time_ctrl_value[slave_num - 1][command - 0x21][i] >> 8;
		usart2_tx_buff[cnt + 6] = time_ctrl_value[slave_num - 1][command - 0x21][i];
		cnt += 2;
	}

	crc = crc_check(usart2_tx_buff, 15);
    3590:	6f e0       	ldi	r22, 0x0F	; 15
    3592:	86 e0       	ldi	r24, 0x06	; 6
    3594:	96 e0       	ldi	r25, 0x06	; 6
    3596:	0e 94 4d 35 	call	0x6a9a	; 0x6a9a <crc_check>
    359a:	9c 83       	std	Y+4, r25	; 0x04
    359c:	8b 83       	std	Y+3, r24	; 0x03

	usart2_tx_buff[13] = crc & 0x00FF;
    359e:	8b 81       	ldd	r24, Y+3	; 0x03
    35a0:	80 93 13 06 	sts	0x0613, r24	; 0x800613 <usart2_tx_buff+0xd>
	usart2_tx_buff[14] = crc >> 8;
    35a4:	8b 81       	ldd	r24, Y+3	; 0x03
    35a6:	9c 81       	ldd	r25, Y+4	; 0x04
    35a8:	89 2f       	mov	r24, r25
    35aa:	99 27       	eor	r25, r25
    35ac:	80 93 14 06 	sts	0x0614, r24	; 0x800614 <usart2_tx_buff+0xe>

	usart2_send_str(usart2_tx_buff, 15);
    35b0:	6f e0       	ldi	r22, 0x0F	; 15
    35b2:	86 e0       	ldi	r24, 0x06	; 6
    35b4:	96 e0       	ldi	r25, 0x06	; 6
    35b6:	0e 94 22 35 	call	0x6a44	; 0x6a44 <usart2_send_str>

	// module_status[slave_num - 1] = 1;
	// send_variables(MODULE_STATUS_ADDR, module_status[slave_num - 1]);
	// PORTA &= ~(1 << (7 - slave_num));
}
    35ba:	00 00       	nop
    35bc:	26 96       	adiw	r28, 0x06	; 6
    35be:	0f b6       	in	r0, 0x3f	; 63
    35c0:	f8 94       	cli
    35c2:	de bf       	out	0x3e, r29	; 62
    35c4:	0f be       	out	0x3f, r0	; 63
    35c6:	cd bf       	out	0x3d, r28	; 61
    35c8:	df 91       	pop	r29
    35ca:	cf 91       	pop	r28
    35cc:	08 95       	ret

000035ce <stop_time_ctrl>:

/*  T1T4 */
void stop_time_ctrl(uint8_t slave_num)
{
    35ce:	cf 93       	push	r28
    35d0:	df 93       	push	r29
    35d2:	00 d0       	rcall	.+0      	; 0x35d4 <stop_time_ctrl+0x6>
    35d4:	1f 92       	push	r1
    35d6:	cd b7       	in	r28, 0x3d	; 61
    35d8:	de b7       	in	r29, 0x3e	; 62
    35da:	8b 83       	std	Y+3, r24	; 0x03
	uint16_t crc = 0;
    35dc:	1a 82       	std	Y+2, r1	; 0x02
    35de:	19 82       	std	Y+1, r1	; 0x01

	usart2_tx_buff[0] = 0xA5;
    35e0:	85 ea       	ldi	r24, 0xA5	; 165
    35e2:	80 93 06 06 	sts	0x0606, r24	; 0x800606 <usart2_tx_buff>
	usart2_tx_buff[1] = 0x5A;
    35e6:	8a e5       	ldi	r24, 0x5A	; 90
    35e8:	80 93 07 06 	sts	0x0607, r24	; 0x800607 <usart2_tx_buff+0x1>
	usart2_tx_buff[2] = 0x02;
    35ec:	82 e0       	ldi	r24, 0x02	; 2
    35ee:	80 93 08 06 	sts	0x0608, r24	; 0x800608 <usart2_tx_buff+0x2>
	usart2_tx_buff[3] = TIME_CTRL_STOP;
    35f2:	8c e1       	ldi	r24, 0x1C	; 28
    35f4:	80 93 09 06 	sts	0x0609, r24	; 0x800609 <usart2_tx_buff+0x3>
	usart2_tx_buff[4] = slave_num - 1;
    35f8:	8b 81       	ldd	r24, Y+3	; 0x03
    35fa:	81 50       	subi	r24, 0x01	; 1
    35fc:	80 93 0a 06 	sts	0x060A, r24	; 0x80060a <usart2_tx_buff+0x4>

	crc = crc_check(usart2_tx_buff, 7);
    3600:	67 e0       	ldi	r22, 0x07	; 7
    3602:	86 e0       	ldi	r24, 0x06	; 6
    3604:	96 e0       	ldi	r25, 0x06	; 6
    3606:	0e 94 4d 35 	call	0x6a9a	; 0x6a9a <crc_check>
    360a:	9a 83       	std	Y+2, r25	; 0x02
    360c:	89 83       	std	Y+1, r24	; 0x01

	usart2_tx_buff[5] = crc & 0x00FF;
    360e:	89 81       	ldd	r24, Y+1	; 0x01
    3610:	80 93 0b 06 	sts	0x060B, r24	; 0x80060b <usart2_tx_buff+0x5>
	usart2_tx_buff[6] = crc >> 8;
    3614:	89 81       	ldd	r24, Y+1	; 0x01
    3616:	9a 81       	ldd	r25, Y+2	; 0x02
    3618:	89 2f       	mov	r24, r25
    361a:	99 27       	eor	r25, r25
    361c:	80 93 0c 06 	sts	0x060C, r24	; 0x80060c <usart2_tx_buff+0x6>

	usart2_send_str(usart2_tx_buff, 7);
    3620:	67 e0       	ldi	r22, 0x07	; 7
    3622:	86 e0       	ldi	r24, 0x06	; 6
    3624:	96 e0       	ldi	r25, 0x06	; 6
    3626:	0e 94 22 35 	call	0x6a44	; 0x6a44 <usart2_send_str>

	module_status[slave_num - 1] = 0;
    362a:	8b 81       	ldd	r24, Y+3	; 0x03
    362c:	88 2f       	mov	r24, r24
    362e:	90 e0       	ldi	r25, 0x00	; 0
    3630:	01 97       	sbiw	r24, 0x01	; 1
    3632:	87 54       	subi	r24, 0x47	; 71
    3634:	9d 4f       	sbci	r25, 0xFD	; 253
    3636:	fc 01       	movw	r30, r24
    3638:	10 82       	st	Z, r1
	send_variables(MODULE_STATUS_ADDR, module_status[slave_num - 1]);
    363a:	8b 81       	ldd	r24, Y+3	; 0x03
    363c:	88 2f       	mov	r24, r24
    363e:	90 e0       	ldi	r25, 0x00	; 0
    3640:	01 97       	sbiw	r24, 0x01	; 1
    3642:	87 54       	subi	r24, 0x47	; 71
    3644:	9d 4f       	sbci	r25, 0xFD	; 253
    3646:	fc 01       	movw	r30, r24
    3648:	80 81       	ld	r24, Z
    364a:	88 2f       	mov	r24, r24
    364c:	90 e0       	ldi	r25, 0x00	; 0
    364e:	bc 01       	movw	r22, r24
    3650:	80 e7       	ldi	r24, 0x70	; 112
    3652:	90 e0       	ldi	r25, 0x00	; 0
    3654:	0e 94 1f 1c 	call	0x383e	; 0x383e <send_variables>
	PORTA |= (1 << (7 - slave_num));
    3658:	8b e3       	ldi	r24, 0x3B	; 59
    365a:	90 e0       	ldi	r25, 0x00	; 0
    365c:	2b e3       	ldi	r18, 0x3B	; 59
    365e:	30 e0       	ldi	r19, 0x00	; 0
    3660:	f9 01       	movw	r30, r18
    3662:	20 81       	ld	r18, Z
    3664:	62 2f       	mov	r22, r18
    3666:	2b 81       	ldd	r18, Y+3	; 0x03
    3668:	22 2f       	mov	r18, r18
    366a:	30 e0       	ldi	r19, 0x00	; 0
    366c:	47 e0       	ldi	r20, 0x07	; 7
    366e:	50 e0       	ldi	r21, 0x00	; 0
    3670:	42 1b       	sub	r20, r18
    3672:	53 0b       	sbc	r21, r19
    3674:	21 e0       	ldi	r18, 0x01	; 1
    3676:	30 e0       	ldi	r19, 0x00	; 0
    3678:	02 c0       	rjmp	.+4      	; 0x367e <stop_time_ctrl+0xb0>
    367a:	22 0f       	add	r18, r18
    367c:	33 1f       	adc	r19, r19
    367e:	4a 95       	dec	r20
    3680:	e2 f7       	brpl	.-8      	; 0x367a <stop_time_ctrl+0xac>
    3682:	26 2b       	or	r18, r22
    3684:	fc 01       	movw	r30, r24
    3686:	20 83       	st	Z, r18
}
    3688:	00 00       	nop
    368a:	0f 90       	pop	r0
    368c:	0f 90       	pop	r0
    368e:	0f 90       	pop	r0
    3690:	df 91       	pop	r29
    3692:	cf 91       	pop	r28
    3694:	08 95       	ret

00003696 <update_alarm_page>:

void update_alarm_page(uint8_t page_num)
{
    3696:	cf 93       	push	r28
    3698:	df 93       	push	r29
    369a:	00 d0       	rcall	.+0      	; 0x369c <update_alarm_page+0x6>
    369c:	1f 92       	push	r1
    369e:	cd b7       	in	r28, 0x3d	; 61
    36a0:	de b7       	in	r29, 0x3e	; 62
    36a2:	8b 83       	std	Y+3, r24	; 0x03
	uint8_t i = 0;
    36a4:	19 82       	std	Y+1, r1	; 0x01
	uint8_t alarm_msg_num = 0;
    36a6:	1a 82       	std	Y+2, r1	; 0x02

	for (i = 0; i < 7; i++)
    36a8:	19 82       	std	Y+1, r1	; 0x01
    36aa:	6b c0       	rjmp	.+214    	; 0x3782 <update_alarm_page+0xec>
	{
		alarm_msg_num = alarm_cnt - i - (page_num - 1) * 7;
    36ac:	90 91 bd 02 	lds	r25, 0x02BD	; 0x8002bd <alarm_cnt>
    36b0:	89 81       	ldd	r24, Y+1	; 0x01
    36b2:	29 2f       	mov	r18, r25
    36b4:	28 1b       	sub	r18, r24
    36b6:	8b 81       	ldd	r24, Y+3	; 0x03
    36b8:	88 2f       	mov	r24, r24
    36ba:	90 e0       	ldi	r25, 0x00	; 0
    36bc:	01 97       	sbiw	r24, 0x01	; 1
    36be:	98 2f       	mov	r25, r24
    36c0:	89 ef       	ldi	r24, 0xF9	; 249
    36c2:	98 9f       	mul	r25, r24
    36c4:	80 2d       	mov	r24, r0
    36c6:	11 24       	eor	r1, r1
    36c8:	82 0f       	add	r24, r18
    36ca:	8a 83       	std	Y+2, r24	; 0x02
		send_variables(ALARM_PAGE_NUM1_ADDR + (i * 2), i + ((page_num - 1) * 7) + 1);
    36cc:	89 81       	ldd	r24, Y+1	; 0x01
    36ce:	48 2f       	mov	r20, r24
    36d0:	50 e0       	ldi	r21, 0x00	; 0
    36d2:	8b 81       	ldd	r24, Y+3	; 0x03
    36d4:	88 2f       	mov	r24, r24
    36d6:	90 e0       	ldi	r25, 0x00	; 0
    36d8:	9c 01       	movw	r18, r24
    36da:	21 50       	subi	r18, 0x01	; 1
    36dc:	31 09       	sbc	r19, r1
    36de:	c9 01       	movw	r24, r18
    36e0:	88 0f       	add	r24, r24
    36e2:	99 1f       	adc	r25, r25
    36e4:	88 0f       	add	r24, r24
    36e6:	99 1f       	adc	r25, r25
    36e8:	88 0f       	add	r24, r24
    36ea:	99 1f       	adc	r25, r25
    36ec:	82 1b       	sub	r24, r18
    36ee:	93 0b       	sbc	r25, r19
    36f0:	84 0f       	add	r24, r20
    36f2:	95 1f       	adc	r25, r21
    36f4:	01 96       	adiw	r24, 0x01	; 1
    36f6:	9c 01       	movw	r18, r24
    36f8:	89 81       	ldd	r24, Y+1	; 0x01
    36fa:	88 2f       	mov	r24, r24
    36fc:	90 e0       	ldi	r25, 0x00	; 0
    36fe:	82 96       	adiw	r24, 0x22	; 34
    3700:	88 0f       	add	r24, r24
    3702:	99 1f       	adc	r25, r25
    3704:	b9 01       	movw	r22, r18
    3706:	0e 94 1f 1c 	call	0x383e	; 0x383e <send_variables>

		if (alarm_cnt > i + (page_num - 1) * 7)
    370a:	80 91 bd 02 	lds	r24, 0x02BD	; 0x8002bd <alarm_cnt>
    370e:	48 2f       	mov	r20, r24
    3710:	50 e0       	ldi	r21, 0x00	; 0
    3712:	89 81       	ldd	r24, Y+1	; 0x01
    3714:	68 2f       	mov	r22, r24
    3716:	70 e0       	ldi	r23, 0x00	; 0
    3718:	8b 81       	ldd	r24, Y+3	; 0x03
    371a:	88 2f       	mov	r24, r24
    371c:	90 e0       	ldi	r25, 0x00	; 0
    371e:	9c 01       	movw	r18, r24
    3720:	21 50       	subi	r18, 0x01	; 1
    3722:	31 09       	sbc	r19, r1
    3724:	c9 01       	movw	r24, r18
    3726:	88 0f       	add	r24, r24
    3728:	99 1f       	adc	r25, r25
    372a:	88 0f       	add	r24, r24
    372c:	99 1f       	adc	r25, r25
    372e:	88 0f       	add	r24, r24
    3730:	99 1f       	adc	r25, r25
    3732:	82 1b       	sub	r24, r18
    3734:	93 0b       	sbc	r25, r19
    3736:	86 0f       	add	r24, r22
    3738:	97 1f       	adc	r25, r23
    373a:	84 17       	cp	r24, r20
    373c:	95 07       	cpc	r25, r21
    373e:	dc f4       	brge	.+54     	; 0x3776 <update_alarm_page+0xe0>
		{
			send_alarm_msg(alarm_history[alarm_msg_num - 1].alarm_type, i, alarm_history[alarm_msg_num - 1].alarm_device_num);
    3740:	8a 81       	ldd	r24, Y+2	; 0x02
    3742:	88 2f       	mov	r24, r24
    3744:	90 e0       	ldi	r25, 0x00	; 0
    3746:	01 97       	sbiw	r24, 0x01	; 1
    3748:	88 0f       	add	r24, r24
    374a:	99 1f       	adc	r25, r25
    374c:	8f 57       	subi	r24, 0x7F	; 127
    374e:	95 4f       	sbci	r25, 0xF5	; 245
    3750:	fc 01       	movw	r30, r24
    3752:	80 81       	ld	r24, Z
    3754:	28 2f       	mov	r18, r24
    3756:	30 e0       	ldi	r19, 0x00	; 0
    3758:	8a 81       	ldd	r24, Y+2	; 0x02
    375a:	88 2f       	mov	r24, r24
    375c:	90 e0       	ldi	r25, 0x00	; 0
    375e:	01 97       	sbiw	r24, 0x01	; 1
    3760:	88 0f       	add	r24, r24
    3762:	99 1f       	adc	r25, r25
    3764:	80 58       	subi	r24, 0x80	; 128
    3766:	95 4f       	sbci	r25, 0xF5	; 245
    3768:	fc 01       	movw	r30, r24
    376a:	80 81       	ld	r24, Z
    376c:	a9 01       	movw	r20, r18
    376e:	69 81       	ldd	r22, Y+1	; 0x01
    3770:	0e 94 11 1d 	call	0x3a22	; 0x3a22 <send_alarm_msg>
    3774:	03 c0       	rjmp	.+6      	; 0x377c <update_alarm_page+0xe6>
		}
		else
		{
			clear_alarm_msg(i);
    3776:	89 81       	ldd	r24, Y+1	; 0x01
    3778:	0e 94 48 22 	call	0x4490	; 0x4490 <clear_alarm_msg>
void update_alarm_page(uint8_t page_num)
{
	uint8_t i = 0;
	uint8_t alarm_msg_num = 0;

	for (i = 0; i < 7; i++)
    377c:	89 81       	ldd	r24, Y+1	; 0x01
    377e:	8f 5f       	subi	r24, 0xFF	; 255
    3780:	89 83       	std	Y+1, r24	; 0x01
    3782:	89 81       	ldd	r24, Y+1	; 0x01
    3784:	87 30       	cpi	r24, 0x07	; 7
    3786:	08 f4       	brcc	.+2      	; 0x378a <update_alarm_page+0xf4>
    3788:	91 cf       	rjmp	.-222    	; 0x36ac <update_alarm_page+0x16>
	for (; alarm_msg_num < 7; alarm_msg_num++)
	{
		clear_alarm_msg(alarm_msg_num);
	}
*/
}
    378a:	00 00       	nop
    378c:	0f 90       	pop	r0
    378e:	0f 90       	pop	r0
    3790:	0f 90       	pop	r0
    3792:	df 91       	pop	r29
    3794:	cf 91       	pop	r28
    3796:	08 95       	ret

00003798 <switch_language>:

void switch_language(void)
{
    3798:	cf 93       	push	r28
    379a:	df 93       	push	r29
    379c:	cd b7       	in	r28, 0x3d	; 61
    379e:	de b7       	in	r29, 0x3e	; 62
	if (pre_language == 1)
    37a0:	80 91 9a 01 	lds	r24, 0x019A	; 0x80019a <pre_language>
    37a4:	81 30       	cpi	r24, 0x01	; 1
    37a6:	21 f4       	brne	.+8      	; 0x37b0 <switch_language+0x18>
	{
		change_page(3); //13
    37a8:	83 e0       	ldi	r24, 0x03	; 3
    37aa:	0e 94 e6 1b 	call	0x37cc	; 0x37cc <change_page>
    37ae:	03 c0       	rjmp	.+6      	; 0x37b6 <switch_language+0x1e>
	}
	else
	{
		change_page(1);
    37b0:	81 e0       	ldi	r24, 0x01	; 1
    37b2:	0e 94 e6 1b 	call	0x37cc	; 0x37cc <change_page>
	}

	eeprom_write_byte((uint8_t *)PRE_LANGUAGE_EEADDR, pre_language);
    37b6:	80 91 9a 01 	lds	r24, 0x019A	; 0x80019a <pre_language>
    37ba:	68 2f       	mov	r22, r24
    37bc:	81 e0       	ldi	r24, 0x01	; 1
    37be:	90 e0       	ldi	r25, 0x00	; 0
    37c0:	0e 94 0e 38 	call	0x701c	; 0x701c <eeprom_write_byte>
}
    37c4:	00 00       	nop
    37c6:	df 91       	pop	r29
    37c8:	cf 91       	pop	r28
    37ca:	08 95       	ret

000037cc <change_page>:

void change_page(uint8_t page_num)
{
    37cc:	cf 93       	push	r28
    37ce:	df 93       	push	r29
    37d0:	00 d0       	rcall	.+0      	; 0x37d2 <change_page+0x6>
    37d2:	1f 92       	push	r1
    37d4:	cd b7       	in	r28, 0x3d	; 61
    37d6:	de b7       	in	r29, 0x3e	; 62
    37d8:	8b 83       	std	Y+3, r24	; 0x03
	uint16_t crc = 0;
    37da:	1a 82       	std	Y+2, r1	; 0x02
    37dc:	19 82       	std	Y+1, r1	; 0x01

	usart0_tx_buff[0] = 0xA5;
    37de:	85 ea       	ldi	r24, 0xA5	; 165
    37e0:	80 93 a8 03 	sts	0x03A8, r24	; 0x8003a8 <usart0_tx_buff>
	usart0_tx_buff[1] = 0x5A;
    37e4:	8a e5       	ldi	r24, 0x5A	; 90
    37e6:	80 93 a9 03 	sts	0x03A9, r24	; 0x8003a9 <usart0_tx_buff+0x1>
	usart0_tx_buff[2] = 0x04; //4.34  56
    37ea:	84 e0       	ldi	r24, 0x04	; 4
    37ec:	80 93 aa 03 	sts	0x03AA, r24	; 0x8003aa <usart0_tx_buff+0x2>
	usart0_tx_buff[3] = 0x80;
    37f0:	80 e8       	ldi	r24, 0x80	; 128
    37f2:	80 93 ab 03 	sts	0x03AB, r24	; 0x8003ab <usart0_tx_buff+0x3>
	usart0_tx_buff[4] = 0x03;
    37f6:	83 e0       	ldi	r24, 0x03	; 3
    37f8:	80 93 ac 03 	sts	0x03AC, r24	; 0x8003ac <usart0_tx_buff+0x4>
	usart0_tx_buff[5] = 0x00;
    37fc:	10 92 ad 03 	sts	0x03AD, r1	; 0x8003ad <usart0_tx_buff+0x5>
	usart0_tx_buff[6] = page_num;
    3800:	8b 81       	ldd	r24, Y+3	; 0x03
    3802:	80 93 ae 03 	sts	0x03AE, r24	; 0x8003ae <usart0_tx_buff+0x6>

	crc = crc_check(usart0_tx_buff, 9);
    3806:	69 e0       	ldi	r22, 0x09	; 9
    3808:	88 ea       	ldi	r24, 0xA8	; 168
    380a:	93 e0       	ldi	r25, 0x03	; 3
    380c:	0e 94 4d 35 	call	0x6a9a	; 0x6a9a <crc_check>
    3810:	9a 83       	std	Y+2, r25	; 0x02
    3812:	89 83       	std	Y+1, r24	; 0x01

	usart0_tx_buff[7] = crc & 0x00FF;
    3814:	89 81       	ldd	r24, Y+1	; 0x01
    3816:	80 93 af 03 	sts	0x03AF, r24	; 0x8003af <usart0_tx_buff+0x7>
	usart0_tx_buff[8] = crc >> 8;
    381a:	89 81       	ldd	r24, Y+1	; 0x01
    381c:	9a 81       	ldd	r25, Y+2	; 0x02
    381e:	89 2f       	mov	r24, r25
    3820:	99 27       	eor	r25, r25
    3822:	80 93 b0 03 	sts	0x03B0, r24	; 0x8003b0 <usart0_tx_buff+0x8>

	usart0_send_str(usart0_tx_buff, 9);
    3826:	69 e0       	ldi	r22, 0x09	; 9
    3828:	88 ea       	ldi	r24, 0xA8	; 168
    382a:	93 e0       	ldi	r25, 0x03	; 3
    382c:	0e 94 94 34 	call	0x6928	; 0x6928 <usart0_send_str>
}
    3830:	00 00       	nop
    3832:	0f 90       	pop	r0
    3834:	0f 90       	pop	r0
    3836:	0f 90       	pop	r0
    3838:	df 91       	pop	r29
    383a:	cf 91       	pop	r28
    383c:	08 95       	ret

0000383e <send_variables>:
* @brief  dgus
* @param  addr  data
* @retval None
*/
void send_variables(uint16_t addr, uint16_t data)
{
    383e:	cf 93       	push	r28
    3840:	df 93       	push	r29
    3842:	00 d0       	rcall	.+0      	; 0x3844 <send_variables+0x6>
    3844:	00 d0       	rcall	.+0      	; 0x3846 <send_variables+0x8>
    3846:	00 d0       	rcall	.+0      	; 0x3848 <send_variables+0xa>
    3848:	cd b7       	in	r28, 0x3d	; 61
    384a:	de b7       	in	r29, 0x3e	; 62
    384c:	9c 83       	std	Y+4, r25	; 0x04
    384e:	8b 83       	std	Y+3, r24	; 0x03
    3850:	7e 83       	std	Y+6, r23	; 0x06
    3852:	6d 83       	std	Y+5, r22	; 0x05
	uint16_t crc = 0;
    3854:	1a 82       	std	Y+2, r1	; 0x02
    3856:	19 82       	std	Y+1, r1	; 0x01
	usart0_tx_buff[0] = 0xA5;
    3858:	85 ea       	ldi	r24, 0xA5	; 165
    385a:	80 93 a8 03 	sts	0x03A8, r24	; 0x8003a8 <usart0_tx_buff>
	usart0_tx_buff[1] = 0x5A;
    385e:	8a e5       	ldi	r24, 0x5A	; 90
    3860:	80 93 a9 03 	sts	0x03A9, r24	; 0x8003a9 <usart0_tx_buff+0x1>
	usart0_tx_buff[2] = 0x05;
    3864:	85 e0       	ldi	r24, 0x05	; 5
    3866:	80 93 aa 03 	sts	0x03AA, r24	; 0x8003aa <usart0_tx_buff+0x2>
	usart0_tx_buff[3] = 0x82;
    386a:	82 e8       	ldi	r24, 0x82	; 130
    386c:	80 93 ab 03 	sts	0x03AB, r24	; 0x8003ab <usart0_tx_buff+0x3>
	usart0_tx_buff[4] = addr >> 8;
    3870:	8b 81       	ldd	r24, Y+3	; 0x03
    3872:	9c 81       	ldd	r25, Y+4	; 0x04
    3874:	89 2f       	mov	r24, r25
    3876:	99 27       	eor	r25, r25
    3878:	80 93 ac 03 	sts	0x03AC, r24	; 0x8003ac <usart0_tx_buff+0x4>
	usart0_tx_buff[5] = addr & 0x00FF;
    387c:	8b 81       	ldd	r24, Y+3	; 0x03
    387e:	80 93 ad 03 	sts	0x03AD, r24	; 0x8003ad <usart0_tx_buff+0x5>
	usart0_tx_buff[6] = data >> 8;
    3882:	8d 81       	ldd	r24, Y+5	; 0x05
    3884:	9e 81       	ldd	r25, Y+6	; 0x06
    3886:	89 2f       	mov	r24, r25
    3888:	99 27       	eor	r25, r25
    388a:	80 93 ae 03 	sts	0x03AE, r24	; 0x8003ae <usart0_tx_buff+0x6>
	usart0_tx_buff[7] = data & 0x00FF;
    388e:	8d 81       	ldd	r24, Y+5	; 0x05
    3890:	80 93 af 03 	sts	0x03AF, r24	; 0x8003af <usart0_tx_buff+0x7>

	crc = crc_check(usart0_tx_buff, 10);
    3894:	6a e0       	ldi	r22, 0x0A	; 10
    3896:	88 ea       	ldi	r24, 0xA8	; 168
    3898:	93 e0       	ldi	r25, 0x03	; 3
    389a:	0e 94 4d 35 	call	0x6a9a	; 0x6a9a <crc_check>
    389e:	9a 83       	std	Y+2, r25	; 0x02
    38a0:	89 83       	std	Y+1, r24	; 0x01

	usart0_tx_buff[8] = crc & 0x00FF;
    38a2:	89 81       	ldd	r24, Y+1	; 0x01
    38a4:	80 93 b0 03 	sts	0x03B0, r24	; 0x8003b0 <usart0_tx_buff+0x8>
	usart0_tx_buff[9] = crc >> 8;
    38a8:	89 81       	ldd	r24, Y+1	; 0x01
    38aa:	9a 81       	ldd	r25, Y+2	; 0x02
    38ac:	89 2f       	mov	r24, r25
    38ae:	99 27       	eor	r25, r25
    38b0:	80 93 b1 03 	sts	0x03B1, r24	; 0x8003b1 <usart0_tx_buff+0x9>

	usart0_send_str(usart0_tx_buff, 10);
    38b4:	6a e0       	ldi	r22, 0x0A	; 10
    38b6:	88 ea       	ldi	r24, 0xA8	; 168
    38b8:	93 e0       	ldi	r25, 0x03	; 3
    38ba:	0e 94 94 34 	call	0x6928	; 0x6928 <usart0_send_str>
}
    38be:	00 00       	nop
    38c0:	26 96       	adiw	r28, 0x06	; 6
    38c2:	0f b6       	in	r0, 0x3f	; 63
    38c4:	f8 94       	cli
    38c6:	de bf       	out	0x3e, r29	; 62
    38c8:	0f be       	out	0x3f, r0	; 63
    38ca:	cd bf       	out	0x3d, r28	; 61
    38cc:	df 91       	pop	r29
    38ce:	cf 91       	pop	r28
    38d0:	08 95       	ret

000038d2 <send_name>:

void send_name(uint16_t addr, uint32_t name)
{
    38d2:	cf 93       	push	r28
    38d4:	df 93       	push	r29
    38d6:	cd b7       	in	r28, 0x3d	; 61
    38d8:	de b7       	in	r29, 0x3e	; 62
    38da:	28 97       	sbiw	r28, 0x08	; 8
    38dc:	0f b6       	in	r0, 0x3f	; 63
    38de:	f8 94       	cli
    38e0:	de bf       	out	0x3e, r29	; 62
    38e2:	0f be       	out	0x3f, r0	; 63
    38e4:	cd bf       	out	0x3d, r28	; 61
    38e6:	9c 83       	std	Y+4, r25	; 0x04
    38e8:	8b 83       	std	Y+3, r24	; 0x03
    38ea:	4d 83       	std	Y+5, r20	; 0x05
    38ec:	5e 83       	std	Y+6, r21	; 0x06
    38ee:	6f 83       	std	Y+7, r22	; 0x07
    38f0:	78 87       	std	Y+8, r23	; 0x08
	uint16_t crc = 0;
    38f2:	1a 82       	std	Y+2, r1	; 0x02
    38f4:	19 82       	std	Y+1, r1	; 0x01

	usart0_tx_buff[0] = 0xA5;
    38f6:	85 ea       	ldi	r24, 0xA5	; 165
    38f8:	80 93 a8 03 	sts	0x03A8, r24	; 0x8003a8 <usart0_tx_buff>
	usart0_tx_buff[1] = 0x5A;
    38fc:	8a e5       	ldi	r24, 0x5A	; 90
    38fe:	80 93 a9 03 	sts	0x03A9, r24	; 0x8003a9 <usart0_tx_buff+0x1>
	usart0_tx_buff[2] = 0x07;
    3902:	87 e0       	ldi	r24, 0x07	; 7
    3904:	80 93 aa 03 	sts	0x03AA, r24	; 0x8003aa <usart0_tx_buff+0x2>
	usart0_tx_buff[3] = 0x82;
    3908:	82 e8       	ldi	r24, 0x82	; 130
    390a:	80 93 ab 03 	sts	0x03AB, r24	; 0x8003ab <usart0_tx_buff+0x3>
	usart0_tx_buff[4] = addr >> 8;
    390e:	8b 81       	ldd	r24, Y+3	; 0x03
    3910:	9c 81       	ldd	r25, Y+4	; 0x04
    3912:	89 2f       	mov	r24, r25
    3914:	99 27       	eor	r25, r25
    3916:	80 93 ac 03 	sts	0x03AC, r24	; 0x8003ac <usart0_tx_buff+0x4>
	usart0_tx_buff[5] = addr & 0x00FF;
    391a:	8b 81       	ldd	r24, Y+3	; 0x03
    391c:	80 93 ad 03 	sts	0x03AD, r24	; 0x8003ad <usart0_tx_buff+0x5>
	usart0_tx_buff[6] = name >> 24;
    3920:	8d 81       	ldd	r24, Y+5	; 0x05
    3922:	9e 81       	ldd	r25, Y+6	; 0x06
    3924:	af 81       	ldd	r26, Y+7	; 0x07
    3926:	b8 85       	ldd	r27, Y+8	; 0x08
    3928:	8b 2f       	mov	r24, r27
    392a:	99 27       	eor	r25, r25
    392c:	aa 27       	eor	r26, r26
    392e:	bb 27       	eor	r27, r27
    3930:	80 93 ae 03 	sts	0x03AE, r24	; 0x8003ae <usart0_tx_buff+0x6>
	usart0_tx_buff[7] = name >> 16;
    3934:	8d 81       	ldd	r24, Y+5	; 0x05
    3936:	9e 81       	ldd	r25, Y+6	; 0x06
    3938:	af 81       	ldd	r26, Y+7	; 0x07
    393a:	b8 85       	ldd	r27, Y+8	; 0x08
    393c:	cd 01       	movw	r24, r26
    393e:	aa 27       	eor	r26, r26
    3940:	bb 27       	eor	r27, r27
    3942:	80 93 af 03 	sts	0x03AF, r24	; 0x8003af <usart0_tx_buff+0x7>
	usart0_tx_buff[8] = name >> 8;
    3946:	8d 81       	ldd	r24, Y+5	; 0x05
    3948:	9e 81       	ldd	r25, Y+6	; 0x06
    394a:	af 81       	ldd	r26, Y+7	; 0x07
    394c:	b8 85       	ldd	r27, Y+8	; 0x08
    394e:	89 2f       	mov	r24, r25
    3950:	9a 2f       	mov	r25, r26
    3952:	ab 2f       	mov	r26, r27
    3954:	bb 27       	eor	r27, r27
    3956:	80 93 b0 03 	sts	0x03B0, r24	; 0x8003b0 <usart0_tx_buff+0x8>
	usart0_tx_buff[9] = name;
    395a:	8d 81       	ldd	r24, Y+5	; 0x05
    395c:	80 93 b1 03 	sts	0x03B1, r24	; 0x8003b1 <usart0_tx_buff+0x9>

	crc = crc_check(usart0_tx_buff, 12);
    3960:	6c e0       	ldi	r22, 0x0C	; 12
    3962:	88 ea       	ldi	r24, 0xA8	; 168
    3964:	93 e0       	ldi	r25, 0x03	; 3
    3966:	0e 94 4d 35 	call	0x6a9a	; 0x6a9a <crc_check>
    396a:	9a 83       	std	Y+2, r25	; 0x02
    396c:	89 83       	std	Y+1, r24	; 0x01

	usart0_tx_buff[10] = crc & 0x00FF;
    396e:	89 81       	ldd	r24, Y+1	; 0x01
    3970:	80 93 b2 03 	sts	0x03B2, r24	; 0x8003b2 <usart0_tx_buff+0xa>
	usart0_tx_buff[11] = crc >> 8;
    3974:	89 81       	ldd	r24, Y+1	; 0x01
    3976:	9a 81       	ldd	r25, Y+2	; 0x02
    3978:	89 2f       	mov	r24, r25
    397a:	99 27       	eor	r25, r25
    397c:	80 93 b3 03 	sts	0x03B3, r24	; 0x8003b3 <usart0_tx_buff+0xb>

	usart0_send_str(usart0_tx_buff, 12);
    3980:	6c e0       	ldi	r22, 0x0C	; 12
    3982:	88 ea       	ldi	r24, 0xA8	; 168
    3984:	93 e0       	ldi	r25, 0x03	; 3
    3986:	0e 94 94 34 	call	0x6928	; 0x6928 <usart0_send_str>
}
    398a:	00 00       	nop
    398c:	28 96       	adiw	r28, 0x08	; 8
    398e:	0f b6       	in	r0, 0x3f	; 63
    3990:	f8 94       	cli
    3992:	de bf       	out	0x3e, r29	; 62
    3994:	0f be       	out	0x3f, r0	; 63
    3996:	cd bf       	out	0x3d, r28	; 61
    3998:	df 91       	pop	r29
    399a:	cf 91       	pop	r28
    399c:	08 95       	ret

0000399e <send_to_channel>:

void send_to_channel(uint8_t ch, uint16_t value)
{
    399e:	cf 93       	push	r28
    39a0:	df 93       	push	r29
    39a2:	00 d0       	rcall	.+0      	; 0x39a4 <send_to_channel+0x6>
    39a4:	00 d0       	rcall	.+0      	; 0x39a6 <send_to_channel+0x8>
    39a6:	1f 92       	push	r1
    39a8:	cd b7       	in	r28, 0x3d	; 61
    39aa:	de b7       	in	r29, 0x3e	; 62
    39ac:	8b 83       	std	Y+3, r24	; 0x03
    39ae:	7d 83       	std	Y+5, r23	; 0x05
    39b0:	6c 83       	std	Y+4, r22	; 0x04
	uint16_t crc = 0;
    39b2:	1a 82       	std	Y+2, r1	; 0x02
    39b4:	19 82       	std	Y+1, r1	; 0x01

	usart0_tx_buff[0] = 0xA5;
    39b6:	85 ea       	ldi	r24, 0xA5	; 165
    39b8:	80 93 a8 03 	sts	0x03A8, r24	; 0x8003a8 <usart0_tx_buff>
	usart0_tx_buff[1] = 0x5A;
    39bc:	8a e5       	ldi	r24, 0x5A	; 90
    39be:	80 93 a9 03 	sts	0x03A9, r24	; 0x8003a9 <usart0_tx_buff+0x1>
	usart0_tx_buff[2] = 0x04;
    39c2:	84 e0       	ldi	r24, 0x04	; 4
    39c4:	80 93 aa 03 	sts	0x03AA, r24	; 0x8003aa <usart0_tx_buff+0x2>
	usart0_tx_buff[3] = 0x84;
    39c8:	84 e8       	ldi	r24, 0x84	; 132
    39ca:	80 93 ab 03 	sts	0x03AB, r24	; 0x8003ab <usart0_tx_buff+0x3>
	usart0_tx_buff[4] = ch;
    39ce:	8b 81       	ldd	r24, Y+3	; 0x03
    39d0:	80 93 ac 03 	sts	0x03AC, r24	; 0x8003ac <usart0_tx_buff+0x4>
	usart0_tx_buff[5] = value >> 8;
    39d4:	8c 81       	ldd	r24, Y+4	; 0x04
    39d6:	9d 81       	ldd	r25, Y+5	; 0x05
    39d8:	89 2f       	mov	r24, r25
    39da:	99 27       	eor	r25, r25
    39dc:	80 93 ad 03 	sts	0x03AD, r24	; 0x8003ad <usart0_tx_buff+0x5>
	usart0_tx_buff[6] = value;
    39e0:	8c 81       	ldd	r24, Y+4	; 0x04
    39e2:	80 93 ae 03 	sts	0x03AE, r24	; 0x8003ae <usart0_tx_buff+0x6>

	crc = crc_check(usart0_tx_buff, 9);
    39e6:	69 e0       	ldi	r22, 0x09	; 9
    39e8:	88 ea       	ldi	r24, 0xA8	; 168
    39ea:	93 e0       	ldi	r25, 0x03	; 3
    39ec:	0e 94 4d 35 	call	0x6a9a	; 0x6a9a <crc_check>
    39f0:	9a 83       	std	Y+2, r25	; 0x02
    39f2:	89 83       	std	Y+1, r24	; 0x01

	usart0_tx_buff[7] = crc & 0x00FF;
    39f4:	89 81       	ldd	r24, Y+1	; 0x01
    39f6:	80 93 af 03 	sts	0x03AF, r24	; 0x8003af <usart0_tx_buff+0x7>
	usart0_tx_buff[8] = crc >> 8;
    39fa:	89 81       	ldd	r24, Y+1	; 0x01
    39fc:	9a 81       	ldd	r25, Y+2	; 0x02
    39fe:	89 2f       	mov	r24, r25
    3a00:	99 27       	eor	r25, r25
    3a02:	80 93 b0 03 	sts	0x03B0, r24	; 0x8003b0 <usart0_tx_buff+0x8>

	usart0_send_str(usart0_tx_buff, 9);
    3a06:	69 e0       	ldi	r22, 0x09	; 9
    3a08:	88 ea       	ldi	r24, 0xA8	; 168
    3a0a:	93 e0       	ldi	r25, 0x03	; 3
    3a0c:	0e 94 94 34 	call	0x6928	; 0x6928 <usart0_send_str>
}
    3a10:	00 00       	nop
    3a12:	0f 90       	pop	r0
    3a14:	0f 90       	pop	r0
    3a16:	0f 90       	pop	r0
    3a18:	0f 90       	pop	r0
    3a1a:	0f 90       	pop	r0
    3a1c:	df 91       	pop	r29
    3a1e:	cf 91       	pop	r28
    3a20:	08 95       	ret

00003a22 <send_alarm_msg>:

void send_alarm_msg(uint8_t type, uint8_t msg_num, uint16_t sen_num)
{
    3a22:	cf 93       	push	r28
    3a24:	df 93       	push	r29
    3a26:	cd b7       	in	r28, 0x3d	; 61
    3a28:	de b7       	in	r29, 0x3e	; 62
    3a2a:	29 97       	sbiw	r28, 0x09	; 9
    3a2c:	0f b6       	in	r0, 0x3f	; 63
    3a2e:	f8 94       	cli
    3a30:	de bf       	out	0x3e, r29	; 62
    3a32:	0f be       	out	0x3f, r0	; 63
    3a34:	cd bf       	out	0x3d, r28	; 61
    3a36:	8e 83       	std	Y+6, r24	; 0x06
    3a38:	6f 83       	std	Y+7, r22	; 0x07
    3a3a:	59 87       	std	Y+9, r21	; 0x09
    3a3c:	48 87       	std	Y+8, r20	; 0x08
	uint8_t i = 0;
    3a3e:	19 82       	std	Y+1, r1	; 0x01
	uint16_t crc = 0;
    3a40:	1d 82       	std	Y+5, r1	; 0x05
    3a42:	1c 82       	std	Y+4, r1	; 0x04
	uint16_t sensor_num = 0;
    3a44:	1b 82       	std	Y+3, r1	; 0x03
    3a46:	1a 82       	std	Y+2, r1	; 0x02

	usart0_tx_buff[0] = 0xA5;
    3a48:	85 ea       	ldi	r24, 0xA5	; 165
    3a4a:	80 93 a8 03 	sts	0x03A8, r24	; 0x8003a8 <usart0_tx_buff>
	usart0_tx_buff[1] = 0x5A;
    3a4e:	8a e5       	ldi	r24, 0x5A	; 90
    3a50:	80 93 a9 03 	sts	0x03A9, r24	; 0x8003a9 <usart0_tx_buff+0x1>
	usart0_tx_buff[2] = 0x13;
    3a54:	83 e1       	ldi	r24, 0x13	; 19
    3a56:	80 93 aa 03 	sts	0x03AA, r24	; 0x8003aa <usart0_tx_buff+0x2>
	usart0_tx_buff[3] = 0x82;
    3a5a:	82 e8       	ldi	r24, 0x82	; 130
    3a5c:	80 93 ab 03 	sts	0x03AB, r24	; 0x8003ab <usart0_tx_buff+0x3>
	usart0_tx_buff[4] = (ALAEM_MSG1_ADDR + (msg_num * 16)) >> 8;
    3a60:	8f 81       	ldd	r24, Y+7	; 0x07
    3a62:	88 2f       	mov	r24, r24
    3a64:	90 e0       	ldi	r25, 0x00	; 0
    3a66:	8b 96       	adiw	r24, 0x2b	; 43
    3a68:	82 95       	swap	r24
    3a6a:	92 95       	swap	r25
    3a6c:	90 7f       	andi	r25, 0xF0	; 240
    3a6e:	98 27       	eor	r25, r24
    3a70:	80 7f       	andi	r24, 0xF0	; 240
    3a72:	98 27       	eor	r25, r24
    3a74:	89 2f       	mov	r24, r25
    3a76:	99 0f       	add	r25, r25
    3a78:	99 0b       	sbc	r25, r25
    3a7a:	80 93 ac 03 	sts	0x03AC, r24	; 0x8003ac <usart0_tx_buff+0x4>
	usart0_tx_buff[5] = (ALAEM_MSG1_ADDR + (msg_num * 16)) & 0x00FF;
    3a7e:	8f 81       	ldd	r24, Y+7	; 0x07
    3a80:	88 2f       	mov	r24, r24
    3a82:	90 e0       	ldi	r25, 0x00	; 0
    3a84:	8b 96       	adiw	r24, 0x2b	; 43
    3a86:	82 95       	swap	r24
    3a88:	80 7f       	andi	r24, 0xF0	; 240
    3a8a:	80 93 ad 03 	sts	0x03AD, r24	; 0x8003ad <usart0_tx_buff+0x5>

	for (i = 0; i < 16; i++)
    3a8e:	19 82       	std	Y+1, r1	; 0x01
    3a90:	1d c0       	rjmp	.+58     	; 0x3acc <send_alarm_msg+0xaa>
	{
		usart0_tx_buff[i + 6] = alarm_msg[type][i];
    3a92:	89 81       	ldd	r24, Y+1	; 0x01
    3a94:	88 2f       	mov	r24, r24
    3a96:	90 e0       	ldi	r25, 0x00	; 0
    3a98:	06 96       	adiw	r24, 0x06	; 6
    3a9a:	2e 81       	ldd	r18, Y+6	; 0x06
    3a9c:	42 2f       	mov	r20, r18
    3a9e:	50 e0       	ldi	r21, 0x00	; 0
    3aa0:	29 81       	ldd	r18, Y+1	; 0x01
    3aa2:	22 2f       	mov	r18, r18
    3aa4:	30 e0       	ldi	r19, 0x00	; 0
    3aa6:	42 95       	swap	r20
    3aa8:	52 95       	swap	r21
    3aaa:	50 7f       	andi	r21, 0xF0	; 240
    3aac:	54 27       	eor	r21, r20
    3aae:	40 7f       	andi	r20, 0xF0	; 240
    3ab0:	54 27       	eor	r21, r20
    3ab2:	24 0f       	add	r18, r20
    3ab4:	35 1f       	adc	r19, r21
    3ab6:	29 5f       	subi	r18, 0xF9	; 249
    3ab8:	3e 4f       	sbci	r19, 0xFE	; 254
    3aba:	f9 01       	movw	r30, r18
    3abc:	20 81       	ld	r18, Z
    3abe:	88 55       	subi	r24, 0x58	; 88
    3ac0:	9c 4f       	sbci	r25, 0xFC	; 252
    3ac2:	fc 01       	movw	r30, r24
    3ac4:	20 83       	st	Z, r18
	usart0_tx_buff[2] = 0x13;
	usart0_tx_buff[3] = 0x82;
	usart0_tx_buff[4] = (ALAEM_MSG1_ADDR + (msg_num * 16)) >> 8;
	usart0_tx_buff[5] = (ALAEM_MSG1_ADDR + (msg_num * 16)) & 0x00FF;

	for (i = 0; i < 16; i++)
    3ac6:	89 81       	ldd	r24, Y+1	; 0x01
    3ac8:	8f 5f       	subi	r24, 0xFF	; 255
    3aca:	89 83       	std	Y+1, r24	; 0x01
    3acc:	89 81       	ldd	r24, Y+1	; 0x01
    3ace:	80 31       	cpi	r24, 0x10	; 16
    3ad0:	00 f3       	brcs	.-64     	; 0x3a92 <send_alarm_msg+0x70>
	{
		usart0_tx_buff[i + 6] = alarm_msg[type][i];
	}

	crc = crc_check(usart0_tx_buff, 24);
    3ad2:	68 e1       	ldi	r22, 0x18	; 24
    3ad4:	88 ea       	ldi	r24, 0xA8	; 168
    3ad6:	93 e0       	ldi	r25, 0x03	; 3
    3ad8:	0e 94 4d 35 	call	0x6a9a	; 0x6a9a <crc_check>
    3adc:	9d 83       	std	Y+5, r25	; 0x05
    3ade:	8c 83       	std	Y+4, r24	; 0x04

	usart0_tx_buff[22] = crc & 0x00FF;
    3ae0:	8c 81       	ldd	r24, Y+4	; 0x04
    3ae2:	80 93 be 03 	sts	0x03BE, r24	; 0x8003be <usart0_tx_buff+0x16>
	usart0_tx_buff[23] = crc >> 8;
    3ae6:	8c 81       	ldd	r24, Y+4	; 0x04
    3ae8:	9d 81       	ldd	r25, Y+5	; 0x05
    3aea:	89 2f       	mov	r24, r25
    3aec:	99 27       	eor	r25, r25
    3aee:	80 93 bf 03 	sts	0x03BF, r24	; 0x8003bf <usart0_tx_buff+0x17>

	usart0_send_str(usart0_tx_buff, 24);
    3af2:	68 e1       	ldi	r22, 0x18	; 24
    3af4:	88 ea       	ldi	r24, 0xA8	; 168
    3af6:	93 e0       	ldi	r25, 0x03	; 3
    3af8:	0e 94 94 34 	call	0x6928	; 0x6928 <usart0_send_str>

	if (sen_num <= 8)
    3afc:	88 85       	ldd	r24, Y+8	; 0x08
    3afe:	99 85       	ldd	r25, Y+9	; 0x09
    3b00:	09 97       	sbiw	r24, 0x09	; 9
    3b02:	38 f4       	brcc	.+14     	; 0x3b12 <send_alarm_msg+0xf0>
	{
		sensor_num = 0x2300 | (sen_num + 49);
    3b04:	88 85       	ldd	r24, Y+8	; 0x08
    3b06:	99 85       	ldd	r25, Y+9	; 0x09
    3b08:	c1 96       	adiw	r24, 0x31	; 49
    3b0a:	93 62       	ori	r25, 0x23	; 35
    3b0c:	9b 83       	std	Y+3, r25	; 0x03
    3b0e:	8a 83       	std	Y+2, r24	; 0x02
    3b10:	06 c0       	rjmp	.+12     	; 0x3b1e <send_alarm_msg+0xfc>
	}
	else
	{
		sensor_num = 0x2300 | (sen_num + 56);
    3b12:	88 85       	ldd	r24, Y+8	; 0x08
    3b14:	99 85       	ldd	r25, Y+9	; 0x09
    3b16:	c8 96       	adiw	r24, 0x38	; 56
    3b18:	93 62       	ori	r25, 0x23	; 35
    3b1a:	9b 83       	std	Y+3, r25	; 0x03
    3b1c:	8a 83       	std	Y+2, r24	; 0x02
	}

	send_variables(ALARM_DEVICE_NUM1_ADDR + (msg_num * 2), sensor_num);
    3b1e:	8f 81       	ldd	r24, Y+7	; 0x07
    3b20:	88 2f       	mov	r24, r24
    3b22:	90 e0       	ldi	r25, 0x00	; 0
    3b24:	80 57       	subi	r24, 0x70	; 112
    3b26:	9e 4f       	sbci	r25, 0xFE	; 254
    3b28:	88 0f       	add	r24, r24
    3b2a:	99 1f       	adc	r25, r25
    3b2c:	9c 01       	movw	r18, r24
    3b2e:	8a 81       	ldd	r24, Y+2	; 0x02
    3b30:	9b 81       	ldd	r25, Y+3	; 0x03
    3b32:	bc 01       	movw	r22, r24
    3b34:	c9 01       	movw	r24, r18
    3b36:	0e 94 1f 1c 	call	0x383e	; 0x383e <send_variables>
}
    3b3a:	00 00       	nop
    3b3c:	29 96       	adiw	r28, 0x09	; 9
    3b3e:	0f b6       	in	r0, 0x3f	; 63
    3b40:	f8 94       	cli
    3b42:	de bf       	out	0x3e, r29	; 62
    3b44:	0f be       	out	0x3f, r0	; 63
    3b46:	cd bf       	out	0x3d, r28	; 61
    3b48:	df 91       	pop	r29
    3b4a:	cf 91       	pop	r28
    3b4c:	08 95       	ret

00003b4e <read_setting_data_all>:

/*  */
void read_setting_data_all(void)
{
    3b4e:	0f 93       	push	r16
    3b50:	1f 93       	push	r17
    3b52:	cf 93       	push	r28
    3b54:	df 93       	push	r29
    3b56:	00 d0       	rcall	.+0      	; 0x3b58 <read_setting_data_all+0xa>
    3b58:	cd b7       	in	r28, 0x3d	; 61
    3b5a:	de b7       	in	r29, 0x3e	; 62
	uint8_t i, j; //i:   j

	for (i = 0; i < TEMP_CTRL_BOARD_QUANTITY; i++)
    3b5c:	19 82       	std	Y+1, r1	; 0x01
    3b5e:	33 c0       	rjmp	.+102    	; 0x3bc6 <read_setting_data_all+0x78>
	{
		ctrl_board_sta[i] = read_setting_data(i + 1);
    3b60:	89 81       	ldd	r24, Y+1	; 0x01
    3b62:	08 2f       	mov	r16, r24
    3b64:	10 e0       	ldi	r17, 0x00	; 0
    3b66:	89 81       	ldd	r24, Y+1	; 0x01
    3b68:	8f 5f       	subi	r24, 0xFF	; 255
    3b6a:	0e 94 ee 1d 	call	0x3bdc	; 0x3bdc <read_setting_data>
    3b6e:	28 2f       	mov	r18, r24
    3b70:	c8 01       	movw	r24, r16
    3b72:	8d 55       	subi	r24, 0x5D	; 93
    3b74:	9e 4f       	sbci	r25, 0xFE	; 254
    3b76:	fc 01       	movw	r30, r24
    3b78:	20 83       	st	Z, r18

		if (ctrl_board_sta[i] == 0)
    3b7a:	89 81       	ldd	r24, Y+1	; 0x01
    3b7c:	88 2f       	mov	r24, r24
    3b7e:	90 e0       	ldi	r25, 0x00	; 0
    3b80:	8d 55       	subi	r24, 0x5D	; 93
    3b82:	9e 4f       	sbci	r25, 0xFE	; 254
    3b84:	fc 01       	movw	r30, r24
    3b86:	80 81       	ld	r24, Z
    3b88:	88 23       	and	r24, r24
    3b8a:	d1 f4       	brne	.+52     	; 0x3bc0 <read_setting_data_all+0x72>
		{
			for (j = 0; j < 4; j++)
    3b8c:	1a 82       	std	Y+2, r1	; 0x02
    3b8e:	15 c0       	rjmp	.+42     	; 0x3bba <read_setting_data_all+0x6c>
			{
				sensor_sta[i * 4 + j] = 3;
    3b90:	89 81       	ldd	r24, Y+1	; 0x01
    3b92:	88 2f       	mov	r24, r24
    3b94:	90 e0       	ldi	r25, 0x00	; 0
    3b96:	9c 01       	movw	r18, r24
    3b98:	22 0f       	add	r18, r18
    3b9a:	33 1f       	adc	r19, r19
    3b9c:	22 0f       	add	r18, r18
    3b9e:	33 1f       	adc	r19, r19
    3ba0:	8a 81       	ldd	r24, Y+2	; 0x02
    3ba2:	88 2f       	mov	r24, r24
    3ba4:	90 e0       	ldi	r25, 0x00	; 0
    3ba6:	82 0f       	add	r24, r18
    3ba8:	93 1f       	adc	r25, r19
    3baa:	8f 53       	subi	r24, 0x3F	; 63
    3bac:	9e 4f       	sbci	r25, 0xFE	; 254
    3bae:	23 e0       	ldi	r18, 0x03	; 3
    3bb0:	fc 01       	movw	r30, r24
    3bb2:	20 83       	st	Z, r18
	{
		ctrl_board_sta[i] = read_setting_data(i + 1);

		if (ctrl_board_sta[i] == 0)
		{
			for (j = 0; j < 4; j++)
    3bb4:	8a 81       	ldd	r24, Y+2	; 0x02
    3bb6:	8f 5f       	subi	r24, 0xFF	; 255
    3bb8:	8a 83       	std	Y+2, r24	; 0x02
    3bba:	8a 81       	ldd	r24, Y+2	; 0x02
    3bbc:	84 30       	cpi	r24, 0x04	; 4
    3bbe:	40 f3       	brcs	.-48     	; 0x3b90 <read_setting_data_all+0x42>
/*  */
void read_setting_data_all(void)
{
	uint8_t i, j; //i:   j

	for (i = 0; i < TEMP_CTRL_BOARD_QUANTITY; i++)
    3bc0:	89 81       	ldd	r24, Y+1	; 0x01
    3bc2:	8f 5f       	subi	r24, 0xFF	; 255
    3bc4:	89 83       	std	Y+1, r24	; 0x01
    3bc6:	89 81       	ldd	r24, Y+1	; 0x01
    3bc8:	86 30       	cpi	r24, 0x06	; 6
    3bca:	50 f2       	brcs	.-108    	; 0x3b60 <read_setting_data_all+0x12>
			{
				sensor_sta[i * 4 + j] = 3;
			}
		}
	}
}
    3bcc:	00 00       	nop
    3bce:	0f 90       	pop	r0
    3bd0:	0f 90       	pop	r0
    3bd2:	df 91       	pop	r29
    3bd4:	cf 91       	pop	r28
    3bd6:	1f 91       	pop	r17
    3bd8:	0f 91       	pop	r16
    3bda:	08 95       	ret

00003bdc <read_setting_data>:
/*
*
*0: 1:
*/
uint8_t read_setting_data(uint8_t addr)
{
    3bdc:	cf 93       	push	r28
    3bde:	df 93       	push	r29
    3be0:	00 d0       	rcall	.+0      	; 0x3be2 <read_setting_data+0x6>
    3be2:	00 d0       	rcall	.+0      	; 0x3be4 <read_setting_data+0x8>
    3be4:	1f 92       	push	r1
    3be6:	cd b7       	in	r28, 0x3d	; 61
    3be8:	de b7       	in	r29, 0x3e	; 62
    3bea:	8d 83       	std	Y+5, r24	; 0x05
	uint8_t board_sta = 0;
    3bec:	19 82       	std	Y+1, r1	; 0x01
	uint16_t crc = 0;
    3bee:	1c 82       	std	Y+4, r1	; 0x04
    3bf0:	1b 82       	std	Y+3, r1	; 0x03
	uint8_t i;
	read_setting_data_mask = 0;
    3bf2:	10 92 cf 02 	sts	0x02CF, r1	; 0x8002cf <read_setting_data_mask>
	read_setting_data_cnt = 0;
    3bf6:	10 92 d0 02 	sts	0x02D0, r1	; 0x8002d0 <read_setting_data_cnt>

	for (i = 1; i < 5; i++)
    3bfa:	81 e0       	ldi	r24, 0x01	; 1
    3bfc:	8a 83       	std	Y+2, r24	; 0x02
    3bfe:	55 c0       	rjmp	.+170    	; 0x3caa <read_setting_data+0xce>
	{
		usart1_tx_buff[0] = 0xA5;
    3c00:	85 ea       	ldi	r24, 0xA5	; 165
    3c02:	80 93 3b 05 	sts	0x053B, r24	; 0x80053b <usart1_tx_buff>
		usart1_tx_buff[1] = 0x5A;
    3c06:	8a e5       	ldi	r24, 0x5A	; 90
    3c08:	80 93 3c 05 	sts	0x053C, r24	; 0x80053c <usart1_tx_buff+0x1>
		usart1_tx_buff[2] = 0x02;
    3c0c:	82 e0       	ldi	r24, 0x02	; 2
    3c0e:	80 93 3d 05 	sts	0x053D, r24	; 0x80053d <usart1_tx_buff+0x2>
		usart1_tx_buff[3] = READ_SETTING_DATA;
    3c12:	87 e0       	ldi	r24, 0x07	; 7
    3c14:	80 93 3e 05 	sts	0x053E, r24	; 0x80053e <usart1_tx_buff+0x3>
		usart1_tx_buff[4] = (addr << 4) + i;
    3c18:	8d 81       	ldd	r24, Y+5	; 0x05
    3c1a:	98 2f       	mov	r25, r24
    3c1c:	92 95       	swap	r25
    3c1e:	90 7f       	andi	r25, 0xF0	; 240
    3c20:	8a 81       	ldd	r24, Y+2	; 0x02
    3c22:	89 0f       	add	r24, r25
    3c24:	80 93 3f 05 	sts	0x053F, r24	; 0x80053f <usart1_tx_buff+0x4>

		crc = crc_check(usart1_tx_buff, 7);
    3c28:	67 e0       	ldi	r22, 0x07	; 7
    3c2a:	8b e3       	ldi	r24, 0x3B	; 59
    3c2c:	95 e0       	ldi	r25, 0x05	; 5
    3c2e:	0e 94 4d 35 	call	0x6a9a	; 0x6a9a <crc_check>
    3c32:	9c 83       	std	Y+4, r25	; 0x04
    3c34:	8b 83       	std	Y+3, r24	; 0x03

		usart1_tx_buff[5] = crc & 0x00FF;
    3c36:	8b 81       	ldd	r24, Y+3	; 0x03
    3c38:	80 93 40 05 	sts	0x0540, r24	; 0x800540 <usart1_tx_buff+0x5>
		usart1_tx_buff[6] = crc >> 8;
    3c3c:	8b 81       	ldd	r24, Y+3	; 0x03
    3c3e:	9c 81       	ldd	r25, Y+4	; 0x04
    3c40:	89 2f       	mov	r24, r25
    3c42:	99 27       	eor	r25, r25
    3c44:	80 93 41 05 	sts	0x0541, r24	; 0x800541 <usart1_tx_buff+0x6>

		usart1_send_str(usart1_tx_buff, 7);
    3c48:	67 e0       	ldi	r22, 0x07	; 7
    3c4a:	8b e3       	ldi	r24, 0x3B	; 59
    3c4c:	95 e0       	ldi	r25, 0x05	; 5
    3c4e:	0e 94 d5 34 	call	0x69aa	; 0x69aa <usart1_send_str>

		while (read_setting_data_mask != 1)
    3c52:	20 c0       	rjmp	.+64     	; 0x3c94 <read_setting_data+0xb8>
		{
			if (usart1_rx_end)
    3c54:	80 91 03 06 	lds	r24, 0x0603	; 0x800603 <usart1_rx_end>
    3c58:	88 23       	and	r24, r24
    3c5a:	e1 f0       	breq	.+56     	; 0x3c94 <read_setting_data+0xb8>
			{
				usart1_deal();
    3c5c:	0e 94 1c 34 	call	0x6838	; 0x6838 <usart1_deal>
				usart1_rx_end = 0;
    3c60:	10 92 03 06 	sts	0x0603, r1	; 0x800603 <usart1_rx_end>

				if (usart1_rx_buff[4] == ((addr << 4) + i))
    3c64:	80 91 77 04 	lds	r24, 0x0477	; 0x800477 <usart1_rx_buff+0x4>
    3c68:	28 2f       	mov	r18, r24
    3c6a:	30 e0       	ldi	r19, 0x00	; 0
    3c6c:	8d 81       	ldd	r24, Y+5	; 0x05
    3c6e:	88 2f       	mov	r24, r24
    3c70:	90 e0       	ldi	r25, 0x00	; 0
    3c72:	ac 01       	movw	r20, r24
    3c74:	42 95       	swap	r20
    3c76:	52 95       	swap	r21
    3c78:	50 7f       	andi	r21, 0xF0	; 240
    3c7a:	54 27       	eor	r21, r20
    3c7c:	40 7f       	andi	r20, 0xF0	; 240
    3c7e:	54 27       	eor	r21, r20
    3c80:	8a 81       	ldd	r24, Y+2	; 0x02
    3c82:	88 2f       	mov	r24, r24
    3c84:	90 e0       	ldi	r25, 0x00	; 0
    3c86:	84 0f       	add	r24, r20
    3c88:	95 1f       	adc	r25, r21
    3c8a:	28 17       	cp	r18, r24
    3c8c:	39 07       	cpc	r19, r25
    3c8e:	11 f4       	brne	.+4      	; 0x3c94 <read_setting_data+0xb8>
				{
					board_sta = 1;
    3c90:	81 e0       	ldi	r24, 0x01	; 1
    3c92:	89 83       	std	Y+1, r24	; 0x01
		usart1_tx_buff[5] = crc & 0x00FF;
		usart1_tx_buff[6] = crc >> 8;

		usart1_send_str(usart1_tx_buff, 7);

		while (read_setting_data_mask != 1)
    3c94:	80 91 cf 02 	lds	r24, 0x02CF	; 0x8002cf <read_setting_data_mask>
    3c98:	81 30       	cpi	r24, 0x01	; 1
    3c9a:	e1 f6       	brne	.-72     	; 0x3c54 <read_setting_data+0x78>
				{
					board_sta = 1;
				}
			}
		}
		read_setting_data_mask = 0;
    3c9c:	10 92 cf 02 	sts	0x02CF, r1	; 0x8002cf <read_setting_data_mask>
		read_setting_data_cnt = 0;
    3ca0:	10 92 d0 02 	sts	0x02D0, r1	; 0x8002d0 <read_setting_data_cnt>
	uint16_t crc = 0;
	uint8_t i;
	read_setting_data_mask = 0;
	read_setting_data_cnt = 0;

	for (i = 1; i < 5; i++)
    3ca4:	8a 81       	ldd	r24, Y+2	; 0x02
    3ca6:	8f 5f       	subi	r24, 0xFF	; 255
    3ca8:	8a 83       	std	Y+2, r24	; 0x02
    3caa:	8a 81       	ldd	r24, Y+2	; 0x02
    3cac:	85 30       	cpi	r24, 0x05	; 5
    3cae:	08 f4       	brcc	.+2      	; 0x3cb2 <read_setting_data+0xd6>
    3cb0:	a7 cf       	rjmp	.-178    	; 0x3c00 <read_setting_data+0x24>
			}
		}
		read_setting_data_mask = 0;
		read_setting_data_cnt = 0;
	}
	return board_sta;
    3cb2:	89 81       	ldd	r24, Y+1	; 0x01
}
    3cb4:	0f 90       	pop	r0
    3cb6:	0f 90       	pop	r0
    3cb8:	0f 90       	pop	r0
    3cba:	0f 90       	pop	r0
    3cbc:	0f 90       	pop	r0
    3cbe:	df 91       	pop	r29
    3cc0:	cf 91       	pop	r28
    3cc2:	08 95       	ret

00003cc4 <get_setting_data>:
void get_setting_data(uint8_t addr)
{
    3cc4:	cf 93       	push	r28
    3cc6:	df 93       	push	r29
    3cc8:	00 d0       	rcall	.+0      	; 0x3cca <get_setting_data+0x6>
    3cca:	1f 92       	push	r1
    3ccc:	cd b7       	in	r28, 0x3d	; 61
    3cce:	de b7       	in	r29, 0x3e	; 62
    3cd0:	8b 83       	std	Y+3, r24	; 0x03
	uint8_t i;
	uint8_t iqr_num = ((addr >> 4) - 1) * 4 + (addr & 0x0F) - 1;
    3cd2:	8b 81       	ldd	r24, Y+3	; 0x03
    3cd4:	82 95       	swap	r24
    3cd6:	8f 70       	andi	r24, 0x0F	; 15
    3cd8:	88 2f       	mov	r24, r24
    3cda:	90 e0       	ldi	r25, 0x00	; 0
    3cdc:	01 97       	sbiw	r24, 0x01	; 1
    3cde:	98 2f       	mov	r25, r24
    3ce0:	99 0f       	add	r25, r25
    3ce2:	99 0f       	add	r25, r25
    3ce4:	8b 81       	ldd	r24, Y+3	; 0x03
    3ce6:	8f 70       	andi	r24, 0x0F	; 15
    3ce8:	89 0f       	add	r24, r25
    3cea:	81 50       	subi	r24, 0x01	; 1
    3cec:	8a 83       	std	Y+2, r24	; 0x02

	set_name[iqr_num] = usart1_rx_buff[5];
    3cee:	8a 81       	ldd	r24, Y+2	; 0x02
    3cf0:	28 2f       	mov	r18, r24
    3cf2:	30 e0       	ldi	r19, 0x00	; 0
    3cf4:	80 91 78 04 	lds	r24, 0x0478	; 0x800478 <usart1_rx_buff+0x5>
    3cf8:	88 2f       	mov	r24, r24
    3cfa:	90 e0       	ldi	r25, 0x00	; 0
    3cfc:	a0 e0       	ldi	r26, 0x00	; 0
    3cfe:	b0 e0       	ldi	r27, 0x00	; 0
    3d00:	22 0f       	add	r18, r18
    3d02:	33 1f       	adc	r19, r19
    3d04:	22 0f       	add	r18, r18
    3d06:	33 1f       	adc	r19, r19
    3d08:	24 5f       	subi	r18, 0xF4	; 244
    3d0a:	34 4f       	sbci	r19, 0xF4	; 244
    3d0c:	f9 01       	movw	r30, r18
    3d0e:	80 83       	st	Z, r24
    3d10:	91 83       	std	Z+1, r25	; 0x01
    3d12:	a2 83       	std	Z+2, r26	; 0x02
    3d14:	b3 83       	std	Z+3, r27	; 0x03
	set_name[iqr_num] = (set_name[iqr_num] << 8) | usart1_rx_buff[6];
    3d16:	8a 81       	ldd	r24, Y+2	; 0x02
    3d18:	68 2f       	mov	r22, r24
    3d1a:	70 e0       	ldi	r23, 0x00	; 0
    3d1c:	8a 81       	ldd	r24, Y+2	; 0x02
    3d1e:	88 2f       	mov	r24, r24
    3d20:	90 e0       	ldi	r25, 0x00	; 0
    3d22:	88 0f       	add	r24, r24
    3d24:	99 1f       	adc	r25, r25
    3d26:	88 0f       	add	r24, r24
    3d28:	99 1f       	adc	r25, r25
    3d2a:	84 5f       	subi	r24, 0xF4	; 244
    3d2c:	94 4f       	sbci	r25, 0xF4	; 244
    3d2e:	fc 01       	movw	r30, r24
    3d30:	80 81       	ld	r24, Z
    3d32:	91 81       	ldd	r25, Z+1	; 0x01
    3d34:	a2 81       	ldd	r26, Z+2	; 0x02
    3d36:	b3 81       	ldd	r27, Z+3	; 0x03
    3d38:	22 27       	eor	r18, r18
    3d3a:	38 2f       	mov	r19, r24
    3d3c:	49 2f       	mov	r20, r25
    3d3e:	5a 2f       	mov	r21, r26
    3d40:	80 91 79 04 	lds	r24, 0x0479	; 0x800479 <usart1_rx_buff+0x6>
    3d44:	88 2f       	mov	r24, r24
    3d46:	90 e0       	ldi	r25, 0x00	; 0
    3d48:	a0 e0       	ldi	r26, 0x00	; 0
    3d4a:	b0 e0       	ldi	r27, 0x00	; 0
    3d4c:	82 2b       	or	r24, r18
    3d4e:	93 2b       	or	r25, r19
    3d50:	a4 2b       	or	r26, r20
    3d52:	b5 2b       	or	r27, r21
    3d54:	9b 01       	movw	r18, r22
    3d56:	22 0f       	add	r18, r18
    3d58:	33 1f       	adc	r19, r19
    3d5a:	22 0f       	add	r18, r18
    3d5c:	33 1f       	adc	r19, r19
    3d5e:	24 5f       	subi	r18, 0xF4	; 244
    3d60:	34 4f       	sbci	r19, 0xF4	; 244
    3d62:	f9 01       	movw	r30, r18
    3d64:	80 83       	st	Z, r24
    3d66:	91 83       	std	Z+1, r25	; 0x01
    3d68:	a2 83       	std	Z+2, r26	; 0x02
    3d6a:	b3 83       	std	Z+3, r27	; 0x03
	set_name[iqr_num] = (set_name[iqr_num] << 8) | usart1_rx_buff[7];
    3d6c:	8a 81       	ldd	r24, Y+2	; 0x02
    3d6e:	68 2f       	mov	r22, r24
    3d70:	70 e0       	ldi	r23, 0x00	; 0
    3d72:	8a 81       	ldd	r24, Y+2	; 0x02
    3d74:	88 2f       	mov	r24, r24
    3d76:	90 e0       	ldi	r25, 0x00	; 0
    3d78:	88 0f       	add	r24, r24
    3d7a:	99 1f       	adc	r25, r25
    3d7c:	88 0f       	add	r24, r24
    3d7e:	99 1f       	adc	r25, r25
    3d80:	84 5f       	subi	r24, 0xF4	; 244
    3d82:	94 4f       	sbci	r25, 0xF4	; 244
    3d84:	fc 01       	movw	r30, r24
    3d86:	80 81       	ld	r24, Z
    3d88:	91 81       	ldd	r25, Z+1	; 0x01
    3d8a:	a2 81       	ldd	r26, Z+2	; 0x02
    3d8c:	b3 81       	ldd	r27, Z+3	; 0x03
    3d8e:	22 27       	eor	r18, r18
    3d90:	38 2f       	mov	r19, r24
    3d92:	49 2f       	mov	r20, r25
    3d94:	5a 2f       	mov	r21, r26
    3d96:	80 91 7a 04 	lds	r24, 0x047A	; 0x80047a <usart1_rx_buff+0x7>
    3d9a:	88 2f       	mov	r24, r24
    3d9c:	90 e0       	ldi	r25, 0x00	; 0
    3d9e:	a0 e0       	ldi	r26, 0x00	; 0
    3da0:	b0 e0       	ldi	r27, 0x00	; 0
    3da2:	82 2b       	or	r24, r18
    3da4:	93 2b       	or	r25, r19
    3da6:	a4 2b       	or	r26, r20
    3da8:	b5 2b       	or	r27, r21
    3daa:	9b 01       	movw	r18, r22
    3dac:	22 0f       	add	r18, r18
    3dae:	33 1f       	adc	r19, r19
    3db0:	22 0f       	add	r18, r18
    3db2:	33 1f       	adc	r19, r19
    3db4:	24 5f       	subi	r18, 0xF4	; 244
    3db6:	34 4f       	sbci	r19, 0xF4	; 244
    3db8:	f9 01       	movw	r30, r18
    3dba:	80 83       	st	Z, r24
    3dbc:	91 83       	std	Z+1, r25	; 0x01
    3dbe:	a2 83       	std	Z+2, r26	; 0x02
    3dc0:	b3 83       	std	Z+3, r27	; 0x03
	set_name[iqr_num] = (set_name[iqr_num] << 8) | usart1_rx_buff[8];
    3dc2:	8a 81       	ldd	r24, Y+2	; 0x02
    3dc4:	68 2f       	mov	r22, r24
    3dc6:	70 e0       	ldi	r23, 0x00	; 0
    3dc8:	8a 81       	ldd	r24, Y+2	; 0x02
    3dca:	88 2f       	mov	r24, r24
    3dcc:	90 e0       	ldi	r25, 0x00	; 0
    3dce:	88 0f       	add	r24, r24
    3dd0:	99 1f       	adc	r25, r25
    3dd2:	88 0f       	add	r24, r24
    3dd4:	99 1f       	adc	r25, r25
    3dd6:	84 5f       	subi	r24, 0xF4	; 244
    3dd8:	94 4f       	sbci	r25, 0xF4	; 244
    3dda:	fc 01       	movw	r30, r24
    3ddc:	80 81       	ld	r24, Z
    3dde:	91 81       	ldd	r25, Z+1	; 0x01
    3de0:	a2 81       	ldd	r26, Z+2	; 0x02
    3de2:	b3 81       	ldd	r27, Z+3	; 0x03
    3de4:	22 27       	eor	r18, r18
    3de6:	38 2f       	mov	r19, r24
    3de8:	49 2f       	mov	r20, r25
    3dea:	5a 2f       	mov	r21, r26
    3dec:	80 91 7b 04 	lds	r24, 0x047B	; 0x80047b <usart1_rx_buff+0x8>
    3df0:	88 2f       	mov	r24, r24
    3df2:	90 e0       	ldi	r25, 0x00	; 0
    3df4:	a0 e0       	ldi	r26, 0x00	; 0
    3df6:	b0 e0       	ldi	r27, 0x00	; 0
    3df8:	82 2b       	or	r24, r18
    3dfa:	93 2b       	or	r25, r19
    3dfc:	a4 2b       	or	r26, r20
    3dfe:	b5 2b       	or	r27, r21
    3e00:	9b 01       	movw	r18, r22
    3e02:	22 0f       	add	r18, r18
    3e04:	33 1f       	adc	r19, r19
    3e06:	22 0f       	add	r18, r18
    3e08:	33 1f       	adc	r19, r19
    3e0a:	24 5f       	subi	r18, 0xF4	; 244
    3e0c:	34 4f       	sbci	r19, 0xF4	; 244
    3e0e:	f9 01       	movw	r30, r18
    3e10:	80 83       	st	Z, r24
    3e12:	91 83       	std	Z+1, r25	; 0x01
    3e14:	a2 83       	std	Z+2, r26	; 0x02
    3e16:	b3 83       	std	Z+3, r27	; 0x03

	set_temp[iqr_num] = usart1_rx_buff[9];
    3e18:	8a 81       	ldd	r24, Y+2	; 0x02
    3e1a:	88 2f       	mov	r24, r24
    3e1c:	90 e0       	ldi	r25, 0x00	; 0
    3e1e:	20 91 7c 04 	lds	r18, 0x047C	; 0x80047c <usart1_rx_buff+0x9>
    3e22:	22 2f       	mov	r18, r18
    3e24:	30 e0       	ldi	r19, 0x00	; 0
    3e26:	88 0f       	add	r24, r24
    3e28:	99 1f       	adc	r25, r25
    3e2a:	84 59       	subi	r24, 0x94	; 148
    3e2c:	94 4f       	sbci	r25, 0xF4	; 244
    3e2e:	fc 01       	movw	r30, r24
    3e30:	31 83       	std	Z+1, r19	; 0x01
    3e32:	20 83       	st	Z, r18
	set_temp[iqr_num] = (set_temp[iqr_num] << 8) | usart1_rx_buff[10];
    3e34:	8a 81       	ldd	r24, Y+2	; 0x02
    3e36:	88 2f       	mov	r24, r24
    3e38:	90 e0       	ldi	r25, 0x00	; 0
    3e3a:	2a 81       	ldd	r18, Y+2	; 0x02
    3e3c:	22 2f       	mov	r18, r18
    3e3e:	30 e0       	ldi	r19, 0x00	; 0
    3e40:	22 0f       	add	r18, r18
    3e42:	33 1f       	adc	r19, r19
    3e44:	24 59       	subi	r18, 0x94	; 148
    3e46:	34 4f       	sbci	r19, 0xF4	; 244
    3e48:	f9 01       	movw	r30, r18
    3e4a:	20 81       	ld	r18, Z
    3e4c:	31 81       	ldd	r19, Z+1	; 0x01
    3e4e:	52 2f       	mov	r21, r18
    3e50:	44 27       	eor	r20, r20
    3e52:	20 91 7d 04 	lds	r18, 0x047D	; 0x80047d <usart1_rx_buff+0xa>
    3e56:	22 2f       	mov	r18, r18
    3e58:	30 e0       	ldi	r19, 0x00	; 0
    3e5a:	24 2b       	or	r18, r20
    3e5c:	35 2b       	or	r19, r21
    3e5e:	88 0f       	add	r24, r24
    3e60:	99 1f       	adc	r25, r25
    3e62:	84 59       	subi	r24, 0x94	; 148
    3e64:	94 4f       	sbci	r25, 0xF4	; 244
    3e66:	fc 01       	movw	r30, r24
    3e68:	31 83       	std	Z+1, r19	; 0x01
    3e6a:	20 83       	st	Z, r18
	set_temp_buff[iqr_num] = set_temp[iqr_num];
    3e6c:	8a 81       	ldd	r24, Y+2	; 0x02
    3e6e:	88 2f       	mov	r24, r24
    3e70:	90 e0       	ldi	r25, 0x00	; 0
    3e72:	2a 81       	ldd	r18, Y+2	; 0x02
    3e74:	22 2f       	mov	r18, r18
    3e76:	30 e0       	ldi	r19, 0x00	; 0
    3e78:	22 0f       	add	r18, r18
    3e7a:	33 1f       	adc	r19, r19
    3e7c:	24 59       	subi	r18, 0x94	; 148
    3e7e:	34 4f       	sbci	r19, 0xF4	; 244
    3e80:	f9 01       	movw	r30, r18
    3e82:	20 81       	ld	r18, Z
    3e84:	31 81       	ldd	r19, Z+1	; 0x01
    3e86:	88 0f       	add	r24, r24
    3e88:	99 1f       	adc	r25, r25
    3e8a:	80 55       	subi	r24, 0x50	; 80
    3e8c:	94 4f       	sbci	r25, 0xF4	; 244
    3e8e:	fc 01       	movw	r30, r24
    3e90:	31 83       	std	Z+1, r19	; 0x01
    3e92:	20 83       	st	Z, r18

	all_sensor_type = usart1_rx_buff[12];
    3e94:	80 91 7f 04 	lds	r24, 0x047F	; 0x80047f <usart1_rx_buff+0xc>
    3e98:	88 2f       	mov	r24, r24
    3e9a:	90 e0       	ldi	r25, 0x00	; 0
    3e9c:	90 93 b6 02 	sts	0x02B6, r25	; 0x8002b6 <all_sensor_type+0x1>
    3ea0:	80 93 b5 02 	sts	0x02B5, r24	; 0x8002b5 <all_sensor_type>
	all_sensor_type_buff = all_sensor_type;
    3ea4:	80 91 b5 02 	lds	r24, 0x02B5	; 0x8002b5 <all_sensor_type>
    3ea8:	90 91 b6 02 	lds	r25, 0x02B6	; 0x8002b6 <all_sensor_type+0x1>
    3eac:	90 93 d0 06 	sts	0x06D0, r25	; 0x8006d0 <all_sensor_type_buff+0x1>
    3eb0:	80 93 cf 06 	sts	0x06CF, r24	; 0x8006cf <all_sensor_type_buff>

	for (i = 0; i < MAX_IQR_QUANTITY; i++)
    3eb4:	19 82       	std	Y+1, r1	; 0x01
    3eb6:	11 c0       	rjmp	.+34     	; 0x3eda <get_setting_data+0x216>
	{
		sensor_type[i] = all_sensor_type;
    3eb8:	89 81       	ldd	r24, Y+1	; 0x01
    3eba:	88 2f       	mov	r24, r24
    3ebc:	90 e0       	ldi	r25, 0x00	; 0
    3ebe:	20 91 b5 02 	lds	r18, 0x02B5	; 0x8002b5 <all_sensor_type>
    3ec2:	30 91 b6 02 	lds	r19, 0x02B6	; 0x8002b6 <all_sensor_type+0x1>
    3ec6:	88 0f       	add	r24, r24
    3ec8:	99 1f       	adc	r25, r25
    3eca:	8f 5a       	subi	r24, 0xAF	; 175
    3ecc:	9d 4f       	sbci	r25, 0xFD	; 253
    3ece:	fc 01       	movw	r30, r24
    3ed0:	31 83       	std	Z+1, r19	; 0x01
    3ed2:	20 83       	st	Z, r18
	set_temp_buff[iqr_num] = set_temp[iqr_num];

	all_sensor_type = usart1_rx_buff[12];
	all_sensor_type_buff = all_sensor_type;

	for (i = 0; i < MAX_IQR_QUANTITY; i++)
    3ed4:	89 81       	ldd	r24, Y+1	; 0x01
    3ed6:	8f 5f       	subi	r24, 0xFF	; 255
    3ed8:	89 83       	std	Y+1, r24	; 0x01
    3eda:	89 81       	ldd	r24, Y+1	; 0x01
    3edc:	88 31       	cpi	r24, 0x18	; 24
    3ede:	60 f3       	brcs	.-40     	; 0x3eb8 <get_setting_data+0x1f4>
	{
		sensor_type[i] = all_sensor_type;
	}

	follow_sta[iqr_num] = usart1_rx_buff[14];
    3ee0:	8a 81       	ldd	r24, Y+2	; 0x02
    3ee2:	88 2f       	mov	r24, r24
    3ee4:	90 e0       	ldi	r25, 0x00	; 0
    3ee6:	20 91 81 04 	lds	r18, 0x0481	; 0x800481 <usart1_rx_buff+0xe>
    3eea:	8b 57       	subi	r24, 0x7B	; 123
    3eec:	9d 4f       	sbci	r25, 0xFD	; 253
    3eee:	fc 01       	movw	r30, r24
    3ef0:	20 83       	st	Z, r18
	follow_sta_buff[iqr_num] = follow_sta[iqr_num];
    3ef2:	8a 81       	ldd	r24, Y+2	; 0x02
    3ef4:	88 2f       	mov	r24, r24
    3ef6:	90 e0       	ldi	r25, 0x00	; 0
    3ef8:	2a 81       	ldd	r18, Y+2	; 0x02
    3efa:	22 2f       	mov	r18, r18
    3efc:	30 e0       	ldi	r19, 0x00	; 0
    3efe:	2b 57       	subi	r18, 0x7B	; 123
    3f00:	3d 4f       	sbci	r19, 0xFD	; 253
    3f02:	f9 01       	movw	r30, r18
    3f04:	20 81       	ld	r18, Z
    3f06:	83 56       	subi	r24, 0x63	; 99
    3f08:	9d 4f       	sbci	r25, 0xFD	; 253
    3f0a:	fc 01       	movw	r30, r24
    3f0c:	20 83       	st	Z, r18

	if (usart1_rx_buff[16] <= 2) // 0  1  2: 3~n
    3f0e:	80 91 83 04 	lds	r24, 0x0483	; 0x800483 <usart1_rx_buff+0x10>
    3f12:	83 30       	cpi	r24, 0x03	; 3
    3f14:	70 f5       	brcc	.+92     	; 0x3f72 <get_setting_data+0x2ae>
	{
		switch_sensor[iqr_num] = usart1_rx_buff[16] & 0x01; //0  1 
    3f16:	8a 81       	ldd	r24, Y+2	; 0x02
    3f18:	88 2f       	mov	r24, r24
    3f1a:	90 e0       	ldi	r25, 0x00	; 0
    3f1c:	20 91 83 04 	lds	r18, 0x0483	; 0x800483 <usart1_rx_buff+0x10>
    3f20:	22 2f       	mov	r18, r18
    3f22:	30 e0       	ldi	r19, 0x00	; 0
    3f24:	21 70       	andi	r18, 0x01	; 1
    3f26:	33 27       	eor	r19, r19
    3f28:	88 0f       	add	r24, r24
    3f2a:	99 1f       	adc	r25, r25
    3f2c:	8f 5d       	subi	r24, 0xDF	; 223
    3f2e:	9d 4f       	sbci	r25, 0xFD	; 253
    3f30:	fc 01       	movw	r30, r24
    3f32:	31 83       	std	Z+1, r19	; 0x01
    3f34:	20 83       	st	Z, r18
		switch_sensor_buff[iqr_num] = switch_sensor[iqr_num];
    3f36:	8a 81       	ldd	r24, Y+2	; 0x02
    3f38:	88 2f       	mov	r24, r24
    3f3a:	90 e0       	ldi	r25, 0x00	; 0
    3f3c:	2a 81       	ldd	r18, Y+2	; 0x02
    3f3e:	22 2f       	mov	r18, r18
    3f40:	30 e0       	ldi	r19, 0x00	; 0
    3f42:	22 0f       	add	r18, r18
    3f44:	33 1f       	adc	r19, r19
    3f46:	2f 5d       	subi	r18, 0xDF	; 223
    3f48:	3d 4f       	sbci	r19, 0xFD	; 253
    3f4a:	f9 01       	movw	r30, r18
    3f4c:	20 81       	ld	r18, Z
    3f4e:	31 81       	ldd	r19, Z+1	; 0x01
    3f50:	88 0f       	add	r24, r24
    3f52:	99 1f       	adc	r25, r25
    3f54:	8d 52       	subi	r24, 0x2D	; 45
    3f56:	99 4f       	sbci	r25, 0xF9	; 249
    3f58:	fc 01       	movw	r30, r24
    3f5a:	31 83       	std	Z+1, r19	; 0x01
    3f5c:	20 83       	st	Z, r18

		sensor_sta[iqr_num] = usart1_rx_buff[16];
    3f5e:	8a 81       	ldd	r24, Y+2	; 0x02
    3f60:	88 2f       	mov	r24, r24
    3f62:	90 e0       	ldi	r25, 0x00	; 0
    3f64:	20 91 83 04 	lds	r18, 0x0483	; 0x800483 <usart1_rx_buff+0x10>
    3f68:	8f 53       	subi	r24, 0x3F	; 63
    3f6a:	9e 4f       	sbci	r25, 0xFE	; 254
    3f6c:	fc 01       	movw	r30, r24
    3f6e:	20 83       	st	Z, r18
    3f70:	1d c0       	rjmp	.+58     	; 0x3fac <get_setting_data+0x2e8>
	}
	else
	{
		sensor_sta[iqr_num] = usart1_rx_buff[16];
    3f72:	8a 81       	ldd	r24, Y+2	; 0x02
    3f74:	88 2f       	mov	r24, r24
    3f76:	90 e0       	ldi	r25, 0x00	; 0
    3f78:	20 91 83 04 	lds	r18, 0x0483	; 0x800483 <usart1_rx_buff+0x10>
    3f7c:	8f 53       	subi	r24, 0x3F	; 63
    3f7e:	9e 4f       	sbci	r25, 0xFE	; 254
    3f80:	fc 01       	movw	r30, r24
    3f82:	20 83       	st	Z, r18
		switch_sensor[iqr_num] = 0;
    3f84:	8a 81       	ldd	r24, Y+2	; 0x02
    3f86:	88 2f       	mov	r24, r24
    3f88:	90 e0       	ldi	r25, 0x00	; 0
    3f8a:	88 0f       	add	r24, r24
    3f8c:	99 1f       	adc	r25, r25
    3f8e:	8f 5d       	subi	r24, 0xDF	; 223
    3f90:	9d 4f       	sbci	r25, 0xFD	; 253
    3f92:	fc 01       	movw	r30, r24
    3f94:	11 82       	std	Z+1, r1	; 0x01
    3f96:	10 82       	st	Z, r1
		switch_sensor_buff[iqr_num] = 0;
    3f98:	8a 81       	ldd	r24, Y+2	; 0x02
    3f9a:	88 2f       	mov	r24, r24
    3f9c:	90 e0       	ldi	r25, 0x00	; 0
    3f9e:	88 0f       	add	r24, r24
    3fa0:	99 1f       	adc	r25, r25
    3fa2:	8d 52       	subi	r24, 0x2D	; 45
    3fa4:	99 4f       	sbci	r25, 0xF9	; 249
    3fa6:	fc 01       	movw	r30, r24
    3fa8:	11 82       	std	Z+1, r1	; 0x01
    3faa:	10 82       	st	Z, r1
	}

	p_value[iqr_num] = usart1_rx_buff[17];
    3fac:	8a 81       	ldd	r24, Y+2	; 0x02
    3fae:	88 2f       	mov	r24, r24
    3fb0:	90 e0       	ldi	r25, 0x00	; 0
    3fb2:	20 91 84 04 	lds	r18, 0x0484	; 0x800484 <usart1_rx_buff+0x11>
    3fb6:	22 2f       	mov	r18, r18
    3fb8:	30 e0       	ldi	r19, 0x00	; 0
    3fba:	88 0f       	add	r24, r24
    3fbc:	99 1f       	adc	r25, r25
    3fbe:	85 54       	subi	r24, 0x45	; 69
    3fc0:	97 4f       	sbci	r25, 0xF7	; 247
    3fc2:	fc 01       	movw	r30, r24
    3fc4:	31 83       	std	Z+1, r19	; 0x01
    3fc6:	20 83       	st	Z, r18
	p_value[iqr_num] = (p_value[iqr_num] << 8) | usart1_rx_buff[18];
    3fc8:	8a 81       	ldd	r24, Y+2	; 0x02
    3fca:	88 2f       	mov	r24, r24
    3fcc:	90 e0       	ldi	r25, 0x00	; 0
    3fce:	2a 81       	ldd	r18, Y+2	; 0x02
    3fd0:	22 2f       	mov	r18, r18
    3fd2:	30 e0       	ldi	r19, 0x00	; 0
    3fd4:	22 0f       	add	r18, r18
    3fd6:	33 1f       	adc	r19, r19
    3fd8:	25 54       	subi	r18, 0x45	; 69
    3fda:	37 4f       	sbci	r19, 0xF7	; 247
    3fdc:	f9 01       	movw	r30, r18
    3fde:	20 81       	ld	r18, Z
    3fe0:	31 81       	ldd	r19, Z+1	; 0x01
    3fe2:	52 2f       	mov	r21, r18
    3fe4:	44 27       	eor	r20, r20
    3fe6:	20 91 85 04 	lds	r18, 0x0485	; 0x800485 <usart1_rx_buff+0x12>
    3fea:	22 2f       	mov	r18, r18
    3fec:	30 e0       	ldi	r19, 0x00	; 0
    3fee:	24 2b       	or	r18, r20
    3ff0:	35 2b       	or	r19, r21
    3ff2:	88 0f       	add	r24, r24
    3ff4:	99 1f       	adc	r25, r25
    3ff6:	85 54       	subi	r24, 0x45	; 69
    3ff8:	97 4f       	sbci	r25, 0xF7	; 247
    3ffa:	fc 01       	movw	r30, r24
    3ffc:	31 83       	std	Z+1, r19	; 0x01
    3ffe:	20 83       	st	Z, r18

	i_value[iqr_num] = usart1_rx_buff[19];
    4000:	8a 81       	ldd	r24, Y+2	; 0x02
    4002:	88 2f       	mov	r24, r24
    4004:	90 e0       	ldi	r25, 0x00	; 0
    4006:	20 91 86 04 	lds	r18, 0x0486	; 0x800486 <usart1_rx_buff+0x13>
    400a:	22 2f       	mov	r18, r18
    400c:	30 e0       	ldi	r19, 0x00	; 0
    400e:	88 0f       	add	r24, r24
    4010:	99 1f       	adc	r25, r25
    4012:	85 51       	subi	r24, 0x15	; 21
    4014:	97 4f       	sbci	r25, 0xF7	; 247
    4016:	fc 01       	movw	r30, r24
    4018:	31 83       	std	Z+1, r19	; 0x01
    401a:	20 83       	st	Z, r18
	i_value[iqr_num] = (i_value[iqr_num] << 8) | usart1_rx_buff[20];
    401c:	8a 81       	ldd	r24, Y+2	; 0x02
    401e:	88 2f       	mov	r24, r24
    4020:	90 e0       	ldi	r25, 0x00	; 0
    4022:	2a 81       	ldd	r18, Y+2	; 0x02
    4024:	22 2f       	mov	r18, r18
    4026:	30 e0       	ldi	r19, 0x00	; 0
    4028:	22 0f       	add	r18, r18
    402a:	33 1f       	adc	r19, r19
    402c:	25 51       	subi	r18, 0x15	; 21
    402e:	37 4f       	sbci	r19, 0xF7	; 247
    4030:	f9 01       	movw	r30, r18
    4032:	20 81       	ld	r18, Z
    4034:	31 81       	ldd	r19, Z+1	; 0x01
    4036:	52 2f       	mov	r21, r18
    4038:	44 27       	eor	r20, r20
    403a:	20 91 87 04 	lds	r18, 0x0487	; 0x800487 <usart1_rx_buff+0x14>
    403e:	22 2f       	mov	r18, r18
    4040:	30 e0       	ldi	r19, 0x00	; 0
    4042:	24 2b       	or	r18, r20
    4044:	35 2b       	or	r19, r21
    4046:	88 0f       	add	r24, r24
    4048:	99 1f       	adc	r25, r25
    404a:	85 51       	subi	r24, 0x15	; 21
    404c:	97 4f       	sbci	r25, 0xF7	; 247
    404e:	fc 01       	movw	r30, r24
    4050:	31 83       	std	Z+1, r19	; 0x01
    4052:	20 83       	st	Z, r18

	d_value[iqr_num] = usart1_rx_buff[21];
    4054:	8a 81       	ldd	r24, Y+2	; 0x02
    4056:	88 2f       	mov	r24, r24
    4058:	90 e0       	ldi	r25, 0x00	; 0
    405a:	20 91 88 04 	lds	r18, 0x0488	; 0x800488 <usart1_rx_buff+0x15>
    405e:	22 2f       	mov	r18, r18
    4060:	30 e0       	ldi	r19, 0x00	; 0
    4062:	88 0f       	add	r24, r24
    4064:	99 1f       	adc	r25, r25
    4066:	85 57       	subi	r24, 0x75	; 117
    4068:	97 4f       	sbci	r25, 0xF7	; 247
    406a:	fc 01       	movw	r30, r24
    406c:	31 83       	std	Z+1, r19	; 0x01
    406e:	20 83       	st	Z, r18
	d_value[iqr_num] = (d_value[iqr_num] << 8) | usart1_rx_buff[22];
    4070:	8a 81       	ldd	r24, Y+2	; 0x02
    4072:	88 2f       	mov	r24, r24
    4074:	90 e0       	ldi	r25, 0x00	; 0
    4076:	2a 81       	ldd	r18, Y+2	; 0x02
    4078:	22 2f       	mov	r18, r18
    407a:	30 e0       	ldi	r19, 0x00	; 0
    407c:	22 0f       	add	r18, r18
    407e:	33 1f       	adc	r19, r19
    4080:	25 57       	subi	r18, 0x75	; 117
    4082:	37 4f       	sbci	r19, 0xF7	; 247
    4084:	f9 01       	movw	r30, r18
    4086:	20 81       	ld	r18, Z
    4088:	31 81       	ldd	r19, Z+1	; 0x01
    408a:	52 2f       	mov	r21, r18
    408c:	44 27       	eor	r20, r20
    408e:	20 91 89 04 	lds	r18, 0x0489	; 0x800489 <usart1_rx_buff+0x16>
    4092:	22 2f       	mov	r18, r18
    4094:	30 e0       	ldi	r19, 0x00	; 0
    4096:	24 2b       	or	r18, r20
    4098:	35 2b       	or	r19, r21
    409a:	88 0f       	add	r24, r24
    409c:	99 1f       	adc	r25, r25
    409e:	85 57       	subi	r24, 0x75	; 117
    40a0:	97 4f       	sbci	r25, 0xF7	; 247
    40a2:	fc 01       	movw	r30, r24
    40a4:	31 83       	std	Z+1, r19	; 0x01
    40a6:	20 83       	st	Z, r18
	//
	// 	preheat_time = usart1_rx_buff[22];
	// 	preheat_time_buff = preheat_time;

	//	pre_system_sta
}
    40a8:	00 00       	nop
    40aa:	0f 90       	pop	r0
    40ac:	0f 90       	pop	r0
    40ae:	0f 90       	pop	r0
    40b0:	df 91       	pop	r29
    40b2:	cf 91       	pop	r28
    40b4:	08 95       	ret

000040b6 <send_request_all>:

void send_request_all(uint8_t addr)
{
    40b6:	cf 93       	push	r28
    40b8:	df 93       	push	r29
    40ba:	00 d0       	rcall	.+0      	; 0x40bc <send_request_all+0x6>
    40bc:	1f 92       	push	r1
    40be:	cd b7       	in	r28, 0x3d	; 61
    40c0:	de b7       	in	r29, 0x3e	; 62
    40c2:	8b 83       	std	Y+3, r24	; 0x03
	uint16_t crc = 0;
    40c4:	1a 82       	std	Y+2, r1	; 0x02
    40c6:	19 82       	std	Y+1, r1	; 0x01

	usart1_tx_buff[0] = 0xA5;
    40c8:	85 ea       	ldi	r24, 0xA5	; 165
    40ca:	80 93 3b 05 	sts	0x053B, r24	; 0x80053b <usart1_tx_buff>
	usart1_tx_buff[1] = 0x5A;
    40ce:	8a e5       	ldi	r24, 0x5A	; 90
    40d0:	80 93 3c 05 	sts	0x053C, r24	; 0x80053c <usart1_tx_buff+0x1>
	usart1_tx_buff[2] = 0x02;
    40d4:	82 e0       	ldi	r24, 0x02	; 2
    40d6:	80 93 3d 05 	sts	0x053D, r24	; 0x80053d <usart1_tx_buff+0x2>
	usart1_tx_buff[3] = 0x01;
    40da:	81 e0       	ldi	r24, 0x01	; 1
    40dc:	80 93 3e 05 	sts	0x053E, r24	; 0x80053e <usart1_tx_buff+0x3>
	usart1_tx_buff[4] = (addr << 4);
    40e0:	8b 81       	ldd	r24, Y+3	; 0x03
    40e2:	82 95       	swap	r24
    40e4:	80 7f       	andi	r24, 0xF0	; 240
    40e6:	80 93 3f 05 	sts	0x053F, r24	; 0x80053f <usart1_tx_buff+0x4>

	crc = crc_check(usart1_tx_buff, 7);
    40ea:	67 e0       	ldi	r22, 0x07	; 7
    40ec:	8b e3       	ldi	r24, 0x3B	; 59
    40ee:	95 e0       	ldi	r25, 0x05	; 5
    40f0:	0e 94 4d 35 	call	0x6a9a	; 0x6a9a <crc_check>
    40f4:	9a 83       	std	Y+2, r25	; 0x02
    40f6:	89 83       	std	Y+1, r24	; 0x01

	usart1_tx_buff[5] = crc & 0x00FF;
    40f8:	89 81       	ldd	r24, Y+1	; 0x01
    40fa:	80 93 40 05 	sts	0x0540, r24	; 0x800540 <usart1_tx_buff+0x5>
	usart1_tx_buff[6] = crc >> 8;
    40fe:	89 81       	ldd	r24, Y+1	; 0x01
    4100:	9a 81       	ldd	r25, Y+2	; 0x02
    4102:	89 2f       	mov	r24, r25
    4104:	99 27       	eor	r25, r25
    4106:	80 93 41 05 	sts	0x0541, r24	; 0x800541 <usart1_tx_buff+0x6>

	usart1_send_str(usart1_tx_buff, 7);
    410a:	67 e0       	ldi	r22, 0x07	; 7
    410c:	8b e3       	ldi	r24, 0x3B	; 59
    410e:	95 e0       	ldi	r25, 0x05	; 5
    4110:	0e 94 d5 34 	call	0x69aa	; 0x69aa <usart1_send_str>
}
    4114:	00 00       	nop
    4116:	0f 90       	pop	r0
    4118:	0f 90       	pop	r0
    411a:	0f 90       	pop	r0
    411c:	df 91       	pop	r29
    411e:	cf 91       	pop	r28
    4120:	08 95       	ret

00004122 <get_data_all>:

void get_data_all()
{
    4122:	cf 93       	push	r28
    4124:	df 93       	push	r29
    4126:	1f 92       	push	r1
    4128:	cd b7       	in	r28, 0x3d	; 61
    412a:	de b7       	in	r29, 0x3e	; 62
	uint8_t slave_num = 0;
    412c:	19 82       	std	Y+1, r1	; 0x01

	slave_num = (usart1_rx_buff[4] >> 4);
    412e:	80 91 77 04 	lds	r24, 0x0477	; 0x800477 <usart1_rx_buff+0x4>
    4132:	82 95       	swap	r24
    4134:	8f 70       	andi	r24, 0x0F	; 15
    4136:	89 83       	std	Y+1, r24	; 0x01

	output_rate[0 + ((slave_num - 1) * 4)] = usart1_rx_buff[5];
    4138:	89 81       	ldd	r24, Y+1	; 0x01
    413a:	88 2f       	mov	r24, r24
    413c:	90 e0       	ldi	r25, 0x00	; 0
    413e:	01 97       	sbiw	r24, 0x01	; 1
    4140:	88 0f       	add	r24, r24
    4142:	99 1f       	adc	r25, r25
    4144:	88 0f       	add	r24, r24
    4146:	99 1f       	adc	r25, r25
    4148:	20 91 78 04 	lds	r18, 0x0478	; 0x800478 <usart1_rx_buff+0x5>
    414c:	87 55       	subi	r24, 0x57	; 87
    414e:	9e 4f       	sbci	r25, 0xFE	; 254
    4150:	fc 01       	movw	r30, r24
    4152:	20 83       	st	Z, r18
	output_rate[1 + ((slave_num - 1) * 4)] = usart1_rx_buff[6];
    4154:	89 81       	ldd	r24, Y+1	; 0x01
    4156:	88 2f       	mov	r24, r24
    4158:	90 e0       	ldi	r25, 0x00	; 0
    415a:	01 97       	sbiw	r24, 0x01	; 1
    415c:	88 0f       	add	r24, r24
    415e:	99 1f       	adc	r25, r25
    4160:	88 0f       	add	r24, r24
    4162:	99 1f       	adc	r25, r25
    4164:	01 96       	adiw	r24, 0x01	; 1
    4166:	20 91 79 04 	lds	r18, 0x0479	; 0x800479 <usart1_rx_buff+0x6>
    416a:	87 55       	subi	r24, 0x57	; 87
    416c:	9e 4f       	sbci	r25, 0xFE	; 254
    416e:	fc 01       	movw	r30, r24
    4170:	20 83       	st	Z, r18
	output_rate[2 + ((slave_num - 1) * 4)] = usart1_rx_buff[7];
    4172:	89 81       	ldd	r24, Y+1	; 0x01
    4174:	88 2f       	mov	r24, r24
    4176:	90 e0       	ldi	r25, 0x00	; 0
    4178:	01 97       	sbiw	r24, 0x01	; 1
    417a:	88 0f       	add	r24, r24
    417c:	99 1f       	adc	r25, r25
    417e:	88 0f       	add	r24, r24
    4180:	99 1f       	adc	r25, r25
    4182:	02 96       	adiw	r24, 0x02	; 2
    4184:	20 91 7a 04 	lds	r18, 0x047A	; 0x80047a <usart1_rx_buff+0x7>
    4188:	87 55       	subi	r24, 0x57	; 87
    418a:	9e 4f       	sbci	r25, 0xFE	; 254
    418c:	fc 01       	movw	r30, r24
    418e:	20 83       	st	Z, r18
	output_rate[3 + ((slave_num - 1) * 4)] = usart1_rx_buff[8];
    4190:	89 81       	ldd	r24, Y+1	; 0x01
    4192:	88 2f       	mov	r24, r24
    4194:	90 e0       	ldi	r25, 0x00	; 0
    4196:	01 97       	sbiw	r24, 0x01	; 1
    4198:	88 0f       	add	r24, r24
    419a:	99 1f       	adc	r25, r25
    419c:	88 0f       	add	r24, r24
    419e:	99 1f       	adc	r25, r25
    41a0:	03 96       	adiw	r24, 0x03	; 3
    41a2:	20 91 7b 04 	lds	r18, 0x047B	; 0x80047b <usart1_rx_buff+0x8>
    41a6:	87 55       	subi	r24, 0x57	; 87
    41a8:	9e 4f       	sbci	r25, 0xFE	; 254
    41aa:	fc 01       	movw	r30, r24
    41ac:	20 83       	st	Z, r18

	sensor_sta[0 + ((slave_num - 1) * 4)] = usart1_rx_buff[9];
    41ae:	89 81       	ldd	r24, Y+1	; 0x01
    41b0:	88 2f       	mov	r24, r24
    41b2:	90 e0       	ldi	r25, 0x00	; 0
    41b4:	01 97       	sbiw	r24, 0x01	; 1
    41b6:	88 0f       	add	r24, r24
    41b8:	99 1f       	adc	r25, r25
    41ba:	88 0f       	add	r24, r24
    41bc:	99 1f       	adc	r25, r25
    41be:	20 91 7c 04 	lds	r18, 0x047C	; 0x80047c <usart1_rx_buff+0x9>
    41c2:	8f 53       	subi	r24, 0x3F	; 63
    41c4:	9e 4f       	sbci	r25, 0xFE	; 254
    41c6:	fc 01       	movw	r30, r24
    41c8:	20 83       	st	Z, r18
	sensor_sta[1 + ((slave_num - 1) * 4)] = usart1_rx_buff[10];
    41ca:	89 81       	ldd	r24, Y+1	; 0x01
    41cc:	88 2f       	mov	r24, r24
    41ce:	90 e0       	ldi	r25, 0x00	; 0
    41d0:	01 97       	sbiw	r24, 0x01	; 1
    41d2:	88 0f       	add	r24, r24
    41d4:	99 1f       	adc	r25, r25
    41d6:	88 0f       	add	r24, r24
    41d8:	99 1f       	adc	r25, r25
    41da:	01 96       	adiw	r24, 0x01	; 1
    41dc:	20 91 7d 04 	lds	r18, 0x047D	; 0x80047d <usart1_rx_buff+0xa>
    41e0:	8f 53       	subi	r24, 0x3F	; 63
    41e2:	9e 4f       	sbci	r25, 0xFE	; 254
    41e4:	fc 01       	movw	r30, r24
    41e6:	20 83       	st	Z, r18
	sensor_sta[2 + ((slave_num - 1) * 4)] = usart1_rx_buff[11];
    41e8:	89 81       	ldd	r24, Y+1	; 0x01
    41ea:	88 2f       	mov	r24, r24
    41ec:	90 e0       	ldi	r25, 0x00	; 0
    41ee:	01 97       	sbiw	r24, 0x01	; 1
    41f0:	88 0f       	add	r24, r24
    41f2:	99 1f       	adc	r25, r25
    41f4:	88 0f       	add	r24, r24
    41f6:	99 1f       	adc	r25, r25
    41f8:	02 96       	adiw	r24, 0x02	; 2
    41fa:	20 91 7e 04 	lds	r18, 0x047E	; 0x80047e <usart1_rx_buff+0xb>
    41fe:	8f 53       	subi	r24, 0x3F	; 63
    4200:	9e 4f       	sbci	r25, 0xFE	; 254
    4202:	fc 01       	movw	r30, r24
    4204:	20 83       	st	Z, r18
	sensor_sta[3 + ((slave_num - 1) * 4)] = usart1_rx_buff[12];
    4206:	89 81       	ldd	r24, Y+1	; 0x01
    4208:	88 2f       	mov	r24, r24
    420a:	90 e0       	ldi	r25, 0x00	; 0
    420c:	01 97       	sbiw	r24, 0x01	; 1
    420e:	88 0f       	add	r24, r24
    4210:	99 1f       	adc	r25, r25
    4212:	88 0f       	add	r24, r24
    4214:	99 1f       	adc	r25, r25
    4216:	03 96       	adiw	r24, 0x03	; 3
    4218:	20 91 7f 04 	lds	r18, 0x047F	; 0x80047f <usart1_rx_buff+0xc>
    421c:	8f 53       	subi	r24, 0x3F	; 63
    421e:	9e 4f       	sbci	r25, 0xFE	; 254
    4220:	fc 01       	movw	r30, r24
    4222:	20 83       	st	Z, r18

	run_temp[0 + ((slave_num - 1) * 4)] = usart1_rx_buff[13];
    4224:	89 81       	ldd	r24, Y+1	; 0x01
    4226:	88 2f       	mov	r24, r24
    4228:	90 e0       	ldi	r25, 0x00	; 0
    422a:	01 97       	sbiw	r24, 0x01	; 1
    422c:	88 0f       	add	r24, r24
    422e:	99 1f       	adc	r25, r25
    4230:	88 0f       	add	r24, r24
    4232:	99 1f       	adc	r25, r25
    4234:	20 91 80 04 	lds	r18, 0x0480	; 0x800480 <usart1_rx_buff+0xd>
    4238:	22 2f       	mov	r18, r18
    423a:	30 e0       	ldi	r19, 0x00	; 0
    423c:	88 0f       	add	r24, r24
    423e:	99 1f       	adc	r25, r25
    4240:	8f 50       	subi	r24, 0x0F	; 15
    4242:	9e 4f       	sbci	r25, 0xFE	; 254
    4244:	fc 01       	movw	r30, r24
    4246:	31 83       	std	Z+1, r19	; 0x01
    4248:	20 83       	st	Z, r18
	run_temp[0 + ((slave_num - 1) * 4)] = (run_temp[0 + ((slave_num - 1) * 4)] << 8) | usart1_rx_buff[14];
    424a:	89 81       	ldd	r24, Y+1	; 0x01
    424c:	88 2f       	mov	r24, r24
    424e:	90 e0       	ldi	r25, 0x00	; 0
    4250:	01 97       	sbiw	r24, 0x01	; 1
    4252:	88 0f       	add	r24, r24
    4254:	99 1f       	adc	r25, r25
    4256:	88 0f       	add	r24, r24
    4258:	99 1f       	adc	r25, r25
    425a:	29 81       	ldd	r18, Y+1	; 0x01
    425c:	22 2f       	mov	r18, r18
    425e:	30 e0       	ldi	r19, 0x00	; 0
    4260:	21 50       	subi	r18, 0x01	; 1
    4262:	31 09       	sbc	r19, r1
    4264:	22 0f       	add	r18, r18
    4266:	33 1f       	adc	r19, r19
    4268:	22 0f       	add	r18, r18
    426a:	33 1f       	adc	r19, r19
    426c:	22 0f       	add	r18, r18
    426e:	33 1f       	adc	r19, r19
    4270:	2f 50       	subi	r18, 0x0F	; 15
    4272:	3e 4f       	sbci	r19, 0xFE	; 254
    4274:	f9 01       	movw	r30, r18
    4276:	20 81       	ld	r18, Z
    4278:	31 81       	ldd	r19, Z+1	; 0x01
    427a:	52 2f       	mov	r21, r18
    427c:	44 27       	eor	r20, r20
    427e:	20 91 81 04 	lds	r18, 0x0481	; 0x800481 <usart1_rx_buff+0xe>
    4282:	22 2f       	mov	r18, r18
    4284:	30 e0       	ldi	r19, 0x00	; 0
    4286:	24 2b       	or	r18, r20
    4288:	35 2b       	or	r19, r21
    428a:	88 0f       	add	r24, r24
    428c:	99 1f       	adc	r25, r25
    428e:	8f 50       	subi	r24, 0x0F	; 15
    4290:	9e 4f       	sbci	r25, 0xFE	; 254
    4292:	fc 01       	movw	r30, r24
    4294:	31 83       	std	Z+1, r19	; 0x01
    4296:	20 83       	st	Z, r18
	run_temp[1 + ((slave_num - 1) * 4)] = usart1_rx_buff[15];
    4298:	89 81       	ldd	r24, Y+1	; 0x01
    429a:	88 2f       	mov	r24, r24
    429c:	90 e0       	ldi	r25, 0x00	; 0
    429e:	01 97       	sbiw	r24, 0x01	; 1
    42a0:	88 0f       	add	r24, r24
    42a2:	99 1f       	adc	r25, r25
    42a4:	88 0f       	add	r24, r24
    42a6:	99 1f       	adc	r25, r25
    42a8:	01 96       	adiw	r24, 0x01	; 1
    42aa:	20 91 82 04 	lds	r18, 0x0482	; 0x800482 <usart1_rx_buff+0xf>
    42ae:	22 2f       	mov	r18, r18
    42b0:	30 e0       	ldi	r19, 0x00	; 0
    42b2:	88 0f       	add	r24, r24
    42b4:	99 1f       	adc	r25, r25
    42b6:	8f 50       	subi	r24, 0x0F	; 15
    42b8:	9e 4f       	sbci	r25, 0xFE	; 254
    42ba:	fc 01       	movw	r30, r24
    42bc:	31 83       	std	Z+1, r19	; 0x01
    42be:	20 83       	st	Z, r18
	run_temp[1 + ((slave_num - 1) * 4)] = (run_temp[1 + ((slave_num - 1) * 4)] << 8) | usart1_rx_buff[16];
    42c0:	89 81       	ldd	r24, Y+1	; 0x01
    42c2:	88 2f       	mov	r24, r24
    42c4:	90 e0       	ldi	r25, 0x00	; 0
    42c6:	01 97       	sbiw	r24, 0x01	; 1
    42c8:	88 0f       	add	r24, r24
    42ca:	99 1f       	adc	r25, r25
    42cc:	88 0f       	add	r24, r24
    42ce:	99 1f       	adc	r25, r25
    42d0:	01 96       	adiw	r24, 0x01	; 1
    42d2:	29 81       	ldd	r18, Y+1	; 0x01
    42d4:	22 2f       	mov	r18, r18
    42d6:	30 e0       	ldi	r19, 0x00	; 0
    42d8:	21 50       	subi	r18, 0x01	; 1
    42da:	31 09       	sbc	r19, r1
    42dc:	22 0f       	add	r18, r18
    42de:	33 1f       	adc	r19, r19
    42e0:	22 0f       	add	r18, r18
    42e2:	33 1f       	adc	r19, r19
    42e4:	2f 5f       	subi	r18, 0xFF	; 255
    42e6:	3f 4f       	sbci	r19, 0xFF	; 255
    42e8:	22 0f       	add	r18, r18
    42ea:	33 1f       	adc	r19, r19
    42ec:	2f 50       	subi	r18, 0x0F	; 15
    42ee:	3e 4f       	sbci	r19, 0xFE	; 254
    42f0:	f9 01       	movw	r30, r18
    42f2:	20 81       	ld	r18, Z
    42f4:	31 81       	ldd	r19, Z+1	; 0x01
    42f6:	52 2f       	mov	r21, r18
    42f8:	44 27       	eor	r20, r20
    42fa:	20 91 83 04 	lds	r18, 0x0483	; 0x800483 <usart1_rx_buff+0x10>
    42fe:	22 2f       	mov	r18, r18
    4300:	30 e0       	ldi	r19, 0x00	; 0
    4302:	24 2b       	or	r18, r20
    4304:	35 2b       	or	r19, r21
    4306:	88 0f       	add	r24, r24
    4308:	99 1f       	adc	r25, r25
    430a:	8f 50       	subi	r24, 0x0F	; 15
    430c:	9e 4f       	sbci	r25, 0xFE	; 254
    430e:	fc 01       	movw	r30, r24
    4310:	31 83       	std	Z+1, r19	; 0x01
    4312:	20 83       	st	Z, r18
	run_temp[2 + ((slave_num - 1) * 4)] = usart1_rx_buff[17];
    4314:	89 81       	ldd	r24, Y+1	; 0x01
    4316:	88 2f       	mov	r24, r24
    4318:	90 e0       	ldi	r25, 0x00	; 0
    431a:	01 97       	sbiw	r24, 0x01	; 1
    431c:	88 0f       	add	r24, r24
    431e:	99 1f       	adc	r25, r25
    4320:	88 0f       	add	r24, r24
    4322:	99 1f       	adc	r25, r25
    4324:	02 96       	adiw	r24, 0x02	; 2
    4326:	20 91 84 04 	lds	r18, 0x0484	; 0x800484 <usart1_rx_buff+0x11>
    432a:	22 2f       	mov	r18, r18
    432c:	30 e0       	ldi	r19, 0x00	; 0
    432e:	88 0f       	add	r24, r24
    4330:	99 1f       	adc	r25, r25
    4332:	8f 50       	subi	r24, 0x0F	; 15
    4334:	9e 4f       	sbci	r25, 0xFE	; 254
    4336:	fc 01       	movw	r30, r24
    4338:	31 83       	std	Z+1, r19	; 0x01
    433a:	20 83       	st	Z, r18
	run_temp[2 + ((slave_num - 1) * 4)] = (run_temp[2 + ((slave_num - 1) * 4)] << 8) | usart1_rx_buff[18];
    433c:	89 81       	ldd	r24, Y+1	; 0x01
    433e:	88 2f       	mov	r24, r24
    4340:	90 e0       	ldi	r25, 0x00	; 0
    4342:	01 97       	sbiw	r24, 0x01	; 1
    4344:	88 0f       	add	r24, r24
    4346:	99 1f       	adc	r25, r25
    4348:	88 0f       	add	r24, r24
    434a:	99 1f       	adc	r25, r25
    434c:	02 96       	adiw	r24, 0x02	; 2
    434e:	29 81       	ldd	r18, Y+1	; 0x01
    4350:	22 2f       	mov	r18, r18
    4352:	30 e0       	ldi	r19, 0x00	; 0
    4354:	21 50       	subi	r18, 0x01	; 1
    4356:	31 09       	sbc	r19, r1
    4358:	22 0f       	add	r18, r18
    435a:	33 1f       	adc	r19, r19
    435c:	22 0f       	add	r18, r18
    435e:	33 1f       	adc	r19, r19
    4360:	2e 5f       	subi	r18, 0xFE	; 254
    4362:	3f 4f       	sbci	r19, 0xFF	; 255
    4364:	22 0f       	add	r18, r18
    4366:	33 1f       	adc	r19, r19
    4368:	2f 50       	subi	r18, 0x0F	; 15
    436a:	3e 4f       	sbci	r19, 0xFE	; 254
    436c:	f9 01       	movw	r30, r18
    436e:	20 81       	ld	r18, Z
    4370:	31 81       	ldd	r19, Z+1	; 0x01
    4372:	52 2f       	mov	r21, r18
    4374:	44 27       	eor	r20, r20
    4376:	20 91 85 04 	lds	r18, 0x0485	; 0x800485 <usart1_rx_buff+0x12>
    437a:	22 2f       	mov	r18, r18
    437c:	30 e0       	ldi	r19, 0x00	; 0
    437e:	24 2b       	or	r18, r20
    4380:	35 2b       	or	r19, r21
    4382:	88 0f       	add	r24, r24
    4384:	99 1f       	adc	r25, r25
    4386:	8f 50       	subi	r24, 0x0F	; 15
    4388:	9e 4f       	sbci	r25, 0xFE	; 254
    438a:	fc 01       	movw	r30, r24
    438c:	31 83       	std	Z+1, r19	; 0x01
    438e:	20 83       	st	Z, r18
	run_temp[3 + ((slave_num - 1) * 4)] = usart1_rx_buff[19];
    4390:	89 81       	ldd	r24, Y+1	; 0x01
    4392:	88 2f       	mov	r24, r24
    4394:	90 e0       	ldi	r25, 0x00	; 0
    4396:	01 97       	sbiw	r24, 0x01	; 1
    4398:	88 0f       	add	r24, r24
    439a:	99 1f       	adc	r25, r25
    439c:	88 0f       	add	r24, r24
    439e:	99 1f       	adc	r25, r25
    43a0:	03 96       	adiw	r24, 0x03	; 3
    43a2:	20 91 86 04 	lds	r18, 0x0486	; 0x800486 <usart1_rx_buff+0x13>
    43a6:	22 2f       	mov	r18, r18
    43a8:	30 e0       	ldi	r19, 0x00	; 0
    43aa:	88 0f       	add	r24, r24
    43ac:	99 1f       	adc	r25, r25
    43ae:	8f 50       	subi	r24, 0x0F	; 15
    43b0:	9e 4f       	sbci	r25, 0xFE	; 254
    43b2:	fc 01       	movw	r30, r24
    43b4:	31 83       	std	Z+1, r19	; 0x01
    43b6:	20 83       	st	Z, r18
	run_temp[3 + ((slave_num - 1) * 4)] = (run_temp[3 + ((slave_num - 1) * 4)] << 8) | usart1_rx_buff[20];
    43b8:	89 81       	ldd	r24, Y+1	; 0x01
    43ba:	88 2f       	mov	r24, r24
    43bc:	90 e0       	ldi	r25, 0x00	; 0
    43be:	01 97       	sbiw	r24, 0x01	; 1
    43c0:	88 0f       	add	r24, r24
    43c2:	99 1f       	adc	r25, r25
    43c4:	88 0f       	add	r24, r24
    43c6:	99 1f       	adc	r25, r25
    43c8:	03 96       	adiw	r24, 0x03	; 3
    43ca:	29 81       	ldd	r18, Y+1	; 0x01
    43cc:	22 2f       	mov	r18, r18
    43ce:	30 e0       	ldi	r19, 0x00	; 0
    43d0:	21 50       	subi	r18, 0x01	; 1
    43d2:	31 09       	sbc	r19, r1
    43d4:	22 0f       	add	r18, r18
    43d6:	33 1f       	adc	r19, r19
    43d8:	22 0f       	add	r18, r18
    43da:	33 1f       	adc	r19, r19
    43dc:	2d 5f       	subi	r18, 0xFD	; 253
    43de:	3f 4f       	sbci	r19, 0xFF	; 255
    43e0:	22 0f       	add	r18, r18
    43e2:	33 1f       	adc	r19, r19
    43e4:	2f 50       	subi	r18, 0x0F	; 15
    43e6:	3e 4f       	sbci	r19, 0xFE	; 254
    43e8:	f9 01       	movw	r30, r18
    43ea:	20 81       	ld	r18, Z
    43ec:	31 81       	ldd	r19, Z+1	; 0x01
    43ee:	52 2f       	mov	r21, r18
    43f0:	44 27       	eor	r20, r20
    43f2:	20 91 87 04 	lds	r18, 0x0487	; 0x800487 <usart1_rx_buff+0x14>
    43f6:	22 2f       	mov	r18, r18
    43f8:	30 e0       	ldi	r19, 0x00	; 0
    43fa:	24 2b       	or	r18, r20
    43fc:	35 2b       	or	r19, r21
    43fe:	88 0f       	add	r24, r24
    4400:	99 1f       	adc	r25, r25
    4402:	8f 50       	subi	r24, 0x0F	; 15
    4404:	9e 4f       	sbci	r25, 0xFE	; 254
    4406:	fc 01       	movw	r30, r24
    4408:	31 83       	std	Z+1, r19	; 0x01
    440a:	20 83       	st	Z, r18

	sensor_sta[0 + ((slave_num - 1) * 4)] = usart1_rx_buff[21];
    440c:	89 81       	ldd	r24, Y+1	; 0x01
    440e:	88 2f       	mov	r24, r24
    4410:	90 e0       	ldi	r25, 0x00	; 0
    4412:	01 97       	sbiw	r24, 0x01	; 1
    4414:	88 0f       	add	r24, r24
    4416:	99 1f       	adc	r25, r25
    4418:	88 0f       	add	r24, r24
    441a:	99 1f       	adc	r25, r25
    441c:	20 91 88 04 	lds	r18, 0x0488	; 0x800488 <usart1_rx_buff+0x15>
    4420:	8f 53       	subi	r24, 0x3F	; 63
    4422:	9e 4f       	sbci	r25, 0xFE	; 254
    4424:	fc 01       	movw	r30, r24
    4426:	20 83       	st	Z, r18
	sensor_sta[1 + ((slave_num - 1) * 4)] = usart1_rx_buff[22];
    4428:	89 81       	ldd	r24, Y+1	; 0x01
    442a:	88 2f       	mov	r24, r24
    442c:	90 e0       	ldi	r25, 0x00	; 0
    442e:	01 97       	sbiw	r24, 0x01	; 1
    4430:	88 0f       	add	r24, r24
    4432:	99 1f       	adc	r25, r25
    4434:	88 0f       	add	r24, r24
    4436:	99 1f       	adc	r25, r25
    4438:	01 96       	adiw	r24, 0x01	; 1
    443a:	20 91 89 04 	lds	r18, 0x0489	; 0x800489 <usart1_rx_buff+0x16>
    443e:	8f 53       	subi	r24, 0x3F	; 63
    4440:	9e 4f       	sbci	r25, 0xFE	; 254
    4442:	fc 01       	movw	r30, r24
    4444:	20 83       	st	Z, r18
	sensor_sta[2 + ((slave_num - 1) * 4)] = usart1_rx_buff[23];
    4446:	89 81       	ldd	r24, Y+1	; 0x01
    4448:	88 2f       	mov	r24, r24
    444a:	90 e0       	ldi	r25, 0x00	; 0
    444c:	01 97       	sbiw	r24, 0x01	; 1
    444e:	88 0f       	add	r24, r24
    4450:	99 1f       	adc	r25, r25
    4452:	88 0f       	add	r24, r24
    4454:	99 1f       	adc	r25, r25
    4456:	02 96       	adiw	r24, 0x02	; 2
    4458:	20 91 8a 04 	lds	r18, 0x048A	; 0x80048a <usart1_rx_buff+0x17>
    445c:	8f 53       	subi	r24, 0x3F	; 63
    445e:	9e 4f       	sbci	r25, 0xFE	; 254
    4460:	fc 01       	movw	r30, r24
    4462:	20 83       	st	Z, r18
	sensor_sta[3 + ((slave_num - 1) * 4)] = usart1_rx_buff[24];
    4464:	89 81       	ldd	r24, Y+1	; 0x01
    4466:	88 2f       	mov	r24, r24
    4468:	90 e0       	ldi	r25, 0x00	; 0
    446a:	01 97       	sbiw	r24, 0x01	; 1
    446c:	88 0f       	add	r24, r24
    446e:	99 1f       	adc	r25, r25
    4470:	88 0f       	add	r24, r24
    4472:	99 1f       	adc	r25, r25
    4474:	03 96       	adiw	r24, 0x03	; 3
    4476:	20 91 8b 04 	lds	r18, 0x048B	; 0x80048b <usart1_rx_buff+0x18>
    447a:	8f 53       	subi	r24, 0x3F	; 63
    447c:	9e 4f       	sbci	r25, 0xFE	; 254
    447e:	fc 01       	movw	r30, r24
    4480:	20 83       	st	Z, r18

	update_main_page();
    4482:	0e 94 b7 09 	call	0x136e	; 0x136e <update_main_page>
}
    4486:	00 00       	nop
    4488:	0f 90       	pop	r0
    448a:	df 91       	pop	r29
    448c:	cf 91       	pop	r28
    448e:	08 95       	ret

00004490 <clear_alarm_msg>:

void clear_alarm_msg(uint8_t msg_num)
{
    4490:	cf 93       	push	r28
    4492:	df 93       	push	r29
    4494:	00 d0       	rcall	.+0      	; 0x4496 <clear_alarm_msg+0x6>
    4496:	00 d0       	rcall	.+0      	; 0x4498 <clear_alarm_msg+0x8>
    4498:	cd b7       	in	r28, 0x3d	; 61
    449a:	de b7       	in	r29, 0x3e	; 62
    449c:	8c 83       	std	Y+4, r24	; 0x04
	uint8_t i = 0;
    449e:	19 82       	std	Y+1, r1	; 0x01
	uint16_t crc = 0;
    44a0:	1b 82       	std	Y+3, r1	; 0x03
    44a2:	1a 82       	std	Y+2, r1	; 0x02

	usart0_tx_buff[0] = 0xA5;
    44a4:	85 ea       	ldi	r24, 0xA5	; 165
    44a6:	80 93 a8 03 	sts	0x03A8, r24	; 0x8003a8 <usart0_tx_buff>
	usart0_tx_buff[1] = 0x5A;
    44aa:	8a e5       	ldi	r24, 0x5A	; 90
    44ac:	80 93 a9 03 	sts	0x03A9, r24	; 0x8003a9 <usart0_tx_buff+0x1>
	usart0_tx_buff[2] = 0x13;
    44b0:	83 e1       	ldi	r24, 0x13	; 19
    44b2:	80 93 aa 03 	sts	0x03AA, r24	; 0x8003aa <usart0_tx_buff+0x2>
	usart0_tx_buff[3] = 0x82;
    44b6:	82 e8       	ldi	r24, 0x82	; 130
    44b8:	80 93 ab 03 	sts	0x03AB, r24	; 0x8003ab <usart0_tx_buff+0x3>
	usart0_tx_buff[4] = (ALAEM_MSG1_ADDR + (msg_num * 16)) >> 8;
    44bc:	8c 81       	ldd	r24, Y+4	; 0x04
    44be:	88 2f       	mov	r24, r24
    44c0:	90 e0       	ldi	r25, 0x00	; 0
    44c2:	8b 96       	adiw	r24, 0x2b	; 43
    44c4:	82 95       	swap	r24
    44c6:	92 95       	swap	r25
    44c8:	90 7f       	andi	r25, 0xF0	; 240
    44ca:	98 27       	eor	r25, r24
    44cc:	80 7f       	andi	r24, 0xF0	; 240
    44ce:	98 27       	eor	r25, r24
    44d0:	89 2f       	mov	r24, r25
    44d2:	99 0f       	add	r25, r25
    44d4:	99 0b       	sbc	r25, r25
    44d6:	80 93 ac 03 	sts	0x03AC, r24	; 0x8003ac <usart0_tx_buff+0x4>
	usart0_tx_buff[5] = (ALAEM_MSG1_ADDR + (msg_num * 16)) & 0x00FF;
    44da:	8c 81       	ldd	r24, Y+4	; 0x04
    44dc:	88 2f       	mov	r24, r24
    44de:	90 e0       	ldi	r25, 0x00	; 0
    44e0:	8b 96       	adiw	r24, 0x2b	; 43
    44e2:	82 95       	swap	r24
    44e4:	80 7f       	andi	r24, 0xF0	; 240
    44e6:	80 93 ad 03 	sts	0x03AD, r24	; 0x8003ad <usart0_tx_buff+0x5>

	for (i = 0; i < 16; i++)
    44ea:	19 82       	std	Y+1, r1	; 0x01
    44ec:	0b c0       	rjmp	.+22     	; 0x4504 <clear_alarm_msg+0x74>
	{
		usart0_tx_buff[i + 6] = 0x00;
    44ee:	89 81       	ldd	r24, Y+1	; 0x01
    44f0:	88 2f       	mov	r24, r24
    44f2:	90 e0       	ldi	r25, 0x00	; 0
    44f4:	06 96       	adiw	r24, 0x06	; 6
    44f6:	88 55       	subi	r24, 0x58	; 88
    44f8:	9c 4f       	sbci	r25, 0xFC	; 252
    44fa:	fc 01       	movw	r30, r24
    44fc:	10 82       	st	Z, r1
	usart0_tx_buff[2] = 0x13;
	usart0_tx_buff[3] = 0x82;
	usart0_tx_buff[4] = (ALAEM_MSG1_ADDR + (msg_num * 16)) >> 8;
	usart0_tx_buff[5] = (ALAEM_MSG1_ADDR + (msg_num * 16)) & 0x00FF;

	for (i = 0; i < 16; i++)
    44fe:	89 81       	ldd	r24, Y+1	; 0x01
    4500:	8f 5f       	subi	r24, 0xFF	; 255
    4502:	89 83       	std	Y+1, r24	; 0x01
    4504:	89 81       	ldd	r24, Y+1	; 0x01
    4506:	80 31       	cpi	r24, 0x10	; 16
    4508:	90 f3       	brcs	.-28     	; 0x44ee <clear_alarm_msg+0x5e>
	{
		usart0_tx_buff[i + 6] = 0x00;
	}

	crc = crc_check(usart0_tx_buff, 24);
    450a:	68 e1       	ldi	r22, 0x18	; 24
    450c:	88 ea       	ldi	r24, 0xA8	; 168
    450e:	93 e0       	ldi	r25, 0x03	; 3
    4510:	0e 94 4d 35 	call	0x6a9a	; 0x6a9a <crc_check>
    4514:	9b 83       	std	Y+3, r25	; 0x03
    4516:	8a 83       	std	Y+2, r24	; 0x02

	usart0_tx_buff[22] = crc & 0x00FF;
    4518:	8a 81       	ldd	r24, Y+2	; 0x02
    451a:	80 93 be 03 	sts	0x03BE, r24	; 0x8003be <usart0_tx_buff+0x16>
	usart0_tx_buff[23] = crc >> 8;
    451e:	8a 81       	ldd	r24, Y+2	; 0x02
    4520:	9b 81       	ldd	r25, Y+3	; 0x03
    4522:	89 2f       	mov	r24, r25
    4524:	99 27       	eor	r25, r25
    4526:	80 93 bf 03 	sts	0x03BF, r24	; 0x8003bf <usart0_tx_buff+0x17>

	usart0_send_str(usart0_tx_buff, 24);
    452a:	68 e1       	ldi	r22, 0x18	; 24
    452c:	88 ea       	ldi	r24, 0xA8	; 168
    452e:	93 e0       	ldi	r25, 0x03	; 3
    4530:	0e 94 94 34 	call	0x6928	; 0x6928 <usart0_send_str>

	send_variables(ALARM_DEVICE_NUM1_ADDR + (msg_num * 2), 0x0000);
    4534:	8c 81       	ldd	r24, Y+4	; 0x04
    4536:	88 2f       	mov	r24, r24
    4538:	90 e0       	ldi	r25, 0x00	; 0
    453a:	80 57       	subi	r24, 0x70	; 112
    453c:	9e 4f       	sbci	r25, 0xFE	; 254
    453e:	88 0f       	add	r24, r24
    4540:	99 1f       	adc	r25, r25
    4542:	60 e0       	ldi	r22, 0x00	; 0
    4544:	70 e0       	ldi	r23, 0x00	; 0
    4546:	0e 94 1f 1c 	call	0x383e	; 0x383e <send_variables>
}
    454a:	00 00       	nop
    454c:	0f 90       	pop	r0
    454e:	0f 90       	pop	r0
    4550:	0f 90       	pop	r0
    4552:	0f 90       	pop	r0
    4554:	df 91       	pop	r29
    4556:	cf 91       	pop	r28
    4558:	08 95       	ret

0000455a <clear_all_alarm_msg>:

/**/
void clear_all_alarm_msg(void)
{
    455a:	cf 93       	push	r28
    455c:	df 93       	push	r29
    455e:	1f 92       	push	r1
    4560:	cd b7       	in	r28, 0x3d	; 61
    4562:	de b7       	in	r29, 0x3e	; 62
	uint8_t i;

	alarm_cnt = 0;
    4564:	10 92 bd 02 	sts	0x02BD, r1	; 0x8002bd <alarm_cnt>

	for (i = 0; i < 7; i++)
    4568:	19 82       	std	Y+1, r1	; 0x01
    456a:	06 c0       	rjmp	.+12     	; 0x4578 <clear_all_alarm_msg+0x1e>
	{
		clear_alarm_msg(i);
    456c:	89 81       	ldd	r24, Y+1	; 0x01
    456e:	0e 94 48 22 	call	0x4490	; 0x4490 <clear_alarm_msg>
{
	uint8_t i;

	alarm_cnt = 0;

	for (i = 0; i < 7; i++)
    4572:	89 81       	ldd	r24, Y+1	; 0x01
    4574:	8f 5f       	subi	r24, 0xFF	; 255
    4576:	89 83       	std	Y+1, r24	; 0x01
    4578:	89 81       	ldd	r24, Y+1	; 0x01
    457a:	87 30       	cpi	r24, 0x07	; 7
    457c:	b8 f3       	brcs	.-18     	; 0x456c <clear_all_alarm_msg+0x12>
	{
		clear_alarm_msg(i);
	}

	update_alarm_page(1);
    457e:	81 e0       	ldi	r24, 0x01	; 1
    4580:	0e 94 4b 1b 	call	0x3696	; 0x3696 <update_alarm_page>
	eeprom_write_byte((uint8_t *)ALARM_CNT_EEADDR, alarm_cnt);
    4584:	80 91 bd 02 	lds	r24, 0x02BD	; 0x8002bd <alarm_cnt>
    4588:	68 2f       	mov	r22, r24
    458a:	82 e0       	ldi	r24, 0x02	; 2
    458c:	90 e0       	ldi	r25, 0x00	; 0
    458e:	0e 94 0e 38 	call	0x701c	; 0x701c <eeprom_write_byte>
}
    4592:	00 00       	nop
    4594:	0f 90       	pop	r0
    4596:	df 91       	pop	r29
    4598:	cf 91       	pop	r28
    459a:	08 95       	ret

0000459c <clear_curve_buff>:

void clear_curve_buff(uint8_t channel)
{
    459c:	cf 93       	push	r28
    459e:	df 93       	push	r29
    45a0:	00 d0       	rcall	.+0      	; 0x45a2 <clear_curve_buff+0x6>
    45a2:	1f 92       	push	r1
    45a4:	cd b7       	in	r28, 0x3d	; 61
    45a6:	de b7       	in	r29, 0x3e	; 62
    45a8:	8b 83       	std	Y+3, r24	; 0x03
	uint16_t crc = 0;
    45aa:	1a 82       	std	Y+2, r1	; 0x02
    45ac:	19 82       	std	Y+1, r1	; 0x01

	usart0_tx_buff[0] = 0xA5;
    45ae:	85 ea       	ldi	r24, 0xA5	; 165
    45b0:	80 93 a8 03 	sts	0x03A8, r24	; 0x8003a8 <usart0_tx_buff>
	usart0_tx_buff[1] = 0x5A;
    45b4:	8a e5       	ldi	r24, 0x5A	; 90
    45b6:	80 93 a9 03 	sts	0x03A9, r24	; 0x8003a9 <usart0_tx_buff+0x1>
	usart0_tx_buff[2] = 0x03;
    45ba:	83 e0       	ldi	r24, 0x03	; 3
    45bc:	80 93 aa 03 	sts	0x03AA, r24	; 0x8003aa <usart0_tx_buff+0x2>
	usart0_tx_buff[3] = 0x80;
    45c0:	80 e8       	ldi	r24, 0x80	; 128
    45c2:	80 93 ab 03 	sts	0x03AB, r24	; 0x8003ab <usart0_tx_buff+0x3>
	usart0_tx_buff[4] = 0xEB;
    45c6:	8b ee       	ldi	r24, 0xEB	; 235
    45c8:	80 93 ac 03 	sts	0x03AC, r24	; 0x8003ac <usart0_tx_buff+0x4>
	usart0_tx_buff[5] = channel;
    45cc:	8b 81       	ldd	r24, Y+3	; 0x03
    45ce:	80 93 ad 03 	sts	0x03AD, r24	; 0x8003ad <usart0_tx_buff+0x5>

	crc = crc_check(usart0_tx_buff, 8);
    45d2:	68 e0       	ldi	r22, 0x08	; 8
    45d4:	88 ea       	ldi	r24, 0xA8	; 168
    45d6:	93 e0       	ldi	r25, 0x03	; 3
    45d8:	0e 94 4d 35 	call	0x6a9a	; 0x6a9a <crc_check>
    45dc:	9a 83       	std	Y+2, r25	; 0x02
    45de:	89 83       	std	Y+1, r24	; 0x01

	usart0_tx_buff[6] = crc & 0x00FF;
    45e0:	89 81       	ldd	r24, Y+1	; 0x01
    45e2:	80 93 ae 03 	sts	0x03AE, r24	; 0x8003ae <usart0_tx_buff+0x6>
	usart0_tx_buff[7] = crc >> 8;
    45e6:	89 81       	ldd	r24, Y+1	; 0x01
    45e8:	9a 81       	ldd	r25, Y+2	; 0x02
    45ea:	89 2f       	mov	r24, r25
    45ec:	99 27       	eor	r25, r25
    45ee:	80 93 af 03 	sts	0x03AF, r24	; 0x8003af <usart0_tx_buff+0x7>

	usart0_send_str(usart0_tx_buff, 8);
    45f2:	68 e0       	ldi	r22, 0x08	; 8
    45f4:	88 ea       	ldi	r24, 0xA8	; 168
    45f6:	93 e0       	ldi	r25, 0x03	; 3
    45f8:	0e 94 94 34 	call	0x6928	; 0x6928 <usart0_send_str>
}
    45fc:	00 00       	nop
    45fe:	0f 90       	pop	r0
    4600:	0f 90       	pop	r0
    4602:	0f 90       	pop	r0
    4604:	df 91       	pop	r29
    4606:	cf 91       	pop	r28
    4608:	08 95       	ret

0000460a <alarm_monitor>:

void alarm_monitor(void)
{
    460a:	cf 93       	push	r28
    460c:	df 93       	push	r29
    460e:	00 d0       	rcall	.+0      	; 0x4610 <alarm_monitor+0x6>
    4610:	00 d0       	rcall	.+0      	; 0x4612 <alarm_monitor+0x8>
    4612:	cd b7       	in	r28, 0x3d	; 61
    4614:	de b7       	in	r29, 0x3e	; 62
	uint8_t i, j;
	uint16_t alarm_sta_mask = 0;
    4616:	1c 82       	std	Y+4, r1	; 0x04
    4618:	1b 82       	std	Y+3, r1	; 0x03

	for (i = 0; i < MAX_IQR_QUANTITY; i++)
    461a:	19 82       	std	Y+1, r1	; 0x01
    461c:	d0 c0       	rjmp	.+416    	; 0x47be <alarm_monitor+0x1b4>
	{
		if (sensor_sta[i] != pre_sensor_sta[i])
    461e:	89 81       	ldd	r24, Y+1	; 0x01
    4620:	88 2f       	mov	r24, r24
    4622:	90 e0       	ldi	r25, 0x00	; 0
    4624:	8f 53       	subi	r24, 0x3F	; 63
    4626:	9e 4f       	sbci	r25, 0xFE	; 254
    4628:	fc 01       	movw	r30, r24
    462a:	20 81       	ld	r18, Z
    462c:	89 81       	ldd	r24, Y+1	; 0x01
    462e:	88 2f       	mov	r24, r24
    4630:	90 e0       	ldi	r25, 0x00	; 0
    4632:	87 52       	subi	r24, 0x27	; 39
    4634:	9e 4f       	sbci	r25, 0xFE	; 254
    4636:	fc 01       	movw	r30, r24
    4638:	80 81       	ld	r24, Z
    463a:	28 17       	cp	r18, r24
    463c:	09 f4       	brne	.+2      	; 0x4640 <alarm_monitor+0x36>
    463e:	a2 c0       	rjmp	.+324    	; 0x4784 <alarm_monitor+0x17a>
		{
			pre_sensor_sta[i] = sensor_sta[i];
    4640:	89 81       	ldd	r24, Y+1	; 0x01
    4642:	88 2f       	mov	r24, r24
    4644:	90 e0       	ldi	r25, 0x00	; 0
    4646:	29 81       	ldd	r18, Y+1	; 0x01
    4648:	22 2f       	mov	r18, r18
    464a:	30 e0       	ldi	r19, 0x00	; 0
    464c:	2f 53       	subi	r18, 0x3F	; 63
    464e:	3e 4f       	sbci	r19, 0xFE	; 254
    4650:	f9 01       	movw	r30, r18
    4652:	20 81       	ld	r18, Z
    4654:	87 52       	subi	r24, 0x27	; 39
    4656:	9e 4f       	sbci	r25, 0xFE	; 254
    4658:	fc 01       	movw	r30, r24
    465a:	20 83       	st	Z, r18

			if (sensor_sta[i] >= 3)
    465c:	89 81       	ldd	r24, Y+1	; 0x01
    465e:	88 2f       	mov	r24, r24
    4660:	90 e0       	ldi	r25, 0x00	; 0
    4662:	8f 53       	subi	r24, 0x3F	; 63
    4664:	9e 4f       	sbci	r25, 0xFE	; 254
    4666:	fc 01       	movw	r30, r24
    4668:	80 81       	ld	r24, Z
    466a:	83 30       	cpi	r24, 0x03	; 3
    466c:	08 f4       	brcc	.+2      	; 0x4670 <alarm_monitor+0x66>
    466e:	8a c0       	rjmp	.+276    	; 0x4784 <alarm_monitor+0x17a>
			{
				ALARM_ON;
    4670:	82 e3       	ldi	r24, 0x32	; 50
    4672:	90 e0       	ldi	r25, 0x00	; 0
    4674:	22 e3       	ldi	r18, 0x32	; 50
    4676:	30 e0       	ldi	r19, 0x00	; 0
    4678:	f9 01       	movw	r30, r18
    467a:	20 81       	ld	r18, Z
    467c:	20 61       	ori	r18, 0x10	; 16
    467e:	fc 01       	movw	r30, r24
    4680:	20 83       	st	Z, r18
				LED6_ON;
    4682:	8b e3       	ldi	r24, 0x3B	; 59
    4684:	90 e0       	ldi	r25, 0x00	; 0
    4686:	2b e3       	ldi	r18, 0x3B	; 59
    4688:	30 e0       	ldi	r19, 0x00	; 0
    468a:	f9 01       	movw	r30, r18
    468c:	20 81       	ld	r18, Z
    468e:	2d 7f       	andi	r18, 0xFD	; 253
    4690:	fc 01       	movw	r30, r24
    4692:	20 83       	st	Z, r18

				if (alarm_cnt >= MAX_ALARM_HISTORY - 1)
    4694:	80 91 bd 02 	lds	r24, 0x02BD	; 0x8002bd <alarm_cnt>
    4698:	85 34       	cpi	r24, 0x45	; 69
    469a:	18 f1       	brcs	.+70     	; 0x46e2 <alarm_monitor+0xd8>
				{
					alarm_cnt = MAX_ALARM_HISTORY - 1;
    469c:	85 e4       	ldi	r24, 0x45	; 69
    469e:	80 93 bd 02 	sts	0x02BD, r24	; 0x8002bd <alarm_cnt>
					for (j = 0; j < alarm_cnt; j++)
    46a2:	1a 82       	std	Y+2, r1	; 0x02
    46a4:	19 c0       	rjmp	.+50     	; 0x46d8 <alarm_monitor+0xce>
					{
						alarm_history[j] = alarm_history[j + 1];
    46a6:	8a 81       	ldd	r24, Y+2	; 0x02
    46a8:	88 2f       	mov	r24, r24
    46aa:	90 e0       	ldi	r25, 0x00	; 0
    46ac:	2a 81       	ldd	r18, Y+2	; 0x02
    46ae:	22 2f       	mov	r18, r18
    46b0:	30 e0       	ldi	r19, 0x00	; 0
    46b2:	2f 5f       	subi	r18, 0xFF	; 255
    46b4:	3f 4f       	sbci	r19, 0xFF	; 255
    46b6:	88 0f       	add	r24, r24
    46b8:	99 1f       	adc	r25, r25
    46ba:	80 58       	subi	r24, 0x80	; 128
    46bc:	95 4f       	sbci	r25, 0xF5	; 245
    46be:	22 0f       	add	r18, r18
    46c0:	33 1f       	adc	r19, r19
    46c2:	20 58       	subi	r18, 0x80	; 128
    46c4:	35 4f       	sbci	r19, 0xF5	; 245
    46c6:	f9 01       	movw	r30, r18
    46c8:	20 81       	ld	r18, Z
    46ca:	31 81       	ldd	r19, Z+1	; 0x01
    46cc:	fc 01       	movw	r30, r24
    46ce:	31 83       	std	Z+1, r19	; 0x01
    46d0:	20 83       	st	Z, r18
				LED6_ON;

				if (alarm_cnt >= MAX_ALARM_HISTORY - 1)
				{
					alarm_cnt = MAX_ALARM_HISTORY - 1;
					for (j = 0; j < alarm_cnt; j++)
    46d2:	8a 81       	ldd	r24, Y+2	; 0x02
    46d4:	8f 5f       	subi	r24, 0xFF	; 255
    46d6:	8a 83       	std	Y+2, r24	; 0x02
    46d8:	80 91 bd 02 	lds	r24, 0x02BD	; 0x8002bd <alarm_cnt>
    46dc:	9a 81       	ldd	r25, Y+2	; 0x02
    46de:	98 17       	cp	r25, r24
    46e0:	10 f3       	brcs	.-60     	; 0x46a6 <alarm_monitor+0x9c>
					{
						alarm_history[j] = alarm_history[j + 1];
					}
				}
				alarm_history[alarm_cnt].alarm_type = sensor_sta[i] - 3;
    46e2:	80 91 bd 02 	lds	r24, 0x02BD	; 0x8002bd <alarm_cnt>
    46e6:	88 2f       	mov	r24, r24
    46e8:	90 e0       	ldi	r25, 0x00	; 0
    46ea:	29 81       	ldd	r18, Y+1	; 0x01
    46ec:	22 2f       	mov	r18, r18
    46ee:	30 e0       	ldi	r19, 0x00	; 0
    46f0:	2f 53       	subi	r18, 0x3F	; 63
    46f2:	3e 4f       	sbci	r19, 0xFE	; 254
    46f4:	f9 01       	movw	r30, r18
    46f6:	20 81       	ld	r18, Z
    46f8:	23 50       	subi	r18, 0x03	; 3
    46fa:	88 0f       	add	r24, r24
    46fc:	99 1f       	adc	r25, r25
    46fe:	80 58       	subi	r24, 0x80	; 128
    4700:	95 4f       	sbci	r25, 0xF5	; 245
    4702:	fc 01       	movw	r30, r24
    4704:	20 83       	st	Z, r18
				alarm_history[alarm_cnt].alarm_device_num = i;
    4706:	80 91 bd 02 	lds	r24, 0x02BD	; 0x8002bd <alarm_cnt>
    470a:	88 2f       	mov	r24, r24
    470c:	90 e0       	ldi	r25, 0x00	; 0
    470e:	88 0f       	add	r24, r24
    4710:	99 1f       	adc	r25, r25
    4712:	8f 57       	subi	r24, 0x7F	; 127
    4714:	95 4f       	sbci	r25, 0xF5	; 245
    4716:	29 81       	ldd	r18, Y+1	; 0x01
    4718:	fc 01       	movw	r30, r24
    471a:	20 83       	st	Z, r18

				eeprom_write_byte((uint8_t *)(ALARM_HISTORY_EEADDR + alarm_cnt * 2 + 1),
    471c:	80 91 bd 02 	lds	r24, 0x02BD	; 0x8002bd <alarm_cnt>
    4720:	88 2f       	mov	r24, r24
    4722:	90 e0       	ldi	r25, 0x00	; 0
								  alarm_history[alarm_cnt].alarm_type);
    4724:	88 0f       	add	r24, r24
    4726:	99 1f       	adc	r25, r25
    4728:	80 58       	subi	r24, 0x80	; 128
    472a:	95 4f       	sbci	r25, 0xF5	; 245
    472c:	fc 01       	movw	r30, r24
    472e:	20 81       	ld	r18, Z
					}
				}
				alarm_history[alarm_cnt].alarm_type = sensor_sta[i] - 3;
				alarm_history[alarm_cnt].alarm_device_num = i;

				eeprom_write_byte((uint8_t *)(ALARM_HISTORY_EEADDR + alarm_cnt * 2 + 1),
    4730:	80 91 bd 02 	lds	r24, 0x02BD	; 0x8002bd <alarm_cnt>
    4734:	88 2f       	mov	r24, r24
    4736:	90 e0       	ldi	r25, 0x00	; 0
    4738:	02 96       	adiw	r24, 0x02	; 2
    473a:	88 0f       	add	r24, r24
    473c:	99 1f       	adc	r25, r25
    473e:	62 2f       	mov	r22, r18
    4740:	0e 94 0e 38 	call	0x701c	; 0x701c <eeprom_write_byte>
								  alarm_history[alarm_cnt].alarm_type);
				eeprom_write_byte((uint8_t *)(ALARM_HISTORY_EEADDR + alarm_cnt * 2),
    4744:	80 91 bd 02 	lds	r24, 0x02BD	; 0x8002bd <alarm_cnt>
    4748:	88 2f       	mov	r24, r24
    474a:	90 e0       	ldi	r25, 0x00	; 0
    474c:	88 0f       	add	r24, r24
    474e:	99 1f       	adc	r25, r25
    4750:	8f 57       	subi	r24, 0x7F	; 127
    4752:	95 4f       	sbci	r25, 0xF5	; 245
    4754:	fc 01       	movw	r30, r24
    4756:	20 81       	ld	r18, Z
    4758:	80 91 bd 02 	lds	r24, 0x02BD	; 0x8002bd <alarm_cnt>
    475c:	88 2f       	mov	r24, r24
    475e:	90 e0       	ldi	r25, 0x00	; 0
    4760:	88 0f       	add	r24, r24
    4762:	99 1f       	adc	r25, r25
    4764:	03 96       	adiw	r24, 0x03	; 3
    4766:	62 2f       	mov	r22, r18
    4768:	0e 94 0e 38 	call	0x701c	; 0x701c <eeprom_write_byte>
								  alarm_history[alarm_cnt].alarm_device_num);
				eeprom_write_byte((uint8_t *)ALARM_CNT_EEADDR, ++alarm_cnt);
    476c:	80 91 bd 02 	lds	r24, 0x02BD	; 0x8002bd <alarm_cnt>
    4770:	8f 5f       	subi	r24, 0xFF	; 255
    4772:	80 93 bd 02 	sts	0x02BD, r24	; 0x8002bd <alarm_cnt>
    4776:	80 91 bd 02 	lds	r24, 0x02BD	; 0x8002bd <alarm_cnt>
    477a:	68 2f       	mov	r22, r24
    477c:	82 e0       	ldi	r24, 0x02	; 2
    477e:	90 e0       	ldi	r25, 0x00	; 0
    4780:	0e 94 0e 38 	call	0x701c	; 0x701c <eeprom_write_byte>
			}
		}

		if (sensor_sta[i] <= 2)
    4784:	89 81       	ldd	r24, Y+1	; 0x01
    4786:	88 2f       	mov	r24, r24
    4788:	90 e0       	ldi	r25, 0x00	; 0
    478a:	8f 53       	subi	r24, 0x3F	; 63
    478c:	9e 4f       	sbci	r25, 0xFE	; 254
    478e:	fc 01       	movw	r30, r24
    4790:	80 81       	ld	r24, Z
    4792:	83 30       	cpi	r24, 0x03	; 3
    4794:	88 f4       	brcc	.+34     	; 0x47b8 <alarm_monitor+0x1ae>
		{
			alarm_sta_mask |= 1 << i;
    4796:	89 81       	ldd	r24, Y+1	; 0x01
    4798:	28 2f       	mov	r18, r24
    479a:	30 e0       	ldi	r19, 0x00	; 0
    479c:	81 e0       	ldi	r24, 0x01	; 1
    479e:	90 e0       	ldi	r25, 0x00	; 0
    47a0:	02 c0       	rjmp	.+4      	; 0x47a6 <alarm_monitor+0x19c>
    47a2:	88 0f       	add	r24, r24
    47a4:	99 1f       	adc	r25, r25
    47a6:	2a 95       	dec	r18
    47a8:	e2 f7       	brpl	.-8      	; 0x47a2 <alarm_monitor+0x198>
    47aa:	9c 01       	movw	r18, r24
    47ac:	8b 81       	ldd	r24, Y+3	; 0x03
    47ae:	9c 81       	ldd	r25, Y+4	; 0x04
    47b0:	82 2b       	or	r24, r18
    47b2:	93 2b       	or	r25, r19
    47b4:	9c 83       	std	Y+4, r25	; 0x04
    47b6:	8b 83       	std	Y+3, r24	; 0x03
void alarm_monitor(void)
{
	uint8_t i, j;
	uint16_t alarm_sta_mask = 0;

	for (i = 0; i < MAX_IQR_QUANTITY; i++)
    47b8:	89 81       	ldd	r24, Y+1	; 0x01
    47ba:	8f 5f       	subi	r24, 0xFF	; 255
    47bc:	89 83       	std	Y+1, r24	; 0x01
    47be:	89 81       	ldd	r24, Y+1	; 0x01
    47c0:	88 31       	cpi	r24, 0x18	; 24
    47c2:	08 f4       	brcc	.+2      	; 0x47c6 <alarm_monitor+0x1bc>
    47c4:	2c cf       	rjmp	.-424    	; 0x461e <alarm_monitor+0x14>
			alarm_sta_mask |= 1 << i;
		}
	}

	/* */
	if (alarm_sta_mask == 0x0FFF)
    47c6:	8b 81       	ldd	r24, Y+3	; 0x03
    47c8:	9c 81       	ldd	r25, Y+4	; 0x04
    47ca:	8f 3f       	cpi	r24, 0xFF	; 255
    47cc:	9f 40       	sbci	r25, 0x0F	; 15
    47ce:	91 f4       	brne	.+36     	; 0x47f4 <alarm_monitor+0x1ea>
	{
		ALARM_OFF;
    47d0:	82 e3       	ldi	r24, 0x32	; 50
    47d2:	90 e0       	ldi	r25, 0x00	; 0
    47d4:	22 e3       	ldi	r18, 0x32	; 50
    47d6:	30 e0       	ldi	r19, 0x00	; 0
    47d8:	f9 01       	movw	r30, r18
    47da:	20 81       	ld	r18, Z
    47dc:	2f 7e       	andi	r18, 0xEF	; 239
    47de:	fc 01       	movw	r30, r24
    47e0:	20 83       	st	Z, r18
		LED6_OFF;
    47e2:	8b e3       	ldi	r24, 0x3B	; 59
    47e4:	90 e0       	ldi	r25, 0x00	; 0
    47e6:	2b e3       	ldi	r18, 0x3B	; 59
    47e8:	30 e0       	ldi	r19, 0x00	; 0
    47ea:	f9 01       	movw	r30, r18
    47ec:	20 81       	ld	r18, Z
    47ee:	22 60       	ori	r18, 0x02	; 2
    47f0:	fc 01       	movw	r30, r24
    47f2:	20 83       	st	Z, r18
	}
	alarm_sta_mask = 0;
    47f4:	1c 82       	std	Y+4, r1	; 0x04
    47f6:	1b 82       	std	Y+3, r1	; 0x03
}
    47f8:	00 00       	nop
    47fa:	0f 90       	pop	r0
    47fc:	0f 90       	pop	r0
    47fe:	0f 90       	pop	r0
    4800:	0f 90       	pop	r0
    4802:	df 91       	pop	r29
    4804:	cf 91       	pop	r28
    4806:	08 95       	ret

00004808 <update_template_page>:

void update_template_page(uint8_t first_tpnum)
{
    4808:	cf 93       	push	r28
    480a:	df 93       	push	r29
    480c:	cd b7       	in	r28, 0x3d	; 61
    480e:	de b7       	in	r29, 0x3e	; 62
    4810:	27 97       	sbiw	r28, 0x07	; 7
    4812:	0f b6       	in	r0, 0x3f	; 63
    4814:	f8 94       	cli
    4816:	de bf       	out	0x3e, r29	; 62
    4818:	0f be       	out	0x3f, r0	; 63
    481a:	cd bf       	out	0x3d, r28	; 61
    481c:	8f 83       	std	Y+7, r24	; 0x07
	uint8_t i;
 	uint8_t sta;
 	uint32_t name;
	
	send_name(TEMPLATE_SAVE_NAME, tp_save_name);
    481e:	80 91 c7 02 	lds	r24, 0x02C7	; 0x8002c7 <tp_save_name>
    4822:	90 91 c8 02 	lds	r25, 0x02C8	; 0x8002c8 <tp_save_name+0x1>
    4826:	a0 91 c9 02 	lds	r26, 0x02C9	; 0x8002c9 <tp_save_name+0x2>
    482a:	b0 91 ca 02 	lds	r27, 0x02CA	; 0x8002ca <tp_save_name+0x3>
    482e:	ac 01       	movw	r20, r24
    4830:	bd 01       	movw	r22, r26
    4832:	8c eb       	ldi	r24, 0xBC	; 188
    4834:	91 e0       	ldi	r25, 0x01	; 1
    4836:	0e 94 69 1c 	call	0x38d2	; 0x38d2 <send_name>
	send_name(TEMPLATE_FIND_NAME, tp_find_name);		//
    483a:	80 91 c3 02 	lds	r24, 0x02C3	; 0x8002c3 <tp_find_name>
    483e:	90 91 c4 02 	lds	r25, 0x02C4	; 0x8002c4 <tp_find_name+0x1>
    4842:	a0 91 c5 02 	lds	r26, 0x02C5	; 0x8002c5 <tp_find_name+0x2>
    4846:	b0 91 c6 02 	lds	r27, 0x02C6	; 0x8002c6 <tp_find_name+0x3>
    484a:	ac 01       	movw	r20, r24
    484c:	bd 01       	movw	r22, r26
    484e:	86 eb       	ldi	r24, 0xB6	; 182
    4850:	91 e0       	ldi	r25, 0x01	; 1
    4852:	0e 94 69 1c 	call	0x38d2	; 0x38d2 <send_name>
	send_variables(TEMPLATE_TIP_MAG, template_tip_msg);
    4856:	80 91 c2 02 	lds	r24, 0x02C2	; 0x8002c2 <template_tip_msg>
    485a:	88 2f       	mov	r24, r24
    485c:	90 e0       	ldi	r25, 0x00	; 0
    485e:	bc 01       	movw	r22, r24
    4860:	8e e8       	ldi	r24, 0x8E	; 142
    4862:	90 e0       	ldi	r25, 0x00	; 0
    4864:	0e 94 1f 1c 	call	0x383e	; 0x383e <send_variables>
	
	for (i = 0; i < 5; i++)
    4868:	19 82       	std	Y+1, r1	; 0x01
    486a:	6f c0       	rjmp	.+222    	; 0x494a <update_template_page+0x142>
	{
		send_variables(TEMPLATE_NUM1 + i * 2, first_tpnum + i);
    486c:	8f 81       	ldd	r24, Y+7	; 0x07
    486e:	28 2f       	mov	r18, r24
    4870:	30 e0       	ldi	r19, 0x00	; 0
    4872:	89 81       	ldd	r24, Y+1	; 0x01
    4874:	88 2f       	mov	r24, r24
    4876:	90 e0       	ldi	r25, 0x00	; 0
    4878:	82 0f       	add	r24, r18
    487a:	93 1f       	adc	r25, r19
    487c:	9c 01       	movw	r18, r24
    487e:	89 81       	ldd	r24, Y+1	; 0x01
    4880:	88 2f       	mov	r24, r24
    4882:	90 e0       	ldi	r25, 0x00	; 0
    4884:	cc 96       	adiw	r24, 0x3c	; 60
    4886:	88 0f       	add	r24, r24
    4888:	99 1f       	adc	r25, r25
    488a:	b9 01       	movw	r22, r18
    488c:	0e 94 1f 1c 	call	0x383e	; 0x383e <send_variables>
			
		if(first_tpnum + i > template_cnt)
    4890:	8f 81       	ldd	r24, Y+7	; 0x07
    4892:	28 2f       	mov	r18, r24
    4894:	30 e0       	ldi	r19, 0x00	; 0
    4896:	89 81       	ldd	r24, Y+1	; 0x01
    4898:	88 2f       	mov	r24, r24
    489a:	90 e0       	ldi	r25, 0x00	; 0
    489c:	28 0f       	add	r18, r24
    489e:	39 1f       	adc	r19, r25
    48a0:	80 91 c1 02 	lds	r24, 0x02C1	; 0x8002c1 <template_cnt>
    48a4:	88 2f       	mov	r24, r24
    48a6:	90 e0       	ldi	r25, 0x00	; 0
    48a8:	82 17       	cp	r24, r18
    48aa:	93 07       	cpc	r25, r19
    48ac:	d4 f4       	brge	.+52     	; 0x48e2 <update_template_page+0xda>
		{
			send_name(TEMPLATE_NAME1 + i * 4, 0);			//
    48ae:	89 81       	ldd	r24, Y+1	; 0x01
    48b0:	88 2f       	mov	r24, r24
    48b2:	90 e0       	ldi	r25, 0x00	; 0
    48b4:	88 0f       	add	r24, r24
    48b6:	99 1f       	adc	r25, r25
    48b8:	88 0f       	add	r24, r24
    48ba:	99 1f       	adc	r25, r25
    48bc:	8e 55       	subi	r24, 0x5E	; 94
    48be:	9e 4f       	sbci	r25, 0xFE	; 254
    48c0:	40 e0       	ldi	r20, 0x00	; 0
    48c2:	50 e0       	ldi	r21, 0x00	; 0
    48c4:	ba 01       	movw	r22, r20
    48c6:	0e 94 69 1c 	call	0x38d2	; 0x38d2 <send_name>
			send_variables(TEMPLATE_STATUS1 + i * 2, 4);	//
    48ca:	89 81       	ldd	r24, Y+1	; 0x01
    48cc:	88 2f       	mov	r24, r24
    48ce:	90 e0       	ldi	r25, 0x00	; 0
    48d0:	8e 5b       	subi	r24, 0xBE	; 190
    48d2:	9f 4f       	sbci	r25, 0xFF	; 255
    48d4:	88 0f       	add	r24, r24
    48d6:	99 1f       	adc	r25, r25
    48d8:	64 e0       	ldi	r22, 0x04	; 4
    48da:	70 e0       	ldi	r23, 0x00	; 0
    48dc:	0e 94 1f 1c 	call	0x383e	; 0x383e <send_variables>
    48e0:	31 c0       	rjmp	.+98     	; 0x4944 <update_template_page+0x13c>
		}
		else
		{
			sta = read_sta_from_eeprom(first_tpnum + i);
    48e2:	9f 81       	ldd	r25, Y+7	; 0x07
    48e4:	89 81       	ldd	r24, Y+1	; 0x01
    48e6:	89 0f       	add	r24, r25
    48e8:	0e 94 a8 04 	call	0x950	; 0x950 <read_sta_from_eeprom>
    48ec:	8a 83       	std	Y+2, r24	; 0x02
			send_variables(TEMPLATE_STATUS1 + i * 2, sta);
    48ee:	8a 81       	ldd	r24, Y+2	; 0x02
    48f0:	28 2f       	mov	r18, r24
    48f2:	30 e0       	ldi	r19, 0x00	; 0
    48f4:	89 81       	ldd	r24, Y+1	; 0x01
    48f6:	88 2f       	mov	r24, r24
    48f8:	90 e0       	ldi	r25, 0x00	; 0
    48fa:	8e 5b       	subi	r24, 0xBE	; 190
    48fc:	9f 4f       	sbci	r25, 0xFF	; 255
    48fe:	88 0f       	add	r24, r24
    4900:	99 1f       	adc	r25, r25
    4902:	b9 01       	movw	r22, r18
    4904:	0e 94 1f 1c 	call	0x383e	; 0x383e <send_variables>
						
			name = read_name_from_eeprom(first_tpnum + i);
    4908:	9f 81       	ldd	r25, Y+7	; 0x07
    490a:	89 81       	ldd	r24, Y+1	; 0x01
    490c:	89 0f       	add	r24, r25
    490e:	0e 94 22 05 	call	0xa44	; 0xa44 <read_name_from_eeprom>
    4912:	dc 01       	movw	r26, r24
    4914:	cb 01       	movw	r24, r22
    4916:	8b 83       	std	Y+3, r24	; 0x03
    4918:	9c 83       	std	Y+4, r25	; 0x04
    491a:	ad 83       	std	Y+5, r26	; 0x05
    491c:	be 83       	std	Y+6, r27	; 0x06
			send_name(TEMPLATE_NAME1 + i * 4, name);
    491e:	89 81       	ldd	r24, Y+1	; 0x01
    4920:	88 2f       	mov	r24, r24
    4922:	90 e0       	ldi	r25, 0x00	; 0
    4924:	88 0f       	add	r24, r24
    4926:	99 1f       	adc	r25, r25
    4928:	88 0f       	add	r24, r24
    492a:	99 1f       	adc	r25, r25
    492c:	8e 55       	subi	r24, 0x5E	; 94
    492e:	9e 4f       	sbci	r25, 0xFE	; 254
    4930:	9c 01       	movw	r18, r24
    4932:	8b 81       	ldd	r24, Y+3	; 0x03
    4934:	9c 81       	ldd	r25, Y+4	; 0x04
    4936:	ad 81       	ldd	r26, Y+5	; 0x05
    4938:	be 81       	ldd	r27, Y+6	; 0x06
    493a:	ac 01       	movw	r20, r24
    493c:	bd 01       	movw	r22, r26
    493e:	c9 01       	movw	r24, r18
    4940:	0e 94 69 1c 	call	0x38d2	; 0x38d2 <send_name>
	
	send_name(TEMPLATE_SAVE_NAME, tp_save_name);
	send_name(TEMPLATE_FIND_NAME, tp_find_name);		//
	send_variables(TEMPLATE_TIP_MAG, template_tip_msg);
	
	for (i = 0; i < 5; i++)
    4944:	89 81       	ldd	r24, Y+1	; 0x01
    4946:	8f 5f       	subi	r24, 0xFF	; 255
    4948:	89 83       	std	Y+1, r24	; 0x01
    494a:	89 81       	ldd	r24, Y+1	; 0x01
    494c:	85 30       	cpi	r24, 0x05	; 5
    494e:	08 f4       	brcc	.+2      	; 0x4952 <update_template_page+0x14a>
    4950:	8d cf       	rjmp	.-230    	; 0x486c <update_template_page+0x64>
			name = read_name_from_eeprom(first_tpnum + i);
			send_name(TEMPLATE_NAME1 + i * 4, name);
		}
	}
	
	template_tip_msg = ICON_NONE;
    4952:	10 92 c2 02 	sts	0x02C2, r1	; 0x8002c2 <template_tip_msg>
}
    4956:	00 00       	nop
    4958:	27 96       	adiw	r28, 0x07	; 7
    495a:	0f b6       	in	r0, 0x3f	; 63
    495c:	f8 94       	cli
    495e:	de bf       	out	0x3e, r29	; 62
    4960:	0f be       	out	0x3f, r0	; 63
    4962:	cd bf       	out	0x3d, r28	; 61
    4964:	df 91       	pop	r29
    4966:	cf 91       	pop	r28
    4968:	08 95       	ret

0000496a <update_tp_temp>:

void update_tp_temp(uint8_t page_num)
{
    496a:	cf 93       	push	r28
    496c:	df 93       	push	r29
    496e:	00 d0       	rcall	.+0      	; 0x4970 <update_tp_temp+0x6>
    4970:	1f 92       	push	r1
    4972:	cd b7       	in	r28, 0x3d	; 61
    4974:	de b7       	in	r29, 0x3e	; 62
    4976:	8b 83       	std	Y+3, r24	; 0x03
	uint8_t i,iqr_num;
	
	send_variables(TEMP_VIEW_UNIT, temp_unit);
    4978:	80 91 b7 02 	lds	r24, 0x02B7	; 0x8002b7 <temp_unit>
    497c:	90 91 b8 02 	lds	r25, 0x02B8	; 0x8002b8 <temp_unit+0x1>
    4980:	bc 01       	movw	r22, r24
    4982:	80 e9       	ldi	r24, 0x90	; 144
    4984:	90 e0       	ldi	r25, 0x00	; 0
    4986:	0e 94 1f 1c 	call	0x383e	; 0x383e <send_variables>
	
	for(i=0;i<12;i++)
    498a:	19 82       	std	Y+1, r1	; 0x01
    498c:	61 c0       	rjmp	.+194    	; 0x4a50 <update_tp_temp+0xe6>
	{	
		iqr_num = (page_num - 1) * 12 + i + 1;
    498e:	8b 81       	ldd	r24, Y+3	; 0x03
    4990:	88 2f       	mov	r24, r24
    4992:	90 e0       	ldi	r25, 0x00	; 0
    4994:	01 97       	sbiw	r24, 0x01	; 1
    4996:	98 2f       	mov	r25, r24
    4998:	89 2f       	mov	r24, r25
    499a:	88 0f       	add	r24, r24
    499c:	89 0f       	add	r24, r25
    499e:	88 0f       	add	r24, r24
    49a0:	88 0f       	add	r24, r24
    49a2:	98 2f       	mov	r25, r24
    49a4:	89 81       	ldd	r24, Y+1	; 0x01
    49a6:	89 0f       	add	r24, r25
    49a8:	8f 5f       	subi	r24, 0xFF	; 255
    49aa:	8a 83       	std	Y+2, r24	; 0x02
		send_variables(TEMP_VIEW_NUM1+(i*2), iqr_num);
    49ac:	8a 81       	ldd	r24, Y+2	; 0x02
    49ae:	28 2f       	mov	r18, r24
    49b0:	30 e0       	ldi	r19, 0x00	; 0
    49b2:	89 81       	ldd	r24, Y+1	; 0x01
    49b4:	88 2f       	mov	r24, r24
    49b6:	90 e0       	ldi	r25, 0x00	; 0
    49b8:	87 5b       	subi	r24, 0xB7	; 183
    49ba:	9f 4f       	sbci	r25, 0xFF	; 255
    49bc:	88 0f       	add	r24, r24
    49be:	99 1f       	adc	r25, r25
    49c0:	b9 01       	movw	r22, r18
    49c2:	0e 94 1f 1c 	call	0x383e	; 0x383e <send_variables>
		send_variables(TEMP_VIEW_SETTEMP1+(i*2), template_structure.set_temp[iqr_num-1] + 
    49c6:	8a 81       	ldd	r24, Y+2	; 0x02
    49c8:	88 2f       	mov	r24, r24
    49ca:	90 e0       	ldi	r25, 0x00	; 0
    49cc:	01 97       	sbiw	r24, 0x01	; 1
    49ce:	88 0f       	add	r24, r24
    49d0:	99 1f       	adc	r25, r25
    49d2:	80 5e       	subi	r24, 0xE0	; 224
    49d4:	96 4f       	sbci	r25, 0xF6	; 246
    49d6:	fc 01       	movw	r30, r24
    49d8:	40 81       	ld	r20, Z
    49da:	51 81       	ldd	r21, Z+1	; 0x01
						temp_unit*(template_structure.set_temp[iqr_num-1]*8/10+32));
    49dc:	8a 81       	ldd	r24, Y+2	; 0x02
    49de:	88 2f       	mov	r24, r24
    49e0:	90 e0       	ldi	r25, 0x00	; 0
    49e2:	01 97       	sbiw	r24, 0x01	; 1
    49e4:	88 0f       	add	r24, r24
    49e6:	99 1f       	adc	r25, r25
    49e8:	80 5e       	subi	r24, 0xE0	; 224
    49ea:	96 4f       	sbci	r25, 0xF6	; 246
    49ec:	fc 01       	movw	r30, r24
    49ee:	80 81       	ld	r24, Z
    49f0:	91 81       	ldd	r25, Z+1	; 0x01
    49f2:	88 0f       	add	r24, r24
    49f4:	99 1f       	adc	r25, r25
    49f6:	88 0f       	add	r24, r24
    49f8:	99 1f       	adc	r25, r25
    49fa:	88 0f       	add	r24, r24
    49fc:	99 1f       	adc	r25, r25
    49fe:	9c 01       	movw	r18, r24
    4a00:	ad ec       	ldi	r26, 0xCD	; 205
    4a02:	bc ec       	ldi	r27, 0xCC	; 204
    4a04:	0e 94 dd 37 	call	0x6fba	; 0x6fba <__umulhisi3>
    4a08:	96 95       	lsr	r25
    4a0a:	87 95       	ror	r24
    4a0c:	96 95       	lsr	r25
    4a0e:	87 95       	ror	r24
    4a10:	96 95       	lsr	r25
    4a12:	87 95       	ror	r24
    4a14:	bc 01       	movw	r22, r24
    4a16:	60 5e       	subi	r22, 0xE0	; 224
    4a18:	7f 4f       	sbci	r23, 0xFF	; 255
    4a1a:	20 91 b7 02 	lds	r18, 0x02B7	; 0x8002b7 <temp_unit>
    4a1e:	30 91 b8 02 	lds	r19, 0x02B8	; 0x8002b8 <temp_unit+0x1>
    4a22:	62 9f       	mul	r22, r18
    4a24:	c0 01       	movw	r24, r0
    4a26:	63 9f       	mul	r22, r19
    4a28:	90 0d       	add	r25, r0
    4a2a:	72 9f       	mul	r23, r18
    4a2c:	90 0d       	add	r25, r0
    4a2e:	11 24       	eor	r1, r1
	
	for(i=0;i<12;i++)
	{	
		iqr_num = (page_num - 1) * 12 + i + 1;
		send_variables(TEMP_VIEW_NUM1+(i*2), iqr_num);
		send_variables(TEMP_VIEW_SETTEMP1+(i*2), template_structure.set_temp[iqr_num-1] + 
    4a30:	9a 01       	movw	r18, r20
    4a32:	28 0f       	add	r18, r24
    4a34:	39 1f       	adc	r19, r25
    4a36:	89 81       	ldd	r24, Y+1	; 0x01
    4a38:	88 2f       	mov	r24, r24
    4a3a:	90 e0       	ldi	r25, 0x00	; 0
    4a3c:	8b 5a       	subi	r24, 0xAB	; 171
    4a3e:	9f 4f       	sbci	r25, 0xFF	; 255
    4a40:	88 0f       	add	r24, r24
    4a42:	99 1f       	adc	r25, r25
    4a44:	b9 01       	movw	r22, r18
    4a46:	0e 94 1f 1c 	call	0x383e	; 0x383e <send_variables>
{
	uint8_t i,iqr_num;
	
	send_variables(TEMP_VIEW_UNIT, temp_unit);
	
	for(i=0;i<12;i++)
    4a4a:	89 81       	ldd	r24, Y+1	; 0x01
    4a4c:	8f 5f       	subi	r24, 0xFF	; 255
    4a4e:	89 83       	std	Y+1, r24	; 0x01
    4a50:	89 81       	ldd	r24, Y+1	; 0x01
    4a52:	8c 30       	cpi	r24, 0x0C	; 12
    4a54:	08 f4       	brcc	.+2      	; 0x4a58 <update_tp_temp+0xee>
    4a56:	9b cf       	rjmp	.-202    	; 0x498e <update_tp_temp+0x24>
		iqr_num = (page_num - 1) * 12 + i + 1;
		send_variables(TEMP_VIEW_NUM1+(i*2), iqr_num);
		send_variables(TEMP_VIEW_SETTEMP1+(i*2), template_structure.set_temp[iqr_num-1] + 
						temp_unit*(template_structure.set_temp[iqr_num-1]*8/10+32));
	}
}
    4a58:	00 00       	nop
    4a5a:	0f 90       	pop	r0
    4a5c:	0f 90       	pop	r0
    4a5e:	0f 90       	pop	r0
    4a60:	df 91       	pop	r29
    4a62:	cf 91       	pop	r28
    4a64:	08 95       	ret

00004a66 <update_tp_time>:

void update_tp_time(uint8_t page_num)
{
    4a66:	cf 93       	push	r28
    4a68:	df 93       	push	r29
    4a6a:	00 d0       	rcall	.+0      	; 0x4a6c <update_tp_time+0x6>
    4a6c:	00 d0       	rcall	.+0      	; 0x4a6e <update_tp_time+0x8>
    4a6e:	cd b7       	in	r28, 0x3d	; 61
    4a70:	de b7       	in	r29, 0x3e	; 62
    4a72:	8c 83       	std	Y+4, r24	; 0x04
	uint8_t j, k;
	uint8_t addr_offset = 0x00;
    4a74:	1b 82       	std	Y+3, r1	; 0x03
	
	send_variables(TIME_VIEW_MOUDEL_NUM, page_num);
    4a76:	8c 81       	ldd	r24, Y+4	; 0x04
    4a78:	88 2f       	mov	r24, r24
    4a7a:	90 e0       	ldi	r25, 0x00	; 0
    4a7c:	bc 01       	movw	r22, r24
    4a7e:	82 e0       	ldi	r24, 0x02	; 2
    4a80:	91 e0       	ldi	r25, 0x01	; 1
    4a82:	0e 94 1f 1c 	call	0x383e	; 0x383e <send_variables>

	for (j = 0; j < 8; j++)
    4a86:	19 82       	std	Y+1, r1	; 0x01
    4a88:	37 c0       	rjmp	.+110    	; 0x4af8 <update_tp_time+0x92>
	{
		for (k = 0; k < 4; k++)
    4a8a:	1a 82       	std	Y+2, r1	; 0x02
    4a8c:	2f c0       	rjmp	.+94     	; 0x4aec <update_tp_time+0x86>
		{
			send_variables(TIME_VIEW_IQR1_T1 + addr_offset, template_structure.ctrl_time[page_num - 1][j][k]);
    4a8e:	8c 81       	ldd	r24, Y+4	; 0x04
    4a90:	88 2f       	mov	r24, r24
    4a92:	90 e0       	ldi	r25, 0x00	; 0
    4a94:	ac 01       	movw	r20, r24
    4a96:	41 50       	subi	r20, 0x01	; 1
    4a98:	51 09       	sbc	r21, r1
    4a9a:	89 81       	ldd	r24, Y+1	; 0x01
    4a9c:	28 2f       	mov	r18, r24
    4a9e:	30 e0       	ldi	r19, 0x00	; 0
    4aa0:	8a 81       	ldd	r24, Y+2	; 0x02
    4aa2:	88 2f       	mov	r24, r24
    4aa4:	90 e0       	ldi	r25, 0x00	; 0
    4aa6:	44 0f       	add	r20, r20
    4aa8:	55 1f       	adc	r21, r21
    4aaa:	44 0f       	add	r20, r20
    4aac:	55 1f       	adc	r21, r21
    4aae:	44 0f       	add	r20, r20
    4ab0:	55 1f       	adc	r21, r21
    4ab2:	24 0f       	add	r18, r20
    4ab4:	35 1f       	adc	r19, r21
    4ab6:	22 0f       	add	r18, r18
    4ab8:	33 1f       	adc	r19, r19
    4aba:	22 0f       	add	r18, r18
    4abc:	33 1f       	adc	r19, r19
    4abe:	82 0f       	add	r24, r18
    4ac0:	93 1f       	adc	r25, r19
    4ac2:	88 0f       	add	r24, r24
    4ac4:	99 1f       	adc	r25, r25
    4ac6:	80 58       	subi	r24, 0x80	; 128
    4ac8:	96 4f       	sbci	r25, 0xF6	; 246
    4aca:	fc 01       	movw	r30, r24
    4acc:	20 81       	ld	r18, Z
    4ace:	31 81       	ldd	r19, Z+1	; 0x01
    4ad0:	8b 81       	ldd	r24, Y+3	; 0x03
    4ad2:	88 2f       	mov	r24, r24
    4ad4:	90 e0       	ldi	r25, 0x00	; 0
    4ad6:	8e 53       	subi	r24, 0x3E	; 62
    4ad8:	9f 4f       	sbci	r25, 0xFF	; 255
    4ada:	b9 01       	movw	r22, r18
    4adc:	0e 94 1f 1c 	call	0x383e	; 0x383e <send_variables>
			addr_offset += 0x02;
    4ae0:	8b 81       	ldd	r24, Y+3	; 0x03
    4ae2:	8e 5f       	subi	r24, 0xFE	; 254
    4ae4:	8b 83       	std	Y+3, r24	; 0x03
	
	send_variables(TIME_VIEW_MOUDEL_NUM, page_num);

	for (j = 0; j < 8; j++)
	{
		for (k = 0; k < 4; k++)
    4ae6:	8a 81       	ldd	r24, Y+2	; 0x02
    4ae8:	8f 5f       	subi	r24, 0xFF	; 255
    4aea:	8a 83       	std	Y+2, r24	; 0x02
    4aec:	8a 81       	ldd	r24, Y+2	; 0x02
    4aee:	84 30       	cpi	r24, 0x04	; 4
    4af0:	70 f2       	brcs	.-100    	; 0x4a8e <update_tp_time+0x28>
	uint8_t j, k;
	uint8_t addr_offset = 0x00;
	
	send_variables(TIME_VIEW_MOUDEL_NUM, page_num);

	for (j = 0; j < 8; j++)
    4af2:	89 81       	ldd	r24, Y+1	; 0x01
    4af4:	8f 5f       	subi	r24, 0xFF	; 255
    4af6:	89 83       	std	Y+1, r24	; 0x01
    4af8:	89 81       	ldd	r24, Y+1	; 0x01
    4afa:	88 30       	cpi	r24, 0x08	; 8
    4afc:	30 f2       	brcs	.-116    	; 0x4a8a <update_tp_time+0x24>
		{
			send_variables(TIME_VIEW_IQR1_T1 + addr_offset, template_structure.ctrl_time[page_num - 1][j][k]);
			addr_offset += 0x02;
		}
	}
    4afe:	00 00       	nop
    4b00:	0f 90       	pop	r0
    4b02:	0f 90       	pop	r0
    4b04:	0f 90       	pop	r0
    4b06:	0f 90       	pop	r0
    4b08:	df 91       	pop	r29
    4b0a:	cf 91       	pop	r28
    4b0c:	08 95       	ret

00004b0e <read_eeprom_data>:
#include "usart.h"
#include "at24c128c.h"

/*  */
void read_eeprom_data(void)
{
    4b0e:	cf 92       	push	r12
    4b10:	df 92       	push	r13
    4b12:	ef 92       	push	r14
    4b14:	ff 92       	push	r15
    4b16:	0f 93       	push	r16
    4b18:	1f 93       	push	r17
    4b1a:	cf 93       	push	r28
    4b1c:	df 93       	push	r29
    4b1e:	00 d0       	rcall	.+0      	; 0x4b20 <read_eeprom_data+0x12>
    4b20:	1f 92       	push	r1
    4b22:	cd b7       	in	r28, 0x3d	; 61
    4b24:	de b7       	in	r29, 0x3e	; 62
	uint8_t i,j,k;

	if (eeprom_read_byte((uint8_t *)FIRST_START_ADDR) != 'y')
    4b26:	80 e0       	ldi	r24, 0x00	; 0
    4b28:	90 e0       	ldi	r25, 0x00	; 0
    4b2a:	0e 94 00 38 	call	0x7000	; 0x7000 <eeprom_read_byte>
    4b2e:	89 37       	cpi	r24, 0x79	; 121
    4b30:	09 f4       	brne	.+2      	; 0x4b34 <read_eeprom_data+0x26>
    4b32:	a0 c0       	rjmp	.+320    	; 0x4c74 <read_eeprom_data+0x166>
	{
		eeprom_write_byte((uint8_t *)PRE_LANGUAGE_EEADDR, 0); // 
    4b34:	60 e0       	ldi	r22, 0x00	; 0
    4b36:	81 e0       	ldi	r24, 0x01	; 1
    4b38:	90 e0       	ldi	r25, 0x00	; 0
    4b3a:	0e 94 0e 38 	call	0x701c	; 0x701c <eeprom_write_byte>
		eeprom_write_byte((uint8_t *)ALARM_CNT_EEADDR, 0);		//
    4b3e:	60 e0       	ldi	r22, 0x00	; 0
    4b40:	82 e0       	ldi	r24, 0x02	; 2
    4b42:	90 e0       	ldi	r25, 0x00	; 0
    4b44:	0e 94 0e 38 	call	0x701c	; 0x701c <eeprom_write_byte>
		eeprom_write_byte((uint8_t*)TEMPLATE_CNT_EEADDR, 0);	//
    4b48:	60 e0       	ldi	r22, 0x00	; 0
    4b4a:	8f ef       	ldi	r24, 0xFF	; 255
    4b4c:	91 e0       	ldi	r25, 0x01	; 1
    4b4e:	0e 94 0e 38 	call	0x701c	; 0x701c <eeprom_write_byte>
		
		for(i=0;i<4;i++)
    4b52:	19 82       	std	Y+1, r1	; 0x01
    4b54:	53 c0       	rjmp	.+166    	; 0x4bfc <read_eeprom_data+0xee>
		{
			for(j=0;j<8;j++)
    4b56:	1a 82       	std	Y+2, r1	; 0x02
    4b58:	4a c0       	rjmp	.+148    	; 0x4bee <read_eeprom_data+0xe0>
			{
				for (k=0;k<4;k++)
    4b5a:	1b 82       	std	Y+3, r1	; 0x03
    4b5c:	41 c0       	rjmp	.+130    	; 0x4be0 <read_eeprom_data+0xd2>
				{
					eeprom_write_word((uint16_t *)(TIME_CTRL_VALUE_EEADDR + (i * 32 + j * 4 + k) * 2), time_ctrl_value[i][j][k]);
    4b5e:	89 81       	ldd	r24, Y+1	; 0x01
    4b60:	48 2f       	mov	r20, r24
    4b62:	50 e0       	ldi	r21, 0x00	; 0
    4b64:	8a 81       	ldd	r24, Y+2	; 0x02
    4b66:	28 2f       	mov	r18, r24
    4b68:	30 e0       	ldi	r19, 0x00	; 0
    4b6a:	8b 81       	ldd	r24, Y+3	; 0x03
    4b6c:	88 2f       	mov	r24, r24
    4b6e:	90 e0       	ldi	r25, 0x00	; 0
    4b70:	44 0f       	add	r20, r20
    4b72:	55 1f       	adc	r21, r21
    4b74:	44 0f       	add	r20, r20
    4b76:	55 1f       	adc	r21, r21
    4b78:	44 0f       	add	r20, r20
    4b7a:	55 1f       	adc	r21, r21
    4b7c:	24 0f       	add	r18, r20
    4b7e:	35 1f       	adc	r19, r21
    4b80:	22 0f       	add	r18, r18
    4b82:	33 1f       	adc	r19, r19
    4b84:	22 0f       	add	r18, r18
    4b86:	33 1f       	adc	r19, r19
    4b88:	82 0f       	add	r24, r18
    4b8a:	93 1f       	adc	r25, r19
    4b8c:	88 0f       	add	r24, r24
    4b8e:	99 1f       	adc	r25, r25
    4b90:	85 57       	subi	r24, 0x75	; 117
    4b92:	98 4f       	sbci	r25, 0xF8	; 248
    4b94:	fc 01       	movw	r30, r24
    4b96:	40 81       	ld	r20, Z
    4b98:	51 81       	ldd	r21, Z+1	; 0x01
    4b9a:	89 81       	ldd	r24, Y+1	; 0x01
    4b9c:	88 2f       	mov	r24, r24
    4b9e:	90 e0       	ldi	r25, 0x00	; 0
    4ba0:	9c 01       	movw	r18, r24
    4ba2:	22 0f       	add	r18, r18
    4ba4:	33 1f       	adc	r19, r19
    4ba6:	22 0f       	add	r18, r18
    4ba8:	33 1f       	adc	r19, r19
    4baa:	22 0f       	add	r18, r18
    4bac:	33 1f       	adc	r19, r19
    4bae:	8a 81       	ldd	r24, Y+2	; 0x02
    4bb0:	88 2f       	mov	r24, r24
    4bb2:	90 e0       	ldi	r25, 0x00	; 0
    4bb4:	82 0f       	add	r24, r18
    4bb6:	93 1f       	adc	r25, r19
    4bb8:	9c 01       	movw	r18, r24
    4bba:	22 0f       	add	r18, r18
    4bbc:	33 1f       	adc	r19, r19
    4bbe:	22 0f       	add	r18, r18
    4bc0:	33 1f       	adc	r19, r19
    4bc2:	8b 81       	ldd	r24, Y+3	; 0x03
    4bc4:	88 2f       	mov	r24, r24
    4bc6:	90 e0       	ldi	r25, 0x00	; 0
    4bc8:	82 0f       	add	r24, r18
    4bca:	93 1f       	adc	r25, r19
    4bcc:	88 0f       	add	r24, r24
    4bce:	99 1f       	adc	r25, r25
    4bd0:	81 57       	subi	r24, 0x71	; 113
    4bd2:	9f 4f       	sbci	r25, 0xFF	; 255
    4bd4:	ba 01       	movw	r22, r20
    4bd6:	0e 94 1b 38 	call	0x7036	; 0x7036 <eeprom_write_word>
		
		for(i=0;i<4;i++)
		{
			for(j=0;j<8;j++)
			{
				for (k=0;k<4;k++)
    4bda:	8b 81       	ldd	r24, Y+3	; 0x03
    4bdc:	8f 5f       	subi	r24, 0xFF	; 255
    4bde:	8b 83       	std	Y+3, r24	; 0x03
    4be0:	8b 81       	ldd	r24, Y+3	; 0x03
    4be2:	84 30       	cpi	r24, 0x04	; 4
    4be4:	08 f4       	brcc	.+2      	; 0x4be8 <read_eeprom_data+0xda>
    4be6:	bb cf       	rjmp	.-138    	; 0x4b5e <read_eeprom_data+0x50>
		eeprom_write_byte((uint8_t *)ALARM_CNT_EEADDR, 0);		//
		eeprom_write_byte((uint8_t*)TEMPLATE_CNT_EEADDR, 0);	//
		
		for(i=0;i<4;i++)
		{
			for(j=0;j<8;j++)
    4be8:	8a 81       	ldd	r24, Y+2	; 0x02
    4bea:	8f 5f       	subi	r24, 0xFF	; 255
    4bec:	8a 83       	std	Y+2, r24	; 0x02
    4bee:	8a 81       	ldd	r24, Y+2	; 0x02
    4bf0:	88 30       	cpi	r24, 0x08	; 8
    4bf2:	08 f4       	brcc	.+2      	; 0x4bf6 <read_eeprom_data+0xe8>
    4bf4:	b2 cf       	rjmp	.-156    	; 0x4b5a <read_eeprom_data+0x4c>
	{
		eeprom_write_byte((uint8_t *)PRE_LANGUAGE_EEADDR, 0); // 
		eeprom_write_byte((uint8_t *)ALARM_CNT_EEADDR, 0);		//
		eeprom_write_byte((uint8_t*)TEMPLATE_CNT_EEADDR, 0);	//
		
		for(i=0;i<4;i++)
    4bf6:	89 81       	ldd	r24, Y+1	; 0x01
    4bf8:	8f 5f       	subi	r24, 0xFF	; 255
    4bfa:	89 83       	std	Y+1, r24	; 0x01
    4bfc:	89 81       	ldd	r24, Y+1	; 0x01
    4bfe:	84 30       	cpi	r24, 0x04	; 4
    4c00:	08 f4       	brcc	.+2      	; 0x4c04 <read_eeprom_data+0xf6>
    4c02:	a9 cf       	rjmp	.-174    	; 0x4b56 <read_eeprom_data+0x48>
					eeprom_write_word((uint16_t *)(TIME_CTRL_VALUE_EEADDR + (i * 32 + j * 4 + k) * 2), time_ctrl_value[i][j][k]);
				}
			}
		}
		
		for(i=0; i<MAX_TEMPLATE_QUANTITY; i++)
    4c04:	19 82       	std	Y+1, r1	; 0x01
    4c06:	2d c0       	rjmp	.+90     	; 0x4c62 <read_eeprom_data+0x154>
		{
			template_eeaddr[i] = i * TEMPLATE_SIZE;
    4c08:	89 81       	ldd	r24, Y+1	; 0x01
    4c0a:	88 2f       	mov	r24, r24
    4c0c:	90 e0       	ldi	r25, 0x00	; 0
    4c0e:	29 81       	ldd	r18, Y+1	; 0x01
    4c10:	62 2f       	mov	r22, r18
    4c12:	70 e0       	ldi	r23, 0x00	; 0
    4c14:	45 e6       	ldi	r20, 0x65	; 101
    4c16:	51 e0       	ldi	r21, 0x01	; 1
    4c18:	64 9f       	mul	r22, r20
    4c1a:	90 01       	movw	r18, r0
    4c1c:	65 9f       	mul	r22, r21
    4c1e:	30 0d       	add	r19, r0
    4c20:	74 9f       	mul	r23, r20
    4c22:	30 0d       	add	r19, r0
    4c24:	11 24       	eor	r1, r1
    4c26:	88 0f       	add	r24, r24
    4c28:	99 1f       	adc	r25, r25
    4c2a:	8d 5c       	subi	r24, 0xCD	; 205
    4c2c:	98 4f       	sbci	r25, 0xF8	; 248
    4c2e:	fc 01       	movw	r30, r24
    4c30:	31 83       	std	Z+1, r19	; 0x01
    4c32:	20 83       	st	Z, r18
			eeprom_write_word((uint16_t *)(TEMPLATE_EEADDR + i * 2), template_eeaddr[i]);
    4c34:	89 81       	ldd	r24, Y+1	; 0x01
    4c36:	88 2f       	mov	r24, r24
    4c38:	90 e0       	ldi	r25, 0x00	; 0
    4c3a:	88 0f       	add	r24, r24
    4c3c:	99 1f       	adc	r25, r25
    4c3e:	8d 5c       	subi	r24, 0xCD	; 205
    4c40:	98 4f       	sbci	r25, 0xF8	; 248
    4c42:	fc 01       	movw	r30, r24
    4c44:	20 81       	ld	r18, Z
    4c46:	31 81       	ldd	r19, Z+1	; 0x01
    4c48:	89 81       	ldd	r24, Y+1	; 0x01
    4c4a:	88 2f       	mov	r24, r24
    4c4c:	90 e0       	ldi	r25, 0x00	; 0
    4c4e:	88 53       	subi	r24, 0x38	; 56
    4c50:	9f 4f       	sbci	r25, 0xFF	; 255
    4c52:	88 0f       	add	r24, r24
    4c54:	99 1f       	adc	r25, r25
    4c56:	b9 01       	movw	r22, r18
    4c58:	0e 94 1b 38 	call	0x7036	; 0x7036 <eeprom_write_word>
					eeprom_write_word((uint16_t *)(TIME_CTRL_VALUE_EEADDR + (i * 32 + j * 4 + k) * 2), time_ctrl_value[i][j][k]);
				}
			}
		}
		
		for(i=0; i<MAX_TEMPLATE_QUANTITY; i++)
    4c5c:	89 81       	ldd	r24, Y+1	; 0x01
    4c5e:	8f 5f       	subi	r24, 0xFF	; 255
    4c60:	89 83       	std	Y+1, r24	; 0x01
    4c62:	89 81       	ldd	r24, Y+1	; 0x01
    4c64:	8c 32       	cpi	r24, 0x2C	; 44
    4c66:	80 f2       	brcs	.-96     	; 0x4c08 <read_eeprom_data+0xfa>
		{
			template_eeaddr[i] = i * TEMPLATE_SIZE;
			eeprom_write_word((uint16_t *)(TEMPLATE_EEADDR + i * 2), template_eeaddr[i]);
		}

		eeprom_write_byte((uint8_t *)FIRST_START_ADDR, 'y');
    4c68:	69 e7       	ldi	r22, 0x79	; 121
    4c6a:	80 e0       	ldi	r24, 0x00	; 0
    4c6c:	90 e0       	ldi	r25, 0x00	; 0
    4c6e:	0e 94 0e 38 	call	0x701c	; 0x701c <eeprom_write_byte>
				}
			}
		}
				
	}
}
    4c72:	f5 c0       	rjmp	.+490    	; 0x4e5e <read_eeprom_data+0x350>

		eeprom_write_byte((uint8_t *)FIRST_START_ADDR, 'y');
	}
	else
	{
		pre_language = eeprom_read_byte((uint8_t *)PRE_LANGUAGE_EEADDR);
    4c74:	81 e0       	ldi	r24, 0x01	; 1
    4c76:	90 e0       	ldi	r25, 0x00	; 0
    4c78:	0e 94 00 38 	call	0x7000	; 0x7000 <eeprom_read_byte>
    4c7c:	80 93 9a 01 	sts	0x019A, r24	; 0x80019a <pre_language>
		alarm_cnt = eeprom_read_byte((uint8_t *)ALARM_CNT_EEADDR);
    4c80:	82 e0       	ldi	r24, 0x02	; 2
    4c82:	90 e0       	ldi	r25, 0x00	; 0
    4c84:	0e 94 00 38 	call	0x7000	; 0x7000 <eeprom_read_byte>
    4c88:	80 93 bd 02 	sts	0x02BD, r24	; 0x8002bd <alarm_cnt>
		template_cnt = eeprom_read_byte((uint8_t*)TEMPLATE_CNT_EEADDR);
    4c8c:	8f ef       	ldi	r24, 0xFF	; 255
    4c8e:	91 e0       	ldi	r25, 0x01	; 1
    4c90:	0e 94 00 38 	call	0x7000	; 0x7000 <eeprom_read_byte>
    4c94:	80 93 c1 02 	sts	0x02C1, r24	; 0x8002c1 <template_cnt>
		
		for (i = 0; i < alarm_cnt; i++)
    4c98:	19 82       	std	Y+1, r1	; 0x01
    4c9a:	29 c0       	rjmp	.+82     	; 0x4cee <read_eeprom_data+0x1e0>
		{
			alarm_history[i].alarm_type = eeprom_read_byte((uint8_t *)(ALARM_HISTORY_EEADDR + i * 2 + 1));
    4c9c:	89 81       	ldd	r24, Y+1	; 0x01
    4c9e:	08 2f       	mov	r16, r24
    4ca0:	10 e0       	ldi	r17, 0x00	; 0
    4ca2:	89 81       	ldd	r24, Y+1	; 0x01
    4ca4:	88 2f       	mov	r24, r24
    4ca6:	90 e0       	ldi	r25, 0x00	; 0
    4ca8:	02 96       	adiw	r24, 0x02	; 2
    4caa:	88 0f       	add	r24, r24
    4cac:	99 1f       	adc	r25, r25
    4cae:	0e 94 00 38 	call	0x7000	; 0x7000 <eeprom_read_byte>
    4cb2:	28 2f       	mov	r18, r24
    4cb4:	c8 01       	movw	r24, r16
    4cb6:	88 0f       	add	r24, r24
    4cb8:	99 1f       	adc	r25, r25
    4cba:	80 58       	subi	r24, 0x80	; 128
    4cbc:	95 4f       	sbci	r25, 0xF5	; 245
    4cbe:	fc 01       	movw	r30, r24
    4cc0:	20 83       	st	Z, r18
			alarm_history[i].alarm_device_num = eeprom_read_byte((uint8_t *)(ALARM_HISTORY_EEADDR + i * 2));
    4cc2:	89 81       	ldd	r24, Y+1	; 0x01
    4cc4:	08 2f       	mov	r16, r24
    4cc6:	10 e0       	ldi	r17, 0x00	; 0
    4cc8:	89 81       	ldd	r24, Y+1	; 0x01
    4cca:	88 2f       	mov	r24, r24
    4ccc:	90 e0       	ldi	r25, 0x00	; 0
    4cce:	88 0f       	add	r24, r24
    4cd0:	99 1f       	adc	r25, r25
    4cd2:	03 96       	adiw	r24, 0x03	; 3
    4cd4:	0e 94 00 38 	call	0x7000	; 0x7000 <eeprom_read_byte>
    4cd8:	28 2f       	mov	r18, r24
    4cda:	c8 01       	movw	r24, r16
    4cdc:	88 0f       	add	r24, r24
    4cde:	99 1f       	adc	r25, r25
    4ce0:	8f 57       	subi	r24, 0x7F	; 127
    4ce2:	95 4f       	sbci	r25, 0xF5	; 245
    4ce4:	fc 01       	movw	r30, r24
    4ce6:	20 83       	st	Z, r18
	{
		pre_language = eeprom_read_byte((uint8_t *)PRE_LANGUAGE_EEADDR);
		alarm_cnt = eeprom_read_byte((uint8_t *)ALARM_CNT_EEADDR);
		template_cnt = eeprom_read_byte((uint8_t*)TEMPLATE_CNT_EEADDR);
		
		for (i = 0; i < alarm_cnt; i++)
    4ce8:	89 81       	ldd	r24, Y+1	; 0x01
    4cea:	8f 5f       	subi	r24, 0xFF	; 255
    4cec:	89 83       	std	Y+1, r24	; 0x01
    4cee:	80 91 bd 02 	lds	r24, 0x02BD	; 0x8002bd <alarm_cnt>
    4cf2:	99 81       	ldd	r25, Y+1	; 0x01
    4cf4:	98 17       	cp	r25, r24
    4cf6:	90 f2       	brcs	.-92     	; 0x4c9c <read_eeprom_data+0x18e>
		{
			alarm_history[i].alarm_type = eeprom_read_byte((uint8_t *)(ALARM_HISTORY_EEADDR + i * 2 + 1));
			alarm_history[i].alarm_device_num = eeprom_read_byte((uint8_t *)(ALARM_HISTORY_EEADDR + i * 2));
		}

		for (i = 0; i < MAX_TEMPLATE_QUANTITY; i++)
    4cf8:	19 82       	std	Y+1, r1	; 0x01
    4cfa:	18 c0       	rjmp	.+48     	; 0x4d2c <read_eeprom_data+0x21e>
		{
			template_eeaddr[i] = eeprom_read_word((uint16_t *)(TEMPLATE_EEADDR + i * 2));
    4cfc:	89 81       	ldd	r24, Y+1	; 0x01
    4cfe:	08 2f       	mov	r16, r24
    4d00:	10 e0       	ldi	r17, 0x00	; 0
    4d02:	89 81       	ldd	r24, Y+1	; 0x01
    4d04:	88 2f       	mov	r24, r24
    4d06:	90 e0       	ldi	r25, 0x00	; 0
    4d08:	88 53       	subi	r24, 0x38	; 56
    4d0a:	9f 4f       	sbci	r25, 0xFF	; 255
    4d0c:	88 0f       	add	r24, r24
    4d0e:	99 1f       	adc	r25, r25
    4d10:	0e 94 08 38 	call	0x7010	; 0x7010 <eeprom_read_word>
    4d14:	9c 01       	movw	r18, r24
    4d16:	c8 01       	movw	r24, r16
    4d18:	88 0f       	add	r24, r24
    4d1a:	99 1f       	adc	r25, r25
    4d1c:	8d 5c       	subi	r24, 0xCD	; 205
    4d1e:	98 4f       	sbci	r25, 0xF8	; 248
    4d20:	fc 01       	movw	r30, r24
    4d22:	31 83       	std	Z+1, r19	; 0x01
    4d24:	20 83       	st	Z, r18
		{
			alarm_history[i].alarm_type = eeprom_read_byte((uint8_t *)(ALARM_HISTORY_EEADDR + i * 2 + 1));
			alarm_history[i].alarm_device_num = eeprom_read_byte((uint8_t *)(ALARM_HISTORY_EEADDR + i * 2));
		}

		for (i = 0; i < MAX_TEMPLATE_QUANTITY; i++)
    4d26:	89 81       	ldd	r24, Y+1	; 0x01
    4d28:	8f 5f       	subi	r24, 0xFF	; 255
    4d2a:	89 83       	std	Y+1, r24	; 0x01
    4d2c:	89 81       	ldd	r24, Y+1	; 0x01
    4d2e:	8c 32       	cpi	r24, 0x2C	; 44
    4d30:	28 f3       	brcs	.-54     	; 0x4cfc <read_eeprom_data+0x1ee>
		{
			template_eeaddr[i] = eeprom_read_word((uint16_t *)(TEMPLATE_EEADDR + i * 2));
		}

		for(i=0;i<4;i++)
    4d32:	19 82       	std	Y+1, r1	; 0x01
    4d34:	90 c0       	rjmp	.+288    	; 0x4e56 <read_eeprom_data+0x348>
		{
			for(j=0;j<8;j++)
    4d36:	1a 82       	std	Y+2, r1	; 0x02
    4d38:	87 c0       	rjmp	.+270    	; 0x4e48 <read_eeprom_data+0x33a>
			{
				for (k=0;k<4;k++)
    4d3a:	1b 82       	std	Y+3, r1	; 0x03
    4d3c:	7e c0       	rjmp	.+252    	; 0x4e3a <read_eeprom_data+0x32c>
				{
					time_ctrl_value[i][j][k] = eeprom_read_word((uint16_t *)(TIME_CTRL_VALUE_EEADDR + (i * 32 + j * 4 + k) * 2));
    4d3e:	89 81       	ldd	r24, Y+1	; 0x01
    4d40:	c8 2e       	mov	r12, r24
    4d42:	d1 2c       	mov	r13, r1
    4d44:	8a 81       	ldd	r24, Y+2	; 0x02
    4d46:	e8 2e       	mov	r14, r24
    4d48:	f1 2c       	mov	r15, r1
    4d4a:	8b 81       	ldd	r24, Y+3	; 0x03
    4d4c:	08 2f       	mov	r16, r24
    4d4e:	10 e0       	ldi	r17, 0x00	; 0
    4d50:	89 81       	ldd	r24, Y+1	; 0x01
    4d52:	88 2f       	mov	r24, r24
    4d54:	90 e0       	ldi	r25, 0x00	; 0
    4d56:	9c 01       	movw	r18, r24
    4d58:	22 0f       	add	r18, r18
    4d5a:	33 1f       	adc	r19, r19
    4d5c:	22 0f       	add	r18, r18
    4d5e:	33 1f       	adc	r19, r19
    4d60:	22 0f       	add	r18, r18
    4d62:	33 1f       	adc	r19, r19
    4d64:	8a 81       	ldd	r24, Y+2	; 0x02
    4d66:	88 2f       	mov	r24, r24
    4d68:	90 e0       	ldi	r25, 0x00	; 0
    4d6a:	82 0f       	add	r24, r18
    4d6c:	93 1f       	adc	r25, r19
    4d6e:	9c 01       	movw	r18, r24
    4d70:	22 0f       	add	r18, r18
    4d72:	33 1f       	adc	r19, r19
    4d74:	22 0f       	add	r18, r18
    4d76:	33 1f       	adc	r19, r19
    4d78:	8b 81       	ldd	r24, Y+3	; 0x03
    4d7a:	88 2f       	mov	r24, r24
    4d7c:	90 e0       	ldi	r25, 0x00	; 0
    4d7e:	82 0f       	add	r24, r18
    4d80:	93 1f       	adc	r25, r19
    4d82:	88 0f       	add	r24, r24
    4d84:	99 1f       	adc	r25, r25
    4d86:	81 57       	subi	r24, 0x71	; 113
    4d88:	9f 4f       	sbci	r25, 0xFF	; 255
    4d8a:	0e 94 08 38 	call	0x7010	; 0x7010 <eeprom_read_word>
    4d8e:	9c 01       	movw	r18, r24
    4d90:	c6 01       	movw	r24, r12
    4d92:	88 0f       	add	r24, r24
    4d94:	99 1f       	adc	r25, r25
    4d96:	88 0f       	add	r24, r24
    4d98:	99 1f       	adc	r25, r25
    4d9a:	88 0f       	add	r24, r24
    4d9c:	99 1f       	adc	r25, r25
    4d9e:	8e 0d       	add	r24, r14
    4da0:	9f 1d       	adc	r25, r15
    4da2:	88 0f       	add	r24, r24
    4da4:	99 1f       	adc	r25, r25
    4da6:	88 0f       	add	r24, r24
    4da8:	99 1f       	adc	r25, r25
    4daa:	80 0f       	add	r24, r16
    4dac:	91 1f       	adc	r25, r17
    4dae:	88 0f       	add	r24, r24
    4db0:	99 1f       	adc	r25, r25
    4db2:	85 57       	subi	r24, 0x75	; 117
    4db4:	98 4f       	sbci	r25, 0xF8	; 248
    4db6:	fc 01       	movw	r30, r24
    4db8:	31 83       	std	Z+1, r19	; 0x01
    4dba:	20 83       	st	Z, r18
					time_ctrl_value_buff[i][j][k] = time_ctrl_value[i][j][k];
    4dbc:	89 81       	ldd	r24, Y+1	; 0x01
    4dbe:	68 2f       	mov	r22, r24
    4dc0:	70 e0       	ldi	r23, 0x00	; 0
    4dc2:	8a 81       	ldd	r24, Y+2	; 0x02
    4dc4:	48 2f       	mov	r20, r24
    4dc6:	50 e0       	ldi	r21, 0x00	; 0
    4dc8:	8b 81       	ldd	r24, Y+3	; 0x03
    4dca:	88 2f       	mov	r24, r24
    4dcc:	90 e0       	ldi	r25, 0x00	; 0
    4dce:	29 81       	ldd	r18, Y+1	; 0x01
    4dd0:	a2 2f       	mov	r26, r18
    4dd2:	b0 e0       	ldi	r27, 0x00	; 0
    4dd4:	2a 81       	ldd	r18, Y+2	; 0x02
    4dd6:	e2 2f       	mov	r30, r18
    4dd8:	f0 e0       	ldi	r31, 0x00	; 0
    4dda:	2b 81       	ldd	r18, Y+3	; 0x03
    4ddc:	22 2f       	mov	r18, r18
    4dde:	30 e0       	ldi	r19, 0x00	; 0
    4de0:	aa 0f       	add	r26, r26
    4de2:	bb 1f       	adc	r27, r27
    4de4:	aa 0f       	add	r26, r26
    4de6:	bb 1f       	adc	r27, r27
    4de8:	aa 0f       	add	r26, r26
    4dea:	bb 1f       	adc	r27, r27
    4dec:	ea 0f       	add	r30, r26
    4dee:	fb 1f       	adc	r31, r27
    4df0:	ee 0f       	add	r30, r30
    4df2:	ff 1f       	adc	r31, r31
    4df4:	ee 0f       	add	r30, r30
    4df6:	ff 1f       	adc	r31, r31
    4df8:	2e 0f       	add	r18, r30
    4dfa:	3f 1f       	adc	r19, r31
    4dfc:	22 0f       	add	r18, r18
    4dfe:	33 1f       	adc	r19, r19
    4e00:	25 57       	subi	r18, 0x75	; 117
    4e02:	38 4f       	sbci	r19, 0xF8	; 248
    4e04:	f9 01       	movw	r30, r18
    4e06:	20 81       	ld	r18, Z
    4e08:	31 81       	ldd	r19, Z+1	; 0x01
    4e0a:	66 0f       	add	r22, r22
    4e0c:	77 1f       	adc	r23, r23
    4e0e:	66 0f       	add	r22, r22
    4e10:	77 1f       	adc	r23, r23
    4e12:	66 0f       	add	r22, r22
    4e14:	77 1f       	adc	r23, r23
    4e16:	46 0f       	add	r20, r22
    4e18:	57 1f       	adc	r21, r23
    4e1a:	44 0f       	add	r20, r20
    4e1c:	55 1f       	adc	r21, r21
    4e1e:	44 0f       	add	r20, r20
    4e20:	55 1f       	adc	r21, r21
    4e22:	84 0f       	add	r24, r20
    4e24:	95 1f       	adc	r25, r21
    4e26:	88 0f       	add	r24, r24
    4e28:	99 1f       	adc	r25, r25
    4e2a:	8f 51       	subi	r24, 0x1F	; 31
    4e2c:	94 4f       	sbci	r25, 0xF4	; 244
    4e2e:	fc 01       	movw	r30, r24
    4e30:	31 83       	std	Z+1, r19	; 0x01
    4e32:	20 83       	st	Z, r18

		for(i=0;i<4;i++)
		{
			for(j=0;j<8;j++)
			{
				for (k=0;k<4;k++)
    4e34:	8b 81       	ldd	r24, Y+3	; 0x03
    4e36:	8f 5f       	subi	r24, 0xFF	; 255
    4e38:	8b 83       	std	Y+3, r24	; 0x03
    4e3a:	8b 81       	ldd	r24, Y+3	; 0x03
    4e3c:	84 30       	cpi	r24, 0x04	; 4
    4e3e:	08 f4       	brcc	.+2      	; 0x4e42 <read_eeprom_data+0x334>
    4e40:	7e cf       	rjmp	.-260    	; 0x4d3e <read_eeprom_data+0x230>
			template_eeaddr[i] = eeprom_read_word((uint16_t *)(TEMPLATE_EEADDR + i * 2));
		}

		for(i=0;i<4;i++)
		{
			for(j=0;j<8;j++)
    4e42:	8a 81       	ldd	r24, Y+2	; 0x02
    4e44:	8f 5f       	subi	r24, 0xFF	; 255
    4e46:	8a 83       	std	Y+2, r24	; 0x02
    4e48:	8a 81       	ldd	r24, Y+2	; 0x02
    4e4a:	88 30       	cpi	r24, 0x08	; 8
    4e4c:	08 f4       	brcc	.+2      	; 0x4e50 <read_eeprom_data+0x342>
    4e4e:	75 cf       	rjmp	.-278    	; 0x4d3a <read_eeprom_data+0x22c>
		for (i = 0; i < MAX_TEMPLATE_QUANTITY; i++)
		{
			template_eeaddr[i] = eeprom_read_word((uint16_t *)(TEMPLATE_EEADDR + i * 2));
		}

		for(i=0;i<4;i++)
    4e50:	89 81       	ldd	r24, Y+1	; 0x01
    4e52:	8f 5f       	subi	r24, 0xFF	; 255
    4e54:	89 83       	std	Y+1, r24	; 0x01
    4e56:	89 81       	ldd	r24, Y+1	; 0x01
    4e58:	84 30       	cpi	r24, 0x04	; 4
    4e5a:	08 f4       	brcc	.+2      	; 0x4e5e <read_eeprom_data+0x350>
    4e5c:	6c cf       	rjmp	.-296    	; 0x4d36 <read_eeprom_data+0x228>
				}
			}
		}
				
	}
}
    4e5e:	00 00       	nop
    4e60:	0f 90       	pop	r0
    4e62:	0f 90       	pop	r0
    4e64:	0f 90       	pop	r0
    4e66:	df 91       	pop	r29
    4e68:	cf 91       	pop	r28
    4e6a:	1f 91       	pop	r17
    4e6c:	0f 91       	pop	r16
    4e6e:	ff 90       	pop	r15
    4e70:	ef 90       	pop	r14
    4e72:	df 90       	pop	r13
    4e74:	cf 90       	pop	r12
    4e76:	08 95       	ret

00004e78 <gpio_init>:

/*
*gpio
*/
void gpio_init()
{
    4e78:	cf 93       	push	r28
    4e7a:	df 93       	push	r29
    4e7c:	cd b7       	in	r28, 0x3d	; 61
    4e7e:	de b7       	in	r29, 0x3e	; 62
	/* LEDIO */
	LED1_PIN_OUTPUT;
    4e80:	8a e3       	ldi	r24, 0x3A	; 58
    4e82:	90 e0       	ldi	r25, 0x00	; 0
    4e84:	2a e3       	ldi	r18, 0x3A	; 58
    4e86:	30 e0       	ldi	r19, 0x00	; 0
    4e88:	f9 01       	movw	r30, r18
    4e8a:	20 81       	ld	r18, Z
    4e8c:	20 64       	ori	r18, 0x40	; 64
    4e8e:	fc 01       	movw	r30, r24
    4e90:	20 83       	st	Z, r18
	LED2_PIN_OUTPUT;
    4e92:	8a e3       	ldi	r24, 0x3A	; 58
    4e94:	90 e0       	ldi	r25, 0x00	; 0
    4e96:	2a e3       	ldi	r18, 0x3A	; 58
    4e98:	30 e0       	ldi	r19, 0x00	; 0
    4e9a:	f9 01       	movw	r30, r18
    4e9c:	20 81       	ld	r18, Z
    4e9e:	20 62       	ori	r18, 0x20	; 32
    4ea0:	fc 01       	movw	r30, r24
    4ea2:	20 83       	st	Z, r18
	LED3_PIN_OUTPUT;
    4ea4:	8a e3       	ldi	r24, 0x3A	; 58
    4ea6:	90 e0       	ldi	r25, 0x00	; 0
    4ea8:	2a e3       	ldi	r18, 0x3A	; 58
    4eaa:	30 e0       	ldi	r19, 0x00	; 0
    4eac:	f9 01       	movw	r30, r18
    4eae:	20 81       	ld	r18, Z
    4eb0:	20 61       	ori	r18, 0x10	; 16
    4eb2:	fc 01       	movw	r30, r24
    4eb4:	20 83       	st	Z, r18
	LED4_PIN_OUTPUT;
    4eb6:	8a e3       	ldi	r24, 0x3A	; 58
    4eb8:	90 e0       	ldi	r25, 0x00	; 0
    4eba:	2a e3       	ldi	r18, 0x3A	; 58
    4ebc:	30 e0       	ldi	r19, 0x00	; 0
    4ebe:	f9 01       	movw	r30, r18
    4ec0:	20 81       	ld	r18, Z
    4ec2:	28 60       	ori	r18, 0x08	; 8
    4ec4:	fc 01       	movw	r30, r24
    4ec6:	20 83       	st	Z, r18
	LED5_PIN_OUTPUT;
    4ec8:	8a e3       	ldi	r24, 0x3A	; 58
    4eca:	90 e0       	ldi	r25, 0x00	; 0
    4ecc:	2a e3       	ldi	r18, 0x3A	; 58
    4ece:	30 e0       	ldi	r19, 0x00	; 0
    4ed0:	f9 01       	movw	r30, r18
    4ed2:	20 81       	ld	r18, Z
    4ed4:	24 60       	ori	r18, 0x04	; 4
    4ed6:	fc 01       	movw	r30, r24
    4ed8:	20 83       	st	Z, r18
	LED6_PIN_OUTPUT;
    4eda:	8a e3       	ldi	r24, 0x3A	; 58
    4edc:	90 e0       	ldi	r25, 0x00	; 0
    4ede:	2a e3       	ldi	r18, 0x3A	; 58
    4ee0:	30 e0       	ldi	r19, 0x00	; 0
    4ee2:	f9 01       	movw	r30, r18
    4ee4:	20 81       	ld	r18, Z
    4ee6:	22 60       	ori	r18, 0x02	; 2
    4ee8:	fc 01       	movw	r30, r24
    4eea:	20 83       	st	Z, r18
	LED7_PIN_OUTPUT;
    4eec:	8a e3       	ldi	r24, 0x3A	; 58
    4eee:	90 e0       	ldi	r25, 0x00	; 0
    4ef0:	2a e3       	ldi	r18, 0x3A	; 58
    4ef2:	30 e0       	ldi	r19, 0x00	; 0
    4ef4:	f9 01       	movw	r30, r18
    4ef6:	20 81       	ld	r18, Z
    4ef8:	21 60       	ori	r18, 0x01	; 1
    4efa:	fc 01       	movw	r30, r24
    4efc:	20 83       	st	Z, r18

	LED1_OFF;
    4efe:	8b e3       	ldi	r24, 0x3B	; 59
    4f00:	90 e0       	ldi	r25, 0x00	; 0
    4f02:	2b e3       	ldi	r18, 0x3B	; 59
    4f04:	30 e0       	ldi	r19, 0x00	; 0
    4f06:	f9 01       	movw	r30, r18
    4f08:	20 81       	ld	r18, Z
    4f0a:	20 64       	ori	r18, 0x40	; 64
    4f0c:	fc 01       	movw	r30, r24
    4f0e:	20 83       	st	Z, r18
	LED2_OFF;
    4f10:	8b e3       	ldi	r24, 0x3B	; 59
    4f12:	90 e0       	ldi	r25, 0x00	; 0
    4f14:	2b e3       	ldi	r18, 0x3B	; 59
    4f16:	30 e0       	ldi	r19, 0x00	; 0
    4f18:	f9 01       	movw	r30, r18
    4f1a:	20 81       	ld	r18, Z
    4f1c:	20 62       	ori	r18, 0x20	; 32
    4f1e:	fc 01       	movw	r30, r24
    4f20:	20 83       	st	Z, r18
	LED3_OFF;
    4f22:	8b e3       	ldi	r24, 0x3B	; 59
    4f24:	90 e0       	ldi	r25, 0x00	; 0
    4f26:	2b e3       	ldi	r18, 0x3B	; 59
    4f28:	30 e0       	ldi	r19, 0x00	; 0
    4f2a:	f9 01       	movw	r30, r18
    4f2c:	20 81       	ld	r18, Z
    4f2e:	20 61       	ori	r18, 0x10	; 16
    4f30:	fc 01       	movw	r30, r24
    4f32:	20 83       	st	Z, r18
	LED4_OFF;
    4f34:	8b e3       	ldi	r24, 0x3B	; 59
    4f36:	90 e0       	ldi	r25, 0x00	; 0
    4f38:	2b e3       	ldi	r18, 0x3B	; 59
    4f3a:	30 e0       	ldi	r19, 0x00	; 0
    4f3c:	f9 01       	movw	r30, r18
    4f3e:	20 81       	ld	r18, Z
    4f40:	28 60       	ori	r18, 0x08	; 8
    4f42:	fc 01       	movw	r30, r24
    4f44:	20 83       	st	Z, r18
	LED5_ON;
    4f46:	8b e3       	ldi	r24, 0x3B	; 59
    4f48:	90 e0       	ldi	r25, 0x00	; 0
    4f4a:	2b e3       	ldi	r18, 0x3B	; 59
    4f4c:	30 e0       	ldi	r19, 0x00	; 0
    4f4e:	f9 01       	movw	r30, r18
    4f50:	20 81       	ld	r18, Z
    4f52:	2b 7f       	andi	r18, 0xFB	; 251
    4f54:	fc 01       	movw	r30, r24
    4f56:	20 83       	st	Z, r18
	LED6_OFF;
    4f58:	8b e3       	ldi	r24, 0x3B	; 59
    4f5a:	90 e0       	ldi	r25, 0x00	; 0
    4f5c:	2b e3       	ldi	r18, 0x3B	; 59
    4f5e:	30 e0       	ldi	r19, 0x00	; 0
    4f60:	f9 01       	movw	r30, r18
    4f62:	20 81       	ld	r18, Z
    4f64:	22 60       	ori	r18, 0x02	; 2
    4f66:	fc 01       	movw	r30, r24
    4f68:	20 83       	st	Z, r18
	LED7_ON;
    4f6a:	8b e3       	ldi	r24, 0x3B	; 59
    4f6c:	90 e0       	ldi	r25, 0x00	; 0
    4f6e:	2b e3       	ldi	r18, 0x3B	; 59
    4f70:	30 e0       	ldi	r19, 0x00	; 0
    4f72:	f9 01       	movw	r30, r18
    4f74:	20 81       	ld	r18, Z
    4f76:	2e 7f       	andi	r18, 0xFE	; 254
    4f78:	fc 01       	movw	r30, r24
    4f7a:	20 83       	st	Z, r18
	IQR6_CLOSE;
	IQR7_CLOSE;
	*/

	/* IO */
	ALARM_PIN_OUTPUT;
    4f7c:	81 e3       	ldi	r24, 0x31	; 49
    4f7e:	90 e0       	ldi	r25, 0x00	; 0
    4f80:	21 e3       	ldi	r18, 0x31	; 49
    4f82:	30 e0       	ldi	r19, 0x00	; 0
    4f84:	f9 01       	movw	r30, r18
    4f86:	20 81       	ld	r18, Z
    4f88:	20 61       	ori	r18, 0x10	; 16
    4f8a:	fc 01       	movw	r30, r24
    4f8c:	20 83       	st	Z, r18
	ACCON_PIN_OUTPUT;
    4f8e:	81 e3       	ldi	r24, 0x31	; 49
    4f90:	90 e0       	ldi	r25, 0x00	; 0
    4f92:	21 e3       	ldi	r18, 0x31	; 49
    4f94:	30 e0       	ldi	r19, 0x00	; 0
    4f96:	f9 01       	movw	r30, r18
    4f98:	20 81       	ld	r18, Z
    4f9a:	20 62       	ori	r18, 0x20	; 32
    4f9c:	fc 01       	movw	r30, r24
    4f9e:	20 83       	st	Z, r18

	ALARM_OFF;
    4fa0:	82 e3       	ldi	r24, 0x32	; 50
    4fa2:	90 e0       	ldi	r25, 0x00	; 0
    4fa4:	22 e3       	ldi	r18, 0x32	; 50
    4fa6:	30 e0       	ldi	r19, 0x00	; 0
    4fa8:	f9 01       	movw	r30, r18
    4faa:	20 81       	ld	r18, Z
    4fac:	2f 7e       	andi	r18, 0xEF	; 239
    4fae:	fc 01       	movw	r30, r24
    4fb0:	20 83       	st	Z, r18
	ACCON_ON;
    4fb2:	82 e3       	ldi	r24, 0x32	; 50
    4fb4:	90 e0       	ldi	r25, 0x00	; 0
    4fb6:	22 e3       	ldi	r18, 0x32	; 50
    4fb8:	30 e0       	ldi	r19, 0x00	; 0
    4fba:	f9 01       	movw	r30, r18
    4fbc:	20 81       	ld	r18, Z
    4fbe:	20 62       	ori	r18, 0x20	; 32
    4fc0:	fc 01       	movw	r30, r24
    4fc2:	20 83       	st	Z, r18
    4fc4:	00 00       	nop
    4fc6:	df 91       	pop	r29
    4fc8:	cf 91       	pop	r28
    4fca:	08 95       	ret

00004fcc <main>:

extern void read_eeprom_data(void);
void system_init(void);

int main(void)
{
    4fcc:	cf 93       	push	r28
    4fce:	df 93       	push	r29
    4fd0:	cd b7       	in	r28, 0x3d	; 61
    4fd2:	de b7       	in	r29, 0x3e	; 62
    4fd4:	2f 97       	sbiw	r28, 0x0f	; 15
    4fd6:	0f b6       	in	r0, 0x3f	; 63
    4fd8:	f8 94       	cli
    4fda:	de bf       	out	0x3e, r29	; 62
    4fdc:	0f be       	out	0x3f, r0	; 63
    4fde:	cd bf       	out	0x3d, r28	; 61
	uint8_t slave_num = 1;
    4fe0:	81 e0       	ldi	r24, 0x01	; 1
    4fe2:	89 83       	std	Y+1, r24	; 0x01
/*	uint32_t name1,name2,name3,name4;*/
	
// 	uint8_t t1[100];
// 	uint8_t t2[100];
	
	system_init();
    4fe4:	0e 94 bc 29 	call	0x5378	; 0x5378 <system_init>
	EN_INTERRUPT;
    4fe8:	8f e5       	ldi	r24, 0x5F	; 95
    4fea:	90 e0       	ldi	r25, 0x00	; 0
    4fec:	2f e5       	ldi	r18, 0x5F	; 95
    4fee:	30 e0       	ldi	r19, 0x00	; 0
    4ff0:	f9 01       	movw	r30, r18
    4ff2:	20 81       	ld	r18, Z
    4ff4:	20 68       	ori	r18, 0x80	; 128
    4ff6:	fc 01       	movw	r30, r24
    4ff8:	20 83       	st	Z, r18
	read_eeprom_data();
    4ffa:	0e 94 87 25 	call	0x4b0e	; 0x4b0e <read_eeprom_data>
    4ffe:	80 e0       	ldi	r24, 0x00	; 0
    5000:	90 e0       	ldi	r25, 0x00	; 0
    5002:	aa e7       	ldi	r26, 0x7A	; 122
    5004:	b4 e4       	ldi	r27, 0x44	; 68
    5006:	8a 83       	std	Y+2, r24	; 0x02
    5008:	9b 83       	std	Y+3, r25	; 0x03
    500a:	ac 83       	std	Y+4, r26	; 0x04
    500c:	bd 83       	std	Y+5, r27	; 0x05

	__builtin_avr_delay_cycles(__ticks_dc);

#else
	uint16_t __ticks;
	__tmp = ((F_CPU) / 4e3) * __ms;
    500e:	20 e0       	ldi	r18, 0x00	; 0
    5010:	30 e0       	ldi	r19, 0x00	; 0
    5012:	4a e7       	ldi	r20, 0x7A	; 122
    5014:	55 e4       	ldi	r21, 0x45	; 69
    5016:	6a 81       	ldd	r22, Y+2	; 0x02
    5018:	7b 81       	ldd	r23, Y+3	; 0x03
    501a:	8c 81       	ldd	r24, Y+4	; 0x04
    501c:	9d 81       	ldd	r25, Y+5	; 0x05
    501e:	0e 94 0c 37 	call	0x6e18	; 0x6e18 <__mulsf3>
    5022:	dc 01       	movw	r26, r24
    5024:	cb 01       	movw	r24, r22
    5026:	8e 83       	std	Y+6, r24	; 0x06
    5028:	9f 83       	std	Y+7, r25	; 0x07
    502a:	a8 87       	std	Y+8, r26	; 0x08
    502c:	b9 87       	std	Y+9, r27	; 0x09
	if (__tmp < 1.0)
    502e:	20 e0       	ldi	r18, 0x00	; 0
    5030:	30 e0       	ldi	r19, 0x00	; 0
    5032:	40 e8       	ldi	r20, 0x80	; 128
    5034:	5f e3       	ldi	r21, 0x3F	; 63
    5036:	6e 81       	ldd	r22, Y+6	; 0x06
    5038:	7f 81       	ldd	r23, Y+7	; 0x07
    503a:	88 85       	ldd	r24, Y+8	; 0x08
    503c:	99 85       	ldd	r25, Y+9	; 0x09
    503e:	0e 94 86 36 	call	0x6d0c	; 0x6d0c <__cmpsf2>
    5042:	88 23       	and	r24, r24
    5044:	2c f4       	brge	.+10     	; 0x5050 <main+0x84>
		__ticks = 1;
    5046:	81 e0       	ldi	r24, 0x01	; 1
    5048:	90 e0       	ldi	r25, 0x00	; 0
    504a:	9b 87       	std	Y+11, r25	; 0x0b
    504c:	8a 87       	std	Y+10, r24	; 0x0a
    504e:	3f c0       	rjmp	.+126    	; 0x50ce <main+0x102>
	else if (__tmp > 65535)
    5050:	20 e0       	ldi	r18, 0x00	; 0
    5052:	3f ef       	ldi	r19, 0xFF	; 255
    5054:	4f e7       	ldi	r20, 0x7F	; 127
    5056:	57 e4       	ldi	r21, 0x47	; 71
    5058:	6e 81       	ldd	r22, Y+6	; 0x06
    505a:	7f 81       	ldd	r23, Y+7	; 0x07
    505c:	88 85       	ldd	r24, Y+8	; 0x08
    505e:	99 85       	ldd	r25, Y+9	; 0x09
    5060:	0e 94 07 37 	call	0x6e0e	; 0x6e0e <__gesf2>
    5064:	18 16       	cp	r1, r24
    5066:	4c f5       	brge	.+82     	; 0x50ba <main+0xee>
	{
		//	__ticks = requested delay in 1/10 ms
		__ticks = (uint16_t) (__ms * 10.0);
    5068:	20 e0       	ldi	r18, 0x00	; 0
    506a:	30 e0       	ldi	r19, 0x00	; 0
    506c:	40 e2       	ldi	r20, 0x20	; 32
    506e:	51 e4       	ldi	r21, 0x41	; 65
    5070:	6a 81       	ldd	r22, Y+2	; 0x02
    5072:	7b 81       	ldd	r23, Y+3	; 0x03
    5074:	8c 81       	ldd	r24, Y+4	; 0x04
    5076:	9d 81       	ldd	r25, Y+5	; 0x05
    5078:	0e 94 0c 37 	call	0x6e18	; 0x6e18 <__mulsf3>
    507c:	dc 01       	movw	r26, r24
    507e:	cb 01       	movw	r24, r22
    5080:	bc 01       	movw	r22, r24
    5082:	cd 01       	movw	r24, r26
    5084:	0e 94 8b 36 	call	0x6d16	; 0x6d16 <__fixunssfsi>
    5088:	dc 01       	movw	r26, r24
    508a:	cb 01       	movw	r24, r22
    508c:	9b 87       	std	Y+11, r25	; 0x0b
    508e:	8a 87       	std	Y+10, r24	; 0x0a
    5090:	0f c0       	rjmp	.+30     	; 0x50b0 <main+0xe4>
    5092:	80 e9       	ldi	r24, 0x90	; 144
    5094:	91 e0       	ldi	r25, 0x01	; 1
    5096:	9d 87       	std	Y+13, r25	; 0x0d
    5098:	8c 87       	std	Y+12, r24	; 0x0c
    509a:	8c 85       	ldd	r24, Y+12	; 0x0c
    509c:	9d 85       	ldd	r25, Y+13	; 0x0d
    509e:	01 97       	sbiw	r24, 0x01	; 1
    50a0:	f1 f7       	brne	.-4      	; 0x509e <main+0xd2>
    50a2:	9d 87       	std	Y+13, r25	; 0x0d
    50a4:	8c 87       	std	Y+12, r24	; 0x0c
		while(__ticks)
		{
			// wait 1/10 ms
			_delay_loop_2(((F_CPU) / 4e3) / 10);
			__ticks --;
    50a6:	8a 85       	ldd	r24, Y+10	; 0x0a
    50a8:	9b 85       	ldd	r25, Y+11	; 0x0b
    50aa:	01 97       	sbiw	r24, 0x01	; 1
    50ac:	9b 87       	std	Y+11, r25	; 0x0b
    50ae:	8a 87       	std	Y+10, r24	; 0x0a
		__ticks = 1;
	else if (__tmp > 65535)
	{
		//	__ticks = requested delay in 1/10 ms
		__ticks = (uint16_t) (__ms * 10.0);
		while(__ticks)
    50b0:	8a 85       	ldd	r24, Y+10	; 0x0a
    50b2:	9b 85       	ldd	r25, Y+11	; 0x0b
    50b4:	89 2b       	or	r24, r25
    50b6:	69 f7       	brne	.-38     	; 0x5092 <main+0xc6>
    50b8:	14 c0       	rjmp	.+40     	; 0x50e2 <main+0x116>
			__ticks --;
		}
		return;
	}
	else
		__ticks = (uint16_t)__tmp;
    50ba:	6e 81       	ldd	r22, Y+6	; 0x06
    50bc:	7f 81       	ldd	r23, Y+7	; 0x07
    50be:	88 85       	ldd	r24, Y+8	; 0x08
    50c0:	99 85       	ldd	r25, Y+9	; 0x09
    50c2:	0e 94 8b 36 	call	0x6d16	; 0x6d16 <__fixunssfsi>
    50c6:	dc 01       	movw	r26, r24
    50c8:	cb 01       	movw	r24, r22
    50ca:	9b 87       	std	Y+11, r25	; 0x0b
    50cc:	8a 87       	std	Y+10, r24	; 0x0a
    50ce:	8a 85       	ldd	r24, Y+10	; 0x0a
    50d0:	9b 85       	ldd	r25, Y+11	; 0x0b
    50d2:	9f 87       	std	Y+15, r25	; 0x0f
    50d4:	8e 87       	std	Y+14, r24	; 0x0e
    50d6:	8e 85       	ldd	r24, Y+14	; 0x0e
    50d8:	9f 85       	ldd	r25, Y+15	; 0x0f
    50da:	01 97       	sbiw	r24, 0x01	; 1
    50dc:	f1 f7       	brne	.-4      	; 0x50da <main+0x10e>
    50de:	9f 87       	std	Y+15, r25	; 0x0f
    50e0:	8e 87       	std	Y+14, r24	; 0x0e
/*	sta = read_sta_from_eeprom(1);*/
// 	name1 = read_name_from_eeprom(1);	
// 	name2 = read_name_from_eeprom(2);
// 	name3 = read_name_from_eeprom(3);
// 	name4 = read_name_from_eeprom(4);
	read_setting_data_all(); //
    50e2:	0e 94 a7 1d 	call	0x3b4e	; 0x3b4e <read_setting_data_all>

	//	send_variables(MASTER_SWITCH, pre_system_sta);	// 
	send_variables(ALL_SET_TEMP, all_temp);
    50e6:	80 91 03 01 	lds	r24, 0x0103	; 0x800103 <all_temp>
    50ea:	90 91 04 01 	lds	r25, 0x0104	; 0x800104 <all_temp+0x1>
    50ee:	bc 01       	movw	r22, r24
    50f0:	88 e4       	ldi	r24, 0x48	; 72
    50f2:	91 e0       	ldi	r25, 0x01	; 1
    50f4:	0e 94 1f 1c 	call	0x383e	; 0x383e <send_variables>
	send_variables(SET_PREHEAT_TIME, preheat_time);
    50f8:	80 91 01 01 	lds	r24, 0x0101	; 0x800101 <preheat_time>
    50fc:	90 91 02 01 	lds	r25, 0x0102	; 0x800102 <preheat_time+0x1>
    5100:	bc 01       	movw	r22, r24
    5102:	8a e4       	ldi	r24, 0x4A	; 74
    5104:	91 e0       	ldi	r25, 0x01	; 1
    5106:	0e 94 1f 1c 	call	0x383e	; 0x383e <send_variables>
	send_variables(TEMP_UINT_ADDR, (CELSIUS + temp_unit * FAHRENHEIT));
    510a:	40 91 b7 02 	lds	r20, 0x02B7	; 0x8002b7 <temp_unit>
    510e:	50 91 b8 02 	lds	r21, 0x02B8	; 0x8002b8 <temp_unit+0x1>
    5112:	20 e0       	ldi	r18, 0x00	; 0
    5114:	33 e0       	ldi	r19, 0x03	; 3
    5116:	42 9f       	mul	r20, r18
    5118:	c0 01       	movw	r24, r0
    511a:	43 9f       	mul	r20, r19
    511c:	90 0d       	add	r25, r0
    511e:	52 9f       	mul	r21, r18
    5120:	90 0d       	add	r25, r0
    5122:	11 24       	eor	r1, r1
    5124:	9d 5b       	subi	r25, 0xBD	; 189
    5126:	bc 01       	movw	r22, r24
    5128:	8c e3       	ldi	r24, 0x3C	; 60
    512a:	92 e0       	ldi	r25, 0x02	; 2
    512c:	0e 94 1f 1c 	call	0x383e	; 0x383e <send_variables>
	send_variables(ALL_SENSOR_TYPE_ADDR, TYPE_J + (all_sensor_type * TYPE_K));
    5130:	80 91 b5 02 	lds	r24, 0x02B5	; 0x8002b5 <all_sensor_type>
    5134:	90 91 b6 02 	lds	r25, 0x02B6	; 0x8002b6 <all_sensor_type+0x1>
    5138:	86 5b       	subi	r24, 0xB6	; 182
    513a:	9f 4f       	sbci	r25, 0xFF	; 255
    513c:	98 2f       	mov	r25, r24
    513e:	88 27       	eor	r24, r24
    5140:	bc 01       	movw	r22, r24
    5142:	84 e9       	ldi	r24, 0x94	; 148
    5144:	92 e0       	ldi	r25, 0x02	; 2
    5146:	0e 94 1f 1c 	call	0x383e	; 0x383e <send_variables>

	init_complete = 1;
    514a:	81 e0       	ldi	r24, 0x01	; 1
    514c:	80 93 d3 02 	sts	0x02D3, r24	; 0x8002d3 <init_complete>
	update_main_page();
    5150:	0e 94 b7 09 	call	0x136e	; 0x136e <update_main_page>
	switch_language();
    5154:	0e 94 cc 1b 	call	0x3798	; 0x3798 <switch_language>

	/* Replace with your application code */
	while (1)
	{
		if (usart0_rx_end) //
    5158:	80 91 70 04 	lds	r24, 0x0470	; 0x800470 <usart0_rx_end>
    515c:	88 23       	and	r24, r24
    515e:	21 f0       	breq	.+8      	; 0x5168 <main+0x19c>
		{
			usart0_deal();
    5160:	0e 94 0c 2f 	call	0x5e18	; 0x5e18 <usart0_deal>
			usart0_rx_end = 0;
    5164:	10 92 70 04 	sts	0x0470, r1	; 0x800470 <usart0_rx_end>
		}

		if (usart1_rx_end) //
    5168:	80 91 03 06 	lds	r24, 0x0603	; 0x800603 <usart1_rx_end>
    516c:	88 23       	and	r24, r24
    516e:	21 f0       	breq	.+8      	; 0x5178 <main+0x1ac>
		{
			usart1_deal();
    5170:	0e 94 1c 34 	call	0x6838	; 0x6838 <usart1_deal>
			usart1_rx_end = 0;
    5174:	10 92 03 06 	sts	0x0603, r1	; 0x800603 <usart1_rx_end>
		// 		usart1_tx_overtime_mask = 0;
		// 		usart1_tx_timecnt = 0;
		// 	}
		// }

		if (usart1_tx_overtime_mask == 1)
    5178:	80 91 d2 02 	lds	r24, 0x02D2	; 0x8002d2 <usart1_tx_overtime_mask>
    517c:	81 30       	cpi	r24, 0x01	; 1
    517e:	09 f0       	breq	.+2      	; 0x5182 <main+0x1b6>
    5180:	f1 c0       	rjmp	.+482    	; 0x5364 <main+0x398>
		{
			if (ctrl_index == 0)
    5182:	80 91 cc 02 	lds	r24, 0x02CC	; 0x8002cc <ctrl_index>
    5186:	88 23       	and	r24, r24
    5188:	69 f4       	brne	.+26     	; 0x51a4 <main+0x1d8>
			{
//				if (in_main_page)
//				{
					send_request_all(slave_num);
    518a:	89 81       	ldd	r24, Y+1	; 0x01
    518c:	0e 94 5b 20 	call	0x40b6	; 0x40b6 <send_request_all>
	
					if (++slave_num >= TEMP_CTRL_BOARD_QUANTITY + 1)
    5190:	89 81       	ldd	r24, Y+1	; 0x01
    5192:	8f 5f       	subi	r24, 0xFF	; 255
    5194:	89 83       	std	Y+1, r24	; 0x01
    5196:	89 81       	ldd	r24, Y+1	; 0x01
    5198:	87 30       	cpi	r24, 0x07	; 7
    519a:	08 f4       	brcc	.+2      	; 0x519e <main+0x1d2>
    519c:	df c0       	rjmp	.+446    	; 0x535c <main+0x390>
					{
						slave_num = 1;
    519e:	81 e0       	ldi	r24, 0x01	; 1
    51a0:	89 83       	std	Y+1, r24	; 0x01
    51a2:	dc c0       	rjmp	.+440    	; 0x535c <main+0x390>
					}
//				}
			}
			else
			{
				switch (ctrl_command[ctrl_index - 1])
    51a4:	80 91 cc 02 	lds	r24, 0x02CC	; 0x8002cc <ctrl_index>
    51a8:	88 2f       	mov	r24, r24
    51aa:	90 e0       	ldi	r25, 0x00	; 0
    51ac:	01 97       	sbiw	r24, 0x01	; 1
    51ae:	84 56       	subi	r24, 0x64	; 100
    51b0:	94 4f       	sbci	r25, 0xF4	; 244
    51b2:	fc 01       	movw	r30, r24
    51b4:	80 81       	ld	r24, Z
    51b6:	88 2f       	mov	r24, r24
    51b8:	90 e0       	ldi	r25, 0x00	; 0
    51ba:	84 30       	cpi	r24, 0x04	; 4
    51bc:	91 05       	cpc	r25, r1
    51be:	09 f4       	brne	.+2      	; 0x51c2 <main+0x1f6>
    51c0:	52 c0       	rjmp	.+164    	; 0x5266 <main+0x29a>
    51c2:	85 30       	cpi	r24, 0x05	; 5
    51c4:	91 05       	cpc	r25, r1
    51c6:	34 f4       	brge	.+12     	; 0x51d4 <main+0x208>
    51c8:	82 30       	cpi	r24, 0x02	; 2
    51ca:	91 05       	cpc	r25, r1
    51cc:	79 f0       	breq	.+30     	; 0x51ec <main+0x220>
    51ce:	03 97       	sbiw	r24, 0x03	; 3
    51d0:	a9 f0       	breq	.+42     	; 0x51fc <main+0x230>

					case SET_FOLLOW:
					single_set(SET_FOLLOW, follow_sta[set_num]);
					ctrl_index--;
					break;
					default: break;
    51d2:	c4 c0       	rjmp	.+392    	; 0x535c <main+0x390>
					}
//				}
			}
			else
			{
				switch (ctrl_command[ctrl_index - 1])
    51d4:	86 30       	cpi	r24, 0x06	; 6
    51d6:	91 05       	cpc	r25, r1
    51d8:	09 f4       	brne	.+2      	; 0x51dc <main+0x210>
    51da:	79 c0       	rjmp	.+242    	; 0x52ce <main+0x302>
    51dc:	86 30       	cpi	r24, 0x06	; 6
    51de:	91 05       	cpc	r25, r1
    51e0:	0c f4       	brge	.+2      	; 0x51e4 <main+0x218>
    51e2:	5b c0       	rjmp	.+182    	; 0x529a <main+0x2ce>
    51e4:	08 97       	sbiw	r24, 0x08	; 8
    51e6:	09 f4       	brne	.+2      	; 0x51ea <main+0x21e>
    51e8:	a5 c0       	rjmp	.+330    	; 0x5334 <main+0x368>

					case SET_FOLLOW:
					single_set(SET_FOLLOW, follow_sta[set_num]);
					ctrl_index--;
					break;
					default: break;
    51ea:	b8 c0       	rjmp	.+368    	; 0x535c <main+0x390>
			else
			{
				switch (ctrl_command[ctrl_index - 1])
				{
					case PID:
					set_pid();
    51ec:	0e 94 f9 11 	call	0x23f2	; 0x23f2 <set_pid>
					ctrl_index--;
    51f0:	80 91 cc 02 	lds	r24, 0x02CC	; 0x8002cc <ctrl_index>
    51f4:	81 50       	subi	r24, 0x01	; 1
    51f6:	80 93 cc 02 	sts	0x02CC, r24	; 0x8002cc <ctrl_index>
					break;
    51fa:	b0 c0       	rjmp	.+352    	; 0x535c <main+0x390>

					case TEMP:
					if (all_set_flag)
    51fc:	80 91 cd 02 	lds	r24, 0x02CD	; 0x8002cd <all_set_flag>
    5200:	88 23       	and	r24, r24
    5202:	e1 f0       	breq	.+56     	; 0x523c <main+0x270>
					{
						if (++all_set_cnt <= TEMP_CTRL_BOARD_QUANTITY)
    5204:	80 91 ce 02 	lds	r24, 0x02CE	; 0x8002ce <all_set_cnt>
    5208:	8f 5f       	subi	r24, 0xFF	; 255
    520a:	80 93 ce 02 	sts	0x02CE, r24	; 0x8002ce <all_set_cnt>
    520e:	80 91 ce 02 	lds	r24, 0x02CE	; 0x8002ce <all_set_cnt>
    5212:	87 30       	cpi	r24, 0x07	; 7
    5214:	48 f4       	brcc	.+18     	; 0x5228 <main+0x25c>
						{
							all_set(TEMP, all_temp);
    5216:	80 91 03 01 	lds	r24, 0x0103	; 0x800103 <all_temp>
    521a:	90 91 04 01 	lds	r25, 0x0104	; 0x800104 <all_temp+0x1>
    521e:	bc 01       	movw	r22, r24
    5220:	83 e0       	ldi	r24, 0x03	; 3
    5222:	0e 94 c6 14 	call	0x298c	; 0x298c <all_set>
					else
					{
						single_set(TEMP, set_temp[set_num]);
						ctrl_index--;
					}
					break;
    5226:	9a c0       	rjmp	.+308    	; 0x535c <main+0x390>
						{
							all_set(TEMP, all_temp);
						}
						else
						{
							all_set_cnt = 0;
    5228:	10 92 ce 02 	sts	0x02CE, r1	; 0x8002ce <all_set_cnt>
							all_set_flag = 0;
    522c:	10 92 cd 02 	sts	0x02CD, r1	; 0x8002cd <all_set_flag>
							ctrl_index--;
    5230:	80 91 cc 02 	lds	r24, 0x02CC	; 0x8002cc <ctrl_index>
    5234:	81 50       	subi	r24, 0x01	; 1
    5236:	80 93 cc 02 	sts	0x02CC, r24	; 0x8002cc <ctrl_index>
					else
					{
						single_set(TEMP, set_temp[set_num]);
						ctrl_index--;
					}
					break;
    523a:	90 c0       	rjmp	.+288    	; 0x535c <main+0x390>
							ctrl_index--;
						}
					}
					else
					{
						single_set(TEMP, set_temp[set_num]);
    523c:	80 91 9e 01 	lds	r24, 0x019E	; 0x80019e <set_num>
    5240:	88 2f       	mov	r24, r24
    5242:	90 e0       	ldi	r25, 0x00	; 0
    5244:	88 0f       	add	r24, r24
    5246:	99 1f       	adc	r25, r25
    5248:	84 59       	subi	r24, 0x94	; 148
    524a:	94 4f       	sbci	r25, 0xF4	; 244
    524c:	fc 01       	movw	r30, r24
    524e:	80 81       	ld	r24, Z
    5250:	91 81       	ldd	r25, Z+1	; 0x01
    5252:	bc 01       	movw	r22, r24
    5254:	83 e0       	ldi	r24, 0x03	; 3
    5256:	0e 94 6c 14 	call	0x28d8	; 0x28d8 <single_set>
						ctrl_index--;
    525a:	80 91 cc 02 	lds	r24, 0x02CC	; 0x8002cc <ctrl_index>
    525e:	81 50       	subi	r24, 0x01	; 1
    5260:	80 93 cc 02 	sts	0x02CC, r24	; 0x8002cc <ctrl_index>
					}
					break;
    5264:	7b c0       	rjmp	.+246    	; 0x535c <main+0x390>

					case PREHEAT_TIME:
					if (++all_set_cnt <= TEMP_CTRL_BOARD_QUANTITY)
    5266:	80 91 ce 02 	lds	r24, 0x02CE	; 0x8002ce <all_set_cnt>
    526a:	8f 5f       	subi	r24, 0xFF	; 255
    526c:	80 93 ce 02 	sts	0x02CE, r24	; 0x8002ce <all_set_cnt>
    5270:	80 91 ce 02 	lds	r24, 0x02CE	; 0x8002ce <all_set_cnt>
    5274:	87 30       	cpi	r24, 0x07	; 7
    5276:	48 f4       	brcc	.+18     	; 0x528a <main+0x2be>
					{
						all_set(PREHEAT_TIME, preheat_time);
    5278:	80 91 01 01 	lds	r24, 0x0101	; 0x800101 <preheat_time>
    527c:	90 91 02 01 	lds	r25, 0x0102	; 0x800102 <preheat_time+0x1>
    5280:	bc 01       	movw	r22, r24
    5282:	84 e0       	ldi	r24, 0x04	; 4
    5284:	0e 94 c6 14 	call	0x298c	; 0x298c <all_set>
					else
					{
						all_set_cnt = 0;
						ctrl_index--;
					}
					break;
    5288:	69 c0       	rjmp	.+210    	; 0x535c <main+0x390>
					{
						all_set(PREHEAT_TIME, preheat_time);
					}
					else
					{
						all_set_cnt = 0;
    528a:	10 92 ce 02 	sts	0x02CE, r1	; 0x8002ce <all_set_cnt>
						ctrl_index--;
    528e:	80 91 cc 02 	lds	r24, 0x02CC	; 0x8002cc <ctrl_index>
    5292:	81 50       	subi	r24, 0x01	; 1
    5294:	80 93 cc 02 	sts	0x02CC, r24	; 0x8002cc <ctrl_index>
					}
					break;
    5298:	61 c0       	rjmp	.+194    	; 0x535c <main+0x390>

					case SENSOR_TYPE:
					if (++all_set_cnt <= TEMP_CTRL_BOARD_QUANTITY)
    529a:	80 91 ce 02 	lds	r24, 0x02CE	; 0x8002ce <all_set_cnt>
    529e:	8f 5f       	subi	r24, 0xFF	; 255
    52a0:	80 93 ce 02 	sts	0x02CE, r24	; 0x8002ce <all_set_cnt>
    52a4:	80 91 ce 02 	lds	r24, 0x02CE	; 0x8002ce <all_set_cnt>
    52a8:	87 30       	cpi	r24, 0x07	; 7
    52aa:	48 f4       	brcc	.+18     	; 0x52be <main+0x2f2>
					{
						all_set(SENSOR_TYPE, all_sensor_type);
    52ac:	80 91 b5 02 	lds	r24, 0x02B5	; 0x8002b5 <all_sensor_type>
    52b0:	90 91 b6 02 	lds	r25, 0x02B6	; 0x8002b6 <all_sensor_type+0x1>
    52b4:	bc 01       	movw	r22, r24
    52b6:	85 e0       	ldi	r24, 0x05	; 5
    52b8:	0e 94 c6 14 	call	0x298c	; 0x298c <all_set>
					else
					{
						all_set_cnt = 0;
						ctrl_index--;
					}
					break;
    52bc:	4f c0       	rjmp	.+158    	; 0x535c <main+0x390>
					{
						all_set(SENSOR_TYPE, all_sensor_type);
					}
					else
					{
						all_set_cnt = 0;
    52be:	10 92 ce 02 	sts	0x02CE, r1	; 0x8002ce <all_set_cnt>
						ctrl_index--;
    52c2:	80 91 cc 02 	lds	r24, 0x02CC	; 0x8002cc <ctrl_index>
    52c6:	81 50       	subi	r24, 0x01	; 1
    52c8:	80 93 cc 02 	sts	0x02CC, r24	; 0x8002cc <ctrl_index>
					}
					break;
    52cc:	47 c0       	rjmp	.+142    	; 0x535c <main+0x390>

					case SWITCH_SENSOR:
					if (all_set_flag)
    52ce:	80 91 cd 02 	lds	r24, 0x02CD	; 0x8002cd <all_set_flag>
    52d2:	88 23       	and	r24, r24
    52d4:	d1 f0       	breq	.+52     	; 0x530a <main+0x33e>
					{
						if (++all_set_cnt <= TEMP_CTRL_BOARD_QUANTITY)
    52d6:	80 91 ce 02 	lds	r24, 0x02CE	; 0x8002ce <all_set_cnt>
    52da:	8f 5f       	subi	r24, 0xFF	; 255
    52dc:	80 93 ce 02 	sts	0x02CE, r24	; 0x8002ce <all_set_cnt>
    52e0:	80 91 ce 02 	lds	r24, 0x02CE	; 0x8002ce <all_set_cnt>
    52e4:	87 30       	cpi	r24, 0x07	; 7
    52e6:	38 f4       	brcc	.+14     	; 0x52f6 <main+0x32a>
						{
							switch_all_sensor(pre_system_sta);
    52e8:	80 91 9c 01 	lds	r24, 0x019C	; 0x80019c <pre_system_sta>
    52ec:	90 91 9d 01 	lds	r25, 0x019D	; 0x80019d <pre_system_sta+0x1>
    52f0:	0e 94 9c 13 	call	0x2738	; 0x2738 <switch_all_sensor>
					else
					{
						single_set(SWITCH_SENSOR, switch_sensor[set_num]);
						ctrl_index--;
					}
					break;
    52f4:	33 c0       	rjmp	.+102    	; 0x535c <main+0x390>
						{
							switch_all_sensor(pre_system_sta);
						}
						else
						{
							all_set_cnt = 0;
    52f6:	10 92 ce 02 	sts	0x02CE, r1	; 0x8002ce <all_set_cnt>
							all_set_flag = 0;
    52fa:	10 92 cd 02 	sts	0x02CD, r1	; 0x8002cd <all_set_flag>
							ctrl_index--;
    52fe:	80 91 cc 02 	lds	r24, 0x02CC	; 0x8002cc <ctrl_index>
    5302:	81 50       	subi	r24, 0x01	; 1
    5304:	80 93 cc 02 	sts	0x02CC, r24	; 0x8002cc <ctrl_index>
					else
					{
						single_set(SWITCH_SENSOR, switch_sensor[set_num]);
						ctrl_index--;
					}
					break;
    5308:	29 c0       	rjmp	.+82     	; 0x535c <main+0x390>
							ctrl_index--;
						}
					}
					else
					{
						single_set(SWITCH_SENSOR, switch_sensor[set_num]);
    530a:	80 91 9e 01 	lds	r24, 0x019E	; 0x80019e <set_num>
    530e:	88 2f       	mov	r24, r24
    5310:	90 e0       	ldi	r25, 0x00	; 0
    5312:	88 0f       	add	r24, r24
    5314:	99 1f       	adc	r25, r25
    5316:	8f 5d       	subi	r24, 0xDF	; 223
    5318:	9d 4f       	sbci	r25, 0xFD	; 253
    531a:	fc 01       	movw	r30, r24
    531c:	80 81       	ld	r24, Z
    531e:	91 81       	ldd	r25, Z+1	; 0x01
    5320:	bc 01       	movw	r22, r24
    5322:	86 e0       	ldi	r24, 0x06	; 6
    5324:	0e 94 6c 14 	call	0x28d8	; 0x28d8 <single_set>
						ctrl_index--;
    5328:	80 91 cc 02 	lds	r24, 0x02CC	; 0x8002cc <ctrl_index>
    532c:	81 50       	subi	r24, 0x01	; 1
    532e:	80 93 cc 02 	sts	0x02CC, r24	; 0x8002cc <ctrl_index>
					}
					break;
    5332:	14 c0       	rjmp	.+40     	; 0x535c <main+0x390>

					case SET_FOLLOW:
					single_set(SET_FOLLOW, follow_sta[set_num]);
    5334:	80 91 9e 01 	lds	r24, 0x019E	; 0x80019e <set_num>
    5338:	88 2f       	mov	r24, r24
    533a:	90 e0       	ldi	r25, 0x00	; 0
    533c:	8b 57       	subi	r24, 0x7B	; 123
    533e:	9d 4f       	sbci	r25, 0xFD	; 253
    5340:	fc 01       	movw	r30, r24
    5342:	80 81       	ld	r24, Z
    5344:	88 2f       	mov	r24, r24
    5346:	90 e0       	ldi	r25, 0x00	; 0
    5348:	bc 01       	movw	r22, r24
    534a:	88 e0       	ldi	r24, 0x08	; 8
    534c:	0e 94 6c 14 	call	0x28d8	; 0x28d8 <single_set>
					ctrl_index--;
    5350:	80 91 cc 02 	lds	r24, 0x02CC	; 0x8002cc <ctrl_index>
    5354:	81 50       	subi	r24, 0x01	; 1
    5356:	80 93 cc 02 	sts	0x02CC, r24	; 0x8002cc <ctrl_index>
					break;
    535a:	00 00       	nop
					default: break;
				}
			}

			usart1_tx_overtime_mask = 0;
    535c:	10 92 d2 02 	sts	0x02D2, r1	; 0x8002d2 <usart1_tx_overtime_mask>
			usart1_tx_timecnt = 0;
    5360:	10 92 d1 02 	sts	0x02D1, r1	; 0x8002d1 <usart1_tx_timecnt>
		}

		/*1.5*/
		if (alarm_monitor_overtime_mask)
    5364:	80 91 d4 02 	lds	r24, 0x02D4	; 0x8002d4 <alarm_monitor_overtime_mask>
    5368:	88 23       	and	r24, r24
    536a:	09 f4       	brne	.+2      	; 0x536e <main+0x3a2>
    536c:	f5 ce       	rjmp	.-534    	; 0x5158 <main+0x18c>
		{
			alarm_monitor();
    536e:	0e 94 05 23 	call	0x460a	; 0x460a <alarm_monitor>
			alarm_monitor_overtime_mask = 0;
    5372:	10 92 d4 02 	sts	0x02D4, r1	; 0x8002d4 <alarm_monitor_overtime_mask>
		}
	}
    5376:	f0 ce       	rjmp	.-544    	; 0x5158 <main+0x18c>

00005378 <system_init>:
	return 0;
}

void system_init()
{
    5378:	cf 93       	push	r28
    537a:	df 93       	push	r29
    537c:	cd b7       	in	r28, 0x3d	; 61
    537e:	de b7       	in	r29, 0x3e	; 62
	gpio_init();
    5380:	0e 94 3c 27 	call	0x4e78	; 0x4e78 <gpio_init>
	usart0_init(MYUBRR(38400));
    5384:	89 e1       	ldi	r24, 0x19	; 25
    5386:	90 e0       	ldi	r25, 0x00	; 0
    5388:	0e 94 ae 35 	call	0x6b5c	; 0x6b5c <usart0_init>
	usart1_init(MYUBRR(8928));
    538c:	8f e6       	ldi	r24, 0x6F	; 111
    538e:	90 e0       	ldi	r25, 0x00	; 0
    5390:	0e 94 ec 35 	call	0x6bd8	; 0x6bd8 <usart1_init>
	usart2_init(9600);
    5394:	80 e8       	ldi	r24, 0x80	; 128
    5396:	95 e2       	ldi	r25, 0x25	; 37
    5398:	0e 94 22 36 	call	0x6c44	; 0x6c44 <usart2_init>

	timer0_init();
    539c:	0e 94 96 2c 	call	0x592c	; 0x592c <timer0_init>
	timer2_init();
    53a0:	0e 94 fd 2c 	call	0x59fa	; 0x59fa <timer2_init>
	timer1_init();
    53a4:	0e 94 c7 2c 	call	0x598e	; 0x598e <timer1_init>

	twi_init(400);
    53a8:	80 e9       	ldi	r24, 0x90	; 144
    53aa:	91 e0       	ldi	r25, 0x01	; 1
    53ac:	0e 94 54 2e 	call	0x5ca8	; 0x5ca8 <twi_init>

	init_variable();
    53b0:	0e 94 0f 08 	call	0x101e	; 0x101e <init_variable>
}
    53b4:	00 00       	nop
    53b6:	df 91       	pop	r29
    53b8:	cf 91       	pop	r28
    53ba:	08 95       	ret

000053bc <__vector_16>:
uint8_t usart1_tx_overtime_mask = 0;
uint8_t init_complete = 0;
uint8_t alarm_monitor_overtime_mask = 0;

ISR(TIMER0_OVF_vect)
{
    53bc:	1f 92       	push	r1
    53be:	0f 92       	push	r0
    53c0:	00 90 5f 00 	lds	r0, 0x005F	; 0x80005f <__TEXT_REGION_LENGTH__+0x7e005f>
    53c4:	0f 92       	push	r0
    53c6:	11 24       	eor	r1, r1
    53c8:	2f 93       	push	r18
    53ca:	3f 93       	push	r19
    53cc:	4f 93       	push	r20
    53ce:	5f 93       	push	r21
    53d0:	6f 93       	push	r22
    53d2:	7f 93       	push	r23
    53d4:	8f 93       	push	r24
    53d6:	9f 93       	push	r25
    53d8:	af 93       	push	r26
    53da:	bf 93       	push	r27
    53dc:	ef 93       	push	r30
    53de:	ff 93       	push	r31
    53e0:	cf 93       	push	r28
    53e2:	df 93       	push	r29
    53e4:	cd b7       	in	r28, 0x3d	; 61
    53e6:	de b7       	in	r29, 0x3e	; 62
/*	static uint8_t time_cnt = 0;  //*/
/*	static uint8_t slave_num = 1; //*/
	static uint16_t update_run_temp_cnt = 0;
	static uint16_t alarm_monitor_cnt = 0;

	EN_INTERRUPT;
    53e8:	8f e5       	ldi	r24, 0x5F	; 95
    53ea:	90 e0       	ldi	r25, 0x00	; 0
    53ec:	2f e5       	ldi	r18, 0x5F	; 95
    53ee:	30 e0       	ldi	r19, 0x00	; 0
    53f0:	d9 01       	movw	r26, r18
    53f2:	2c 91       	ld	r18, X
    53f4:	20 68       	ori	r18, 0x80	; 128
    53f6:	fc 01       	movw	r30, r24
    53f8:	20 83       	st	Z, r18
	TCNT0 = 0xB2;
    53fa:	82 e5       	ldi	r24, 0x52	; 82
    53fc:	90 e0       	ldi	r25, 0x00	; 0
    53fe:	22 eb       	ldi	r18, 0xB2	; 178
    5400:	dc 01       	movw	r26, r24
    5402:	2c 93       	st	X, r18

	if (++read_setting_data_cnt >= 60)
    5404:	80 91 d0 02 	lds	r24, 0x02D0	; 0x8002d0 <read_setting_data_cnt>
    5408:	8f 5f       	subi	r24, 0xFF	; 255
    540a:	80 93 d0 02 	sts	0x02D0, r24	; 0x8002d0 <read_setting_data_cnt>
    540e:	80 91 d0 02 	lds	r24, 0x02D0	; 0x8002d0 <read_setting_data_cnt>
    5412:	8c 33       	cpi	r24, 0x3C	; 60
    5414:	28 f0       	brcs	.+10     	; 0x5420 <__vector_16+0x64>
	{
		read_setting_data_cnt = 0;
    5416:	10 92 d0 02 	sts	0x02D0, r1	; 0x8002d0 <read_setting_data_cnt>
		read_setting_data_mask = 1;
    541a:	81 e0       	ldi	r24, 0x01	; 1
    541c:	80 93 cf 02 	sts	0x02CF, r24	; 0x8002cf <read_setting_data_mask>
	}

	if (init_complete)
    5420:	80 91 d3 02 	lds	r24, 0x02D3	; 0x8002d3 <init_complete>
    5424:	88 23       	and	r24, r24
    5426:	29 f1       	breq	.+74     	; 0x5472 <__vector_16+0xb6>
	{
		if (++usart1_tx_timecnt >= 100)
    5428:	80 91 d1 02 	lds	r24, 0x02D1	; 0x8002d1 <usart1_tx_timecnt>
    542c:	8f 5f       	subi	r24, 0xFF	; 255
    542e:	80 93 d1 02 	sts	0x02D1, r24	; 0x8002d1 <usart1_tx_timecnt>
    5432:	80 91 d1 02 	lds	r24, 0x02D1	; 0x8002d1 <usart1_tx_timecnt>
    5436:	84 36       	cpi	r24, 0x64	; 100
    5438:	28 f0       	brcs	.+10     	; 0x5444 <__vector_16+0x88>
		{
			usart1_tx_timecnt = 0;
    543a:	10 92 d1 02 	sts	0x02D1, r1	; 0x8002d1 <usart1_tx_timecnt>
			usart1_tx_overtime_mask = 1;
    543e:	81 e0       	ldi	r24, 0x01	; 1
    5440:	80 93 d2 02 	sts	0x02D2, r24	; 0x8002d2 <usart1_tx_overtime_mask>
		} //5  15003

		if(++alarm_monitor_cnt >= 300)
    5444:	80 91 d5 02 	lds	r24, 0x02D5	; 0x8002d5 <alarm_monitor_cnt.2253>
    5448:	90 91 d6 02 	lds	r25, 0x02D6	; 0x8002d6 <alarm_monitor_cnt.2253+0x1>
    544c:	01 96       	adiw	r24, 0x01	; 1
    544e:	90 93 d6 02 	sts	0x02D6, r25	; 0x8002d6 <alarm_monitor_cnt.2253+0x1>
    5452:	80 93 d5 02 	sts	0x02D5, r24	; 0x8002d5 <alarm_monitor_cnt.2253>
    5456:	80 91 d5 02 	lds	r24, 0x02D5	; 0x8002d5 <alarm_monitor_cnt.2253>
    545a:	90 91 d6 02 	lds	r25, 0x02D6	; 0x8002d6 <alarm_monitor_cnt.2253+0x1>
    545e:	8c 32       	cpi	r24, 0x2C	; 44
    5460:	91 40       	sbci	r25, 0x01	; 1
    5462:	38 f0       	brcs	.+14     	; 0x5472 <__vector_16+0xb6>
		{
			alarm_monitor_cnt = 0;
    5464:	10 92 d6 02 	sts	0x02D6, r1	; 0x8002d6 <alarm_monitor_cnt.2253+0x1>
    5468:	10 92 d5 02 	sts	0x02D5, r1	; 0x8002d5 <alarm_monitor_cnt.2253>
			alarm_monitor_overtime_mask = 1;
    546c:	81 e0       	ldi	r24, 0x01	; 1
    546e:	80 93 d4 02 	sts	0x02D4, r24	; 0x8002d4 <alarm_monitor_overtime_mask>
		}
	}

	if (update_run_temp_flag) //1s
    5472:	80 91 99 01 	lds	r24, 0x0199	; 0x800199 <update_run_temp_flag>
    5476:	88 23       	and	r24, r24
    5478:	09 f4       	brne	.+2      	; 0x547c <__vector_16+0xc0>
    547a:	9a c0       	rjmp	.+308    	; 0x55b0 <__vector_16+0x1f4>
	{
		update_run_temp_cnt++;
    547c:	80 91 d7 02 	lds	r24, 0x02D7	; 0x8002d7 <update_run_temp_cnt.2252>
    5480:	90 91 d8 02 	lds	r25, 0x02D8	; 0x8002d8 <update_run_temp_cnt.2252+0x1>
    5484:	01 96       	adiw	r24, 0x01	; 1
    5486:	90 93 d8 02 	sts	0x02D8, r25	; 0x8002d8 <update_run_temp_cnt.2252+0x1>
    548a:	80 93 d7 02 	sts	0x02D7, r24	; 0x8002d7 <update_run_temp_cnt.2252>

		if (update_run_temp_cnt >= 200)
    548e:	80 91 d7 02 	lds	r24, 0x02D7	; 0x8002d7 <update_run_temp_cnt.2252>
    5492:	90 91 d8 02 	lds	r25, 0x02D8	; 0x8002d8 <update_run_temp_cnt.2252+0x1>
    5496:	88 3c       	cpi	r24, 0xC8	; 200
    5498:	91 05       	cpc	r25, r1
    549a:	08 f4       	brcc	.+2      	; 0x549e <__vector_16+0xe2>
    549c:	89 c0       	rjmp	.+274    	; 0x55b0 <__vector_16+0x1f4>
		{
			update_run_temp_cnt = 0;
    549e:	10 92 d8 02 	sts	0x02D8, r1	; 0x8002d8 <update_run_temp_cnt.2252+0x1>
    54a2:	10 92 d7 02 	sts	0x02D7, r1	; 0x8002d7 <update_run_temp_cnt.2252>

			if (run_temp_page)
    54a6:	80 91 98 01 	lds	r24, 0x0198	; 0x800198 <__data_end>
    54aa:	88 23       	and	r24, r24
    54ac:	c1 f1       	breq	.+112    	; 0x551e <__vector_16+0x162>
			{
				send_variables(SINGLE_RUNTEMP_ADDR, run_temp[set_num] + temp_unit * ((run_temp[set_num] * 8 / 10) + 32)); //
    54ae:	80 91 9e 01 	lds	r24, 0x019E	; 0x80019e <set_num>
    54b2:	88 2f       	mov	r24, r24
    54b4:	90 e0       	ldi	r25, 0x00	; 0
    54b6:	88 0f       	add	r24, r24
    54b8:	99 1f       	adc	r25, r25
    54ba:	8f 50       	subi	r24, 0x0F	; 15
    54bc:	9e 4f       	sbci	r25, 0xFE	; 254
    54be:	fc 01       	movw	r30, r24
    54c0:	80 81       	ld	r24, Z
    54c2:	91 81       	ldd	r25, Z+1	; 0x01
    54c4:	fc 01       	movw	r30, r24
    54c6:	80 91 9e 01 	lds	r24, 0x019E	; 0x80019e <set_num>
    54ca:	88 2f       	mov	r24, r24
    54cc:	90 e0       	ldi	r25, 0x00	; 0
    54ce:	88 0f       	add	r24, r24
    54d0:	99 1f       	adc	r25, r25
    54d2:	8f 50       	subi	r24, 0x0F	; 15
    54d4:	9e 4f       	sbci	r25, 0xFE	; 254
    54d6:	dc 01       	movw	r26, r24
    54d8:	8d 91       	ld	r24, X+
    54da:	9c 91       	ld	r25, X
    54dc:	88 0f       	add	r24, r24
    54de:	99 1f       	adc	r25, r25
    54e0:	88 0f       	add	r24, r24
    54e2:	99 1f       	adc	r25, r25
    54e4:	88 0f       	add	r24, r24
    54e6:	99 1f       	adc	r25, r25
    54e8:	2a e0       	ldi	r18, 0x0A	; 10
    54ea:	30 e0       	ldi	r19, 0x00	; 0
    54ec:	b9 01       	movw	r22, r18
    54ee:	0e 94 a1 37 	call	0x6f42	; 0x6f42 <__divmodhi4>
    54f2:	cb 01       	movw	r24, r22
    54f4:	80 96       	adiw	r24, 0x20	; 32
    54f6:	ac 01       	movw	r20, r24
    54f8:	20 91 b7 02 	lds	r18, 0x02B7	; 0x8002b7 <temp_unit>
    54fc:	30 91 b8 02 	lds	r19, 0x02B8	; 0x8002b8 <temp_unit+0x1>
    5500:	42 9f       	mul	r20, r18
    5502:	c0 01       	movw	r24, r0
    5504:	43 9f       	mul	r20, r19
    5506:	90 0d       	add	r25, r0
    5508:	52 9f       	mul	r21, r18
    550a:	90 0d       	add	r25, r0
    550c:	11 24       	eor	r1, r1
    550e:	8e 0f       	add	r24, r30
    5510:	9f 1f       	adc	r25, r31
    5512:	bc 01       	movw	r22, r24
    5514:	82 e3       	ldi	r24, 0x32	; 50
    5516:	90 e0       	ldi	r25, 0x00	; 0
    5518:	0e 94 1f 1c 	call	0x383e	; 0x383e <send_variables>
    551c:	49 c0       	rjmp	.+146    	; 0x55b0 <__vector_16+0x1f4>
			}
			else
			{
				send_variables(CURVE_PAGE_RUNTEMP_ADDR, run_temp[curve_page_num] +
    551e:	80 91 a0 01 	lds	r24, 0x01A0	; 0x8001a0 <curve_page_num>
    5522:	08 2e       	mov	r0, r24
    5524:	00 0c       	add	r0, r0
    5526:	99 0b       	sbc	r25, r25
    5528:	88 0f       	add	r24, r24
    552a:	99 1f       	adc	r25, r25
    552c:	8f 50       	subi	r24, 0x0F	; 15
    552e:	9e 4f       	sbci	r25, 0xFE	; 254
    5530:	fc 01       	movw	r30, r24
    5532:	80 81       	ld	r24, Z
    5534:	91 81       	ldd	r25, Z+1	; 0x01
    5536:	fc 01       	movw	r30, r24
				temp_unit * (run_temp[curve_page_num] * 8 / 10 + 32)); //
    5538:	80 91 a0 01 	lds	r24, 0x01A0	; 0x8001a0 <curve_page_num>
    553c:	08 2e       	mov	r0, r24
    553e:	00 0c       	add	r0, r0
    5540:	99 0b       	sbc	r25, r25
    5542:	88 0f       	add	r24, r24
    5544:	99 1f       	adc	r25, r25
    5546:	8f 50       	subi	r24, 0x0F	; 15
    5548:	9e 4f       	sbci	r25, 0xFE	; 254
    554a:	dc 01       	movw	r26, r24
    554c:	8d 91       	ld	r24, X+
    554e:	9c 91       	ld	r25, X
    5550:	88 0f       	add	r24, r24
    5552:	99 1f       	adc	r25, r25
    5554:	88 0f       	add	r24, r24
    5556:	99 1f       	adc	r25, r25
    5558:	88 0f       	add	r24, r24
    555a:	99 1f       	adc	r25, r25
    555c:	2a e0       	ldi	r18, 0x0A	; 10
    555e:	30 e0       	ldi	r19, 0x00	; 0
    5560:	b9 01       	movw	r22, r18
    5562:	0e 94 a1 37 	call	0x6f42	; 0x6f42 <__divmodhi4>
    5566:	cb 01       	movw	r24, r22
    5568:	80 96       	adiw	r24, 0x20	; 32
    556a:	ac 01       	movw	r20, r24
    556c:	20 91 b7 02 	lds	r18, 0x02B7	; 0x8002b7 <temp_unit>
    5570:	30 91 b8 02 	lds	r19, 0x02B8	; 0x8002b8 <temp_unit+0x1>
    5574:	42 9f       	mul	r20, r18
    5576:	c0 01       	movw	r24, r0
    5578:	43 9f       	mul	r20, r19
    557a:	90 0d       	add	r25, r0
    557c:	52 9f       	mul	r21, r18
    557e:	90 0d       	add	r25, r0
    5580:	11 24       	eor	r1, r1
			{
				send_variables(SINGLE_RUNTEMP_ADDR, run_temp[set_num] + temp_unit * ((run_temp[set_num] * 8 / 10) + 32)); //
			}
			else
			{
				send_variables(CURVE_PAGE_RUNTEMP_ADDR, run_temp[curve_page_num] +
    5582:	8e 0f       	add	r24, r30
    5584:	9f 1f       	adc	r25, r31
    5586:	bc 01       	movw	r22, r24
    5588:	8e e3       	ldi	r24, 0x3E	; 62
    558a:	90 e0       	ldi	r25, 0x00	; 0
    558c:	0e 94 1f 1c 	call	0x383e	; 0x383e <send_variables>
				temp_unit * (run_temp[curve_page_num] * 8 / 10 + 32)); //

				send_variables(CURVE_PAGE_OUTRATE_ADDR, output_rate[curve_page_num]); //
    5590:	80 91 a0 01 	lds	r24, 0x01A0	; 0x8001a0 <curve_page_num>
    5594:	08 2e       	mov	r0, r24
    5596:	00 0c       	add	r0, r0
    5598:	99 0b       	sbc	r25, r25
    559a:	87 55       	subi	r24, 0x57	; 87
    559c:	9e 4f       	sbci	r25, 0xFE	; 254
    559e:	fc 01       	movw	r30, r24
    55a0:	80 81       	ld	r24, Z
    55a2:	88 2f       	mov	r24, r24
    55a4:	90 e0       	ldi	r25, 0x00	; 0
    55a6:	bc 01       	movw	r22, r24
    55a8:	82 e4       	ldi	r24, 0x42	; 66
    55aa:	90 e0       	ldi	r25, 0x00	; 0
    55ac:	0e 94 1f 1c 	call	0x383e	; 0x383e <send_variables>
			}
		}
	}

	if (usart1_rx_cnt != pre_usart1_rx_cnt)
    55b0:	90 91 05 06 	lds	r25, 0x0605	; 0x800605 <usart1_rx_cnt>
    55b4:	80 91 d9 02 	lds	r24, 0x02D9	; 0x8002d9 <pre_usart1_rx_cnt.2249>
    55b8:	98 17       	cp	r25, r24
    55ba:	39 f0       	breq	.+14     	; 0x55ca <__vector_16+0x20e>
	{
		pre_usart1_rx_cnt = usart1_rx_cnt;
    55bc:	80 91 05 06 	lds	r24, 0x0605	; 0x800605 <usart1_rx_cnt>
    55c0:	80 93 d9 02 	sts	0x02D9, r24	; 0x8002d9 <pre_usart1_rx_cnt.2249>
		usart1_cnt = 0;
    55c4:	10 92 da 02 	sts	0x02DA, r1	; 0x8002da <usart1_cnt.2248>
    55c8:	1a c0       	rjmp	.+52     	; 0x55fe <__vector_16+0x242>
	} //usart1   
	else
	{
		if (usart1_rx_cnt != 0) //usart10   
    55ca:	80 91 05 06 	lds	r24, 0x0605	; 0x800605 <usart1_rx_cnt>
    55ce:	88 23       	and	r24, r24
    55d0:	b1 f0       	breq	.+44     	; 0x55fe <__vector_16+0x242>
		{
			usart1_cnt++;
    55d2:	80 91 da 02 	lds	r24, 0x02DA	; 0x8002da <usart1_cnt.2248>
    55d6:	8f 5f       	subi	r24, 0xFF	; 255
    55d8:	80 93 da 02 	sts	0x02DA, r24	; 0x8002da <usart1_cnt.2248>

			if (usart1_cnt >= 4)
    55dc:	80 91 da 02 	lds	r24, 0x02DA	; 0x8002da <usart1_cnt.2248>
    55e0:	84 30       	cpi	r24, 0x04	; 4
    55e2:	68 f0       	brcs	.+26     	; 0x55fe <__vector_16+0x242>
			{
				usart1_rx_lenth = usart1_rx_cnt;
    55e4:	80 91 05 06 	lds	r24, 0x0605	; 0x800605 <usart1_rx_cnt>
    55e8:	80 93 04 06 	sts	0x0604, r24	; 0x800604 <usart1_rx_lenth>
				usart1_rx_end = 1;
    55ec:	81 e0       	ldi	r24, 0x01	; 1
    55ee:	80 93 03 06 	sts	0x0603, r24	; 0x800603 <usart1_rx_end>

				usart1_rx_cnt = 0;
    55f2:	10 92 05 06 	sts	0x0605, r1	; 0x800605 <usart1_rx_cnt>
				pre_usart1_rx_cnt = 0;
    55f6:	10 92 d9 02 	sts	0x02D9, r1	; 0x8002d9 <pre_usart1_rx_cnt.2249>

				usart1_cnt = 0;
    55fa:	10 92 da 02 	sts	0x02DA, r1	; 0x8002da <usart1_cnt.2248>
			}
		}
	} //21        

	if (usart0_rx_cnt != pre_usart0_rx_cnt)
    55fe:	90 91 72 04 	lds	r25, 0x0472	; 0x800472 <usart0_rx_cnt>
    5602:	80 91 db 02 	lds	r24, 0x02DB	; 0x8002db <pre_usart0_rx_cnt.2251>
    5606:	98 17       	cp	r25, r24
    5608:	39 f0       	breq	.+14     	; 0x5618 <__vector_16+0x25c>
	{
		pre_usart0_rx_cnt = usart0_rx_cnt;
    560a:	80 91 72 04 	lds	r24, 0x0472	; 0x800472 <usart0_rx_cnt>
    560e:	80 93 db 02 	sts	0x02DB, r24	; 0x8002db <pre_usart0_rx_cnt.2251>
		usart0_cnt = 0;
    5612:	10 92 dc 02 	sts	0x02DC, r1	; 0x8002dc <usart0_cnt.2250>

				usart0_cnt = 0;
			}
		}
	} //21        
}
    5616:	1a c0       	rjmp	.+52     	; 0x564c <__vector_16+0x290>
		pre_usart0_rx_cnt = usart0_rx_cnt;
		usart0_cnt = 0;
	} //usart0   
	else
	{
		if (usart0_rx_cnt != 0) //usart00     
    5618:	80 91 72 04 	lds	r24, 0x0472	; 0x800472 <usart0_rx_cnt>
    561c:	88 23       	and	r24, r24
    561e:	b1 f0       	breq	.+44     	; 0x564c <__vector_16+0x290>
		{
			usart0_cnt++;
    5620:	80 91 dc 02 	lds	r24, 0x02DC	; 0x8002dc <usart0_cnt.2250>
    5624:	8f 5f       	subi	r24, 0xFF	; 255
    5626:	80 93 dc 02 	sts	0x02DC, r24	; 0x8002dc <usart0_cnt.2250>

			if (usart0_cnt >= 4)
    562a:	80 91 dc 02 	lds	r24, 0x02DC	; 0x8002dc <usart0_cnt.2250>
    562e:	84 30       	cpi	r24, 0x04	; 4
    5630:	68 f0       	brcs	.+26     	; 0x564c <__vector_16+0x290>
			{
				usart0_rx_lenth = usart0_rx_cnt;
    5632:	80 91 72 04 	lds	r24, 0x0472	; 0x800472 <usart0_rx_cnt>
    5636:	80 93 71 04 	sts	0x0471, r24	; 0x800471 <usart0_rx_lenth>
				usart0_rx_end = 1;
    563a:	81 e0       	ldi	r24, 0x01	; 1
    563c:	80 93 70 04 	sts	0x0470, r24	; 0x800470 <usart0_rx_end>

				usart0_rx_cnt = 0;
    5640:	10 92 72 04 	sts	0x0472, r1	; 0x800472 <usart0_rx_cnt>
				pre_usart0_rx_cnt = 0;
    5644:	10 92 db 02 	sts	0x02DB, r1	; 0x8002db <pre_usart0_rx_cnt.2251>

				usart0_cnt = 0;
    5648:	10 92 dc 02 	sts	0x02DC, r1	; 0x8002dc <usart0_cnt.2250>
			}
		}
	} //21        
}
    564c:	00 00       	nop
    564e:	df 91       	pop	r29
    5650:	cf 91       	pop	r28
    5652:	ff 91       	pop	r31
    5654:	ef 91       	pop	r30
    5656:	bf 91       	pop	r27
    5658:	af 91       	pop	r26
    565a:	9f 91       	pop	r25
    565c:	8f 91       	pop	r24
    565e:	7f 91       	pop	r23
    5660:	6f 91       	pop	r22
    5662:	5f 91       	pop	r21
    5664:	4f 91       	pop	r20
    5666:	3f 91       	pop	r19
    5668:	2f 91       	pop	r18
    566a:	0f 90       	pop	r0
    566c:	00 92 5f 00 	sts	0x005F, r0	; 0x80005f <__TEXT_REGION_LENGTH__+0x7e005f>
    5670:	0f 90       	pop	r0
    5672:	1f 90       	pop	r1
    5674:	18 95       	reti

00005676 <__vector_12>:

/* 
**
*/
ISR(TIMER1_COMPA_vect)
{
    5676:	1f 92       	push	r1
    5678:	0f 92       	push	r0
    567a:	00 90 5f 00 	lds	r0, 0x005F	; 0x80005f <__TEXT_REGION_LENGTH__+0x7e005f>
    567e:	0f 92       	push	r0
    5680:	11 24       	eor	r1, r1
    5682:	cf 93       	push	r28
    5684:	df 93       	push	r29
    5686:	cd b7       	in	r28, 0x3d	; 61
    5688:	de b7       	in	r29, 0x3e	; 62
	}
	}
	}
	}
	*/
}
    568a:	00 00       	nop
    568c:	df 91       	pop	r29
    568e:	cf 91       	pop	r28
    5690:	0f 90       	pop	r0
    5692:	00 92 5f 00 	sts	0x005F, r0	; 0x80005f <__TEXT_REGION_LENGTH__+0x7e005f>
    5696:	0f 90       	pop	r0
    5698:	1f 90       	pop	r1
    569a:	18 95       	reti

0000569c <__vector_10>:

/* */
ISR(TIMER2_OVF_vect)
{
    569c:	1f 92       	push	r1
    569e:	0f 92       	push	r0
    56a0:	00 90 5f 00 	lds	r0, 0x005F	; 0x80005f <__TEXT_REGION_LENGTH__+0x7e005f>
    56a4:	0f 92       	push	r0
    56a6:	11 24       	eor	r1, r1
    56a8:	2f 93       	push	r18
    56aa:	3f 93       	push	r19
    56ac:	4f 93       	push	r20
    56ae:	5f 93       	push	r21
    56b0:	6f 93       	push	r22
    56b2:	7f 93       	push	r23
    56b4:	8f 93       	push	r24
    56b6:	9f 93       	push	r25
    56b8:	af 93       	push	r26
    56ba:	bf 93       	push	r27
    56bc:	ef 93       	push	r30
    56be:	ff 93       	push	r31
    56c0:	cf 93       	push	r28
    56c2:	df 93       	push	r29
    56c4:	00 d0       	rcall	.+0      	; 0x56c6 <__vector_10+0x2a>
    56c6:	cd b7       	in	r28, 0x3d	; 61
    56c8:	de b7       	in	r29, 0x3e	; 62
	static uint8_t time_cnt = 0;
	int16_t temp_differ = 0;
    56ca:	1a 82       	std	Y+2, r1	; 0x02
    56cc:	19 82       	std	Y+1, r1	; 0x01

	EN_INTERRUPT;
    56ce:	8f e5       	ldi	r24, 0x5F	; 95
    56d0:	90 e0       	ldi	r25, 0x00	; 0
    56d2:	2f e5       	ldi	r18, 0x5F	; 95
    56d4:	30 e0       	ldi	r19, 0x00	; 0
    56d6:	d9 01       	movw	r26, r18
    56d8:	2c 91       	ld	r18, X
    56da:	20 68       	ori	r18, 0x80	; 128
    56dc:	fc 01       	movw	r30, r24
    56de:	20 83       	st	Z, r18
	TCNT2 = 0xB2;
    56e0:	84 e4       	ldi	r24, 0x44	; 68
    56e2:	90 e0       	ldi	r25, 0x00	; 0
    56e4:	22 eb       	ldi	r18, 0xB2	; 178
    56e6:	dc 01       	movw	r26, r24
    56e8:	2c 93       	st	X, r18

	// temp_differ = (run_temp[curve_page_num] - set_temp[curve_page_num]) + 100;

	/*   run_temp[] set_temp[]  */
	temp_differ = (run_temp[curve_page_num]
    56ea:	80 91 a0 01 	lds	r24, 0x01A0	; 0x8001a0 <curve_page_num>
    56ee:	08 2e       	mov	r0, r24
    56f0:	00 0c       	add	r0, r0
    56f2:	99 0b       	sbc	r25, r25
    56f4:	88 0f       	add	r24, r24
    56f6:	99 1f       	adc	r25, r25
    56f8:	8f 50       	subi	r24, 0x0F	; 15
    56fa:	9e 4f       	sbci	r25, 0xFE	; 254
    56fc:	fc 01       	movw	r30, r24
    56fe:	80 81       	ld	r24, Z
    5700:	91 81       	ldd	r25, Z+1	; 0x01
				+ temp_unit * (run_temp[curve_page_num] * 8 / 10 + 32))
    5702:	fc 01       	movw	r30, r24
    5704:	80 91 a0 01 	lds	r24, 0x01A0	; 0x8001a0 <curve_page_num>
    5708:	08 2e       	mov	r0, r24
    570a:	00 0c       	add	r0, r0
    570c:	99 0b       	sbc	r25, r25
    570e:	88 0f       	add	r24, r24
    5710:	99 1f       	adc	r25, r25
    5712:	8f 50       	subi	r24, 0x0F	; 15
    5714:	9e 4f       	sbci	r25, 0xFE	; 254
    5716:	dc 01       	movw	r26, r24
    5718:	8d 91       	ld	r24, X+
    571a:	9c 91       	ld	r25, X
    571c:	88 0f       	add	r24, r24
    571e:	99 1f       	adc	r25, r25
    5720:	88 0f       	add	r24, r24
    5722:	99 1f       	adc	r25, r25
    5724:	88 0f       	add	r24, r24
    5726:	99 1f       	adc	r25, r25
    5728:	2a e0       	ldi	r18, 0x0A	; 10
    572a:	30 e0       	ldi	r19, 0x00	; 0
    572c:	b9 01       	movw	r22, r18
    572e:	0e 94 a1 37 	call	0x6f42	; 0x6f42 <__divmodhi4>
    5732:	cb 01       	movw	r24, r22
    5734:	80 96       	adiw	r24, 0x20	; 32
    5736:	ac 01       	movw	r20, r24
    5738:	20 91 b7 02 	lds	r18, 0x02B7	; 0x8002b7 <temp_unit>
    573c:	30 91 b8 02 	lds	r19, 0x02B8	; 0x8002b8 <temp_unit+0x1>
    5740:	42 9f       	mul	r20, r18
    5742:	c0 01       	movw	r24, r0
    5744:	43 9f       	mul	r20, r19
    5746:	90 0d       	add	r25, r0
    5748:	52 9f       	mul	r21, r18
    574a:	90 0d       	add	r25, r0
    574c:	11 24       	eor	r1, r1
    574e:	9f 01       	movw	r18, r30
    5750:	28 0f       	add	r18, r24
    5752:	39 1f       	adc	r19, r25
				- (set_temp[curve_page_num] + temp_unit * (set_temp[curve_page_num] * 8 / 10 + 32)) + 100;
    5754:	80 91 a0 01 	lds	r24, 0x01A0	; 0x8001a0 <curve_page_num>
    5758:	08 2e       	mov	r0, r24
    575a:	00 0c       	add	r0, r0
    575c:	99 0b       	sbc	r25, r25
    575e:	88 0f       	add	r24, r24
    5760:	99 1f       	adc	r25, r25
    5762:	84 59       	subi	r24, 0x94	; 148
    5764:	94 4f       	sbci	r25, 0xF4	; 244
    5766:	fc 01       	movw	r30, r24
    5768:	80 81       	ld	r24, Z
    576a:	91 81       	ldd	r25, Z+1	; 0x01
    576c:	fc 01       	movw	r30, r24
    576e:	80 91 a0 01 	lds	r24, 0x01A0	; 0x8001a0 <curve_page_num>
    5772:	08 2e       	mov	r0, r24
    5774:	00 0c       	add	r0, r0
    5776:	99 0b       	sbc	r25, r25
    5778:	88 0f       	add	r24, r24
    577a:	99 1f       	adc	r25, r25
    577c:	84 59       	subi	r24, 0x94	; 148
    577e:	94 4f       	sbci	r25, 0xF4	; 244
    5780:	dc 01       	movw	r26, r24
    5782:	8d 91       	ld	r24, X+
    5784:	9c 91       	ld	r25, X
    5786:	88 0f       	add	r24, r24
    5788:	99 1f       	adc	r25, r25
    578a:	88 0f       	add	r24, r24
    578c:	99 1f       	adc	r25, r25
    578e:	88 0f       	add	r24, r24
    5790:	99 1f       	adc	r25, r25
    5792:	4a e0       	ldi	r20, 0x0A	; 10
    5794:	50 e0       	ldi	r21, 0x00	; 0
    5796:	ba 01       	movw	r22, r20
    5798:	0e 94 a1 37 	call	0x6f42	; 0x6f42 <__divmodhi4>
    579c:	cb 01       	movw	r24, r22
    579e:	80 96       	adiw	r24, 0x20	; 32
    57a0:	bc 01       	movw	r22, r24
    57a2:	40 91 b7 02 	lds	r20, 0x02B7	; 0x8002b7 <temp_unit>
    57a6:	50 91 b8 02 	lds	r21, 0x02B8	; 0x8002b8 <temp_unit+0x1>
    57aa:	64 9f       	mul	r22, r20
    57ac:	c0 01       	movw	r24, r0
    57ae:	65 9f       	mul	r22, r21
    57b0:	90 0d       	add	r25, r0
    57b2:	74 9f       	mul	r23, r20
    57b4:	90 0d       	add	r25, r0
    57b6:	11 24       	eor	r1, r1
    57b8:	8e 0f       	add	r24, r30
    57ba:	9f 1f       	adc	r25, r31
    57bc:	f9 01       	movw	r30, r18
    57be:	e8 1b       	sub	r30, r24
    57c0:	f9 0b       	sbc	r31, r25
    57c2:	cf 01       	movw	r24, r30
    57c4:	8c 59       	subi	r24, 0x9C	; 156
    57c6:	9f 4f       	sbci	r25, 0xFF	; 255
	TCNT2 = 0xB2;

	// temp_differ = (run_temp[curve_page_num] - set_temp[curve_page_num]) + 100;

	/*   run_temp[] set_temp[]  */
	temp_differ = (run_temp[curve_page_num]
    57c8:	9a 83       	std	Y+2, r25	; 0x02
    57ca:	89 83       	std	Y+1, r24	; 0x01
				+ temp_unit * (run_temp[curve_page_num] * 8 / 10 + 32))
				- (set_temp[curve_page_num] + temp_unit * (set_temp[curve_page_num] * 8 / 10 + 32)) + 100;

	time_cnt++;
    57cc:	80 91 dd 02 	lds	r24, 0x02DD	; 0x8002dd <time_cnt.2264>
    57d0:	8f 5f       	subi	r24, 0xFF	; 255
    57d2:	80 93 dd 02 	sts	0x02DD, r24	; 0x8002dd <time_cnt.2264>
	if (time_cnt >= timer2_ovf)
    57d6:	90 91 dd 02 	lds	r25, 0x02DD	; 0x8002dd <time_cnt.2264>
    57da:	80 91 cb 02 	lds	r24, 0x02CB	; 0x8002cb <timer2_ovf>
    57de:	98 17       	cp	r25, r24
    57e0:	40 f0       	brcs	.+16     	; 0x57f2 <__vector_10+0x156>
	{
		time_cnt = 0;
    57e2:	10 92 dd 02 	sts	0x02DD, r1	; 0x8002dd <time_cnt.2264>
		send_to_channel(CHANNEL0, temp_differ);
    57e6:	89 81       	ldd	r24, Y+1	; 0x01
    57e8:	9a 81       	ldd	r25, Y+2	; 0x02
    57ea:	bc 01       	movw	r22, r24
    57ec:	81 e0       	ldi	r24, 0x01	; 1
    57ee:	0e 94 cf 1c 	call	0x399e	; 0x399e <send_to_channel>
	}
}
    57f2:	00 00       	nop
    57f4:	0f 90       	pop	r0
    57f6:	0f 90       	pop	r0
    57f8:	df 91       	pop	r29
    57fa:	cf 91       	pop	r28
    57fc:	ff 91       	pop	r31
    57fe:	ef 91       	pop	r30
    5800:	bf 91       	pop	r27
    5802:	af 91       	pop	r26
    5804:	9f 91       	pop	r25
    5806:	8f 91       	pop	r24
    5808:	7f 91       	pop	r23
    580a:	6f 91       	pop	r22
    580c:	5f 91       	pop	r21
    580e:	4f 91       	pop	r20
    5810:	3f 91       	pop	r19
    5812:	2f 91       	pop	r18
    5814:	0f 90       	pop	r0
    5816:	00 92 5f 00 	sts	0x005F, r0	; 0x80005f <__TEXT_REGION_LENGTH__+0x7e005f>
    581a:	0f 90       	pop	r0
    581c:	1f 90       	pop	r1
    581e:	18 95       	reti

00005820 <__vector_26>:

/*IOusart*/
ISR(TIMER3_COMPA_vect)
{
    5820:	1f 92       	push	r1
    5822:	0f 92       	push	r0
    5824:	00 90 5f 00 	lds	r0, 0x005F	; 0x80005f <__TEXT_REGION_LENGTH__+0x7e005f>
    5828:	0f 92       	push	r0
    582a:	11 24       	eor	r1, r1
    582c:	2f 93       	push	r18
    582e:	3f 93       	push	r19
    5830:	4f 93       	push	r20
    5832:	5f 93       	push	r21
    5834:	8f 93       	push	r24
    5836:	9f 93       	push	r25
    5838:	ef 93       	push	r30
    583a:	ff 93       	push	r31
    583c:	cf 93       	push	r28
    583e:	df 93       	push	r29
    5840:	cd b7       	in	r28, 0x3d	; 61
    5842:	de b7       	in	r29, 0x3e	; 62
	static uint8_t cnt = 0;
	static uint8_t pos = 0; //BIt 

	cnt++;
    5844:	80 91 de 02 	lds	r24, 0x02DE	; 0x8002de <cnt.2271>
    5848:	8f 5f       	subi	r24, 0xFF	; 255
    584a:	80 93 de 02 	sts	0x02DE, r24	; 0x8002de <cnt.2271>

	if (usart2_sta == USART2_IN_TX)
    584e:	80 91 e0 0b 	lds	r24, 0x0BE0	; 0x800be0 <usart2_sta>
    5852:	88 23       	and	r24, r24
    5854:	09 f0       	breq	.+2      	; 0x5858 <__vector_26+0x38>
    5856:	59 c0       	rjmp	.+178    	; 0x590a <__vector_26+0xea>
	{
		if (cnt <= 8)
    5858:	80 91 de 02 	lds	r24, 0x02DE	; 0x8002de <cnt.2271>
    585c:	89 30       	cpi	r24, 0x09	; 9
    585e:	a0 f5       	brcc	.+104    	; 0x58c8 <__vector_26+0xa8>
		{
			if (((usart2_buff & (1 << pos)) >> pos) == 1)
    5860:	80 91 ce 06 	lds	r24, 0x06CE	; 0x8006ce <usart2_buff>
    5864:	28 2f       	mov	r18, r24
    5866:	30 e0       	ldi	r19, 0x00	; 0
    5868:	80 91 df 02 	lds	r24, 0x02DF	; 0x8002df <pos.2272>
    586c:	48 2f       	mov	r20, r24
    586e:	50 e0       	ldi	r21, 0x00	; 0
    5870:	81 e0       	ldi	r24, 0x01	; 1
    5872:	90 e0       	ldi	r25, 0x00	; 0
    5874:	02 c0       	rjmp	.+4      	; 0x587a <__vector_26+0x5a>
    5876:	88 0f       	add	r24, r24
    5878:	99 1f       	adc	r25, r25
    587a:	4a 95       	dec	r20
    587c:	e2 f7       	brpl	.-8      	; 0x5876 <__vector_26+0x56>
    587e:	82 23       	and	r24, r18
    5880:	93 23       	and	r25, r19
    5882:	20 91 df 02 	lds	r18, 0x02DF	; 0x8002df <pos.2272>
    5886:	22 2f       	mov	r18, r18
    5888:	30 e0       	ldi	r19, 0x00	; 0
    588a:	02 c0       	rjmp	.+4      	; 0x5890 <__vector_26+0x70>
    588c:	95 95       	asr	r25
    588e:	87 95       	ror	r24
    5890:	2a 95       	dec	r18
    5892:	e2 f7       	brpl	.-8      	; 0x588c <__vector_26+0x6c>
    5894:	01 97       	sbiw	r24, 0x01	; 1
    5896:	51 f4       	brne	.+20     	; 0x58ac <__vector_26+0x8c>
			{
				USART2_TX_PIN_SET;
    5898:	85 e3       	ldi	r24, 0x35	; 53
    589a:	90 e0       	ldi	r25, 0x00	; 0
    589c:	25 e3       	ldi	r18, 0x35	; 53
    589e:	30 e0       	ldi	r19, 0x00	; 0
    58a0:	f9 01       	movw	r30, r18
    58a2:	20 81       	ld	r18, Z
    58a4:	20 68       	ori	r18, 0x80	; 128
    58a6:	fc 01       	movw	r30, r24
    58a8:	20 83       	st	Z, r18
    58aa:	09 c0       	rjmp	.+18     	; 0x58be <__vector_26+0x9e>
			}
			else
			{
				USART2_TX_PIN_RESET;
    58ac:	85 e3       	ldi	r24, 0x35	; 53
    58ae:	90 e0       	ldi	r25, 0x00	; 0
    58b0:	25 e3       	ldi	r18, 0x35	; 53
    58b2:	30 e0       	ldi	r19, 0x00	; 0
    58b4:	f9 01       	movw	r30, r18
    58b6:	20 81       	ld	r18, Z
    58b8:	2f 77       	andi	r18, 0x7F	; 127
    58ba:	fc 01       	movw	r30, r24
    58bc:	20 83       	st	Z, r18
			}
			pos++;
    58be:	80 91 df 02 	lds	r24, 0x02DF	; 0x8002df <pos.2272>
    58c2:	8f 5f       	subi	r24, 0xFF	; 255
    58c4:	80 93 df 02 	sts	0x02DF, r24	; 0x8002df <pos.2272>
		}

		if (cnt == 9)
    58c8:	80 91 de 02 	lds	r24, 0x02DE	; 0x8002de <cnt.2271>
    58cc:	89 30       	cpi	r24, 0x09	; 9
    58ce:	59 f4       	brne	.+22     	; 0x58e6 <__vector_26+0xc6>
		{
			pos = 0;		   //1
    58d0:	10 92 df 02 	sts	0x02DF, r1	; 0x8002df <pos.2272>
			USART2_TX_PIN_SET; //
    58d4:	85 e3       	ldi	r24, 0x35	; 53
    58d6:	90 e0       	ldi	r25, 0x00	; 0
    58d8:	25 e3       	ldi	r18, 0x35	; 53
    58da:	30 e0       	ldi	r19, 0x00	; 0
    58dc:	f9 01       	movw	r30, r18
    58de:	20 81       	ld	r18, Z
    58e0:	20 68       	ori	r18, 0x80	; 128
    58e2:	fc 01       	movw	r30, r24
    58e4:	20 83       	st	Z, r18
		}

		if (cnt == 10)
    58e6:	80 91 de 02 	lds	r24, 0x02DE	; 0x8002de <cnt.2271>
    58ea:	8a 30       	cpi	r24, 0x0A	; 10
    58ec:	71 f4       	brne	.+28     	; 0x590a <__vector_26+0xea>
		{
			cnt = 0;
    58ee:	10 92 de 02 	sts	0x02DE, r1	; 0x8002de <cnt.2271>
			usart2_sta = USART2_TX_END; //USART2
    58f2:	83 e0       	ldi	r24, 0x03	; 3
    58f4:	80 93 e0 0b 	sts	0x0BE0, r24	; 0x800be0 <usart2_sta>
			TCCR3B &= 0xF8;				//
    58f8:	8a e8       	ldi	r24, 0x8A	; 138
    58fa:	90 e0       	ldi	r25, 0x00	; 0
    58fc:	2a e8       	ldi	r18, 0x8A	; 138
    58fe:	30 e0       	ldi	r19, 0x00	; 0
    5900:	f9 01       	movw	r30, r18
    5902:	20 81       	ld	r18, Z
    5904:	28 7f       	andi	r18, 0xF8	; 248
    5906:	fc 01       	movw	r30, r24
    5908:	20 83       	st	Z, r18
		}
	}
}
    590a:	00 00       	nop
    590c:	df 91       	pop	r29
    590e:	cf 91       	pop	r28
    5910:	ff 91       	pop	r31
    5912:	ef 91       	pop	r30
    5914:	9f 91       	pop	r25
    5916:	8f 91       	pop	r24
    5918:	5f 91       	pop	r21
    591a:	4f 91       	pop	r20
    591c:	3f 91       	pop	r19
    591e:	2f 91       	pop	r18
    5920:	0f 90       	pop	r0
    5922:	00 92 5f 00 	sts	0x005F, r0	; 0x80005f <__TEXT_REGION_LENGTH__+0x7e005f>
    5926:	0f 90       	pop	r0
    5928:	1f 90       	pop	r1
    592a:	18 95       	reti

0000592c <timer0_init>:

void timer0_init()
{
    592c:	cf 93       	push	r28
    592e:	df 93       	push	r29
    5930:	cd b7       	in	r28, 0x3d	; 61
    5932:	de b7       	in	r29, 0x3e	; 62
	TCCR0 &= 0xF8; //0
    5934:	83 e5       	ldi	r24, 0x53	; 83
    5936:	90 e0       	ldi	r25, 0x00	; 0
    5938:	23 e5       	ldi	r18, 0x53	; 83
    593a:	30 e0       	ldi	r19, 0x00	; 0
    593c:	f9 01       	movw	r30, r18
    593e:	20 81       	ld	r18, Z
    5940:	28 7f       	andi	r18, 0xF8	; 248
    5942:	fc 01       	movw	r30, r24
    5944:	20 83       	st	Z, r18

	TCNT0 = 0xB2; //5ms
    5946:	82 e5       	ldi	r24, 0x52	; 82
    5948:	90 e0       	ldi	r25, 0x00	; 0
    594a:	22 eb       	ldi	r18, 0xB2	; 178
    594c:	fc 01       	movw	r30, r24
    594e:	20 83       	st	Z, r18

	TIMSK &= 0xFC;
    5950:	87 e5       	ldi	r24, 0x57	; 87
    5952:	90 e0       	ldi	r25, 0x00	; 0
    5954:	27 e5       	ldi	r18, 0x57	; 87
    5956:	30 e0       	ldi	r19, 0x00	; 0
    5958:	f9 01       	movw	r30, r18
    595a:	20 81       	ld	r18, Z
    595c:	2c 7f       	andi	r18, 0xFC	; 252
    595e:	fc 01       	movw	r30, r24
    5960:	20 83       	st	Z, r18
	TIMSK |= 0x01; //0
    5962:	87 e5       	ldi	r24, 0x57	; 87
    5964:	90 e0       	ldi	r25, 0x00	; 0
    5966:	27 e5       	ldi	r18, 0x57	; 87
    5968:	30 e0       	ldi	r19, 0x00	; 0
    596a:	f9 01       	movw	r30, r18
    596c:	20 81       	ld	r18, Z
    596e:	21 60       	ori	r18, 0x01	; 1
    5970:	fc 01       	movw	r30, r24
    5972:	20 83       	st	Z, r18

	TCCR0 |= 0x07; //0 TOP:0xFF, OC0, clk/1024
    5974:	83 e5       	ldi	r24, 0x53	; 83
    5976:	90 e0       	ldi	r25, 0x00	; 0
    5978:	23 e5       	ldi	r18, 0x53	; 83
    597a:	30 e0       	ldi	r19, 0x00	; 0
    597c:	f9 01       	movw	r30, r18
    597e:	20 81       	ld	r18, Z
    5980:	27 60       	ori	r18, 0x07	; 7
    5982:	fc 01       	movw	r30, r24
    5984:	20 83       	st	Z, r18
}
    5986:	00 00       	nop
    5988:	df 91       	pop	r29
    598a:	cf 91       	pop	r28
    598c:	08 95       	ret

0000598e <timer1_init>:

void timer1_init()
{
    598e:	cf 93       	push	r28
    5990:	df 93       	push	r29
    5992:	cd b7       	in	r28, 0x3d	; 61
    5994:	de b7       	in	r29, 0x3e	; 62
	TCCR1B |= 0x08; //WGM121
    5996:	8e e4       	ldi	r24, 0x4E	; 78
    5998:	90 e0       	ldi	r25, 0x00	; 0
    599a:	2e e4       	ldi	r18, 0x4E	; 78
    599c:	30 e0       	ldi	r19, 0x00	; 0
    599e:	f9 01       	movw	r30, r18
    59a0:	20 81       	ld	r18, Z
    59a2:	28 60       	ori	r18, 0x08	; 8
    59a4:	fc 01       	movw	r30, r24
    59a6:	20 83       	st	Z, r18
	TCCR1B &= 0xF8; // CS10 CS11 CS12
    59a8:	8e e4       	ldi	r24, 0x4E	; 78
    59aa:	90 e0       	ldi	r25, 0x00	; 0
    59ac:	2e e4       	ldi	r18, 0x4E	; 78
    59ae:	30 e0       	ldi	r19, 0x00	; 0
    59b0:	f9 01       	movw	r30, r18
    59b2:	20 81       	ld	r18, Z
    59b4:	28 7f       	andi	r18, 0xF8	; 248
    59b6:	fc 01       	movw	r30, r24
    59b8:	20 83       	st	Z, r18

	OCR1AH = 0x09; //10ms
    59ba:	8b e4       	ldi	r24, 0x4B	; 75
    59bc:	90 e0       	ldi	r25, 0x00	; 0
    59be:	29 e0       	ldi	r18, 0x09	; 9
    59c0:	fc 01       	movw	r30, r24
    59c2:	20 83       	st	Z, r18
	OCR1AL = 0xC4;
    59c4:	8a e4       	ldi	r24, 0x4A	; 74
    59c6:	90 e0       	ldi	r25, 0x00	; 0
    59c8:	24 ec       	ldi	r18, 0xC4	; 196
    59ca:	fc 01       	movw	r30, r24
    59cc:	20 83       	st	Z, r18

	TIMSK |= 0x10; //1 A
    59ce:	87 e5       	ldi	r24, 0x57	; 87
    59d0:	90 e0       	ldi	r25, 0x00	; 0
    59d2:	27 e5       	ldi	r18, 0x57	; 87
    59d4:	30 e0       	ldi	r19, 0x00	; 0
    59d6:	f9 01       	movw	r30, r18
    59d8:	20 81       	ld	r18, Z
    59da:	20 61       	ori	r18, 0x10	; 16
    59dc:	fc 01       	movw	r30, r24
    59de:	20 83       	st	Z, r18

	TCCR1B |= 0x03; //1 CTC top:OCR1A, OC1A OC1B OC1C DISCONNECT,CLK/64
    59e0:	8e e4       	ldi	r24, 0x4E	; 78
    59e2:	90 e0       	ldi	r25, 0x00	; 0
    59e4:	2e e4       	ldi	r18, 0x4E	; 78
    59e6:	30 e0       	ldi	r19, 0x00	; 0
    59e8:	f9 01       	movw	r30, r18
    59ea:	20 81       	ld	r18, Z
    59ec:	23 60       	ori	r18, 0x03	; 3
    59ee:	fc 01       	movw	r30, r24
    59f0:	20 83       	st	Z, r18
}
    59f2:	00 00       	nop
    59f4:	df 91       	pop	r29
    59f6:	cf 91       	pop	r28
    59f8:	08 95       	ret

000059fa <timer2_init>:

void timer2_init()
{
    59fa:	cf 93       	push	r28
    59fc:	df 93       	push	r29
    59fe:	cd b7       	in	r28, 0x3d	; 61
    5a00:	de b7       	in	r29, 0x3e	; 62
	TCCR2 &= 0xF8; //
    5a02:	85 e4       	ldi	r24, 0x45	; 69
    5a04:	90 e0       	ldi	r25, 0x00	; 0
    5a06:	25 e4       	ldi	r18, 0x45	; 69
    5a08:	30 e0       	ldi	r19, 0x00	; 0
    5a0a:	f9 01       	movw	r30, r18
    5a0c:	20 81       	ld	r18, Z
    5a0e:	28 7f       	andi	r18, 0xF8	; 248
    5a10:	fc 01       	movw	r30, r24
    5a12:	20 83       	st	Z, r18

	TCNT2 = 0xB2; //5ms
    5a14:	84 e4       	ldi	r24, 0x44	; 68
    5a16:	90 e0       	ldi	r25, 0x00	; 0
    5a18:	22 eb       	ldi	r18, 0xB2	; 178
    5a1a:	fc 01       	movw	r30, r24
    5a1c:	20 83       	st	Z, r18

	TIMSK &= 0x3F;
    5a1e:	87 e5       	ldi	r24, 0x57	; 87
    5a20:	90 e0       	ldi	r25, 0x00	; 0
    5a22:	27 e5       	ldi	r18, 0x57	; 87
    5a24:	30 e0       	ldi	r19, 0x00	; 0
    5a26:	f9 01       	movw	r30, r18
    5a28:	20 81       	ld	r18, Z
    5a2a:	2f 73       	andi	r18, 0x3F	; 63
    5a2c:	fc 01       	movw	r30, r24
    5a2e:	20 83       	st	Z, r18
	TIMSK |= 0x40; //2
    5a30:	87 e5       	ldi	r24, 0x57	; 87
    5a32:	90 e0       	ldi	r25, 0x00	; 0
    5a34:	27 e5       	ldi	r18, 0x57	; 87
    5a36:	30 e0       	ldi	r19, 0x00	; 0
    5a38:	f9 01       	movw	r30, r18
    5a3a:	20 81       	ld	r18, Z
    5a3c:	20 64       	ori	r18, 0x40	; 64
    5a3e:	fc 01       	movw	r30, r24
    5a40:	20 83       	st	Z, r18

	TCCR2 |= 0x05; //2 TOP:0xFF, OC0, clk/1024
    5a42:	85 e4       	ldi	r24, 0x45	; 69
    5a44:	90 e0       	ldi	r25, 0x00	; 0
    5a46:	25 e4       	ldi	r18, 0x45	; 69
    5a48:	30 e0       	ldi	r19, 0x00	; 0
    5a4a:	f9 01       	movw	r30, r18
    5a4c:	20 81       	ld	r18, Z
    5a4e:	25 60       	ori	r18, 0x05	; 5
    5a50:	fc 01       	movw	r30, r24
    5a52:	20 83       	st	Z, r18
	TCCR2 &= 0xF8;
    5a54:	85 e4       	ldi	r24, 0x45	; 69
    5a56:	90 e0       	ldi	r25, 0x00	; 0
    5a58:	25 e4       	ldi	r18, 0x45	; 69
    5a5a:	30 e0       	ldi	r19, 0x00	; 0
    5a5c:	f9 01       	movw	r30, r18
    5a5e:	20 81       	ld	r18, Z
    5a60:	28 7f       	andi	r18, 0xF8	; 248
    5a62:	fc 01       	movw	r30, r24
    5a64:	20 83       	st	Z, r18
}
    5a66:	00 00       	nop
    5a68:	df 91       	pop	r29
    5a6a:	cf 91       	pop	r28
    5a6c:	08 95       	ret

00005a6e <twi_start>:
#include "twi.h"

/* 0 1*/
uint8_t twi_start()
{
    5a6e:	cf 93       	push	r28
    5a70:	df 93       	push	r29
    5a72:	1f 92       	push	r1
    5a74:	cd b7       	in	r28, 0x3d	; 61
    5a76:	de b7       	in	r29, 0x3e	; 62
	uint8_t cnt = 0;
    5a78:	19 82       	std	Y+1, r1	; 0x01
    TWCR = (1 << TWINT) | (1 << TWSTA) | (1 << TWEN); //
    5a7a:	84 e7       	ldi	r24, 0x74	; 116
    5a7c:	90 e0       	ldi	r25, 0x00	; 0
    5a7e:	24 ea       	ldi	r18, 0xA4	; 164
    5a80:	fc 01       	movw	r30, r24
    5a82:	20 83       	st	Z, r18
    while (!(TWCR & (1 << TWINT)))
    5a84:	08 c0       	rjmp	.+16     	; 0x5a96 <twi_start+0x28>
	{
		if(++cnt > 200)
    5a86:	89 81       	ldd	r24, Y+1	; 0x01
    5a88:	8f 5f       	subi	r24, 0xFF	; 255
    5a8a:	89 83       	std	Y+1, r24	; 0x01
    5a8c:	89 81       	ldd	r24, Y+1	; 0x01
    5a8e:	89 3c       	cpi	r24, 0xC9	; 201
    5a90:	10 f0       	brcs	.+4      	; 0x5a96 <twi_start+0x28>
		{
			return 0;
    5a92:	80 e0       	ldi	r24, 0x00	; 0
    5a94:	1d c0       	rjmp	.+58     	; 0x5ad0 <twi_start+0x62>
/* 0 1*/
uint8_t twi_start()
{
	uint8_t cnt = 0;
    TWCR = (1 << TWINT) | (1 << TWSTA) | (1 << TWEN); //
    while (!(TWCR & (1 << TWINT)))
    5a96:	84 e7       	ldi	r24, 0x74	; 116
    5a98:	90 e0       	ldi	r25, 0x00	; 0
    5a9a:	fc 01       	movw	r30, r24
    5a9c:	80 81       	ld	r24, Z
    5a9e:	88 23       	and	r24, r24
    5aa0:	94 f7       	brge	.-28     	; 0x5a86 <twi_start+0x18>
		if(++cnt > 200)
		{
			return 0;
		}	
	}		 //TWINT  START
    if ((TWSR & 0xF8) == START || (TWSR & 0xF8) == REP_START)
    5aa2:	81 e7       	ldi	r24, 0x71	; 113
    5aa4:	90 e0       	ldi	r25, 0x00	; 0
    5aa6:	fc 01       	movw	r30, r24
    5aa8:	80 81       	ld	r24, Z
    5aaa:	88 2f       	mov	r24, r24
    5aac:	90 e0       	ldi	r25, 0x00	; 0
    5aae:	88 7f       	andi	r24, 0xF8	; 248
    5ab0:	99 27       	eor	r25, r25
    5ab2:	08 97       	sbiw	r24, 0x08	; 8
    5ab4:	51 f0       	breq	.+20     	; 0x5aca <twi_start+0x5c>
    5ab6:	81 e7       	ldi	r24, 0x71	; 113
    5ab8:	90 e0       	ldi	r25, 0x00	; 0
    5aba:	fc 01       	movw	r30, r24
    5abc:	80 81       	ld	r24, Z
    5abe:	88 2f       	mov	r24, r24
    5ac0:	90 e0       	ldi	r25, 0x00	; 0
    5ac2:	88 7f       	andi	r24, 0xF8	; 248
    5ac4:	99 27       	eor	r25, r25
    5ac6:	40 97       	sbiw	r24, 0x10	; 16
    5ac8:	11 f4       	brne	.+4      	; 0x5ace <twi_start+0x60>
        return 1;
    5aca:	81 e0       	ldi	r24, 0x01	; 1
    5acc:	01 c0       	rjmp	.+2      	; 0x5ad0 <twi_start+0x62>

    return 0;
    5ace:	80 e0       	ldi	r24, 0x00	; 0
}
    5ad0:	0f 90       	pop	r0
    5ad2:	df 91       	pop	r29
    5ad4:	cf 91       	pop	r28
    5ad6:	08 95       	ret

00005ad8 <twi_stop>:
/*  */
void twi_stop()
{
    5ad8:	cf 93       	push	r28
    5ada:	df 93       	push	r29
    5adc:	cd b7       	in	r28, 0x3d	; 61
    5ade:	de b7       	in	r29, 0x3e	; 62
    TWCR = (1 << TWINT) | (1 << TWEN) | (1 << TWSTO);
    5ae0:	84 e7       	ldi	r24, 0x74	; 116
    5ae2:	90 e0       	ldi	r25, 0x00	; 0
    5ae4:	24 e9       	ldi	r18, 0x94	; 148
    5ae6:	fc 01       	movw	r30, r24
    5ae8:	20 83       	st	Z, r18
}
    5aea:	00 00       	nop
    5aec:	df 91       	pop	r29
    5aee:	cf 91       	pop	r28
    5af0:	08 95       	ret

00005af2 <twi_adrsing>:

/*  0 1*/
uint8_t twi_adrsing(uint8_t addr, uint8_t rw)
{
    5af2:	cf 93       	push	r28
    5af4:	df 93       	push	r29
    5af6:	00 d0       	rcall	.+0      	; 0x5af8 <twi_adrsing+0x6>
    5af8:	00 d0       	rcall	.+0      	; 0x5afa <twi_adrsing+0x8>
    5afa:	cd b7       	in	r28, 0x3d	; 61
    5afc:	de b7       	in	r29, 0x3e	; 62
    5afe:	8b 83       	std	Y+3, r24	; 0x03
    5b00:	6c 83       	std	Y+4, r22	; 0x04
    uint8_t data;
	uint8_t cnt = 0;
    5b02:	19 82       	std	Y+1, r1	; 0x01
	
    data = (addr << 1) | rw;
    5b04:	8b 81       	ldd	r24, Y+3	; 0x03
    5b06:	88 2f       	mov	r24, r24
    5b08:	90 e0       	ldi	r25, 0x00	; 0
    5b0a:	88 0f       	add	r24, r24
    5b0c:	99 1f       	adc	r25, r25
    5b0e:	98 2f       	mov	r25, r24
    5b10:	8c 81       	ldd	r24, Y+4	; 0x04
    5b12:	89 2b       	or	r24, r25
    5b14:	8a 83       	std	Y+2, r24	; 0x02

    TWDR = data;
    5b16:	83 e7       	ldi	r24, 0x73	; 115
    5b18:	90 e0       	ldi	r25, 0x00	; 0
    5b1a:	2a 81       	ldd	r18, Y+2	; 0x02
    5b1c:	fc 01       	movw	r30, r24
    5b1e:	20 83       	st	Z, r18
    TWCR = (1 << TWINT) | (1 << TWEN); //TWDR    TWINT
    5b20:	84 e7       	ldi	r24, 0x74	; 116
    5b22:	90 e0       	ldi	r25, 0x00	; 0
    5b24:	24 e8       	ldi	r18, 0x84	; 132
    5b26:	fc 01       	movw	r30, r24
    5b28:	20 83       	st	Z, r18

    while (!(TWCR & (1 << TWINT)))
    5b2a:	08 c0       	rjmp	.+16     	; 0x5b3c <twi_adrsing+0x4a>
	{
		if(++cnt > 200)
    5b2c:	89 81       	ldd	r24, Y+1	; 0x01
    5b2e:	8f 5f       	subi	r24, 0xFF	; 255
    5b30:	89 83       	std	Y+1, r24	; 0x01
    5b32:	89 81       	ldd	r24, Y+1	; 0x01
    5b34:	89 3c       	cpi	r24, 0xC9	; 201
    5b36:	10 f0       	brcs	.+4      	; 0x5b3c <twi_adrsing+0x4a>
		{
			return 0;
    5b38:	80 e0       	ldi	r24, 0x00	; 0
    5b3a:	1e c0       	rjmp	.+60     	; 0x5b78 <twi_adrsing+0x86>
    data = (addr << 1) | rw;

    TWDR = data;
    TWCR = (1 << TWINT) | (1 << TWEN); //TWDR    TWINT

    while (!(TWCR & (1 << TWINT)))
    5b3c:	84 e7       	ldi	r24, 0x74	; 116
    5b3e:	90 e0       	ldi	r25, 0x00	; 0
    5b40:	fc 01       	movw	r30, r24
    5b42:	80 81       	ld	r24, Z
    5b44:	88 23       	and	r24, r24
    5b46:	94 f7       	brge	.-28     	; 0x5b2c <twi_adrsing+0x3a>
		if(++cnt > 200)
		{
			return 0;
		}	
	} //TWINT   
    if ((TWSR & 0xF8) == MT_SLA_ACK || (TWSR & 0xF8) == MR_SLA_ACK)
    5b48:	81 e7       	ldi	r24, 0x71	; 113
    5b4a:	90 e0       	ldi	r25, 0x00	; 0
    5b4c:	fc 01       	movw	r30, r24
    5b4e:	80 81       	ld	r24, Z
    5b50:	88 2f       	mov	r24, r24
    5b52:	90 e0       	ldi	r25, 0x00	; 0
    5b54:	88 7f       	andi	r24, 0xF8	; 248
    5b56:	99 27       	eor	r25, r25
    5b58:	48 97       	sbiw	r24, 0x18	; 24
    5b5a:	59 f0       	breq	.+22     	; 0x5b72 <twi_adrsing+0x80>
    5b5c:	81 e7       	ldi	r24, 0x71	; 113
    5b5e:	90 e0       	ldi	r25, 0x00	; 0
    5b60:	fc 01       	movw	r30, r24
    5b62:	80 81       	ld	r24, Z
    5b64:	88 2f       	mov	r24, r24
    5b66:	90 e0       	ldi	r25, 0x00	; 0
    5b68:	88 7f       	andi	r24, 0xF8	; 248
    5b6a:	99 27       	eor	r25, r25
    5b6c:	80 34       	cpi	r24, 0x40	; 64
    5b6e:	91 05       	cpc	r25, r1
    5b70:	11 f4       	brne	.+4      	; 0x5b76 <twi_adrsing+0x84>
        return 1; // MT_SLA_ACK  MR_SLA_ACK 
    5b72:	81 e0       	ldi	r24, 0x01	; 1
    5b74:	01 c0       	rjmp	.+2      	; 0x5b78 <twi_adrsing+0x86>

    return 0;
    5b76:	80 e0       	ldi	r24, 0x00	; 0
}
    5b78:	0f 90       	pop	r0
    5b7a:	0f 90       	pop	r0
    5b7c:	0f 90       	pop	r0
    5b7e:	0f 90       	pop	r0
    5b80:	df 91       	pop	r29
    5b82:	cf 91       	pop	r28
    5b84:	08 95       	ret

00005b86 <twi_write_byte>:

/* 0 1*/
uint8_t twi_write_byte(uint8_t data)
{
    5b86:	cf 93       	push	r28
    5b88:	df 93       	push	r29
    5b8a:	00 d0       	rcall	.+0      	; 0x5b8c <twi_write_byte+0x6>
    5b8c:	cd b7       	in	r28, 0x3d	; 61
    5b8e:	de b7       	in	r29, 0x3e	; 62
    5b90:	8a 83       	std	Y+2, r24	; 0x02
	uint8_t cnt = 0;
    5b92:	19 82       	std	Y+1, r1	; 0x01
	
    TWDR = data;
    5b94:	83 e7       	ldi	r24, 0x73	; 115
    5b96:	90 e0       	ldi	r25, 0x00	; 0
    5b98:	2a 81       	ldd	r18, Y+2	; 0x02
    5b9a:	fc 01       	movw	r30, r24
    5b9c:	20 83       	st	Z, r18

    TWCR = (1 << TWINT) | (1 << TWEN); //TWDR    TWINT
    5b9e:	84 e7       	ldi	r24, 0x74	; 116
    5ba0:	90 e0       	ldi	r25, 0x00	; 0
    5ba2:	24 e8       	ldi	r18, 0x84	; 132
    5ba4:	fc 01       	movw	r30, r24
    5ba6:	20 83       	st	Z, r18

    while (!(TWCR & (1 << TWINT)))
    5ba8:	08 c0       	rjmp	.+16     	; 0x5bba <twi_write_byte+0x34>
    {
		if(++cnt > 200)
    5baa:	89 81       	ldd	r24, Y+1	; 0x01
    5bac:	8f 5f       	subi	r24, 0xFF	; 255
    5bae:	89 83       	std	Y+1, r24	; 0x01
    5bb0:	89 81       	ldd	r24, Y+1	; 0x01
    5bb2:	89 3c       	cpi	r24, 0xC9	; 201
    5bb4:	10 f0       	brcs	.+4      	; 0x5bba <twi_write_byte+0x34>
		{
			return 0;
    5bb6:	80 e0       	ldi	r24, 0x00	; 0
    5bb8:	13 c0       	rjmp	.+38     	; 0x5be0 <twi_write_byte+0x5a>
	
    TWDR = data;

    TWCR = (1 << TWINT) | (1 << TWEN); //TWDR    TWINT

    while (!(TWCR & (1 << TWINT)))
    5bba:	84 e7       	ldi	r24, 0x74	; 116
    5bbc:	90 e0       	ldi	r25, 0x00	; 0
    5bbe:	fc 01       	movw	r30, r24
    5bc0:	80 81       	ld	r24, Z
    5bc2:	88 23       	and	r24, r24
    5bc4:	94 f7       	brge	.-28     	; 0x5baa <twi_write_byte+0x24>
		if(++cnt > 200)
		{
			return 0;
		}	
	} //TWINT   
    if ((TWSR & 0xF8) == MT_DATA_ACK)
    5bc6:	81 e7       	ldi	r24, 0x71	; 113
    5bc8:	90 e0       	ldi	r25, 0x00	; 0
    5bca:	fc 01       	movw	r30, r24
    5bcc:	80 81       	ld	r24, Z
    5bce:	88 2f       	mov	r24, r24
    5bd0:	90 e0       	ldi	r25, 0x00	; 0
    5bd2:	88 7f       	andi	r24, 0xF8	; 248
    5bd4:	99 27       	eor	r25, r25
    5bd6:	88 97       	sbiw	r24, 0x28	; 40
    5bd8:	11 f4       	brne	.+4      	; 0x5bde <twi_write_byte+0x58>
        return 1;
    5bda:	81 e0       	ldi	r24, 0x01	; 1
    5bdc:	01 c0       	rjmp	.+2      	; 0x5be0 <twi_write_byte+0x5a>

    return 0;
    5bde:	80 e0       	ldi	r24, 0x00	; 0
}
    5be0:	0f 90       	pop	r0
    5be2:	0f 90       	pop	r0
    5be4:	df 91       	pop	r29
    5be6:	cf 91       	pop	r28
    5be8:	08 95       	ret

00005bea <twi_read_byte>:

// 0-255 0xFFFF  0  1:
uint16_t twi_read_byte(uint8_t ack)
{
    5bea:	cf 93       	push	r28
    5bec:	df 93       	push	r29
    5bee:	00 d0       	rcall	.+0      	; 0x5bf0 <twi_read_byte+0x6>
    5bf0:	cd b7       	in	r28, 0x3d	; 61
    5bf2:	de b7       	in	r29, 0x3e	; 62
    5bf4:	8a 83       	std	Y+2, r24	; 0x02
	uint8_t cnt = 0;
    5bf6:	19 82       	std	Y+1, r1	; 0x01
	
    if (ack)
    5bf8:	8a 81       	ldd	r24, Y+2	; 0x02
    5bfa:	88 23       	and	r24, r24
    5bfc:	39 f1       	breq	.+78     	; 0x5c4c <twi_read_byte+0x62>
    {
        TWCR = (1 << TWINT) | (1 << TWEN) | (1 << TWEA);
    5bfe:	84 e7       	ldi	r24, 0x74	; 116
    5c00:	90 e0       	ldi	r25, 0x00	; 0
    5c02:	24 ec       	ldi	r18, 0xC4	; 196
    5c04:	fc 01       	movw	r30, r24
    5c06:	20 83       	st	Z, r18
        while(!(TWCR & (1 << TWINT)))
    5c08:	09 c0       	rjmp	.+18     	; 0x5c1c <twi_read_byte+0x32>
		{
			if(++cnt > 200)
    5c0a:	89 81       	ldd	r24, Y+1	; 0x01
    5c0c:	8f 5f       	subi	r24, 0xFF	; 255
    5c0e:	89 83       	std	Y+1, r24	; 0x01
    5c10:	89 81       	ldd	r24, Y+1	; 0x01
    5c12:	89 3c       	cpi	r24, 0xC9	; 201
    5c14:	18 f0       	brcs	.+6      	; 0x5c1c <twi_read_byte+0x32>
			{
				return 0xFFFF;
    5c16:	8f ef       	ldi	r24, 0xFF	; 255
    5c18:	9f ef       	ldi	r25, 0xFF	; 255
    5c1a:	41 c0       	rjmp	.+130    	; 0x5c9e <twi_read_byte+0xb4>
	uint8_t cnt = 0;
	
    if (ack)
    {
        TWCR = (1 << TWINT) | (1 << TWEN) | (1 << TWEA);
        while(!(TWCR & (1 << TWINT)))
    5c1c:	84 e7       	ldi	r24, 0x74	; 116
    5c1e:	90 e0       	ldi	r25, 0x00	; 0
    5c20:	fc 01       	movw	r30, r24
    5c22:	80 81       	ld	r24, Z
    5c24:	88 23       	and	r24, r24
    5c26:	8c f7       	brge	.-30     	; 0x5c0a <twi_read_byte+0x20>
			if(++cnt > 200)
			{
				return 0xFFFF;
			}
		}
        if((TWSR & 0xF8) == MR_DATA_ACK)
    5c28:	81 e7       	ldi	r24, 0x71	; 113
    5c2a:	90 e0       	ldi	r25, 0x00	; 0
    5c2c:	fc 01       	movw	r30, r24
    5c2e:	80 81       	ld	r24, Z
    5c30:	88 2f       	mov	r24, r24
    5c32:	90 e0       	ldi	r25, 0x00	; 0
    5c34:	88 7f       	andi	r24, 0xF8	; 248
    5c36:	99 27       	eor	r25, r25
    5c38:	80 35       	cpi	r24, 0x50	; 80
    5c3a:	91 05       	cpc	r25, r1
    5c3c:	71 f5       	brne	.+92     	; 0x5c9a <twi_read_byte+0xb0>
            return TWDR;
    5c3e:	83 e7       	ldi	r24, 0x73	; 115
    5c40:	90 e0       	ldi	r25, 0x00	; 0
    5c42:	fc 01       	movw	r30, r24
    5c44:	80 81       	ld	r24, Z
    5c46:	88 2f       	mov	r24, r24
    5c48:	90 e0       	ldi	r25, 0x00	; 0
    5c4a:	29 c0       	rjmp	.+82     	; 0x5c9e <twi_read_byte+0xb4>
    }
    else
    {
        TWCR = (1 << TWINT) | (1 << TWEN);
    5c4c:	84 e7       	ldi	r24, 0x74	; 116
    5c4e:	90 e0       	ldi	r25, 0x00	; 0
    5c50:	24 e8       	ldi	r18, 0x84	; 132
    5c52:	fc 01       	movw	r30, r24
    5c54:	20 83       	st	Z, r18
        while(!(TWCR & (1 << TWINT)))
    5c56:	09 c0       	rjmp	.+18     	; 0x5c6a <twi_read_byte+0x80>
		{
			if(++cnt > 200)
    5c58:	89 81       	ldd	r24, Y+1	; 0x01
    5c5a:	8f 5f       	subi	r24, 0xFF	; 255
    5c5c:	89 83       	std	Y+1, r24	; 0x01
    5c5e:	89 81       	ldd	r24, Y+1	; 0x01
    5c60:	89 3c       	cpi	r24, 0xC9	; 201
    5c62:	18 f0       	brcs	.+6      	; 0x5c6a <twi_read_byte+0x80>
			{
				return 0xFFFF;
    5c64:	8f ef       	ldi	r24, 0xFF	; 255
    5c66:	9f ef       	ldi	r25, 0xFF	; 255
    5c68:	1a c0       	rjmp	.+52     	; 0x5c9e <twi_read_byte+0xb4>
            return TWDR;
    }
    else
    {
        TWCR = (1 << TWINT) | (1 << TWEN);
        while(!(TWCR & (1 << TWINT)))
    5c6a:	84 e7       	ldi	r24, 0x74	; 116
    5c6c:	90 e0       	ldi	r25, 0x00	; 0
    5c6e:	fc 01       	movw	r30, r24
    5c70:	80 81       	ld	r24, Z
    5c72:	88 23       	and	r24, r24
    5c74:	8c f7       	brge	.-30     	; 0x5c58 <twi_read_byte+0x6e>
			if(++cnt > 200)
			{
				return 0xFFFF;
			}
		}
        if((TWSR & 0xF8) == MR_DATA_NACK)
    5c76:	81 e7       	ldi	r24, 0x71	; 113
    5c78:	90 e0       	ldi	r25, 0x00	; 0
    5c7a:	fc 01       	movw	r30, r24
    5c7c:	80 81       	ld	r24, Z
    5c7e:	88 2f       	mov	r24, r24
    5c80:	90 e0       	ldi	r25, 0x00	; 0
    5c82:	88 7f       	andi	r24, 0xF8	; 248
    5c84:	99 27       	eor	r25, r25
    5c86:	88 35       	cpi	r24, 0x58	; 88
    5c88:	91 05       	cpc	r25, r1
    5c8a:	39 f4       	brne	.+14     	; 0x5c9a <twi_read_byte+0xb0>
            return TWDR;        
    5c8c:	83 e7       	ldi	r24, 0x73	; 115
    5c8e:	90 e0       	ldi	r25, 0x00	; 0
    5c90:	fc 01       	movw	r30, r24
    5c92:	80 81       	ld	r24, Z
    5c94:	88 2f       	mov	r24, r24
    5c96:	90 e0       	ldi	r25, 0x00	; 0
    5c98:	02 c0       	rjmp	.+4      	; 0x5c9e <twi_read_byte+0xb4>
    }

    return 0xFFFF;
    5c9a:	8f ef       	ldi	r24, 0xFF	; 255
    5c9c:	9f ef       	ldi	r25, 0xFF	; 255
}
    5c9e:	0f 90       	pop	r0
    5ca0:	0f 90       	pop	r0
    5ca2:	df 91       	pop	r29
    5ca4:	cf 91       	pop	r28
    5ca6:	08 95       	ret

00005ca8 <twi_init>:

/* twi  kbs */
void twi_init(uint16_t kbs)
{
    5ca8:	0f 93       	push	r16
    5caa:	1f 93       	push	r17
    5cac:	cf 93       	push	r28
    5cae:	df 93       	push	r29
    5cb0:	00 d0       	rcall	.+0      	; 0x5cb2 <twi_init+0xa>
    5cb2:	cd b7       	in	r28, 0x3d	; 61
    5cb4:	de b7       	in	r29, 0x3e	; 62
    5cb6:	9a 83       	std	Y+2, r25	; 0x02
    5cb8:	89 83       	std	Y+1, r24	; 0x01
    /*  */
    TWSR &= ~(1 << TWPS0);
    5cba:	81 e7       	ldi	r24, 0x71	; 113
    5cbc:	90 e0       	ldi	r25, 0x00	; 0
    5cbe:	21 e7       	ldi	r18, 0x71	; 113
    5cc0:	30 e0       	ldi	r19, 0x00	; 0
    5cc2:	f9 01       	movw	r30, r18
    5cc4:	20 81       	ld	r18, Z
    5cc6:	2e 7f       	andi	r18, 0xFE	; 254
    5cc8:	fc 01       	movw	r30, r24
    5cca:	20 83       	st	Z, r18
    TWSR &= ~(1 << TWPS1);
    5ccc:	81 e7       	ldi	r24, 0x71	; 113
    5cce:	90 e0       	ldi	r25, 0x00	; 0
    5cd0:	21 e7       	ldi	r18, 0x71	; 113
    5cd2:	30 e0       	ldi	r19, 0x00	; 0
    5cd4:	f9 01       	movw	r30, r18
    5cd6:	20 81       	ld	r18, Z
    5cd8:	2d 7f       	andi	r18, 0xFD	; 253
    5cda:	fc 01       	movw	r30, r24
    5cdc:	20 83       	st	Z, r18

    /* TWBR */
    TWBR = (F_CPU / (kbs*1000) - 16) / 2;
    5cde:	00 e7       	ldi	r16, 0x70	; 112
    5ce0:	10 e0       	ldi	r17, 0x00	; 0
    5ce2:	49 81       	ldd	r20, Y+1	; 0x01
    5ce4:	5a 81       	ldd	r21, Y+2	; 0x02
    5ce6:	28 ee       	ldi	r18, 0xE8	; 232
    5ce8:	33 e0       	ldi	r19, 0x03	; 3
    5cea:	42 9f       	mul	r20, r18
    5cec:	c0 01       	movw	r24, r0
    5cee:	43 9f       	mul	r20, r19
    5cf0:	90 0d       	add	r25, r0
    5cf2:	52 9f       	mul	r21, r18
    5cf4:	90 0d       	add	r25, r0
    5cf6:	11 24       	eor	r1, r1
    5cf8:	9c 01       	movw	r18, r24
    5cfa:	40 e0       	ldi	r20, 0x00	; 0
    5cfc:	50 e0       	ldi	r21, 0x00	; 0
    5cfe:	80 e0       	ldi	r24, 0x00	; 0
    5d00:	94 e2       	ldi	r25, 0x24	; 36
    5d02:	a4 ef       	ldi	r26, 0xF4	; 244
    5d04:	b0 e0       	ldi	r27, 0x00	; 0
    5d06:	bc 01       	movw	r22, r24
    5d08:	cd 01       	movw	r24, r26
    5d0a:	0e 94 b5 37 	call	0x6f6a	; 0x6f6a <__udivmodsi4>
    5d0e:	da 01       	movw	r26, r20
    5d10:	c9 01       	movw	r24, r18
    5d12:	40 97       	sbiw	r24, 0x10	; 16
    5d14:	a1 09       	sbc	r26, r1
    5d16:	b1 09       	sbc	r27, r1
    5d18:	b6 95       	lsr	r27
    5d1a:	a7 95       	ror	r26
    5d1c:	97 95       	ror	r25
    5d1e:	87 95       	ror	r24
    5d20:	f8 01       	movw	r30, r16
    5d22:	80 83       	st	Z, r24
    5d24:	00 00       	nop
    5d26:	0f 90       	pop	r0
    5d28:	0f 90       	pop	r0
    5d2a:	df 91       	pop	r29
    5d2c:	cf 91       	pop	r28
    5d2e:	1f 91       	pop	r17
    5d30:	0f 91       	pop	r16
    5d32:	08 95       	ret

00005d34 <__vector_18>:
uint16_t d_value_buff = 100;

uint16_t time_ctrl_value_buff[4][8][4];

ISR(USART0_RX_vect)
{
    5d34:	1f 92       	push	r1
    5d36:	0f 92       	push	r0
    5d38:	00 90 5f 00 	lds	r0, 0x005F	; 0x80005f <__TEXT_REGION_LENGTH__+0x7e005f>
    5d3c:	0f 92       	push	r0
    5d3e:	11 24       	eor	r1, r1
    5d40:	2f 93       	push	r18
    5d42:	3f 93       	push	r19
    5d44:	8f 93       	push	r24
    5d46:	9f 93       	push	r25
    5d48:	ef 93       	push	r30
    5d4a:	ff 93       	push	r31
    5d4c:	cf 93       	push	r28
    5d4e:	df 93       	push	r29
    5d50:	cd b7       	in	r28, 0x3d	; 61
    5d52:	de b7       	in	r29, 0x3e	; 62
	usart0_rx_buff[usart0_rx_cnt++] = UDR0;
    5d54:	80 91 72 04 	lds	r24, 0x0472	; 0x800472 <usart0_rx_cnt>
    5d58:	91 e0       	ldi	r25, 0x01	; 1
    5d5a:	98 0f       	add	r25, r24
    5d5c:	90 93 72 04 	sts	0x0472, r25	; 0x800472 <usart0_rx_cnt>
    5d60:	88 2f       	mov	r24, r24
    5d62:	90 e0       	ldi	r25, 0x00	; 0
    5d64:	2c e2       	ldi	r18, 0x2C	; 44
    5d66:	30 e0       	ldi	r19, 0x00	; 0
    5d68:	f9 01       	movw	r30, r18
    5d6a:	20 81       	ld	r18, Z
    5d6c:	80 52       	subi	r24, 0x20	; 32
    5d6e:	9d 4f       	sbci	r25, 0xFD	; 253
    5d70:	fc 01       	movw	r30, r24
    5d72:	20 83       	st	Z, r18

	if (usart0_rx_cnt >= 200)
    5d74:	80 91 72 04 	lds	r24, 0x0472	; 0x800472 <usart0_rx_cnt>
    5d78:	88 3c       	cpi	r24, 0xC8	; 200
    5d7a:	30 f0       	brcs	.+12     	; 0x5d88 <__vector_18+0x54>
	{
		usart0_rx_lenth = usart0_rx_cnt;
    5d7c:	80 91 72 04 	lds	r24, 0x0472	; 0x800472 <usart0_rx_cnt>
    5d80:	80 93 71 04 	sts	0x0471, r24	; 0x800471 <usart0_rx_lenth>
		usart0_rx_cnt = 0;
    5d84:	10 92 72 04 	sts	0x0472, r1	; 0x800472 <usart0_rx_cnt>
	}
}
    5d88:	00 00       	nop
    5d8a:	df 91       	pop	r29
    5d8c:	cf 91       	pop	r28
    5d8e:	ff 91       	pop	r31
    5d90:	ef 91       	pop	r30
    5d92:	9f 91       	pop	r25
    5d94:	8f 91       	pop	r24
    5d96:	3f 91       	pop	r19
    5d98:	2f 91       	pop	r18
    5d9a:	0f 90       	pop	r0
    5d9c:	00 92 5f 00 	sts	0x005F, r0	; 0x80005f <__TEXT_REGION_LENGTH__+0x7e005f>
    5da0:	0f 90       	pop	r0
    5da2:	1f 90       	pop	r1
    5da4:	18 95       	reti

00005da6 <__vector_30>:

ISR(USART1_RX_vect)
{
    5da6:	1f 92       	push	r1
    5da8:	0f 92       	push	r0
    5daa:	00 90 5f 00 	lds	r0, 0x005F	; 0x80005f <__TEXT_REGION_LENGTH__+0x7e005f>
    5dae:	0f 92       	push	r0
    5db0:	11 24       	eor	r1, r1
    5db2:	2f 93       	push	r18
    5db4:	3f 93       	push	r19
    5db6:	8f 93       	push	r24
    5db8:	9f 93       	push	r25
    5dba:	ef 93       	push	r30
    5dbc:	ff 93       	push	r31
    5dbe:	cf 93       	push	r28
    5dc0:	df 93       	push	r29
    5dc2:	cd b7       	in	r28, 0x3d	; 61
    5dc4:	de b7       	in	r29, 0x3e	; 62
	usart1_rx_buff[usart1_rx_cnt++] = UDR1;
    5dc6:	80 91 05 06 	lds	r24, 0x0605	; 0x800605 <usart1_rx_cnt>
    5dca:	91 e0       	ldi	r25, 0x01	; 1
    5dcc:	98 0f       	add	r25, r24
    5dce:	90 93 05 06 	sts	0x0605, r25	; 0x800605 <usart1_rx_cnt>
    5dd2:	88 2f       	mov	r24, r24
    5dd4:	90 e0       	ldi	r25, 0x00	; 0
    5dd6:	2c e9       	ldi	r18, 0x9C	; 156
    5dd8:	30 e0       	ldi	r19, 0x00	; 0
    5dda:	f9 01       	movw	r30, r18
    5ddc:	20 81       	ld	r18, Z
    5dde:	8d 58       	subi	r24, 0x8D	; 141
    5de0:	9b 4f       	sbci	r25, 0xFB	; 251
    5de2:	fc 01       	movw	r30, r24
    5de4:	20 83       	st	Z, r18

	if (usart1_rx_cnt >= 200)
    5de6:	80 91 05 06 	lds	r24, 0x0605	; 0x800605 <usart1_rx_cnt>
    5dea:	88 3c       	cpi	r24, 0xC8	; 200
    5dec:	30 f0       	brcs	.+12     	; 0x5dfa <__vector_30+0x54>
	{
		usart1_rx_lenth = usart1_rx_cnt;
    5dee:	80 91 05 06 	lds	r24, 0x0605	; 0x800605 <usart1_rx_cnt>
    5df2:	80 93 04 06 	sts	0x0604, r24	; 0x800604 <usart1_rx_lenth>
		usart1_rx_cnt = 0;
    5df6:	10 92 05 06 	sts	0x0605, r1	; 0x800605 <usart1_rx_cnt>
	}
}
    5dfa:	00 00       	nop
    5dfc:	df 91       	pop	r29
    5dfe:	cf 91       	pop	r28
    5e00:	ff 91       	pop	r31
    5e02:	ef 91       	pop	r30
    5e04:	9f 91       	pop	r25
    5e06:	8f 91       	pop	r24
    5e08:	3f 91       	pop	r19
    5e0a:	2f 91       	pop	r18
    5e0c:	0f 90       	pop	r0
    5e0e:	00 92 5f 00 	sts	0x005F, r0	; 0x80005f <__TEXT_REGION_LENGTH__+0x7e005f>
    5e12:	0f 90       	pop	r0
    5e14:	1f 90       	pop	r1
    5e16:	18 95       	reti

00005e18 <usart0_deal>:

int usart0_deal(void)
{
    5e18:	cf 93       	push	r28
    5e1a:	df 93       	push	r29
    5e1c:	00 d0       	rcall	.+0      	; 0x5e1e <usart0_deal+0x6>
    5e1e:	00 d0       	rcall	.+0      	; 0x5e20 <usart0_deal+0x8>
    5e20:	00 d0       	rcall	.+0      	; 0x5e22 <usart0_deal+0xa>
    5e22:	cd b7       	in	r28, 0x3d	; 61
    5e24:	de b7       	in	r29, 0x3e	; 62
	uint16_t crc_data = 0;
    5e26:	1c 82       	std	Y+4, r1	; 0x04
    5e28:	1b 82       	std	Y+3, r1	; 0x03

	uint16_t variable_addr = 0;
    5e2a:	1e 82       	std	Y+6, r1	; 0x06
    5e2c:	1d 82       	std	Y+5, r1	; 0x05
	uint16_t variable = 0;
    5e2e:	1a 82       	std	Y+2, r1	; 0x02
    5e30:	19 82       	std	Y+1, r1	; 0x01

	crc_data = usart0_rx_buff[usart0_rx_lenth - 1];
    5e32:	80 91 71 04 	lds	r24, 0x0471	; 0x800471 <usart0_rx_lenth>
    5e36:	88 2f       	mov	r24, r24
    5e38:	90 e0       	ldi	r25, 0x00	; 0
    5e3a:	01 97       	sbiw	r24, 0x01	; 1
    5e3c:	80 52       	subi	r24, 0x20	; 32
    5e3e:	9d 4f       	sbci	r25, 0xFD	; 253
    5e40:	fc 01       	movw	r30, r24
    5e42:	80 81       	ld	r24, Z
    5e44:	88 2f       	mov	r24, r24
    5e46:	90 e0       	ldi	r25, 0x00	; 0
    5e48:	9c 83       	std	Y+4, r25	; 0x04
    5e4a:	8b 83       	std	Y+3, r24	; 0x03
	crc_data = (crc_data << 8) + usart0_rx_buff[usart0_rx_lenth - 2]; //
    5e4c:	8b 81       	ldd	r24, Y+3	; 0x03
    5e4e:	9c 81       	ldd	r25, Y+4	; 0x04
    5e50:	38 2f       	mov	r19, r24
    5e52:	22 27       	eor	r18, r18
    5e54:	80 91 71 04 	lds	r24, 0x0471	; 0x800471 <usart0_rx_lenth>
    5e58:	88 2f       	mov	r24, r24
    5e5a:	90 e0       	ldi	r25, 0x00	; 0
    5e5c:	02 97       	sbiw	r24, 0x02	; 2
    5e5e:	80 52       	subi	r24, 0x20	; 32
    5e60:	9d 4f       	sbci	r25, 0xFD	; 253
    5e62:	fc 01       	movw	r30, r24
    5e64:	80 81       	ld	r24, Z
    5e66:	88 2f       	mov	r24, r24
    5e68:	90 e0       	ldi	r25, 0x00	; 0
    5e6a:	82 0f       	add	r24, r18
    5e6c:	93 1f       	adc	r25, r19
    5e6e:	9c 83       	std	Y+4, r25	; 0x04
    5e70:	8b 83       	std	Y+3, r24	; 0x03

	variable_addr = usart0_rx_buff[4];
    5e72:	80 91 e4 02 	lds	r24, 0x02E4	; 0x8002e4 <usart0_rx_buff+0x4>
    5e76:	88 2f       	mov	r24, r24
    5e78:	90 e0       	ldi	r25, 0x00	; 0
    5e7a:	9e 83       	std	Y+6, r25	; 0x06
    5e7c:	8d 83       	std	Y+5, r24	; 0x05
	variable_addr = (variable_addr << 8) | usart0_rx_buff[5]; //
    5e7e:	8d 81       	ldd	r24, Y+5	; 0x05
    5e80:	9e 81       	ldd	r25, Y+6	; 0x06
    5e82:	38 2f       	mov	r19, r24
    5e84:	22 27       	eor	r18, r18
    5e86:	80 91 e5 02 	lds	r24, 0x02E5	; 0x8002e5 <usart0_rx_buff+0x5>
    5e8a:	88 2f       	mov	r24, r24
    5e8c:	90 e0       	ldi	r25, 0x00	; 0
    5e8e:	82 2b       	or	r24, r18
    5e90:	93 2b       	or	r25, r19
    5e92:	9e 83       	std	Y+6, r25	; 0x06
    5e94:	8d 83       	std	Y+5, r24	; 0x05

	variable = usart0_rx_buff[usart0_rx_lenth - 4];
    5e96:	80 91 71 04 	lds	r24, 0x0471	; 0x800471 <usart0_rx_lenth>
    5e9a:	88 2f       	mov	r24, r24
    5e9c:	90 e0       	ldi	r25, 0x00	; 0
    5e9e:	04 97       	sbiw	r24, 0x04	; 4
    5ea0:	80 52       	subi	r24, 0x20	; 32
    5ea2:	9d 4f       	sbci	r25, 0xFD	; 253
    5ea4:	fc 01       	movw	r30, r24
    5ea6:	80 81       	ld	r24, Z
    5ea8:	88 2f       	mov	r24, r24
    5eaa:	90 e0       	ldi	r25, 0x00	; 0
    5eac:	9a 83       	std	Y+2, r25	; 0x02
    5eae:	89 83       	std	Y+1, r24	; 0x01
	variable = (variable << 8) | usart0_rx_buff[usart0_rx_lenth - 3]; //
    5eb0:	89 81       	ldd	r24, Y+1	; 0x01
    5eb2:	9a 81       	ldd	r25, Y+2	; 0x02
    5eb4:	38 2f       	mov	r19, r24
    5eb6:	22 27       	eor	r18, r18
    5eb8:	80 91 71 04 	lds	r24, 0x0471	; 0x800471 <usart0_rx_lenth>
    5ebc:	88 2f       	mov	r24, r24
    5ebe:	90 e0       	ldi	r25, 0x00	; 0
    5ec0:	03 97       	sbiw	r24, 0x03	; 3
    5ec2:	80 52       	subi	r24, 0x20	; 32
    5ec4:	9d 4f       	sbci	r25, 0xFD	; 253
    5ec6:	fc 01       	movw	r30, r24
    5ec8:	80 81       	ld	r24, Z
    5eca:	88 2f       	mov	r24, r24
    5ecc:	90 e0       	ldi	r25, 0x00	; 0
    5ece:	82 2b       	or	r24, r18
    5ed0:	93 2b       	or	r25, r19
    5ed2:	9a 83       	std	Y+2, r25	; 0x02
    5ed4:	89 83       	std	Y+1, r24	; 0x01

	if ((usart0_rx_buff[0] != 0xA5) || (usart0_rx_buff[1] != 0x5A)) //
    5ed6:	80 91 e0 02 	lds	r24, 0x02E0	; 0x8002e0 <usart0_rx_buff>
    5eda:	85 3a       	cpi	r24, 0xA5	; 165
    5edc:	21 f4       	brne	.+8      	; 0x5ee6 <usart0_deal+0xce>
    5ede:	80 91 e1 02 	lds	r24, 0x02E1	; 0x8002e1 <usart0_rx_buff+0x1>
    5ee2:	8a 35       	cpi	r24, 0x5A	; 90
    5ee4:	29 f0       	breq	.+10     	; 0x5ef0 <usart0_deal+0xd8>
	{
		usart0_rx_end = 0;
    5ee6:	10 92 70 04 	sts	0x0470, r1	; 0x800470 <usart0_rx_end>
		return 0;
    5eea:	80 e0       	ldi	r24, 0x00	; 0
    5eec:	90 e0       	ldi	r25, 0x00	; 0
    5eee:	9b c4       	rjmp	.+2358   	; 0x6826 <usart0_deal+0xa0e>
	}

	if ((usart0_rx_buff[2] + 5) != usart0_rx_lenth) //
    5ef0:	80 91 e2 02 	lds	r24, 0x02E2	; 0x8002e2 <usart0_rx_buff+0x2>
    5ef4:	88 2f       	mov	r24, r24
    5ef6:	90 e0       	ldi	r25, 0x00	; 0
    5ef8:	9c 01       	movw	r18, r24
    5efa:	2b 5f       	subi	r18, 0xFB	; 251
    5efc:	3f 4f       	sbci	r19, 0xFF	; 255
    5efe:	80 91 71 04 	lds	r24, 0x0471	; 0x800471 <usart0_rx_lenth>
    5f02:	88 2f       	mov	r24, r24
    5f04:	90 e0       	ldi	r25, 0x00	; 0
    5f06:	28 17       	cp	r18, r24
    5f08:	39 07       	cpc	r19, r25
    5f0a:	29 f0       	breq	.+10     	; 0x5f16 <usart0_deal+0xfe>
	{
		usart0_rx_end = 0;
    5f0c:	10 92 70 04 	sts	0x0470, r1	; 0x800470 <usart0_rx_end>
		return 0;
    5f10:	80 e0       	ldi	r24, 0x00	; 0
    5f12:	90 e0       	ldi	r25, 0x00	; 0
    5f14:	88 c4       	rjmp	.+2320   	; 0x6826 <usart0_deal+0xa0e>
	}

	if (crc_data != crc_check(usart0_rx_buff, usart0_rx_lenth)) //crc
    5f16:	80 91 71 04 	lds	r24, 0x0471	; 0x800471 <usart0_rx_lenth>
    5f1a:	68 2f       	mov	r22, r24
    5f1c:	80 ee       	ldi	r24, 0xE0	; 224
    5f1e:	92 e0       	ldi	r25, 0x02	; 2
    5f20:	0e 94 4d 35 	call	0x6a9a	; 0x6a9a <crc_check>
    5f24:	9c 01       	movw	r18, r24
    5f26:	8b 81       	ldd	r24, Y+3	; 0x03
    5f28:	9c 81       	ldd	r25, Y+4	; 0x04
    5f2a:	28 17       	cp	r18, r24
    5f2c:	39 07       	cpc	r19, r25
    5f2e:	29 f0       	breq	.+10     	; 0x5f3a <usart0_deal+0x122>
	{
		usart0_rx_end = 0;
    5f30:	10 92 70 04 	sts	0x0470, r1	; 0x800470 <usart0_rx_end>
		return 0;
    5f34:	80 e0       	ldi	r24, 0x00	; 0
    5f36:	90 e0       	ldi	r25, 0x00	; 0
    5f38:	76 c4       	rjmp	.+2284   	; 0x6826 <usart0_deal+0xa0e>
	}

	if (RX0_COMMAND == ACCESS_VARIABLE)
    5f3a:	80 91 e3 02 	lds	r24, 0x02E3	; 0x8002e3 <usart0_rx_buff+0x3>
    5f3e:	83 38       	cpi	r24, 0x83	; 131
    5f40:	09 f0       	breq	.+2      	; 0x5f44 <usart0_deal+0x12c>
    5f42:	6f c4       	rjmp	.+2270   	; 0x6822 <usart0_deal+0xa0a>
	{
		switch (variable_addr)
    5f44:	8d 81       	ldd	r24, Y+5	; 0x05
    5f46:	9e 81       	ldd	r25, Y+6	; 0x06
    5f48:	cc 01       	movw	r24, r24
    5f4a:	a0 e0       	ldi	r26, 0x00	; 0
    5f4c:	b0 e0       	ldi	r27, 0x00	; 0
    5f4e:	40 e4       	ldi	r20, 0x40	; 64
    5f50:	51 e0       	ldi	r21, 0x01	; 1
    5f52:	2f eb       	ldi	r18, 0xBF	; 191
    5f54:	30 e0       	ldi	r19, 0x00	; 0
    5f56:	84 1b       	sub	r24, r20
    5f58:	95 0b       	sbc	r25, r21
    5f5a:	28 17       	cp	r18, r24
    5f5c:	39 07       	cpc	r19, r25
    5f5e:	08 f4       	brcc	.+2      	; 0x5f62 <usart0_deal+0x14a>
    5f60:	5f c4       	rjmp	.+2238   	; 0x6820 <usart0_deal+0xa08>
    5f62:	80 57       	subi	r24, 0x70	; 112
    5f64:	9f 4f       	sbci	r25, 0xFF	; 255
    5f66:	fc 01       	movw	r30, r24
    5f68:	0c 94 d7 37 	jmp	0x6fae	; 0x6fae <__tablejump2__>
		{
		case KEY_ADDR:
			key_action(variable);
    5f6c:	89 81       	ldd	r24, Y+1	; 0x01
    5f6e:	9a 81       	ldd	r25, Y+2	; 0x02
    5f70:	0e 94 80 0b 	call	0x1700	; 0x1700 <key_action>
			break; //  
    5f74:	56 c4       	rjmp	.+2220   	; 0x6822 <usart0_deal+0xa0a>
		case MASTER_SWITCH:
			pre_system_sta = variable;
    5f76:	89 81       	ldd	r24, Y+1	; 0x01
    5f78:	9a 81       	ldd	r25, Y+2	; 0x02
    5f7a:	90 93 9d 01 	sts	0x019D, r25	; 0x80019d <pre_system_sta+0x1>
    5f7e:	80 93 9c 01 	sts	0x019C, r24	; 0x80019c <pre_system_sta>
			all_set_flag = 1;
    5f82:	81 e0       	ldi	r24, 0x01	; 1
    5f84:	80 93 cd 02 	sts	0x02CD, r24	; 0x8002cd <all_set_flag>
			ctrl_command[ctrl_index++] = SWITCH_SENSOR;
    5f88:	80 91 cc 02 	lds	r24, 0x02CC	; 0x8002cc <ctrl_index>
    5f8c:	91 e0       	ldi	r25, 0x01	; 1
    5f8e:	98 0f       	add	r25, r24
    5f90:	90 93 cc 02 	sts	0x02CC, r25	; 0x8002cc <ctrl_index>
    5f94:	88 2f       	mov	r24, r24
    5f96:	90 e0       	ldi	r25, 0x00	; 0
    5f98:	84 56       	subi	r24, 0x64	; 100
    5f9a:	94 4f       	sbci	r25, 0xF4	; 244
    5f9c:	26 e0       	ldi	r18, 0x06	; 6
    5f9e:	fc 01       	movw	r30, r24
    5fa0:	20 83       	st	Z, r18
			// switch_all_sensor(variable);
			break;
    5fa2:	3f c4       	rjmp	.+2174   	; 0x6822 <usart0_deal+0xa0a>
		case SINGLE_SET_FOLLOW:
			follow_sta_buff[set_num] = variable;
    5fa4:	80 91 9e 01 	lds	r24, 0x019E	; 0x80019e <set_num>
    5fa8:	88 2f       	mov	r24, r24
    5faa:	90 e0       	ldi	r25, 0x00	; 0
    5fac:	29 81       	ldd	r18, Y+1	; 0x01
    5fae:	83 56       	subi	r24, 0x63	; 99
    5fb0:	9d 4f       	sbci	r25, 0xFD	; 253
    5fb2:	fc 01       	movw	r30, r24
    5fb4:	20 83       	st	Z, r18
			break;
    5fb6:	35 c4       	rjmp	.+2154   	; 0x6822 <usart0_deal+0xa0a>
		case SINGLE_SET_SENSOR_TYPE:
			sensor_type_buff[set_num] = variable;
    5fb8:	80 91 9e 01 	lds	r24, 0x019E	; 0x80019e <set_num>
    5fbc:	88 2f       	mov	r24, r24
    5fbe:	90 e0       	ldi	r25, 0x00	; 0
    5fc0:	88 0f       	add	r24, r24
    5fc2:	99 1f       	adc	r25, r25
    5fc4:	8d 5f       	subi	r24, 0xFD	; 253
    5fc6:	98 4f       	sbci	r25, 0xF8	; 248
    5fc8:	29 81       	ldd	r18, Y+1	; 0x01
    5fca:	3a 81       	ldd	r19, Y+2	; 0x02
    5fcc:	fc 01       	movw	r30, r24
    5fce:	31 83       	std	Z+1, r19	; 0x01
    5fd0:	20 83       	st	Z, r18
			send_variables(SINGLE_SENSORTYPE_ADDR,
						   TYPE_J + (sensor_type_buff[set_num] * TYPE_K));
    5fd2:	80 91 9e 01 	lds	r24, 0x019E	; 0x80019e <set_num>
    5fd6:	88 2f       	mov	r24, r24
    5fd8:	90 e0       	ldi	r25, 0x00	; 0
    5fda:	88 0f       	add	r24, r24
    5fdc:	99 1f       	adc	r25, r25
    5fde:	8d 5f       	subi	r24, 0xFD	; 253
    5fe0:	98 4f       	sbci	r25, 0xF8	; 248
    5fe2:	fc 01       	movw	r30, r24
    5fe4:	80 81       	ld	r24, Z
    5fe6:	91 81       	ldd	r25, Z+1	; 0x01
		case SINGLE_SET_FOLLOW:
			follow_sta_buff[set_num] = variable;
			break;
		case SINGLE_SET_SENSOR_TYPE:
			sensor_type_buff[set_num] = variable;
			send_variables(SINGLE_SENSORTYPE_ADDR,
    5fe8:	86 5b       	subi	r24, 0xB6	; 182
    5fea:	9f 4f       	sbci	r25, 0xFF	; 255
    5fec:	98 2f       	mov	r25, r24
    5fee:	88 27       	eor	r24, r24
    5ff0:	bc 01       	movw	r22, r24
    5ff2:	80 e9       	ldi	r24, 0x90	; 144
    5ff4:	92 e0       	ldi	r25, 0x02	; 2
    5ff6:	0e 94 1f 1c 	call	0x383e	; 0x383e <send_variables>
						   TYPE_J + (sensor_type_buff[set_num] * TYPE_K));
			break;
    5ffa:	13 c4       	rjmp	.+2086   	; 0x6822 <usart0_deal+0xa0a>
		case SINGLE_SET_SWITCH:
			switch_sensor_buff[set_num] = variable;
    5ffc:	80 91 9e 01 	lds	r24, 0x019E	; 0x80019e <set_num>
    6000:	88 2f       	mov	r24, r24
    6002:	90 e0       	ldi	r25, 0x00	; 0
    6004:	88 0f       	add	r24, r24
    6006:	99 1f       	adc	r25, r25
    6008:	8d 52       	subi	r24, 0x2D	; 45
    600a:	99 4f       	sbci	r25, 0xF9	; 249
    600c:	29 81       	ldd	r18, Y+1	; 0x01
    600e:	3a 81       	ldd	r19, Y+2	; 0x02
    6010:	fc 01       	movw	r30, r24
    6012:	31 83       	std	Z+1, r19	; 0x01
    6014:	20 83       	st	Z, r18
			break;
    6016:	05 c4       	rjmp	.+2058   	; 0x6822 <usart0_deal+0xa0a>
		case SINGLE_SET_TEMP:
			if(temp_unit_buff)
    6018:	80 91 d1 06 	lds	r24, 0x06D1	; 0x8006d1 <temp_unit_buff>
    601c:	90 91 d2 06 	lds	r25, 0x06D2	; 0x8006d2 <temp_unit_buff+0x1>
    6020:	89 2b       	or	r24, r25
    6022:	d1 f0       	breq	.+52     	; 0x6058 <usart0_deal+0x240>
			{
				variable = ((variable - 32) * 10 / 18);
    6024:	89 81       	ldd	r24, Y+1	; 0x01
    6026:	9a 81       	ldd	r25, Y+2	; 0x02
    6028:	88 0f       	add	r24, r24
    602a:	99 1f       	adc	r25, r25
    602c:	9c 01       	movw	r18, r24
    602e:	22 0f       	add	r18, r18
    6030:	33 1f       	adc	r19, r19
    6032:	22 0f       	add	r18, r18
    6034:	33 1f       	adc	r19, r19
    6036:	82 0f       	add	r24, r18
    6038:	93 1f       	adc	r25, r19
    603a:	80 54       	subi	r24, 0x40	; 64
    603c:	91 40       	sbci	r25, 0x01	; 1
    603e:	9c 01       	movw	r18, r24
    6040:	af e8       	ldi	r26, 0x8F	; 143
    6042:	b3 ee       	ldi	r27, 0xE3	; 227
    6044:	0e 94 dd 37 	call	0x6fba	; 0x6fba <__umulhisi3>
    6048:	92 95       	swap	r25
    604a:	82 95       	swap	r24
    604c:	8f 70       	andi	r24, 0x0F	; 15
    604e:	89 27       	eor	r24, r25
    6050:	9f 70       	andi	r25, 0x0F	; 15
    6052:	89 27       	eor	r24, r25
    6054:	9a 83       	std	Y+2, r25	; 0x02
    6056:	89 83       	std	Y+1, r24	; 0x01
			}
			set_temp_buff[set_num] = variable;
    6058:	80 91 9e 01 	lds	r24, 0x019E	; 0x80019e <set_num>
    605c:	88 2f       	mov	r24, r24
    605e:	90 e0       	ldi	r25, 0x00	; 0
    6060:	88 0f       	add	r24, r24
    6062:	99 1f       	adc	r25, r25
    6064:	80 55       	subi	r24, 0x50	; 80
    6066:	94 4f       	sbci	r25, 0xF4	; 244
    6068:	29 81       	ldd	r18, Y+1	; 0x01
    606a:	3a 81       	ldd	r19, Y+2	; 0x02
    606c:	fc 01       	movw	r30, r24
    606e:	31 83       	std	Z+1, r19	; 0x01
    6070:	20 83       	st	Z, r18
			break;
    6072:	d7 c3       	rjmp	.+1966   	; 0x6822 <usart0_deal+0xa0a>
		case SINGLE_SET_NAME:
			set_name_buff = get_name();
    6074:	0e 94 0d 14 	call	0x281a	; 0x281a <get_name>
    6078:	dc 01       	movw	r26, r24
    607a:	cb 01       	movw	r24, r22
    607c:	80 93 81 02 	sts	0x0281, r24	; 0x800281 <set_name_buff>
    6080:	90 93 82 02 	sts	0x0282, r25	; 0x800282 <set_name_buff+0x1>
    6084:	a0 93 83 02 	sts	0x0283, r26	; 0x800283 <set_name_buff+0x2>
    6088:	b0 93 84 02 	sts	0x0284, r27	; 0x800284 <set_name_buff+0x3>
			break;
    608c:	ca c3       	rjmp	.+1940   	; 0x6822 <usart0_deal+0xa0a>
		case ALL_SET_TEMP:
			if (temp_unit_buff)
    608e:	80 91 d1 06 	lds	r24, 0x06D1	; 0x8006d1 <temp_unit_buff>
    6092:	90 91 d2 06 	lds	r25, 0x06D2	; 0x8006d2 <temp_unit_buff+0x1>
    6096:	89 2b       	or	r24, r25
    6098:	d1 f0       	breq	.+52     	; 0x60ce <usart0_deal+0x2b6>
			{
				variable = ((variable - 32) * 10 / 18);
    609a:	89 81       	ldd	r24, Y+1	; 0x01
    609c:	9a 81       	ldd	r25, Y+2	; 0x02
    609e:	88 0f       	add	r24, r24
    60a0:	99 1f       	adc	r25, r25
    60a2:	9c 01       	movw	r18, r24
    60a4:	22 0f       	add	r18, r18
    60a6:	33 1f       	adc	r19, r19
    60a8:	22 0f       	add	r18, r18
    60aa:	33 1f       	adc	r19, r19
    60ac:	82 0f       	add	r24, r18
    60ae:	93 1f       	adc	r25, r19
    60b0:	80 54       	subi	r24, 0x40	; 64
    60b2:	91 40       	sbci	r25, 0x01	; 1
    60b4:	9c 01       	movw	r18, r24
    60b6:	af e8       	ldi	r26, 0x8F	; 143
    60b8:	b3 ee       	ldi	r27, 0xE3	; 227
    60ba:	0e 94 dd 37 	call	0x6fba	; 0x6fba <__umulhisi3>
    60be:	92 95       	swap	r25
    60c0:	82 95       	swap	r24
    60c2:	8f 70       	andi	r24, 0x0F	; 15
    60c4:	89 27       	eor	r24, r25
    60c6:	9f 70       	andi	r25, 0x0F	; 15
    60c8:	89 27       	eor	r24, r25
    60ca:	9a 83       	std	Y+2, r25	; 0x02
    60cc:	89 83       	std	Y+1, r24	; 0x01
			}
			all_temp_buff = variable;
    60ce:	89 81       	ldd	r24, Y+1	; 0x01
    60d0:	9a 81       	ldd	r25, Y+2	; 0x02
    60d2:	90 93 7b 01 	sts	0x017B, r25	; 0x80017b <all_temp_buff+0x1>
    60d6:	80 93 7a 01 	sts	0x017A, r24	; 0x80017a <all_temp_buff>
			break;
    60da:	a3 c3       	rjmp	.+1862   	; 0x6822 <usart0_deal+0xa0a>
		case SET_PREHEAT_TIME:
			preheat_time_buff = variable;
    60dc:	89 81       	ldd	r24, Y+1	; 0x01
    60de:	9a 81       	ldd	r25, Y+2	; 0x02
    60e0:	90 93 7d 01 	sts	0x017D, r25	; 0x80017d <preheat_time_buff+0x1>
    60e4:	80 93 7c 01 	sts	0x017C, r24	; 0x80017c <preheat_time_buff>
			break;
    60e8:	9c c3       	rjmp	.+1848   	; 0x6822 <usart0_deal+0xa0a>
		case ALL_SET_SENSOR_TYPE:
			all_sensor_type_buff = variable;
    60ea:	89 81       	ldd	r24, Y+1	; 0x01
    60ec:	9a 81       	ldd	r25, Y+2	; 0x02
    60ee:	90 93 d0 06 	sts	0x06D0, r25	; 0x8006d0 <all_sensor_type_buff+0x1>
    60f2:	80 93 cf 06 	sts	0x06CF, r24	; 0x8006cf <all_sensor_type_buff>
			send_variables(ALL_SENSOR_TYPE_ADDR,
    60f6:	80 91 cf 06 	lds	r24, 0x06CF	; 0x8006cf <all_sensor_type_buff>
    60fa:	90 91 d0 06 	lds	r25, 0x06D0	; 0x8006d0 <all_sensor_type_buff+0x1>
    60fe:	86 5b       	subi	r24, 0xB6	; 182
    6100:	9f 4f       	sbci	r25, 0xFF	; 255
    6102:	98 2f       	mov	r25, r24
    6104:	88 27       	eor	r24, r24
    6106:	bc 01       	movw	r22, r24
    6108:	84 e9       	ldi	r24, 0x94	; 148
    610a:	92 e0       	ldi	r25, 0x02	; 2
    610c:	0e 94 1f 1c 	call	0x383e	; 0x383e <send_variables>
						   TYPE_J + (all_sensor_type_buff * TYPE_K));
			break;
    6110:	88 c3       	rjmp	.+1808   	; 0x6822 <usart0_deal+0xa0a>
		case SET_TEMP_UNIT:
			temp_unit_buff = variable;
    6112:	89 81       	ldd	r24, Y+1	; 0x01
    6114:	9a 81       	ldd	r25, Y+2	; 0x02
    6116:	90 93 d2 06 	sts	0x06D2, r25	; 0x8006d2 <temp_unit_buff+0x1>
    611a:	80 93 d1 06 	sts	0x06D1, r24	; 0x8006d1 <temp_unit_buff>
			send_variables(TEMP_UINT_ADDR,
						   (CELSIUS + temp_unit_buff * FAHRENHEIT));
    611e:	40 91 d1 06 	lds	r20, 0x06D1	; 0x8006d1 <temp_unit_buff>
    6122:	50 91 d2 06 	lds	r21, 0x06D2	; 0x8006d2 <temp_unit_buff+0x1>
    6126:	20 e0       	ldi	r18, 0x00	; 0
    6128:	33 e0       	ldi	r19, 0x03	; 3
    612a:	42 9f       	mul	r20, r18
    612c:	c0 01       	movw	r24, r0
    612e:	43 9f       	mul	r20, r19
    6130:	90 0d       	add	r25, r0
    6132:	52 9f       	mul	r21, r18
    6134:	90 0d       	add	r25, r0
    6136:	11 24       	eor	r1, r1
			send_variables(ALL_SENSOR_TYPE_ADDR,
						   TYPE_J + (all_sensor_type_buff * TYPE_K));
			break;
		case SET_TEMP_UNIT:
			temp_unit_buff = variable;
			send_variables(TEMP_UINT_ADDR,
    6138:	9d 5b       	subi	r25, 0xBD	; 189
    613a:	bc 01       	movw	r22, r24
    613c:	8c e3       	ldi	r24, 0x3C	; 60
    613e:	92 e0       	ldi	r25, 0x02	; 2
    6140:	0e 94 1f 1c 	call	0x383e	; 0x383e <send_variables>
						   (CELSIUS + temp_unit_buff * FAHRENHEIT));

			if(temp_unit_buff == 1)
    6144:	80 91 d1 06 	lds	r24, 0x06D1	; 0x8006d1 <temp_unit_buff>
    6148:	90 91 d2 06 	lds	r25, 0x06D2	; 0x8006d2 <temp_unit_buff+0x1>
    614c:	01 97       	sbiw	r24, 0x01	; 1
    614e:	79 f5       	brne	.+94     	; 0x61ae <usart0_deal+0x396>
			{
 				send_variables(ALL_SET_TEMP, all_temp + temp_unit_buff * (all_temp * 8 / 10 + 32));
    6150:	80 91 03 01 	lds	r24, 0x0103	; 0x800103 <all_temp>
    6154:	90 91 04 01 	lds	r25, 0x0104	; 0x800104 <all_temp+0x1>
    6158:	88 0f       	add	r24, r24
    615a:	99 1f       	adc	r25, r25
    615c:	88 0f       	add	r24, r24
    615e:	99 1f       	adc	r25, r25
    6160:	88 0f       	add	r24, r24
    6162:	99 1f       	adc	r25, r25
    6164:	9c 01       	movw	r18, r24
    6166:	ad ec       	ldi	r26, 0xCD	; 205
    6168:	bc ec       	ldi	r27, 0xCC	; 204
    616a:	0e 94 dd 37 	call	0x6fba	; 0x6fba <__umulhisi3>
    616e:	96 95       	lsr	r25
    6170:	87 95       	ror	r24
    6172:	96 95       	lsr	r25
    6174:	87 95       	ror	r24
    6176:	96 95       	lsr	r25
    6178:	87 95       	ror	r24
    617a:	ac 01       	movw	r20, r24
    617c:	40 5e       	subi	r20, 0xE0	; 224
    617e:	5f 4f       	sbci	r21, 0xFF	; 255
    6180:	80 91 d1 06 	lds	r24, 0x06D1	; 0x8006d1 <temp_unit_buff>
    6184:	90 91 d2 06 	lds	r25, 0x06D2	; 0x8006d2 <temp_unit_buff+0x1>
    6188:	48 9f       	mul	r20, r24
    618a:	90 01       	movw	r18, r0
    618c:	49 9f       	mul	r20, r25
    618e:	30 0d       	add	r19, r0
    6190:	58 9f       	mul	r21, r24
    6192:	30 0d       	add	r19, r0
    6194:	11 24       	eor	r1, r1
    6196:	80 91 03 01 	lds	r24, 0x0103	; 0x800103 <all_temp>
    619a:	90 91 04 01 	lds	r25, 0x0104	; 0x800104 <all_temp+0x1>
    619e:	82 0f       	add	r24, r18
    61a0:	93 1f       	adc	r25, r19
    61a2:	bc 01       	movw	r22, r24
    61a4:	88 e4       	ldi	r24, 0x48	; 72
    61a6:	91 e0       	ldi	r25, 0x01	; 1
    61a8:	0e 94 1f 1c 	call	0x383e	; 0x383e <send_variables>
			}
			else
			{
				send_variables(ALL_SET_TEMP, all_temp);
			}
			break;
    61ac:	3a c3       	rjmp	.+1652   	; 0x6822 <usart0_deal+0xa0a>
			{
 				send_variables(ALL_SET_TEMP, all_temp + temp_unit_buff * (all_temp * 8 / 10 + 32));
			}
			else
			{
				send_variables(ALL_SET_TEMP, all_temp);
    61ae:	80 91 03 01 	lds	r24, 0x0103	; 0x800103 <all_temp>
    61b2:	90 91 04 01 	lds	r25, 0x0104	; 0x800104 <all_temp+0x1>
    61b6:	bc 01       	movw	r22, r24
    61b8:	88 e4       	ldi	r24, 0x48	; 72
    61ba:	91 e0       	ldi	r25, 0x01	; 1
    61bc:	0e 94 1f 1c 	call	0x383e	; 0x383e <send_variables>
			}
			break;
    61c0:	30 c3       	rjmp	.+1632   	; 0x6822 <usart0_deal+0xa0a>
			//		case PID_CHANNEL:
			//			update_pid_page(variable);	//24
			//			break;
		case PID_P:
			p_value_buff = variable;
    61c2:	89 81       	ldd	r24, Y+1	; 0x01
    61c4:	9a 81       	ldd	r25, Y+2	; 0x02
    61c6:	90 93 7f 01 	sts	0x017F, r25	; 0x80017f <p_value_buff+0x1>
    61ca:	80 93 7e 01 	sts	0x017E, r24	; 0x80017e <p_value_buff>
			break;
    61ce:	29 c3       	rjmp	.+1618   	; 0x6822 <usart0_deal+0xa0a>
		case PID_I:
			i_value_buff = variable;
    61d0:	89 81       	ldd	r24, Y+1	; 0x01
    61d2:	9a 81       	ldd	r25, Y+2	; 0x02
    61d4:	90 93 81 01 	sts	0x0181, r25	; 0x800181 <i_value_buff+0x1>
    61d8:	80 93 80 01 	sts	0x0180, r24	; 0x800180 <i_value_buff>
			break;
    61dc:	22 c3       	rjmp	.+1604   	; 0x6822 <usart0_deal+0xa0a>
		case PID_D:
			d_value_buff = variable;
    61de:	89 81       	ldd	r24, Y+1	; 0x01
    61e0:	9a 81       	ldd	r25, Y+2	; 0x02
    61e2:	90 93 83 01 	sts	0x0183, r25	; 0x800183 <d_value_buff+0x1>
    61e6:	80 93 82 01 	sts	0x0182, r24	; 0x800182 <d_value_buff>
			break;
    61ea:	1b c3       	rjmp	.+1590   	; 0x6822 <usart0_deal+0xa0a>

		case IQR1_T1:
			time_ctrl_value_buff[module_num - 1][0][0] = variable;
    61ec:	80 91 05 01 	lds	r24, 0x0105	; 0x800105 <module_num>
    61f0:	88 2f       	mov	r24, r24
    61f2:	90 e0       	ldi	r25, 0x00	; 0
    61f4:	01 97       	sbiw	r24, 0x01	; 1
    61f6:	00 24       	eor	r0, r0
    61f8:	96 95       	lsr	r25
    61fa:	87 95       	ror	r24
    61fc:	07 94       	ror	r0
    61fe:	96 95       	lsr	r25
    6200:	87 95       	ror	r24
    6202:	07 94       	ror	r0
    6204:	98 2f       	mov	r25, r24
    6206:	80 2d       	mov	r24, r0
    6208:	8f 51       	subi	r24, 0x1F	; 31
    620a:	94 4f       	sbci	r25, 0xF4	; 244
    620c:	29 81       	ldd	r18, Y+1	; 0x01
    620e:	3a 81       	ldd	r19, Y+2	; 0x02
    6210:	fc 01       	movw	r30, r24
    6212:	31 83       	std	Z+1, r19	; 0x01
    6214:	20 83       	st	Z, r18
			break;
    6216:	05 c3       	rjmp	.+1546   	; 0x6822 <usart0_deal+0xa0a>
		case IQR1_T2:
			time_ctrl_value_buff[module_num - 1][0][1] = variable;
    6218:	80 91 05 01 	lds	r24, 0x0105	; 0x800105 <module_num>
    621c:	88 2f       	mov	r24, r24
    621e:	90 e0       	ldi	r25, 0x00	; 0
    6220:	01 97       	sbiw	r24, 0x01	; 1
    6222:	00 24       	eor	r0, r0
    6224:	96 95       	lsr	r25
    6226:	87 95       	ror	r24
    6228:	07 94       	ror	r0
    622a:	96 95       	lsr	r25
    622c:	87 95       	ror	r24
    622e:	07 94       	ror	r0
    6230:	98 2f       	mov	r25, r24
    6232:	80 2d       	mov	r24, r0
    6234:	8d 51       	subi	r24, 0x1D	; 29
    6236:	94 4f       	sbci	r25, 0xF4	; 244
    6238:	29 81       	ldd	r18, Y+1	; 0x01
    623a:	3a 81       	ldd	r19, Y+2	; 0x02
    623c:	fc 01       	movw	r30, r24
    623e:	31 83       	std	Z+1, r19	; 0x01
    6240:	20 83       	st	Z, r18
			break;
    6242:	ef c2       	rjmp	.+1502   	; 0x6822 <usart0_deal+0xa0a>
		case IQR1_T3:
			time_ctrl_value_buff[module_num - 1][0][2] = variable;
    6244:	80 91 05 01 	lds	r24, 0x0105	; 0x800105 <module_num>
    6248:	88 2f       	mov	r24, r24
    624a:	90 e0       	ldi	r25, 0x00	; 0
    624c:	01 97       	sbiw	r24, 0x01	; 1
    624e:	00 24       	eor	r0, r0
    6250:	96 95       	lsr	r25
    6252:	87 95       	ror	r24
    6254:	07 94       	ror	r0
    6256:	96 95       	lsr	r25
    6258:	87 95       	ror	r24
    625a:	07 94       	ror	r0
    625c:	98 2f       	mov	r25, r24
    625e:	80 2d       	mov	r24, r0
    6260:	8b 51       	subi	r24, 0x1B	; 27
    6262:	94 4f       	sbci	r25, 0xF4	; 244
    6264:	29 81       	ldd	r18, Y+1	; 0x01
    6266:	3a 81       	ldd	r19, Y+2	; 0x02
    6268:	fc 01       	movw	r30, r24
    626a:	31 83       	std	Z+1, r19	; 0x01
    626c:	20 83       	st	Z, r18
			break;
    626e:	d9 c2       	rjmp	.+1458   	; 0x6822 <usart0_deal+0xa0a>
		case IQR1_T4:
			time_ctrl_value_buff[module_num - 1][0][3] = variable;
    6270:	80 91 05 01 	lds	r24, 0x0105	; 0x800105 <module_num>
    6274:	88 2f       	mov	r24, r24
    6276:	90 e0       	ldi	r25, 0x00	; 0
    6278:	01 97       	sbiw	r24, 0x01	; 1
    627a:	00 24       	eor	r0, r0
    627c:	96 95       	lsr	r25
    627e:	87 95       	ror	r24
    6280:	07 94       	ror	r0
    6282:	96 95       	lsr	r25
    6284:	87 95       	ror	r24
    6286:	07 94       	ror	r0
    6288:	98 2f       	mov	r25, r24
    628a:	80 2d       	mov	r24, r0
    628c:	89 51       	subi	r24, 0x19	; 25
    628e:	94 4f       	sbci	r25, 0xF4	; 244
    6290:	29 81       	ldd	r18, Y+1	; 0x01
    6292:	3a 81       	ldd	r19, Y+2	; 0x02
    6294:	fc 01       	movw	r30, r24
    6296:	31 83       	std	Z+1, r19	; 0x01
    6298:	20 83       	st	Z, r18
			break;
    629a:	c3 c2       	rjmp	.+1414   	; 0x6822 <usart0_deal+0xa0a>

		case IQR2_T1:
			time_ctrl_value_buff[module_num - 1][1][0] = variable;
    629c:	80 91 05 01 	lds	r24, 0x0105	; 0x800105 <module_num>
    62a0:	88 2f       	mov	r24, r24
    62a2:	90 e0       	ldi	r25, 0x00	; 0
    62a4:	01 97       	sbiw	r24, 0x01	; 1
    62a6:	00 24       	eor	r0, r0
    62a8:	96 95       	lsr	r25
    62aa:	87 95       	ror	r24
    62ac:	07 94       	ror	r0
    62ae:	96 95       	lsr	r25
    62b0:	87 95       	ror	r24
    62b2:	07 94       	ror	r0
    62b4:	98 2f       	mov	r25, r24
    62b6:	80 2d       	mov	r24, r0
    62b8:	87 51       	subi	r24, 0x17	; 23
    62ba:	94 4f       	sbci	r25, 0xF4	; 244
    62bc:	29 81       	ldd	r18, Y+1	; 0x01
    62be:	3a 81       	ldd	r19, Y+2	; 0x02
    62c0:	fc 01       	movw	r30, r24
    62c2:	31 83       	std	Z+1, r19	; 0x01
    62c4:	20 83       	st	Z, r18
			break;
    62c6:	ad c2       	rjmp	.+1370   	; 0x6822 <usart0_deal+0xa0a>
		case IQR2_T2:
			time_ctrl_value_buff[module_num - 1][1][1] = variable;
    62c8:	80 91 05 01 	lds	r24, 0x0105	; 0x800105 <module_num>
    62cc:	88 2f       	mov	r24, r24
    62ce:	90 e0       	ldi	r25, 0x00	; 0
    62d0:	01 97       	sbiw	r24, 0x01	; 1
    62d2:	00 24       	eor	r0, r0
    62d4:	96 95       	lsr	r25
    62d6:	87 95       	ror	r24
    62d8:	07 94       	ror	r0
    62da:	96 95       	lsr	r25
    62dc:	87 95       	ror	r24
    62de:	07 94       	ror	r0
    62e0:	98 2f       	mov	r25, r24
    62e2:	80 2d       	mov	r24, r0
    62e4:	85 51       	subi	r24, 0x15	; 21
    62e6:	94 4f       	sbci	r25, 0xF4	; 244
    62e8:	29 81       	ldd	r18, Y+1	; 0x01
    62ea:	3a 81       	ldd	r19, Y+2	; 0x02
    62ec:	fc 01       	movw	r30, r24
    62ee:	31 83       	std	Z+1, r19	; 0x01
    62f0:	20 83       	st	Z, r18
			break;
    62f2:	97 c2       	rjmp	.+1326   	; 0x6822 <usart0_deal+0xa0a>
		case IQR2_T3:
			time_ctrl_value_buff[module_num - 1][1][2] = variable;
    62f4:	80 91 05 01 	lds	r24, 0x0105	; 0x800105 <module_num>
    62f8:	88 2f       	mov	r24, r24
    62fa:	90 e0       	ldi	r25, 0x00	; 0
    62fc:	01 97       	sbiw	r24, 0x01	; 1
    62fe:	00 24       	eor	r0, r0
    6300:	96 95       	lsr	r25
    6302:	87 95       	ror	r24
    6304:	07 94       	ror	r0
    6306:	96 95       	lsr	r25
    6308:	87 95       	ror	r24
    630a:	07 94       	ror	r0
    630c:	98 2f       	mov	r25, r24
    630e:	80 2d       	mov	r24, r0
    6310:	83 51       	subi	r24, 0x13	; 19
    6312:	94 4f       	sbci	r25, 0xF4	; 244
    6314:	29 81       	ldd	r18, Y+1	; 0x01
    6316:	3a 81       	ldd	r19, Y+2	; 0x02
    6318:	fc 01       	movw	r30, r24
    631a:	31 83       	std	Z+1, r19	; 0x01
    631c:	20 83       	st	Z, r18
			break;
    631e:	81 c2       	rjmp	.+1282   	; 0x6822 <usart0_deal+0xa0a>
		case IQR2_T4:
			time_ctrl_value_buff[module_num - 1][1][3] = variable;
    6320:	80 91 05 01 	lds	r24, 0x0105	; 0x800105 <module_num>
    6324:	88 2f       	mov	r24, r24
    6326:	90 e0       	ldi	r25, 0x00	; 0
    6328:	01 97       	sbiw	r24, 0x01	; 1
    632a:	00 24       	eor	r0, r0
    632c:	96 95       	lsr	r25
    632e:	87 95       	ror	r24
    6330:	07 94       	ror	r0
    6332:	96 95       	lsr	r25
    6334:	87 95       	ror	r24
    6336:	07 94       	ror	r0
    6338:	98 2f       	mov	r25, r24
    633a:	80 2d       	mov	r24, r0
    633c:	81 51       	subi	r24, 0x11	; 17
    633e:	94 4f       	sbci	r25, 0xF4	; 244
    6340:	29 81       	ldd	r18, Y+1	; 0x01
    6342:	3a 81       	ldd	r19, Y+2	; 0x02
    6344:	fc 01       	movw	r30, r24
    6346:	31 83       	std	Z+1, r19	; 0x01
    6348:	20 83       	st	Z, r18
			break;
    634a:	6b c2       	rjmp	.+1238   	; 0x6822 <usart0_deal+0xa0a>

		case IQR3_T1:
			time_ctrl_value_buff[module_num - 1][2][0] = variable;
    634c:	80 91 05 01 	lds	r24, 0x0105	; 0x800105 <module_num>
    6350:	88 2f       	mov	r24, r24
    6352:	90 e0       	ldi	r25, 0x00	; 0
    6354:	01 97       	sbiw	r24, 0x01	; 1
    6356:	00 24       	eor	r0, r0
    6358:	96 95       	lsr	r25
    635a:	87 95       	ror	r24
    635c:	07 94       	ror	r0
    635e:	96 95       	lsr	r25
    6360:	87 95       	ror	r24
    6362:	07 94       	ror	r0
    6364:	98 2f       	mov	r25, r24
    6366:	80 2d       	mov	r24, r0
    6368:	8f 50       	subi	r24, 0x0F	; 15
    636a:	94 4f       	sbci	r25, 0xF4	; 244
    636c:	29 81       	ldd	r18, Y+1	; 0x01
    636e:	3a 81       	ldd	r19, Y+2	; 0x02
    6370:	fc 01       	movw	r30, r24
    6372:	31 83       	std	Z+1, r19	; 0x01
    6374:	20 83       	st	Z, r18
			break;
    6376:	55 c2       	rjmp	.+1194   	; 0x6822 <usart0_deal+0xa0a>
		case IQR3_T2:
			time_ctrl_value_buff[module_num - 1][2][1] = variable;
    6378:	80 91 05 01 	lds	r24, 0x0105	; 0x800105 <module_num>
    637c:	88 2f       	mov	r24, r24
    637e:	90 e0       	ldi	r25, 0x00	; 0
    6380:	01 97       	sbiw	r24, 0x01	; 1
    6382:	00 24       	eor	r0, r0
    6384:	96 95       	lsr	r25
    6386:	87 95       	ror	r24
    6388:	07 94       	ror	r0
    638a:	96 95       	lsr	r25
    638c:	87 95       	ror	r24
    638e:	07 94       	ror	r0
    6390:	98 2f       	mov	r25, r24
    6392:	80 2d       	mov	r24, r0
    6394:	8d 50       	subi	r24, 0x0D	; 13
    6396:	94 4f       	sbci	r25, 0xF4	; 244
    6398:	29 81       	ldd	r18, Y+1	; 0x01
    639a:	3a 81       	ldd	r19, Y+2	; 0x02
    639c:	fc 01       	movw	r30, r24
    639e:	31 83       	std	Z+1, r19	; 0x01
    63a0:	20 83       	st	Z, r18
			break;
    63a2:	3f c2       	rjmp	.+1150   	; 0x6822 <usart0_deal+0xa0a>
		case IQR3_T3:
			time_ctrl_value_buff[module_num - 1][2][2] = variable;
    63a4:	80 91 05 01 	lds	r24, 0x0105	; 0x800105 <module_num>
    63a8:	88 2f       	mov	r24, r24
    63aa:	90 e0       	ldi	r25, 0x00	; 0
    63ac:	01 97       	sbiw	r24, 0x01	; 1
    63ae:	00 24       	eor	r0, r0
    63b0:	96 95       	lsr	r25
    63b2:	87 95       	ror	r24
    63b4:	07 94       	ror	r0
    63b6:	96 95       	lsr	r25
    63b8:	87 95       	ror	r24
    63ba:	07 94       	ror	r0
    63bc:	98 2f       	mov	r25, r24
    63be:	80 2d       	mov	r24, r0
    63c0:	8b 50       	subi	r24, 0x0B	; 11
    63c2:	94 4f       	sbci	r25, 0xF4	; 244
    63c4:	29 81       	ldd	r18, Y+1	; 0x01
    63c6:	3a 81       	ldd	r19, Y+2	; 0x02
    63c8:	fc 01       	movw	r30, r24
    63ca:	31 83       	std	Z+1, r19	; 0x01
    63cc:	20 83       	st	Z, r18
			break;
    63ce:	29 c2       	rjmp	.+1106   	; 0x6822 <usart0_deal+0xa0a>
		case IQR3_T4:
			time_ctrl_value_buff[module_num - 1][2][3] = variable;
    63d0:	80 91 05 01 	lds	r24, 0x0105	; 0x800105 <module_num>
    63d4:	88 2f       	mov	r24, r24
    63d6:	90 e0       	ldi	r25, 0x00	; 0
    63d8:	01 97       	sbiw	r24, 0x01	; 1
    63da:	00 24       	eor	r0, r0
    63dc:	96 95       	lsr	r25
    63de:	87 95       	ror	r24
    63e0:	07 94       	ror	r0
    63e2:	96 95       	lsr	r25
    63e4:	87 95       	ror	r24
    63e6:	07 94       	ror	r0
    63e8:	98 2f       	mov	r25, r24
    63ea:	80 2d       	mov	r24, r0
    63ec:	89 50       	subi	r24, 0x09	; 9
    63ee:	94 4f       	sbci	r25, 0xF4	; 244
    63f0:	29 81       	ldd	r18, Y+1	; 0x01
    63f2:	3a 81       	ldd	r19, Y+2	; 0x02
    63f4:	fc 01       	movw	r30, r24
    63f6:	31 83       	std	Z+1, r19	; 0x01
    63f8:	20 83       	st	Z, r18
			break;
    63fa:	13 c2       	rjmp	.+1062   	; 0x6822 <usart0_deal+0xa0a>

		case IQR4_T1:
			time_ctrl_value_buff[module_num - 1][3][0] = variable;
    63fc:	80 91 05 01 	lds	r24, 0x0105	; 0x800105 <module_num>
    6400:	88 2f       	mov	r24, r24
    6402:	90 e0       	ldi	r25, 0x00	; 0
    6404:	01 97       	sbiw	r24, 0x01	; 1
    6406:	00 24       	eor	r0, r0
    6408:	96 95       	lsr	r25
    640a:	87 95       	ror	r24
    640c:	07 94       	ror	r0
    640e:	96 95       	lsr	r25
    6410:	87 95       	ror	r24
    6412:	07 94       	ror	r0
    6414:	98 2f       	mov	r25, r24
    6416:	80 2d       	mov	r24, r0
    6418:	87 50       	subi	r24, 0x07	; 7
    641a:	94 4f       	sbci	r25, 0xF4	; 244
    641c:	29 81       	ldd	r18, Y+1	; 0x01
    641e:	3a 81       	ldd	r19, Y+2	; 0x02
    6420:	fc 01       	movw	r30, r24
    6422:	31 83       	std	Z+1, r19	; 0x01
    6424:	20 83       	st	Z, r18
			break;
    6426:	fd c1       	rjmp	.+1018   	; 0x6822 <usart0_deal+0xa0a>
		case IQR4_T2:
			time_ctrl_value_buff[module_num - 1][3][1] = variable;
    6428:	80 91 05 01 	lds	r24, 0x0105	; 0x800105 <module_num>
    642c:	88 2f       	mov	r24, r24
    642e:	90 e0       	ldi	r25, 0x00	; 0
    6430:	01 97       	sbiw	r24, 0x01	; 1
    6432:	00 24       	eor	r0, r0
    6434:	96 95       	lsr	r25
    6436:	87 95       	ror	r24
    6438:	07 94       	ror	r0
    643a:	96 95       	lsr	r25
    643c:	87 95       	ror	r24
    643e:	07 94       	ror	r0
    6440:	98 2f       	mov	r25, r24
    6442:	80 2d       	mov	r24, r0
    6444:	85 50       	subi	r24, 0x05	; 5
    6446:	94 4f       	sbci	r25, 0xF4	; 244
    6448:	29 81       	ldd	r18, Y+1	; 0x01
    644a:	3a 81       	ldd	r19, Y+2	; 0x02
    644c:	fc 01       	movw	r30, r24
    644e:	31 83       	std	Z+1, r19	; 0x01
    6450:	20 83       	st	Z, r18
			break;
    6452:	e7 c1       	rjmp	.+974    	; 0x6822 <usart0_deal+0xa0a>
		case IQR4_T3:
			time_ctrl_value_buff[module_num - 1][3][2] = variable;
    6454:	80 91 05 01 	lds	r24, 0x0105	; 0x800105 <module_num>
    6458:	88 2f       	mov	r24, r24
    645a:	90 e0       	ldi	r25, 0x00	; 0
    645c:	01 97       	sbiw	r24, 0x01	; 1
    645e:	00 24       	eor	r0, r0
    6460:	96 95       	lsr	r25
    6462:	87 95       	ror	r24
    6464:	07 94       	ror	r0
    6466:	96 95       	lsr	r25
    6468:	87 95       	ror	r24
    646a:	07 94       	ror	r0
    646c:	98 2f       	mov	r25, r24
    646e:	80 2d       	mov	r24, r0
    6470:	83 50       	subi	r24, 0x03	; 3
    6472:	94 4f       	sbci	r25, 0xF4	; 244
    6474:	29 81       	ldd	r18, Y+1	; 0x01
    6476:	3a 81       	ldd	r19, Y+2	; 0x02
    6478:	fc 01       	movw	r30, r24
    647a:	31 83       	std	Z+1, r19	; 0x01
    647c:	20 83       	st	Z, r18
			break;
    647e:	d1 c1       	rjmp	.+930    	; 0x6822 <usart0_deal+0xa0a>
		case IQR4_T4:
			time_ctrl_value_buff[module_num - 1][3][3] = variable;
    6480:	80 91 05 01 	lds	r24, 0x0105	; 0x800105 <module_num>
    6484:	88 2f       	mov	r24, r24
    6486:	90 e0       	ldi	r25, 0x00	; 0
    6488:	01 97       	sbiw	r24, 0x01	; 1
    648a:	00 24       	eor	r0, r0
    648c:	96 95       	lsr	r25
    648e:	87 95       	ror	r24
    6490:	07 94       	ror	r0
    6492:	96 95       	lsr	r25
    6494:	87 95       	ror	r24
    6496:	07 94       	ror	r0
    6498:	98 2f       	mov	r25, r24
    649a:	80 2d       	mov	r24, r0
    649c:	81 50       	subi	r24, 0x01	; 1
    649e:	94 4f       	sbci	r25, 0xF4	; 244
    64a0:	29 81       	ldd	r18, Y+1	; 0x01
    64a2:	3a 81       	ldd	r19, Y+2	; 0x02
    64a4:	fc 01       	movw	r30, r24
    64a6:	31 83       	std	Z+1, r19	; 0x01
    64a8:	20 83       	st	Z, r18
			break;
    64aa:	bb c1       	rjmp	.+886    	; 0x6822 <usart0_deal+0xa0a>

		case IQR5_T1:
			time_ctrl_value_buff[module_num - 1][4][0] = variable;
    64ac:	80 91 05 01 	lds	r24, 0x0105	; 0x800105 <module_num>
    64b0:	88 2f       	mov	r24, r24
    64b2:	90 e0       	ldi	r25, 0x00	; 0
    64b4:	01 97       	sbiw	r24, 0x01	; 1
    64b6:	00 24       	eor	r0, r0
    64b8:	96 95       	lsr	r25
    64ba:	87 95       	ror	r24
    64bc:	07 94       	ror	r0
    64be:	96 95       	lsr	r25
    64c0:	87 95       	ror	r24
    64c2:	07 94       	ror	r0
    64c4:	98 2f       	mov	r25, r24
    64c6:	80 2d       	mov	r24, r0
    64c8:	8f 5f       	subi	r24, 0xFF	; 255
    64ca:	93 4f       	sbci	r25, 0xF3	; 243
    64cc:	29 81       	ldd	r18, Y+1	; 0x01
    64ce:	3a 81       	ldd	r19, Y+2	; 0x02
    64d0:	fc 01       	movw	r30, r24
    64d2:	31 83       	std	Z+1, r19	; 0x01
    64d4:	20 83       	st	Z, r18
			break;
    64d6:	a5 c1       	rjmp	.+842    	; 0x6822 <usart0_deal+0xa0a>
		case IQR5_T2:
			time_ctrl_value_buff[module_num - 1][4][1] = variable;
    64d8:	80 91 05 01 	lds	r24, 0x0105	; 0x800105 <module_num>
    64dc:	88 2f       	mov	r24, r24
    64de:	90 e0       	ldi	r25, 0x00	; 0
    64e0:	01 97       	sbiw	r24, 0x01	; 1
    64e2:	00 24       	eor	r0, r0
    64e4:	96 95       	lsr	r25
    64e6:	87 95       	ror	r24
    64e8:	07 94       	ror	r0
    64ea:	96 95       	lsr	r25
    64ec:	87 95       	ror	r24
    64ee:	07 94       	ror	r0
    64f0:	98 2f       	mov	r25, r24
    64f2:	80 2d       	mov	r24, r0
    64f4:	8d 5f       	subi	r24, 0xFD	; 253
    64f6:	93 4f       	sbci	r25, 0xF3	; 243
    64f8:	29 81       	ldd	r18, Y+1	; 0x01
    64fa:	3a 81       	ldd	r19, Y+2	; 0x02
    64fc:	fc 01       	movw	r30, r24
    64fe:	31 83       	std	Z+1, r19	; 0x01
    6500:	20 83       	st	Z, r18
			break;
    6502:	8f c1       	rjmp	.+798    	; 0x6822 <usart0_deal+0xa0a>
		case IQR5_T3:
			time_ctrl_value_buff[module_num - 1][4][2] = variable;
    6504:	80 91 05 01 	lds	r24, 0x0105	; 0x800105 <module_num>
    6508:	88 2f       	mov	r24, r24
    650a:	90 e0       	ldi	r25, 0x00	; 0
    650c:	01 97       	sbiw	r24, 0x01	; 1
    650e:	00 24       	eor	r0, r0
    6510:	96 95       	lsr	r25
    6512:	87 95       	ror	r24
    6514:	07 94       	ror	r0
    6516:	96 95       	lsr	r25
    6518:	87 95       	ror	r24
    651a:	07 94       	ror	r0
    651c:	98 2f       	mov	r25, r24
    651e:	80 2d       	mov	r24, r0
    6520:	8b 5f       	subi	r24, 0xFB	; 251
    6522:	93 4f       	sbci	r25, 0xF3	; 243
    6524:	29 81       	ldd	r18, Y+1	; 0x01
    6526:	3a 81       	ldd	r19, Y+2	; 0x02
    6528:	fc 01       	movw	r30, r24
    652a:	31 83       	std	Z+1, r19	; 0x01
    652c:	20 83       	st	Z, r18
			break;
    652e:	79 c1       	rjmp	.+754    	; 0x6822 <usart0_deal+0xa0a>
		case IQR5_T4:
			time_ctrl_value_buff[module_num - 1][4][3] = variable;
    6530:	80 91 05 01 	lds	r24, 0x0105	; 0x800105 <module_num>
    6534:	88 2f       	mov	r24, r24
    6536:	90 e0       	ldi	r25, 0x00	; 0
    6538:	01 97       	sbiw	r24, 0x01	; 1
    653a:	00 24       	eor	r0, r0
    653c:	96 95       	lsr	r25
    653e:	87 95       	ror	r24
    6540:	07 94       	ror	r0
    6542:	96 95       	lsr	r25
    6544:	87 95       	ror	r24
    6546:	07 94       	ror	r0
    6548:	98 2f       	mov	r25, r24
    654a:	80 2d       	mov	r24, r0
    654c:	89 5f       	subi	r24, 0xF9	; 249
    654e:	93 4f       	sbci	r25, 0xF3	; 243
    6550:	29 81       	ldd	r18, Y+1	; 0x01
    6552:	3a 81       	ldd	r19, Y+2	; 0x02
    6554:	fc 01       	movw	r30, r24
    6556:	31 83       	std	Z+1, r19	; 0x01
    6558:	20 83       	st	Z, r18
			break;
    655a:	63 c1       	rjmp	.+710    	; 0x6822 <usart0_deal+0xa0a>

		case IQR6_T1:
			time_ctrl_value_buff[module_num - 1][5][0] = variable;
    655c:	80 91 05 01 	lds	r24, 0x0105	; 0x800105 <module_num>
    6560:	88 2f       	mov	r24, r24
    6562:	90 e0       	ldi	r25, 0x00	; 0
    6564:	01 97       	sbiw	r24, 0x01	; 1
    6566:	00 24       	eor	r0, r0
    6568:	96 95       	lsr	r25
    656a:	87 95       	ror	r24
    656c:	07 94       	ror	r0
    656e:	96 95       	lsr	r25
    6570:	87 95       	ror	r24
    6572:	07 94       	ror	r0
    6574:	98 2f       	mov	r25, r24
    6576:	80 2d       	mov	r24, r0
    6578:	87 5f       	subi	r24, 0xF7	; 247
    657a:	93 4f       	sbci	r25, 0xF3	; 243
    657c:	29 81       	ldd	r18, Y+1	; 0x01
    657e:	3a 81       	ldd	r19, Y+2	; 0x02
    6580:	fc 01       	movw	r30, r24
    6582:	31 83       	std	Z+1, r19	; 0x01
    6584:	20 83       	st	Z, r18
			break;
    6586:	4d c1       	rjmp	.+666    	; 0x6822 <usart0_deal+0xa0a>
		case IQR6_T2:
			time_ctrl_value_buff[module_num - 1][5][1] = variable;
    6588:	80 91 05 01 	lds	r24, 0x0105	; 0x800105 <module_num>
    658c:	88 2f       	mov	r24, r24
    658e:	90 e0       	ldi	r25, 0x00	; 0
    6590:	01 97       	sbiw	r24, 0x01	; 1
    6592:	00 24       	eor	r0, r0
    6594:	96 95       	lsr	r25
    6596:	87 95       	ror	r24
    6598:	07 94       	ror	r0
    659a:	96 95       	lsr	r25
    659c:	87 95       	ror	r24
    659e:	07 94       	ror	r0
    65a0:	98 2f       	mov	r25, r24
    65a2:	80 2d       	mov	r24, r0
    65a4:	85 5f       	subi	r24, 0xF5	; 245
    65a6:	93 4f       	sbci	r25, 0xF3	; 243
    65a8:	29 81       	ldd	r18, Y+1	; 0x01
    65aa:	3a 81       	ldd	r19, Y+2	; 0x02
    65ac:	fc 01       	movw	r30, r24
    65ae:	31 83       	std	Z+1, r19	; 0x01
    65b0:	20 83       	st	Z, r18
			break;
    65b2:	37 c1       	rjmp	.+622    	; 0x6822 <usart0_deal+0xa0a>
		case IQR6_T3:
			time_ctrl_value_buff[module_num - 1][5][2] = variable;
    65b4:	80 91 05 01 	lds	r24, 0x0105	; 0x800105 <module_num>
    65b8:	88 2f       	mov	r24, r24
    65ba:	90 e0       	ldi	r25, 0x00	; 0
    65bc:	01 97       	sbiw	r24, 0x01	; 1
    65be:	00 24       	eor	r0, r0
    65c0:	96 95       	lsr	r25
    65c2:	87 95       	ror	r24
    65c4:	07 94       	ror	r0
    65c6:	96 95       	lsr	r25
    65c8:	87 95       	ror	r24
    65ca:	07 94       	ror	r0
    65cc:	98 2f       	mov	r25, r24
    65ce:	80 2d       	mov	r24, r0
    65d0:	83 5f       	subi	r24, 0xF3	; 243
    65d2:	93 4f       	sbci	r25, 0xF3	; 243
    65d4:	29 81       	ldd	r18, Y+1	; 0x01
    65d6:	3a 81       	ldd	r19, Y+2	; 0x02
    65d8:	fc 01       	movw	r30, r24
    65da:	31 83       	std	Z+1, r19	; 0x01
    65dc:	20 83       	st	Z, r18
			break;
    65de:	21 c1       	rjmp	.+578    	; 0x6822 <usart0_deal+0xa0a>
		case IQR6_T4:
			time_ctrl_value_buff[module_num - 1][5][3] = variable;
    65e0:	80 91 05 01 	lds	r24, 0x0105	; 0x800105 <module_num>
    65e4:	88 2f       	mov	r24, r24
    65e6:	90 e0       	ldi	r25, 0x00	; 0
    65e8:	01 97       	sbiw	r24, 0x01	; 1
    65ea:	00 24       	eor	r0, r0
    65ec:	96 95       	lsr	r25
    65ee:	87 95       	ror	r24
    65f0:	07 94       	ror	r0
    65f2:	96 95       	lsr	r25
    65f4:	87 95       	ror	r24
    65f6:	07 94       	ror	r0
    65f8:	98 2f       	mov	r25, r24
    65fa:	80 2d       	mov	r24, r0
    65fc:	81 5f       	subi	r24, 0xF1	; 241
    65fe:	93 4f       	sbci	r25, 0xF3	; 243
    6600:	29 81       	ldd	r18, Y+1	; 0x01
    6602:	3a 81       	ldd	r19, Y+2	; 0x02
    6604:	fc 01       	movw	r30, r24
    6606:	31 83       	std	Z+1, r19	; 0x01
    6608:	20 83       	st	Z, r18
			break;
    660a:	0b c1       	rjmp	.+534    	; 0x6822 <usart0_deal+0xa0a>

		case IQR7_T1:
			time_ctrl_value_buff[module_num - 1][6][0] = variable;
    660c:	80 91 05 01 	lds	r24, 0x0105	; 0x800105 <module_num>
    6610:	88 2f       	mov	r24, r24
    6612:	90 e0       	ldi	r25, 0x00	; 0
    6614:	01 97       	sbiw	r24, 0x01	; 1
    6616:	00 24       	eor	r0, r0
    6618:	96 95       	lsr	r25
    661a:	87 95       	ror	r24
    661c:	07 94       	ror	r0
    661e:	96 95       	lsr	r25
    6620:	87 95       	ror	r24
    6622:	07 94       	ror	r0
    6624:	98 2f       	mov	r25, r24
    6626:	80 2d       	mov	r24, r0
    6628:	8f 5e       	subi	r24, 0xEF	; 239
    662a:	93 4f       	sbci	r25, 0xF3	; 243
    662c:	29 81       	ldd	r18, Y+1	; 0x01
    662e:	3a 81       	ldd	r19, Y+2	; 0x02
    6630:	fc 01       	movw	r30, r24
    6632:	31 83       	std	Z+1, r19	; 0x01
    6634:	20 83       	st	Z, r18
			break;
    6636:	f5 c0       	rjmp	.+490    	; 0x6822 <usart0_deal+0xa0a>
		case IQR7_T2:
			time_ctrl_value_buff[module_num - 1][6][1] = variable;
    6638:	80 91 05 01 	lds	r24, 0x0105	; 0x800105 <module_num>
    663c:	88 2f       	mov	r24, r24
    663e:	90 e0       	ldi	r25, 0x00	; 0
    6640:	01 97       	sbiw	r24, 0x01	; 1
    6642:	00 24       	eor	r0, r0
    6644:	96 95       	lsr	r25
    6646:	87 95       	ror	r24
    6648:	07 94       	ror	r0
    664a:	96 95       	lsr	r25
    664c:	87 95       	ror	r24
    664e:	07 94       	ror	r0
    6650:	98 2f       	mov	r25, r24
    6652:	80 2d       	mov	r24, r0
    6654:	8d 5e       	subi	r24, 0xED	; 237
    6656:	93 4f       	sbci	r25, 0xF3	; 243
    6658:	29 81       	ldd	r18, Y+1	; 0x01
    665a:	3a 81       	ldd	r19, Y+2	; 0x02
    665c:	fc 01       	movw	r30, r24
    665e:	31 83       	std	Z+1, r19	; 0x01
    6660:	20 83       	st	Z, r18
			break;
    6662:	df c0       	rjmp	.+446    	; 0x6822 <usart0_deal+0xa0a>
		case IQR7_T3:
			time_ctrl_value_buff[module_num - 1][6][2] = variable;
    6664:	80 91 05 01 	lds	r24, 0x0105	; 0x800105 <module_num>
    6668:	88 2f       	mov	r24, r24
    666a:	90 e0       	ldi	r25, 0x00	; 0
    666c:	01 97       	sbiw	r24, 0x01	; 1
    666e:	00 24       	eor	r0, r0
    6670:	96 95       	lsr	r25
    6672:	87 95       	ror	r24
    6674:	07 94       	ror	r0
    6676:	96 95       	lsr	r25
    6678:	87 95       	ror	r24
    667a:	07 94       	ror	r0
    667c:	98 2f       	mov	r25, r24
    667e:	80 2d       	mov	r24, r0
    6680:	8b 5e       	subi	r24, 0xEB	; 235
    6682:	93 4f       	sbci	r25, 0xF3	; 243
    6684:	29 81       	ldd	r18, Y+1	; 0x01
    6686:	3a 81       	ldd	r19, Y+2	; 0x02
    6688:	fc 01       	movw	r30, r24
    668a:	31 83       	std	Z+1, r19	; 0x01
    668c:	20 83       	st	Z, r18
			break;
    668e:	c9 c0       	rjmp	.+402    	; 0x6822 <usart0_deal+0xa0a>
		case IQR7_T4:
			time_ctrl_value_buff[module_num - 1][6][3] = variable;
    6690:	80 91 05 01 	lds	r24, 0x0105	; 0x800105 <module_num>
    6694:	88 2f       	mov	r24, r24
    6696:	90 e0       	ldi	r25, 0x00	; 0
    6698:	01 97       	sbiw	r24, 0x01	; 1
    669a:	00 24       	eor	r0, r0
    669c:	96 95       	lsr	r25
    669e:	87 95       	ror	r24
    66a0:	07 94       	ror	r0
    66a2:	96 95       	lsr	r25
    66a4:	87 95       	ror	r24
    66a6:	07 94       	ror	r0
    66a8:	98 2f       	mov	r25, r24
    66aa:	80 2d       	mov	r24, r0
    66ac:	89 5e       	subi	r24, 0xE9	; 233
    66ae:	93 4f       	sbci	r25, 0xF3	; 243
    66b0:	29 81       	ldd	r18, Y+1	; 0x01
    66b2:	3a 81       	ldd	r19, Y+2	; 0x02
    66b4:	fc 01       	movw	r30, r24
    66b6:	31 83       	std	Z+1, r19	; 0x01
    66b8:	20 83       	st	Z, r18
			break;
    66ba:	b3 c0       	rjmp	.+358    	; 0x6822 <usart0_deal+0xa0a>

		case IQR8_T1:
			time_ctrl_value_buff[module_num - 1][7][0] = variable;
    66bc:	80 91 05 01 	lds	r24, 0x0105	; 0x800105 <module_num>
    66c0:	88 2f       	mov	r24, r24
    66c2:	90 e0       	ldi	r25, 0x00	; 0
    66c4:	01 97       	sbiw	r24, 0x01	; 1
    66c6:	00 24       	eor	r0, r0
    66c8:	96 95       	lsr	r25
    66ca:	87 95       	ror	r24
    66cc:	07 94       	ror	r0
    66ce:	96 95       	lsr	r25
    66d0:	87 95       	ror	r24
    66d2:	07 94       	ror	r0
    66d4:	98 2f       	mov	r25, r24
    66d6:	80 2d       	mov	r24, r0
    66d8:	87 5e       	subi	r24, 0xE7	; 231
    66da:	93 4f       	sbci	r25, 0xF3	; 243
    66dc:	29 81       	ldd	r18, Y+1	; 0x01
    66de:	3a 81       	ldd	r19, Y+2	; 0x02
    66e0:	fc 01       	movw	r30, r24
    66e2:	31 83       	std	Z+1, r19	; 0x01
    66e4:	20 83       	st	Z, r18
			break;
    66e6:	9d c0       	rjmp	.+314    	; 0x6822 <usart0_deal+0xa0a>
		case IQR8_T2:
			time_ctrl_value_buff[module_num - 1][7][1] = variable;
    66e8:	80 91 05 01 	lds	r24, 0x0105	; 0x800105 <module_num>
    66ec:	88 2f       	mov	r24, r24
    66ee:	90 e0       	ldi	r25, 0x00	; 0
    66f0:	01 97       	sbiw	r24, 0x01	; 1
    66f2:	00 24       	eor	r0, r0
    66f4:	96 95       	lsr	r25
    66f6:	87 95       	ror	r24
    66f8:	07 94       	ror	r0
    66fa:	96 95       	lsr	r25
    66fc:	87 95       	ror	r24
    66fe:	07 94       	ror	r0
    6700:	98 2f       	mov	r25, r24
    6702:	80 2d       	mov	r24, r0
    6704:	85 5e       	subi	r24, 0xE5	; 229
    6706:	93 4f       	sbci	r25, 0xF3	; 243
    6708:	29 81       	ldd	r18, Y+1	; 0x01
    670a:	3a 81       	ldd	r19, Y+2	; 0x02
    670c:	fc 01       	movw	r30, r24
    670e:	31 83       	std	Z+1, r19	; 0x01
    6710:	20 83       	st	Z, r18
			break;
    6712:	87 c0       	rjmp	.+270    	; 0x6822 <usart0_deal+0xa0a>
		case IQR8_T3:
			time_ctrl_value_buff[module_num - 1][7][2] = variable;
    6714:	80 91 05 01 	lds	r24, 0x0105	; 0x800105 <module_num>
    6718:	88 2f       	mov	r24, r24
    671a:	90 e0       	ldi	r25, 0x00	; 0
    671c:	01 97       	sbiw	r24, 0x01	; 1
    671e:	00 24       	eor	r0, r0
    6720:	96 95       	lsr	r25
    6722:	87 95       	ror	r24
    6724:	07 94       	ror	r0
    6726:	96 95       	lsr	r25
    6728:	87 95       	ror	r24
    672a:	07 94       	ror	r0
    672c:	98 2f       	mov	r25, r24
    672e:	80 2d       	mov	r24, r0
    6730:	83 5e       	subi	r24, 0xE3	; 227
    6732:	93 4f       	sbci	r25, 0xF3	; 243
    6734:	29 81       	ldd	r18, Y+1	; 0x01
    6736:	3a 81       	ldd	r19, Y+2	; 0x02
    6738:	fc 01       	movw	r30, r24
    673a:	31 83       	std	Z+1, r19	; 0x01
    673c:	20 83       	st	Z, r18
			break;
    673e:	71 c0       	rjmp	.+226    	; 0x6822 <usart0_deal+0xa0a>
		case IQR8_T4:
			time_ctrl_value_buff[module_num - 1][7][3] = variable;
    6740:	80 91 05 01 	lds	r24, 0x0105	; 0x800105 <module_num>
    6744:	88 2f       	mov	r24, r24
    6746:	90 e0       	ldi	r25, 0x00	; 0
    6748:	01 97       	sbiw	r24, 0x01	; 1
    674a:	00 24       	eor	r0, r0
    674c:	96 95       	lsr	r25
    674e:	87 95       	ror	r24
    6750:	07 94       	ror	r0
    6752:	96 95       	lsr	r25
    6754:	87 95       	ror	r24
    6756:	07 94       	ror	r0
    6758:	98 2f       	mov	r25, r24
    675a:	80 2d       	mov	r24, r0
    675c:	81 5e       	subi	r24, 0xE1	; 225
    675e:	93 4f       	sbci	r25, 0xF3	; 243
    6760:	29 81       	ldd	r18, Y+1	; 0x01
    6762:	3a 81       	ldd	r19, Y+2	; 0x02
    6764:	fc 01       	movw	r30, r24
    6766:	31 83       	std	Z+1, r19	; 0x01
    6768:	20 83       	st	Z, r18
			break;
    676a:	5b c0       	rjmp	.+182    	; 0x6822 <usart0_deal+0xa0a>
		case TEMPLATE_FIND_NAME:
			tp_find_name = get_name();	
    676c:	0e 94 0d 14 	call	0x281a	; 0x281a <get_name>
    6770:	dc 01       	movw	r26, r24
    6772:	cb 01       	movw	r24, r22
    6774:	80 93 c3 02 	sts	0x02C3, r24	; 0x8002c3 <tp_find_name>
    6778:	90 93 c4 02 	sts	0x02C4, r25	; 0x8002c4 <tp_find_name+0x1>
    677c:	a0 93 c5 02 	sts	0x02C5, r26	; 0x8002c5 <tp_find_name+0x2>
    6780:	b0 93 c6 02 	sts	0x02C6, r27	; 0x8002c6 <tp_find_name+0x3>
			break;
    6784:	4e c0       	rjmp	.+156    	; 0x6822 <usart0_deal+0xa0a>
		case TEMPLATE_SAVE_NAME:
			tp_save_name = get_name();
    6786:	0e 94 0d 14 	call	0x281a	; 0x281a <get_name>
    678a:	dc 01       	movw	r26, r24
    678c:	cb 01       	movw	r24, r22
    678e:	80 93 c7 02 	sts	0x02C7, r24	; 0x8002c7 <tp_save_name>
    6792:	90 93 c8 02 	sts	0x02C8, r25	; 0x8002c8 <tp_save_name+0x1>
    6796:	a0 93 c9 02 	sts	0x02C9, r26	; 0x8002c9 <tp_save_name+0x2>
    679a:	b0 93 ca 02 	sts	0x02CA, r27	; 0x8002ca <tp_save_name+0x3>
			break;
    679e:	41 c0       	rjmp	.+130    	; 0x6822 <usart0_deal+0xa0a>
		case TEMPLATE_NAME1:
			set_template_name(pre_first_tpnum, get_name());
    67a0:	0e 94 0d 14 	call	0x281a	; 0x281a <get_name>
    67a4:	dc 01       	movw	r26, r24
    67a6:	cb 01       	movw	r24, r22
    67a8:	20 91 06 01 	lds	r18, 0x0106	; 0x800106 <pre_first_tpnum>
    67ac:	ac 01       	movw	r20, r24
    67ae:	bd 01       	movw	r22, r26
    67b0:	82 2f       	mov	r24, r18
    67b2:	0e 94 dc 02 	call	0x5b8	; 0x5b8 <set_template_name>
			break;
    67b6:	35 c0       	rjmp	.+106    	; 0x6822 <usart0_deal+0xa0a>
		case TEMPLATE_NAME2:
			set_template_name(pre_first_tpnum+1, get_name());
    67b8:	0e 94 0d 14 	call	0x281a	; 0x281a <get_name>
    67bc:	dc 01       	movw	r26, r24
    67be:	cb 01       	movw	r24, r22
    67c0:	20 91 06 01 	lds	r18, 0x0106	; 0x800106 <pre_first_tpnum>
    67c4:	2f 5f       	subi	r18, 0xFF	; 255
    67c6:	ac 01       	movw	r20, r24
    67c8:	bd 01       	movw	r22, r26
    67ca:	82 2f       	mov	r24, r18
    67cc:	0e 94 dc 02 	call	0x5b8	; 0x5b8 <set_template_name>
			break;
    67d0:	28 c0       	rjmp	.+80     	; 0x6822 <usart0_deal+0xa0a>
		case TEMPLATE_NAME3:
			set_template_name(pre_first_tpnum+2, get_name());
    67d2:	0e 94 0d 14 	call	0x281a	; 0x281a <get_name>
    67d6:	dc 01       	movw	r26, r24
    67d8:	cb 01       	movw	r24, r22
    67da:	20 91 06 01 	lds	r18, 0x0106	; 0x800106 <pre_first_tpnum>
    67de:	2e 5f       	subi	r18, 0xFE	; 254
    67e0:	ac 01       	movw	r20, r24
    67e2:	bd 01       	movw	r22, r26
    67e4:	82 2f       	mov	r24, r18
    67e6:	0e 94 dc 02 	call	0x5b8	; 0x5b8 <set_template_name>
			break;
    67ea:	1b c0       	rjmp	.+54     	; 0x6822 <usart0_deal+0xa0a>
		case TEMPLATE_NAME4:
			set_template_name(pre_first_tpnum+3, get_name());
    67ec:	0e 94 0d 14 	call	0x281a	; 0x281a <get_name>
    67f0:	dc 01       	movw	r26, r24
    67f2:	cb 01       	movw	r24, r22
    67f4:	20 91 06 01 	lds	r18, 0x0106	; 0x800106 <pre_first_tpnum>
    67f8:	2d 5f       	subi	r18, 0xFD	; 253
    67fa:	ac 01       	movw	r20, r24
    67fc:	bd 01       	movw	r22, r26
    67fe:	82 2f       	mov	r24, r18
    6800:	0e 94 dc 02 	call	0x5b8	; 0x5b8 <set_template_name>
			break;
    6804:	0e c0       	rjmp	.+28     	; 0x6822 <usart0_deal+0xa0a>
		case TEMPLATE_NAME5:
			set_template_name(pre_first_tpnum+4, get_name());
    6806:	0e 94 0d 14 	call	0x281a	; 0x281a <get_name>
    680a:	dc 01       	movw	r26, r24
    680c:	cb 01       	movw	r24, r22
    680e:	20 91 06 01 	lds	r18, 0x0106	; 0x800106 <pre_first_tpnum>
    6812:	2c 5f       	subi	r18, 0xFC	; 252
    6814:	ac 01       	movw	r20, r24
    6816:	bd 01       	movw	r22, r26
    6818:	82 2f       	mov	r24, r18
    681a:	0e 94 dc 02 	call	0x5b8	; 0x5b8 <set_template_name>
			break;
    681e:	01 c0       	rjmp	.+2      	; 0x6822 <usart0_deal+0xa0a>
		default:
			break;
    6820:	00 00       	nop
		}
	}

	return 0;
    6822:	80 e0       	ldi	r24, 0x00	; 0
    6824:	90 e0       	ldi	r25, 0x00	; 0
}
    6826:	26 96       	adiw	r28, 0x06	; 6
    6828:	0f b6       	in	r0, 0x3f	; 63
    682a:	f8 94       	cli
    682c:	de bf       	out	0x3e, r29	; 62
    682e:	0f be       	out	0x3f, r0	; 63
    6830:	cd bf       	out	0x3d, r28	; 61
    6832:	df 91       	pop	r29
    6834:	cf 91       	pop	r28
    6836:	08 95       	ret

00006838 <usart1_deal>:

int usart1_deal(void)
{
    6838:	cf 93       	push	r28
    683a:	df 93       	push	r29
    683c:	00 d0       	rcall	.+0      	; 0x683e <usart1_deal+0x6>
    683e:	cd b7       	in	r28, 0x3d	; 61
    6840:	de b7       	in	r29, 0x3e	; 62
	uint16_t crc_data = 0;
    6842:	1a 82       	std	Y+2, r1	; 0x02
    6844:	19 82       	std	Y+1, r1	; 0x01

	crc_data = usart1_rx_buff[usart1_rx_lenth - 1];
    6846:	80 91 04 06 	lds	r24, 0x0604	; 0x800604 <usart1_rx_lenth>
    684a:	88 2f       	mov	r24, r24
    684c:	90 e0       	ldi	r25, 0x00	; 0
    684e:	01 97       	sbiw	r24, 0x01	; 1
    6850:	8d 58       	subi	r24, 0x8D	; 141
    6852:	9b 4f       	sbci	r25, 0xFB	; 251
    6854:	fc 01       	movw	r30, r24
    6856:	80 81       	ld	r24, Z
    6858:	88 2f       	mov	r24, r24
    685a:	90 e0       	ldi	r25, 0x00	; 0
    685c:	9a 83       	std	Y+2, r25	; 0x02
    685e:	89 83       	std	Y+1, r24	; 0x01
	crc_data = (crc_data << 8) + usart1_rx_buff[usart1_rx_lenth - 2];
    6860:	89 81       	ldd	r24, Y+1	; 0x01
    6862:	9a 81       	ldd	r25, Y+2	; 0x02
    6864:	38 2f       	mov	r19, r24
    6866:	22 27       	eor	r18, r18
    6868:	80 91 04 06 	lds	r24, 0x0604	; 0x800604 <usart1_rx_lenth>
    686c:	88 2f       	mov	r24, r24
    686e:	90 e0       	ldi	r25, 0x00	; 0
    6870:	02 97       	sbiw	r24, 0x02	; 2
    6872:	8d 58       	subi	r24, 0x8D	; 141
    6874:	9b 4f       	sbci	r25, 0xFB	; 251
    6876:	fc 01       	movw	r30, r24
    6878:	80 81       	ld	r24, Z
    687a:	88 2f       	mov	r24, r24
    687c:	90 e0       	ldi	r25, 0x00	; 0
    687e:	82 0f       	add	r24, r18
    6880:	93 1f       	adc	r25, r19
    6882:	9a 83       	std	Y+2, r25	; 0x02
    6884:	89 83       	std	Y+1, r24	; 0x01

	if ((usart1_rx_buff[0] != 0xA5) || (usart1_rx_buff[1] != 0x5A))
    6886:	80 91 73 04 	lds	r24, 0x0473	; 0x800473 <usart1_rx_buff>
    688a:	85 3a       	cpi	r24, 0xA5	; 165
    688c:	21 f4       	brne	.+8      	; 0x6896 <usart1_deal+0x5e>
    688e:	80 91 74 04 	lds	r24, 0x0474	; 0x800474 <usart1_rx_buff+0x1>
    6892:	8a 35       	cpi	r24, 0x5A	; 90
    6894:	29 f0       	breq	.+10     	; 0x68a0 <usart1_deal+0x68>
	{
		usart1_rx_end = 0;
    6896:	10 92 03 06 	sts	0x0603, r1	; 0x800603 <usart1_rx_end>
		return 0;
    689a:	80 e0       	ldi	r24, 0x00	; 0
    689c:	90 e0       	ldi	r25, 0x00	; 0
    689e:	24 c0       	rjmp	.+72     	; 0x68e8 <usart1_deal+0xb0>
	}

	if ((usart1_rx_buff[2] + 5) != usart1_rx_lenth)
    68a0:	80 91 75 04 	lds	r24, 0x0475	; 0x800475 <usart1_rx_buff+0x2>
    68a4:	88 2f       	mov	r24, r24
    68a6:	90 e0       	ldi	r25, 0x00	; 0
    68a8:	9c 01       	movw	r18, r24
    68aa:	2b 5f       	subi	r18, 0xFB	; 251
    68ac:	3f 4f       	sbci	r19, 0xFF	; 255
    68ae:	80 91 04 06 	lds	r24, 0x0604	; 0x800604 <usart1_rx_lenth>
    68b2:	88 2f       	mov	r24, r24
    68b4:	90 e0       	ldi	r25, 0x00	; 0
    68b6:	28 17       	cp	r18, r24
    68b8:	39 07       	cpc	r19, r25
    68ba:	29 f0       	breq	.+10     	; 0x68c6 <usart1_deal+0x8e>
	{
		usart1_rx_end = 0;
    68bc:	10 92 03 06 	sts	0x0603, r1	; 0x800603 <usart1_rx_end>
		return 0;
    68c0:	80 e0       	ldi	r24, 0x00	; 0
    68c2:	90 e0       	ldi	r25, 0x00	; 0
    68c4:	11 c0       	rjmp	.+34     	; 0x68e8 <usart1_deal+0xb0>
	// 	{
	// 		usart1_rx_end = 0;
	// 		return 0;
	// 	}

	if (RX1_COMMAND == READ_DATA_ALL)
    68c6:	80 91 76 04 	lds	r24, 0x0476	; 0x800476 <usart1_rx_buff+0x3>
    68ca:	81 30       	cpi	r24, 0x01	; 1
    68cc:	19 f4       	brne	.+6      	; 0x68d4 <usart1_deal+0x9c>
	{
		get_data_all();
    68ce:	0e 94 91 20 	call	0x4122	; 0x4122 <get_data_all>
    68d2:	08 c0       	rjmp	.+16     	; 0x68e4 <usart1_deal+0xac>
	}
	else if (RX1_COMMAND == READ_SETTING_DATA)
    68d4:	80 91 76 04 	lds	r24, 0x0476	; 0x800476 <usart1_rx_buff+0x3>
    68d8:	87 30       	cpi	r24, 0x07	; 7
    68da:	21 f4       	brne	.+8      	; 0x68e4 <usart1_deal+0xac>
	{
		get_setting_data(usart1_rx_buff[4]);
    68dc:	80 91 77 04 	lds	r24, 0x0477	; 0x800477 <usart1_rx_buff+0x4>
    68e0:	0e 94 62 1e 	call	0x3cc4	; 0x3cc4 <get_setting_data>
	}

	return 0;
    68e4:	80 e0       	ldi	r24, 0x00	; 0
    68e6:	90 e0       	ldi	r25, 0x00	; 0
}
    68e8:	0f 90       	pop	r0
    68ea:	0f 90       	pop	r0
    68ec:	df 91       	pop	r29
    68ee:	cf 91       	pop	r28
    68f0:	08 95       	ret

000068f2 <usart0_send_char>:

void usart0_send_char(uint8_t data)
{
    68f2:	cf 93       	push	r28
    68f4:	df 93       	push	r29
    68f6:	1f 92       	push	r1
    68f8:	cd b7       	in	r28, 0x3d	; 61
    68fa:	de b7       	in	r29, 0x3e	; 62
    68fc:	89 83       	std	Y+1, r24	; 0x01
	while (!(UCSR0A & (1 << UDRE0)))
    68fe:	00 00       	nop
    6900:	8b e2       	ldi	r24, 0x2B	; 43
    6902:	90 e0       	ldi	r25, 0x00	; 0
    6904:	fc 01       	movw	r30, r24
    6906:	80 81       	ld	r24, Z
    6908:	88 2f       	mov	r24, r24
    690a:	90 e0       	ldi	r25, 0x00	; 0
    690c:	80 72       	andi	r24, 0x20	; 32
    690e:	99 27       	eor	r25, r25
    6910:	89 2b       	or	r24, r25
    6912:	b1 f3       	breq	.-20     	; 0x6900 <usart0_send_char+0xe>
		;
	UDR0 = data;
    6914:	8c e2       	ldi	r24, 0x2C	; 44
    6916:	90 e0       	ldi	r25, 0x00	; 0
    6918:	29 81       	ldd	r18, Y+1	; 0x01
    691a:	fc 01       	movw	r30, r24
    691c:	20 83       	st	Z, r18
}
    691e:	00 00       	nop
    6920:	0f 90       	pop	r0
    6922:	df 91       	pop	r29
    6924:	cf 91       	pop	r28
    6926:	08 95       	ret

00006928 <usart0_send_str>:

void usart0_send_str(uint8_t *str, uint8_t data_size)
{
    6928:	cf 93       	push	r28
    692a:	df 93       	push	r29
    692c:	00 d0       	rcall	.+0      	; 0x692e <usart0_send_str+0x6>
    692e:	00 d0       	rcall	.+0      	; 0x6930 <usart0_send_str+0x8>
    6930:	cd b7       	in	r28, 0x3d	; 61
    6932:	de b7       	in	r29, 0x3e	; 62
    6934:	9b 83       	std	Y+3, r25	; 0x03
    6936:	8a 83       	std	Y+2, r24	; 0x02
    6938:	6c 83       	std	Y+4, r22	; 0x04
	uint8_t i = 0;
    693a:	19 82       	std	Y+1, r1	; 0x01

	for (i = 0; i < data_size; i++)
    693c:	19 82       	std	Y+1, r1	; 0x01
    693e:	0e c0       	rjmp	.+28     	; 0x695c <usart0_send_str+0x34>
	{
		usart0_send_char(*str++);
    6940:	8a 81       	ldd	r24, Y+2	; 0x02
    6942:	9b 81       	ldd	r25, Y+3	; 0x03
    6944:	9c 01       	movw	r18, r24
    6946:	2f 5f       	subi	r18, 0xFF	; 255
    6948:	3f 4f       	sbci	r19, 0xFF	; 255
    694a:	3b 83       	std	Y+3, r19	; 0x03
    694c:	2a 83       	std	Y+2, r18	; 0x02
    694e:	fc 01       	movw	r30, r24
    6950:	80 81       	ld	r24, Z
    6952:	0e 94 79 34 	call	0x68f2	; 0x68f2 <usart0_send_char>

void usart0_send_str(uint8_t *str, uint8_t data_size)
{
	uint8_t i = 0;

	for (i = 0; i < data_size; i++)
    6956:	89 81       	ldd	r24, Y+1	; 0x01
    6958:	8f 5f       	subi	r24, 0xFF	; 255
    695a:	89 83       	std	Y+1, r24	; 0x01
    695c:	99 81       	ldd	r25, Y+1	; 0x01
    695e:	8c 81       	ldd	r24, Y+4	; 0x04
    6960:	98 17       	cp	r25, r24
    6962:	70 f3       	brcs	.-36     	; 0x6940 <usart0_send_str+0x18>
	{
		usart0_send_char(*str++);
	}
}
    6964:	00 00       	nop
    6966:	0f 90       	pop	r0
    6968:	0f 90       	pop	r0
    696a:	0f 90       	pop	r0
    696c:	0f 90       	pop	r0
    696e:	df 91       	pop	r29
    6970:	cf 91       	pop	r28
    6972:	08 95       	ret

00006974 <usart1_send_char>:

void usart1_send_char(uint8_t data)
{
    6974:	cf 93       	push	r28
    6976:	df 93       	push	r29
    6978:	1f 92       	push	r1
    697a:	cd b7       	in	r28, 0x3d	; 61
    697c:	de b7       	in	r29, 0x3e	; 62
    697e:	89 83       	std	Y+1, r24	; 0x01
	while (!(UCSR1A & (1 << UDRE1)))
    6980:	00 00       	nop
    6982:	8b e9       	ldi	r24, 0x9B	; 155
    6984:	90 e0       	ldi	r25, 0x00	; 0
    6986:	fc 01       	movw	r30, r24
    6988:	80 81       	ld	r24, Z
    698a:	88 2f       	mov	r24, r24
    698c:	90 e0       	ldi	r25, 0x00	; 0
    698e:	80 72       	andi	r24, 0x20	; 32
    6990:	99 27       	eor	r25, r25
    6992:	89 2b       	or	r24, r25
    6994:	b1 f3       	breq	.-20     	; 0x6982 <usart1_send_char+0xe>
		; //
	UDR1 = data;
    6996:	8c e9       	ldi	r24, 0x9C	; 156
    6998:	90 e0       	ldi	r25, 0x00	; 0
    699a:	29 81       	ldd	r18, Y+1	; 0x01
    699c:	fc 01       	movw	r30, r24
    699e:	20 83       	st	Z, r18
}
    69a0:	00 00       	nop
    69a2:	0f 90       	pop	r0
    69a4:	df 91       	pop	r29
    69a6:	cf 91       	pop	r28
    69a8:	08 95       	ret

000069aa <usart1_send_str>:

void usart1_send_str(uint8_t *str, uint8_t data_size)
{
    69aa:	cf 93       	push	r28
    69ac:	df 93       	push	r29
    69ae:	00 d0       	rcall	.+0      	; 0x69b0 <usart1_send_str+0x6>
    69b0:	00 d0       	rcall	.+0      	; 0x69b2 <usart1_send_str+0x8>
    69b2:	cd b7       	in	r28, 0x3d	; 61
    69b4:	de b7       	in	r29, 0x3e	; 62
    69b6:	9b 83       	std	Y+3, r25	; 0x03
    69b8:	8a 83       	std	Y+2, r24	; 0x02
    69ba:	6c 83       	std	Y+4, r22	; 0x04
	uint8_t i = 0;
    69bc:	19 82       	std	Y+1, r1	; 0x01

	for (i = 0; i < data_size; i++)
    69be:	19 82       	std	Y+1, r1	; 0x01
    69c0:	0e c0       	rjmp	.+28     	; 0x69de <usart1_send_str+0x34>
	{
		usart1_send_char(*str++);
    69c2:	8a 81       	ldd	r24, Y+2	; 0x02
    69c4:	9b 81       	ldd	r25, Y+3	; 0x03
    69c6:	9c 01       	movw	r18, r24
    69c8:	2f 5f       	subi	r18, 0xFF	; 255
    69ca:	3f 4f       	sbci	r19, 0xFF	; 255
    69cc:	3b 83       	std	Y+3, r19	; 0x03
    69ce:	2a 83       	std	Y+2, r18	; 0x02
    69d0:	fc 01       	movw	r30, r24
    69d2:	80 81       	ld	r24, Z
    69d4:	0e 94 ba 34 	call	0x6974	; 0x6974 <usart1_send_char>

void usart1_send_str(uint8_t *str, uint8_t data_size)
{
	uint8_t i = 0;

	for (i = 0; i < data_size; i++)
    69d8:	89 81       	ldd	r24, Y+1	; 0x01
    69da:	8f 5f       	subi	r24, 0xFF	; 255
    69dc:	89 83       	std	Y+1, r24	; 0x01
    69de:	99 81       	ldd	r25, Y+1	; 0x01
    69e0:	8c 81       	ldd	r24, Y+4	; 0x04
    69e2:	98 17       	cp	r25, r24
    69e4:	70 f3       	brcs	.-36     	; 0x69c2 <usart1_send_str+0x18>
	{
		usart1_send_char(*str++);
	}
}
    69e6:	00 00       	nop
    69e8:	0f 90       	pop	r0
    69ea:	0f 90       	pop	r0
    69ec:	0f 90       	pop	r0
    69ee:	0f 90       	pop	r0
    69f0:	df 91       	pop	r29
    69f2:	cf 91       	pop	r28
    69f4:	08 95       	ret

000069f6 <usart2_send_char>:

void usart2_send_char(uint8_t data)
{
    69f6:	cf 93       	push	r28
    69f8:	df 93       	push	r29
    69fa:	1f 92       	push	r1
    69fc:	cd b7       	in	r28, 0x3d	; 61
    69fe:	de b7       	in	r29, 0x3e	; 62
    6a00:	89 83       	std	Y+1, r24	; 0x01
	usart2_buff = data; //
    6a02:	89 81       	ldd	r24, Y+1	; 0x01
    6a04:	80 93 ce 06 	sts	0x06CE, r24	; 0x8006ce <usart2_buff>

	usart2_sta = USART2_IN_TX; //
    6a08:	10 92 e0 0b 	sts	0x0BE0, r1	; 0x800be0 <usart2_sta>

	USART2_TX_PIN_RESET; //
    6a0c:	85 e3       	ldi	r24, 0x35	; 53
    6a0e:	90 e0       	ldi	r25, 0x00	; 0
    6a10:	25 e3       	ldi	r18, 0x35	; 53
    6a12:	30 e0       	ldi	r19, 0x00	; 0
    6a14:	f9 01       	movw	r30, r18
    6a16:	20 81       	ld	r18, Z
    6a18:	2f 77       	andi	r18, 0x7F	; 127
    6a1a:	fc 01       	movw	r30, r24
    6a1c:	20 83       	st	Z, r18

	TCNT3 = 0x0000; //3
    6a1e:	88 e8       	ldi	r24, 0x88	; 136
    6a20:	90 e0       	ldi	r25, 0x00	; 0
    6a22:	fc 01       	movw	r30, r24
    6a24:	11 82       	std	Z+1, r1	; 0x01
    6a26:	10 82       	st	Z, r1
	TCCR3B |= 0x01; //
    6a28:	8a e8       	ldi	r24, 0x8A	; 138
    6a2a:	90 e0       	ldi	r25, 0x00	; 0
    6a2c:	2a e8       	ldi	r18, 0x8A	; 138
    6a2e:	30 e0       	ldi	r19, 0x00	; 0
    6a30:	f9 01       	movw	r30, r18
    6a32:	20 81       	ld	r18, Z
    6a34:	21 60       	ori	r18, 0x01	; 1
    6a36:	fc 01       	movw	r30, r24
    6a38:	20 83       	st	Z, r18
}
    6a3a:	00 00       	nop
    6a3c:	0f 90       	pop	r0
    6a3e:	df 91       	pop	r29
    6a40:	cf 91       	pop	r28
    6a42:	08 95       	ret

00006a44 <usart2_send_str>:

void usart2_send_str(uint8_t *str, uint8_t data_size)
{
    6a44:	cf 93       	push	r28
    6a46:	df 93       	push	r29
    6a48:	00 d0       	rcall	.+0      	; 0x6a4a <usart2_send_str+0x6>
    6a4a:	00 d0       	rcall	.+0      	; 0x6a4c <usart2_send_str+0x8>
    6a4c:	cd b7       	in	r28, 0x3d	; 61
    6a4e:	de b7       	in	r29, 0x3e	; 62
    6a50:	9b 83       	std	Y+3, r25	; 0x03
    6a52:	8a 83       	std	Y+2, r24	; 0x02
    6a54:	6c 83       	std	Y+4, r22	; 0x04
	uint8_t i = 0;
    6a56:	19 82       	std	Y+1, r1	; 0x01

	for (i = 0; i < data_size; i++)
    6a58:	19 82       	std	Y+1, r1	; 0x01
    6a5a:	13 c0       	rjmp	.+38     	; 0x6a82 <usart2_send_str+0x3e>
	{
		usart2_send_char(*str++);
    6a5c:	8a 81       	ldd	r24, Y+2	; 0x02
    6a5e:	9b 81       	ldd	r25, Y+3	; 0x03
    6a60:	9c 01       	movw	r18, r24
    6a62:	2f 5f       	subi	r18, 0xFF	; 255
    6a64:	3f 4f       	sbci	r19, 0xFF	; 255
    6a66:	3b 83       	std	Y+3, r19	; 0x03
    6a68:	2a 83       	std	Y+2, r18	; 0x02
    6a6a:	fc 01       	movw	r30, r24
    6a6c:	80 81       	ld	r24, Z
    6a6e:	0e 94 fb 34 	call	0x69f6	; 0x69f6 <usart2_send_char>
		//		_delay_us(1200);S
		while (usart2_sta != USART2_TX_END)
    6a72:	00 00       	nop
    6a74:	80 91 e0 0b 	lds	r24, 0x0BE0	; 0x800be0 <usart2_sta>
    6a78:	83 30       	cpi	r24, 0x03	; 3
    6a7a:	e1 f7       	brne	.-8      	; 0x6a74 <usart2_send_str+0x30>

void usart2_send_str(uint8_t *str, uint8_t data_size)
{
	uint8_t i = 0;

	for (i = 0; i < data_size; i++)
    6a7c:	89 81       	ldd	r24, Y+1	; 0x01
    6a7e:	8f 5f       	subi	r24, 0xFF	; 255
    6a80:	89 83       	std	Y+1, r24	; 0x01
    6a82:	99 81       	ldd	r25, Y+1	; 0x01
    6a84:	8c 81       	ldd	r24, Y+4	; 0x04
    6a86:	98 17       	cp	r25, r24
    6a88:	48 f3       	brcs	.-46     	; 0x6a5c <usart2_send_str+0x18>
		usart2_send_char(*str++);
		//		_delay_us(1200);S
		while (usart2_sta != USART2_TX_END)
			;
	}
}
    6a8a:	00 00       	nop
    6a8c:	0f 90       	pop	r0
    6a8e:	0f 90       	pop	r0
    6a90:	0f 90       	pop	r0
    6a92:	0f 90       	pop	r0
    6a94:	df 91       	pop	r29
    6a96:	cf 91       	pop	r28
    6a98:	08 95       	ret

00006a9a <crc_check>:

uint16_t crc_check(uint8_t *p, uint8_t data_size)
{
    6a9a:	cf 93       	push	r28
    6a9c:	df 93       	push	r29
    6a9e:	cd b7       	in	r28, 0x3d	; 61
    6aa0:	de b7       	in	r29, 0x3e	; 62
    6aa2:	27 97       	sbiw	r28, 0x07	; 7
    6aa4:	0f b6       	in	r0, 0x3f	; 63
    6aa6:	f8 94       	cli
    6aa8:	de bf       	out	0x3e, r29	; 62
    6aaa:	0f be       	out	0x3f, r0	; 63
    6aac:	cd bf       	out	0x3d, r28	; 61
    6aae:	9e 83       	std	Y+6, r25	; 0x06
    6ab0:	8d 83       	std	Y+5, r24	; 0x05
    6ab2:	6f 83       	std	Y+7, r22	; 0x07
	uint16_t crc = 0xFFFF;
    6ab4:	8f ef       	ldi	r24, 0xFF	; 255
    6ab6:	9f ef       	ldi	r25, 0xFF	; 255
    6ab8:	9a 83       	std	Y+2, r25	; 0x02
    6aba:	89 83       	std	Y+1, r24	; 0x01
	uint8_t i, j;

	for (j = 0; j < (data_size - 5); j++)
    6abc:	1c 82       	std	Y+4, r1	; 0x04
    6abe:	38 c0       	rjmp	.+112    	; 0x6b30 <crc_check+0x96>
	{
		crc = crc ^ *(p + j + 3);
    6ac0:	8c 81       	ldd	r24, Y+4	; 0x04
    6ac2:	88 2f       	mov	r24, r24
    6ac4:	90 e0       	ldi	r25, 0x00	; 0
    6ac6:	03 96       	adiw	r24, 0x03	; 3
    6ac8:	2d 81       	ldd	r18, Y+5	; 0x05
    6aca:	3e 81       	ldd	r19, Y+6	; 0x06
    6acc:	82 0f       	add	r24, r18
    6ace:	93 1f       	adc	r25, r19
    6ad0:	fc 01       	movw	r30, r24
    6ad2:	80 81       	ld	r24, Z
    6ad4:	88 2f       	mov	r24, r24
    6ad6:	90 e0       	ldi	r25, 0x00	; 0
    6ad8:	29 81       	ldd	r18, Y+1	; 0x01
    6ada:	3a 81       	ldd	r19, Y+2	; 0x02
    6adc:	82 27       	eor	r24, r18
    6ade:	93 27       	eor	r25, r19
    6ae0:	9a 83       	std	Y+2, r25	; 0x02
    6ae2:	89 83       	std	Y+1, r24	; 0x01
		for (i = 0; i < 8; i++)
    6ae4:	1b 82       	std	Y+3, r1	; 0x03
    6ae6:	1e c0       	rjmp	.+60     	; 0x6b24 <crc_check+0x8a>
		{
			if ((crc & 0x0001) > 0)
    6ae8:	89 81       	ldd	r24, Y+1	; 0x01
    6aea:	9a 81       	ldd	r25, Y+2	; 0x02
    6aec:	81 70       	andi	r24, 0x01	; 1
    6aee:	99 27       	eor	r25, r25
    6af0:	89 2b       	or	r24, r25
    6af2:	79 f0       	breq	.+30     	; 0x6b12 <crc_check+0x78>
			{
				crc >>= 1;
    6af4:	89 81       	ldd	r24, Y+1	; 0x01
    6af6:	9a 81       	ldd	r25, Y+2	; 0x02
    6af8:	96 95       	lsr	r25
    6afa:	87 95       	ror	r24
    6afc:	9a 83       	std	Y+2, r25	; 0x02
    6afe:	89 83       	std	Y+1, r24	; 0x01
				crc ^= 0xA001;
    6b00:	89 81       	ldd	r24, Y+1	; 0x01
    6b02:	9a 81       	ldd	r25, Y+2	; 0x02
    6b04:	f1 e0       	ldi	r31, 0x01	; 1
    6b06:	8f 27       	eor	r24, r31
    6b08:	f0 ea       	ldi	r31, 0xA0	; 160
    6b0a:	9f 27       	eor	r25, r31
    6b0c:	9a 83       	std	Y+2, r25	; 0x02
    6b0e:	89 83       	std	Y+1, r24	; 0x01
    6b10:	06 c0       	rjmp	.+12     	; 0x6b1e <crc_check+0x84>
			}
			else
				crc >>= 1;
    6b12:	89 81       	ldd	r24, Y+1	; 0x01
    6b14:	9a 81       	ldd	r25, Y+2	; 0x02
    6b16:	96 95       	lsr	r25
    6b18:	87 95       	ror	r24
    6b1a:	9a 83       	std	Y+2, r25	; 0x02
    6b1c:	89 83       	std	Y+1, r24	; 0x01
	uint8_t i, j;

	for (j = 0; j < (data_size - 5); j++)
	{
		crc = crc ^ *(p + j + 3);
		for (i = 0; i < 8; i++)
    6b1e:	8b 81       	ldd	r24, Y+3	; 0x03
    6b20:	8f 5f       	subi	r24, 0xFF	; 255
    6b22:	8b 83       	std	Y+3, r24	; 0x03
    6b24:	8b 81       	ldd	r24, Y+3	; 0x03
    6b26:	88 30       	cpi	r24, 0x08	; 8
    6b28:	f8 f2       	brcs	.-66     	; 0x6ae8 <crc_check+0x4e>
uint16_t crc_check(uint8_t *p, uint8_t data_size)
{
	uint16_t crc = 0xFFFF;
	uint8_t i, j;

	for (j = 0; j < (data_size - 5); j++)
    6b2a:	8c 81       	ldd	r24, Y+4	; 0x04
    6b2c:	8f 5f       	subi	r24, 0xFF	; 255
    6b2e:	8c 83       	std	Y+4, r24	; 0x04
    6b30:	8c 81       	ldd	r24, Y+4	; 0x04
    6b32:	28 2f       	mov	r18, r24
    6b34:	30 e0       	ldi	r19, 0x00	; 0
    6b36:	8f 81       	ldd	r24, Y+7	; 0x07
    6b38:	88 2f       	mov	r24, r24
    6b3a:	90 e0       	ldi	r25, 0x00	; 0
    6b3c:	05 97       	sbiw	r24, 0x05	; 5
    6b3e:	28 17       	cp	r18, r24
    6b40:	39 07       	cpc	r19, r25
    6b42:	0c f4       	brge	.+2      	; 0x6b46 <crc_check+0xac>
    6b44:	bd cf       	rjmp	.-134    	; 0x6ac0 <crc_check+0x26>
			else
				crc >>= 1;
		}
	}

	return crc;
    6b46:	89 81       	ldd	r24, Y+1	; 0x01
    6b48:	9a 81       	ldd	r25, Y+2	; 0x02
}
    6b4a:	27 96       	adiw	r28, 0x07	; 7
    6b4c:	0f b6       	in	r0, 0x3f	; 63
    6b4e:	f8 94       	cli
    6b50:	de bf       	out	0x3e, r29	; 62
    6b52:	0f be       	out	0x3f, r0	; 63
    6b54:	cd bf       	out	0x3d, r28	; 61
    6b56:	df 91       	pop	r29
    6b58:	cf 91       	pop	r28
    6b5a:	08 95       	ret

00006b5c <usart0_init>:

void usart0_init(uint16_t ubrr0) //
{
    6b5c:	cf 93       	push	r28
    6b5e:	df 93       	push	r29
    6b60:	00 d0       	rcall	.+0      	; 0x6b62 <usart0_init+0x6>
    6b62:	cd b7       	in	r28, 0x3d	; 61
    6b64:	de b7       	in	r29, 0x3e	; 62
    6b66:	9a 83       	std	Y+2, r25	; 0x02
    6b68:	89 83       	std	Y+1, r24	; 0x01
	USART0_TX_PIN_OUTPUT;
    6b6a:	82 e2       	ldi	r24, 0x22	; 34
    6b6c:	90 e0       	ldi	r25, 0x00	; 0
    6b6e:	22 e2       	ldi	r18, 0x22	; 34
    6b70:	30 e0       	ldi	r19, 0x00	; 0
    6b72:	f9 01       	movw	r30, r18
    6b74:	20 81       	ld	r18, Z
    6b76:	22 60       	ori	r18, 0x02	; 2
    6b78:	fc 01       	movw	r30, r24
    6b7a:	20 83       	st	Z, r18
	USART0_RX_PIN_INPUT; //
    6b7c:	82 e2       	ldi	r24, 0x22	; 34
    6b7e:	90 e0       	ldi	r25, 0x00	; 0
    6b80:	22 e2       	ldi	r18, 0x22	; 34
    6b82:	30 e0       	ldi	r19, 0x00	; 0
    6b84:	f9 01       	movw	r30, r18
    6b86:	20 81       	ld	r18, Z
    6b88:	2e 7f       	andi	r18, 0xFE	; 254
    6b8a:	fc 01       	movw	r30, r24
    6b8c:	20 83       	st	Z, r18

	UBRR0H = (uint8_t)(ubrr0 >> 8);
    6b8e:	80 e9       	ldi	r24, 0x90	; 144
    6b90:	90 e0       	ldi	r25, 0x00	; 0
    6b92:	29 81       	ldd	r18, Y+1	; 0x01
    6b94:	3a 81       	ldd	r19, Y+2	; 0x02
    6b96:	23 2f       	mov	r18, r19
    6b98:	33 27       	eor	r19, r19
    6b9a:	fc 01       	movw	r30, r24
    6b9c:	20 83       	st	Z, r18
	UBRR0L = (uint8_t)ubrr0;
    6b9e:	89 e2       	ldi	r24, 0x29	; 41
    6ba0:	90 e0       	ldi	r25, 0x00	; 0
    6ba2:	29 81       	ldd	r18, Y+1	; 0x01
    6ba4:	fc 01       	movw	r30, r24
    6ba6:	20 83       	st	Z, r18

	//	UBRR0H = 0;
	//	UBRR0L = 103;									//960016M
	UCSR0C |= (1 << UCSZ01) | (1 << UCSZ00);			   // Set frame format: 8data, 1stop bit ,
    6ba8:	85 e9       	ldi	r24, 0x95	; 149
    6baa:	90 e0       	ldi	r25, 0x00	; 0
    6bac:	25 e9       	ldi	r18, 0x95	; 149
    6bae:	30 e0       	ldi	r19, 0x00	; 0
    6bb0:	f9 01       	movw	r30, r18
    6bb2:	20 81       	ld	r18, Z
    6bb4:	26 60       	ori	r18, 0x06	; 6
    6bb6:	fc 01       	movw	r30, r24
    6bb8:	20 83       	st	Z, r18
	UCSR0B |= (1 << RXEN0) | (1 << TXEN0) | (1 << RXCIE0); //
    6bba:	8a e2       	ldi	r24, 0x2A	; 42
    6bbc:	90 e0       	ldi	r25, 0x00	; 0
    6bbe:	2a e2       	ldi	r18, 0x2A	; 42
    6bc0:	30 e0       	ldi	r19, 0x00	; 0
    6bc2:	f9 01       	movw	r30, r18
    6bc4:	20 81       	ld	r18, Z
    6bc6:	28 69       	ori	r18, 0x98	; 152
    6bc8:	fc 01       	movw	r30, r24
    6bca:	20 83       	st	Z, r18
}
    6bcc:	00 00       	nop
    6bce:	0f 90       	pop	r0
    6bd0:	0f 90       	pop	r0
    6bd2:	df 91       	pop	r29
    6bd4:	cf 91       	pop	r28
    6bd6:	08 95       	ret

00006bd8 <usart1_init>:

void usart1_init(uint16_t ubrr1) //
{
    6bd8:	cf 93       	push	r28
    6bda:	df 93       	push	r29
    6bdc:	00 d0       	rcall	.+0      	; 0x6bde <usart1_init+0x6>
    6bde:	cd b7       	in	r28, 0x3d	; 61
    6be0:	de b7       	in	r29, 0x3e	; 62
    6be2:	9a 83       	std	Y+2, r25	; 0x02
    6be4:	89 83       	std	Y+1, r24	; 0x01
	USART1_TX_PIN_OUTPUT;
    6be6:	81 e3       	ldi	r24, 0x31	; 49
    6be8:	90 e0       	ldi	r25, 0x00	; 0
    6bea:	21 e3       	ldi	r18, 0x31	; 49
    6bec:	30 e0       	ldi	r19, 0x00	; 0
    6bee:	f9 01       	movw	r30, r18
    6bf0:	20 81       	ld	r18, Z
    6bf2:	28 60       	ori	r18, 0x08	; 8
    6bf4:	fc 01       	movw	r30, r24
    6bf6:	20 83       	st	Z, r18
	USART1_RX_PIN_INPUT; //
    6bf8:	81 e3       	ldi	r24, 0x31	; 49
    6bfa:	90 e0       	ldi	r25, 0x00	; 0
    6bfc:	21 e3       	ldi	r18, 0x31	; 49
    6bfe:	30 e0       	ldi	r19, 0x00	; 0
    6c00:	f9 01       	movw	r30, r18
    6c02:	20 81       	ld	r18, Z
    6c04:	2b 7f       	andi	r18, 0xFB	; 251
    6c06:	fc 01       	movw	r30, r24
    6c08:	20 83       	st	Z, r18

	UBRR1H = (uint8_t)(ubrr1 >> 8);
    6c0a:	88 e9       	ldi	r24, 0x98	; 152
    6c0c:	90 e0       	ldi	r25, 0x00	; 0
    6c0e:	29 81       	ldd	r18, Y+1	; 0x01
    6c10:	3a 81       	ldd	r19, Y+2	; 0x02
    6c12:	23 2f       	mov	r18, r19
    6c14:	33 27       	eor	r19, r19
    6c16:	fc 01       	movw	r30, r24
    6c18:	20 83       	st	Z, r18
	UBRR1L = (uint8_t)ubrr1;
    6c1a:	89 e9       	ldi	r24, 0x99	; 153
    6c1c:	90 e0       	ldi	r25, 0x00	; 0
    6c1e:	29 81       	ldd	r18, Y+1	; 0x01
    6c20:	fc 01       	movw	r30, r24
    6c22:	20 83       	st	Z, r18

	//	UBRR1H = 0;
	//	UBRR1L = 103;						//960016M
	UCSR1C = (1 << UCSZ11) | (1 << UCSZ10);				  // Set frame format: 8data, 1stop bit 
    6c24:	8d e9       	ldi	r24, 0x9D	; 157
    6c26:	90 e0       	ldi	r25, 0x00	; 0
    6c28:	26 e0       	ldi	r18, 0x06	; 6
    6c2a:	fc 01       	movw	r30, r24
    6c2c:	20 83       	st	Z, r18
	UCSR1B = (1 << RXEN1) | (1 << TXEN1) | (1 << RXCIE1); //,
    6c2e:	8a e9       	ldi	r24, 0x9A	; 154
    6c30:	90 e0       	ldi	r25, 0x00	; 0
    6c32:	28 e9       	ldi	r18, 0x98	; 152
    6c34:	fc 01       	movw	r30, r24
    6c36:	20 83       	st	Z, r18
}
    6c38:	00 00       	nop
    6c3a:	0f 90       	pop	r0
    6c3c:	0f 90       	pop	r0
    6c3e:	df 91       	pop	r29
    6c40:	cf 91       	pop	r28
    6c42:	08 95       	ret

00006c44 <usart2_init>:

/*IO+TIMER3*/
void usart2_init(uint16_t baud)
{
    6c44:	0f 93       	push	r16
    6c46:	1f 93       	push	r17
    6c48:	cf 93       	push	r28
    6c4a:	df 93       	push	r29
    6c4c:	00 d0       	rcall	.+0      	; 0x6c4e <usart2_init+0xa>
    6c4e:	cd b7       	in	r28, 0x3d	; 61
    6c50:	de b7       	in	r29, 0x3e	; 62
    6c52:	9a 83       	std	Y+2, r25	; 0x02
    6c54:	89 83       	std	Y+1, r24	; 0x01
	/*iouartIO*/
	USART2_TX_PIN_OUTPUT; //TX
    6c56:	84 e3       	ldi	r24, 0x34	; 52
    6c58:	90 e0       	ldi	r25, 0x00	; 0
    6c5a:	24 e3       	ldi	r18, 0x34	; 52
    6c5c:	30 e0       	ldi	r19, 0x00	; 0
    6c5e:	f9 01       	movw	r30, r18
    6c60:	20 81       	ld	r18, Z
    6c62:	20 68       	ori	r18, 0x80	; 128
    6c64:	fc 01       	movw	r30, r24
    6c66:	20 83       	st	Z, r18
	USART2_RX_PIN_INPUT;
    6c68:	84 e3       	ldi	r24, 0x34	; 52
    6c6a:	90 e0       	ldi	r25, 0x00	; 0
    6c6c:	24 e3       	ldi	r18, 0x34	; 52
    6c6e:	30 e0       	ldi	r19, 0x00	; 0
    6c70:	f9 01       	movw	r30, r18
    6c72:	20 81       	ld	r18, Z
    6c74:	2f 7b       	andi	r18, 0xBF	; 191
    6c76:	fc 01       	movw	r30, r24
    6c78:	20 83       	st	Z, r18
	USART2_RX_PIN_PULLUP; //RX
    6c7a:	85 e3       	ldi	r24, 0x35	; 53
    6c7c:	90 e0       	ldi	r25, 0x00	; 0
    6c7e:	25 e3       	ldi	r18, 0x35	; 53
    6c80:	30 e0       	ldi	r19, 0x00	; 0
    6c82:	f9 01       	movw	r30, r18
    6c84:	20 81       	ld	r18, Z
    6c86:	20 64       	ori	r18, 0x40	; 64
    6c88:	fc 01       	movw	r30, r24
    6c8a:	20 83       	st	Z, r18

	USART2_TX_PIN_SET; //TX
    6c8c:	85 e3       	ldi	r24, 0x35	; 53
    6c8e:	90 e0       	ldi	r25, 0x00	; 0
    6c90:	25 e3       	ldi	r18, 0x35	; 53
    6c92:	30 e0       	ldi	r19, 0x00	; 0
    6c94:	f9 01       	movw	r30, r18
    6c96:	20 81       	ld	r18, Z
    6c98:	20 68       	ori	r18, 0x80	; 128
    6c9a:	fc 01       	movw	r30, r24
    6c9c:	20 83       	st	Z, r18

	TCCR3B |= 0x08; //WGM321
    6c9e:	8a e8       	ldi	r24, 0x8A	; 138
    6ca0:	90 e0       	ldi	r25, 0x00	; 0
    6ca2:	2a e8       	ldi	r18, 0x8A	; 138
    6ca4:	30 e0       	ldi	r19, 0x00	; 0
    6ca6:	f9 01       	movw	r30, r18
    6ca8:	20 81       	ld	r18, Z
    6caa:	28 60       	ori	r18, 0x08	; 8
    6cac:	fc 01       	movw	r30, r24
    6cae:	20 83       	st	Z, r18
	TCCR3B &= 0xF8; // CS30 CS31 CS32
    6cb0:	8a e8       	ldi	r24, 0x8A	; 138
    6cb2:	90 e0       	ldi	r25, 0x00	; 0
    6cb4:	2a e8       	ldi	r18, 0x8A	; 138
    6cb6:	30 e0       	ldi	r19, 0x00	; 0
    6cb8:	f9 01       	movw	r30, r18
    6cba:	20 81       	ld	r18, Z
    6cbc:	28 7f       	andi	r18, 0xF8	; 248
    6cbe:	fc 01       	movw	r30, r24
    6cc0:	20 83       	st	Z, r18

	OCR3A = 16000000UL / baud; //1/2 TCCR3B |= 0x01
    6cc2:	06 e8       	ldi	r16, 0x86	; 134
    6cc4:	10 e0       	ldi	r17, 0x00	; 0
    6cc6:	89 81       	ldd	r24, Y+1	; 0x01
    6cc8:	9a 81       	ldd	r25, Y+2	; 0x02
    6cca:	9c 01       	movw	r18, r24
    6ccc:	40 e0       	ldi	r20, 0x00	; 0
    6cce:	50 e0       	ldi	r21, 0x00	; 0
    6cd0:	80 e0       	ldi	r24, 0x00	; 0
    6cd2:	94 e2       	ldi	r25, 0x24	; 36
    6cd4:	a4 ef       	ldi	r26, 0xF4	; 244
    6cd6:	b0 e0       	ldi	r27, 0x00	; 0
    6cd8:	bc 01       	movw	r22, r24
    6cda:	cd 01       	movw	r24, r26
    6cdc:	0e 94 b5 37 	call	0x6f6a	; 0x6f6a <__udivmodsi4>
    6ce0:	da 01       	movw	r26, r20
    6ce2:	c9 01       	movw	r24, r18
    6ce4:	f8 01       	movw	r30, r16
    6ce6:	91 83       	std	Z+1, r25	; 0x01
    6ce8:	80 83       	st	Z, r24

	ETIMSK |= 0x10; //3 A
    6cea:	8d e7       	ldi	r24, 0x7D	; 125
    6cec:	90 e0       	ldi	r25, 0x00	; 0
    6cee:	2d e7       	ldi	r18, 0x7D	; 125
    6cf0:	30 e0       	ldi	r19, 0x00	; 0
    6cf2:	f9 01       	movw	r30, r18
    6cf4:	20 81       	ld	r18, Z
    6cf6:	20 61       	ori	r18, 0x10	; 16
    6cf8:	fc 01       	movw	r30, r24
    6cfa:	20 83       	st	Z, r18
}
    6cfc:	00 00       	nop
    6cfe:	0f 90       	pop	r0
    6d00:	0f 90       	pop	r0
    6d02:	df 91       	pop	r29
    6d04:	cf 91       	pop	r28
    6d06:	1f 91       	pop	r17
    6d08:	0f 91       	pop	r16
    6d0a:	08 95       	ret

00006d0c <__cmpsf2>:
    6d0c:	0e 94 ba 36 	call	0x6d74	; 0x6d74 <__fp_cmp>
    6d10:	08 f4       	brcc	.+2      	; 0x6d14 <__cmpsf2+0x8>
    6d12:	81 e0       	ldi	r24, 0x01	; 1
    6d14:	08 95       	ret

00006d16 <__fixunssfsi>:
    6d16:	0e 94 e6 36 	call	0x6dcc	; 0x6dcc <__fp_splitA>
    6d1a:	88 f0       	brcs	.+34     	; 0x6d3e <__fixunssfsi+0x28>
    6d1c:	9f 57       	subi	r25, 0x7F	; 127
    6d1e:	98 f0       	brcs	.+38     	; 0x6d46 <__fixunssfsi+0x30>
    6d20:	b9 2f       	mov	r27, r25
    6d22:	99 27       	eor	r25, r25
    6d24:	b7 51       	subi	r27, 0x17	; 23
    6d26:	b0 f0       	brcs	.+44     	; 0x6d54 <__fixunssfsi+0x3e>
    6d28:	e1 f0       	breq	.+56     	; 0x6d62 <__fixunssfsi+0x4c>
    6d2a:	66 0f       	add	r22, r22
    6d2c:	77 1f       	adc	r23, r23
    6d2e:	88 1f       	adc	r24, r24
    6d30:	99 1f       	adc	r25, r25
    6d32:	1a f0       	brmi	.+6      	; 0x6d3a <__fixunssfsi+0x24>
    6d34:	ba 95       	dec	r27
    6d36:	c9 f7       	brne	.-14     	; 0x6d2a <__fixunssfsi+0x14>
    6d38:	14 c0       	rjmp	.+40     	; 0x6d62 <__fixunssfsi+0x4c>
    6d3a:	b1 30       	cpi	r27, 0x01	; 1
    6d3c:	91 f0       	breq	.+36     	; 0x6d62 <__fixunssfsi+0x4c>
    6d3e:	0e 94 00 37 	call	0x6e00	; 0x6e00 <__fp_zero>
    6d42:	b1 e0       	ldi	r27, 0x01	; 1
    6d44:	08 95       	ret
    6d46:	0c 94 00 37 	jmp	0x6e00	; 0x6e00 <__fp_zero>
    6d4a:	67 2f       	mov	r22, r23
    6d4c:	78 2f       	mov	r23, r24
    6d4e:	88 27       	eor	r24, r24
    6d50:	b8 5f       	subi	r27, 0xF8	; 248
    6d52:	39 f0       	breq	.+14     	; 0x6d62 <__fixunssfsi+0x4c>
    6d54:	b9 3f       	cpi	r27, 0xF9	; 249
    6d56:	cc f3       	brlt	.-14     	; 0x6d4a <__fixunssfsi+0x34>
    6d58:	86 95       	lsr	r24
    6d5a:	77 95       	ror	r23
    6d5c:	67 95       	ror	r22
    6d5e:	b3 95       	inc	r27
    6d60:	d9 f7       	brne	.-10     	; 0x6d58 <__fixunssfsi+0x42>
    6d62:	3e f4       	brtc	.+14     	; 0x6d72 <__fixunssfsi+0x5c>
    6d64:	90 95       	com	r25
    6d66:	80 95       	com	r24
    6d68:	70 95       	com	r23
    6d6a:	61 95       	neg	r22
    6d6c:	7f 4f       	sbci	r23, 0xFF	; 255
    6d6e:	8f 4f       	sbci	r24, 0xFF	; 255
    6d70:	9f 4f       	sbci	r25, 0xFF	; 255
    6d72:	08 95       	ret

00006d74 <__fp_cmp>:
    6d74:	99 0f       	add	r25, r25
    6d76:	00 08       	sbc	r0, r0
    6d78:	55 0f       	add	r21, r21
    6d7a:	aa 0b       	sbc	r26, r26
    6d7c:	e0 e8       	ldi	r30, 0x80	; 128
    6d7e:	fe ef       	ldi	r31, 0xFE	; 254
    6d80:	16 16       	cp	r1, r22
    6d82:	17 06       	cpc	r1, r23
    6d84:	e8 07       	cpc	r30, r24
    6d86:	f9 07       	cpc	r31, r25
    6d88:	c0 f0       	brcs	.+48     	; 0x6dba <__fp_cmp+0x46>
    6d8a:	12 16       	cp	r1, r18
    6d8c:	13 06       	cpc	r1, r19
    6d8e:	e4 07       	cpc	r30, r20
    6d90:	f5 07       	cpc	r31, r21
    6d92:	98 f0       	brcs	.+38     	; 0x6dba <__fp_cmp+0x46>
    6d94:	62 1b       	sub	r22, r18
    6d96:	73 0b       	sbc	r23, r19
    6d98:	84 0b       	sbc	r24, r20
    6d9a:	95 0b       	sbc	r25, r21
    6d9c:	39 f4       	brne	.+14     	; 0x6dac <__fp_cmp+0x38>
    6d9e:	0a 26       	eor	r0, r26
    6da0:	61 f0       	breq	.+24     	; 0x6dba <__fp_cmp+0x46>
    6da2:	23 2b       	or	r18, r19
    6da4:	24 2b       	or	r18, r20
    6da6:	25 2b       	or	r18, r21
    6da8:	21 f4       	brne	.+8      	; 0x6db2 <__fp_cmp+0x3e>
    6daa:	08 95       	ret
    6dac:	0a 26       	eor	r0, r26
    6dae:	09 f4       	brne	.+2      	; 0x6db2 <__fp_cmp+0x3e>
    6db0:	a1 40       	sbci	r26, 0x01	; 1
    6db2:	a6 95       	lsr	r26
    6db4:	8f ef       	ldi	r24, 0xFF	; 255
    6db6:	81 1d       	adc	r24, r1
    6db8:	81 1d       	adc	r24, r1
    6dba:	08 95       	ret

00006dbc <__fp_split3>:
    6dbc:	57 fd       	sbrc	r21, 7
    6dbe:	90 58       	subi	r25, 0x80	; 128
    6dc0:	44 0f       	add	r20, r20
    6dc2:	55 1f       	adc	r21, r21
    6dc4:	59 f0       	breq	.+22     	; 0x6ddc <__fp_splitA+0x10>
    6dc6:	5f 3f       	cpi	r21, 0xFF	; 255
    6dc8:	71 f0       	breq	.+28     	; 0x6de6 <__fp_splitA+0x1a>
    6dca:	47 95       	ror	r20

00006dcc <__fp_splitA>:
    6dcc:	88 0f       	add	r24, r24
    6dce:	97 fb       	bst	r25, 7
    6dd0:	99 1f       	adc	r25, r25
    6dd2:	61 f0       	breq	.+24     	; 0x6dec <__fp_splitA+0x20>
    6dd4:	9f 3f       	cpi	r25, 0xFF	; 255
    6dd6:	79 f0       	breq	.+30     	; 0x6df6 <__fp_splitA+0x2a>
    6dd8:	87 95       	ror	r24
    6dda:	08 95       	ret
    6ddc:	12 16       	cp	r1, r18
    6dde:	13 06       	cpc	r1, r19
    6de0:	14 06       	cpc	r1, r20
    6de2:	55 1f       	adc	r21, r21
    6de4:	f2 cf       	rjmp	.-28     	; 0x6dca <__fp_split3+0xe>
    6de6:	46 95       	lsr	r20
    6de8:	f1 df       	rcall	.-30     	; 0x6dcc <__fp_splitA>
    6dea:	08 c0       	rjmp	.+16     	; 0x6dfc <__fp_splitA+0x30>
    6dec:	16 16       	cp	r1, r22
    6dee:	17 06       	cpc	r1, r23
    6df0:	18 06       	cpc	r1, r24
    6df2:	99 1f       	adc	r25, r25
    6df4:	f1 cf       	rjmp	.-30     	; 0x6dd8 <__fp_splitA+0xc>
    6df6:	86 95       	lsr	r24
    6df8:	71 05       	cpc	r23, r1
    6dfa:	61 05       	cpc	r22, r1
    6dfc:	08 94       	sec
    6dfe:	08 95       	ret

00006e00 <__fp_zero>:
    6e00:	e8 94       	clt

00006e02 <__fp_szero>:
    6e02:	bb 27       	eor	r27, r27
    6e04:	66 27       	eor	r22, r22
    6e06:	77 27       	eor	r23, r23
    6e08:	cb 01       	movw	r24, r22
    6e0a:	97 f9       	bld	r25, 7
    6e0c:	08 95       	ret

00006e0e <__gesf2>:
    6e0e:	0e 94 ba 36 	call	0x6d74	; 0x6d74 <__fp_cmp>
    6e12:	08 f4       	brcc	.+2      	; 0x6e16 <__gesf2+0x8>
    6e14:	8f ef       	ldi	r24, 0xFF	; 255
    6e16:	08 95       	ret

00006e18 <__mulsf3>:
    6e18:	0e 94 1f 37 	call	0x6e3e	; 0x6e3e <__mulsf3x>
    6e1c:	0c 94 90 37 	jmp	0x6f20	; 0x6f20 <__fp_round>
    6e20:	0e 94 82 37 	call	0x6f04	; 0x6f04 <__fp_pscA>
    6e24:	38 f0       	brcs	.+14     	; 0x6e34 <__mulsf3+0x1c>
    6e26:	0e 94 89 37 	call	0x6f12	; 0x6f12 <__fp_pscB>
    6e2a:	20 f0       	brcs	.+8      	; 0x6e34 <__mulsf3+0x1c>
    6e2c:	95 23       	and	r25, r21
    6e2e:	11 f0       	breq	.+4      	; 0x6e34 <__mulsf3+0x1c>
    6e30:	0c 94 79 37 	jmp	0x6ef2	; 0x6ef2 <__fp_inf>
    6e34:	0c 94 7f 37 	jmp	0x6efe	; 0x6efe <__fp_nan>
    6e38:	11 24       	eor	r1, r1
    6e3a:	0c 94 01 37 	jmp	0x6e02	; 0x6e02 <__fp_szero>

00006e3e <__mulsf3x>:
    6e3e:	0e 94 de 36 	call	0x6dbc	; 0x6dbc <__fp_split3>
    6e42:	70 f3       	brcs	.-36     	; 0x6e20 <__mulsf3+0x8>

00006e44 <__mulsf3_pse>:
    6e44:	95 9f       	mul	r25, r21
    6e46:	c1 f3       	breq	.-16     	; 0x6e38 <__mulsf3+0x20>
    6e48:	95 0f       	add	r25, r21
    6e4a:	50 e0       	ldi	r21, 0x00	; 0
    6e4c:	55 1f       	adc	r21, r21
    6e4e:	62 9f       	mul	r22, r18
    6e50:	f0 01       	movw	r30, r0
    6e52:	72 9f       	mul	r23, r18
    6e54:	bb 27       	eor	r27, r27
    6e56:	f0 0d       	add	r31, r0
    6e58:	b1 1d       	adc	r27, r1
    6e5a:	63 9f       	mul	r22, r19
    6e5c:	aa 27       	eor	r26, r26
    6e5e:	f0 0d       	add	r31, r0
    6e60:	b1 1d       	adc	r27, r1
    6e62:	aa 1f       	adc	r26, r26
    6e64:	64 9f       	mul	r22, r20
    6e66:	66 27       	eor	r22, r22
    6e68:	b0 0d       	add	r27, r0
    6e6a:	a1 1d       	adc	r26, r1
    6e6c:	66 1f       	adc	r22, r22
    6e6e:	82 9f       	mul	r24, r18
    6e70:	22 27       	eor	r18, r18
    6e72:	b0 0d       	add	r27, r0
    6e74:	a1 1d       	adc	r26, r1
    6e76:	62 1f       	adc	r22, r18
    6e78:	73 9f       	mul	r23, r19
    6e7a:	b0 0d       	add	r27, r0
    6e7c:	a1 1d       	adc	r26, r1
    6e7e:	62 1f       	adc	r22, r18
    6e80:	83 9f       	mul	r24, r19
    6e82:	a0 0d       	add	r26, r0
    6e84:	61 1d       	adc	r22, r1
    6e86:	22 1f       	adc	r18, r18
    6e88:	74 9f       	mul	r23, r20
    6e8a:	33 27       	eor	r19, r19
    6e8c:	a0 0d       	add	r26, r0
    6e8e:	61 1d       	adc	r22, r1
    6e90:	23 1f       	adc	r18, r19
    6e92:	84 9f       	mul	r24, r20
    6e94:	60 0d       	add	r22, r0
    6e96:	21 1d       	adc	r18, r1
    6e98:	82 2f       	mov	r24, r18
    6e9a:	76 2f       	mov	r23, r22
    6e9c:	6a 2f       	mov	r22, r26
    6e9e:	11 24       	eor	r1, r1
    6ea0:	9f 57       	subi	r25, 0x7F	; 127
    6ea2:	50 40       	sbci	r21, 0x00	; 0
    6ea4:	9a f0       	brmi	.+38     	; 0x6ecc <__mulsf3_pse+0x88>
    6ea6:	f1 f0       	breq	.+60     	; 0x6ee4 <__mulsf3_pse+0xa0>
    6ea8:	88 23       	and	r24, r24
    6eaa:	4a f0       	brmi	.+18     	; 0x6ebe <__mulsf3_pse+0x7a>
    6eac:	ee 0f       	add	r30, r30
    6eae:	ff 1f       	adc	r31, r31
    6eb0:	bb 1f       	adc	r27, r27
    6eb2:	66 1f       	adc	r22, r22
    6eb4:	77 1f       	adc	r23, r23
    6eb6:	88 1f       	adc	r24, r24
    6eb8:	91 50       	subi	r25, 0x01	; 1
    6eba:	50 40       	sbci	r21, 0x00	; 0
    6ebc:	a9 f7       	brne	.-22     	; 0x6ea8 <__mulsf3_pse+0x64>
    6ebe:	9e 3f       	cpi	r25, 0xFE	; 254
    6ec0:	51 05       	cpc	r21, r1
    6ec2:	80 f0       	brcs	.+32     	; 0x6ee4 <__mulsf3_pse+0xa0>
    6ec4:	0c 94 79 37 	jmp	0x6ef2	; 0x6ef2 <__fp_inf>
    6ec8:	0c 94 01 37 	jmp	0x6e02	; 0x6e02 <__fp_szero>
    6ecc:	5f 3f       	cpi	r21, 0xFF	; 255
    6ece:	e4 f3       	brlt	.-8      	; 0x6ec8 <__mulsf3_pse+0x84>
    6ed0:	98 3e       	cpi	r25, 0xE8	; 232
    6ed2:	d4 f3       	brlt	.-12     	; 0x6ec8 <__mulsf3_pse+0x84>
    6ed4:	86 95       	lsr	r24
    6ed6:	77 95       	ror	r23
    6ed8:	67 95       	ror	r22
    6eda:	b7 95       	ror	r27
    6edc:	f7 95       	ror	r31
    6ede:	e7 95       	ror	r30
    6ee0:	9f 5f       	subi	r25, 0xFF	; 255
    6ee2:	c1 f7       	brne	.-16     	; 0x6ed4 <__mulsf3_pse+0x90>
    6ee4:	fe 2b       	or	r31, r30
    6ee6:	88 0f       	add	r24, r24
    6ee8:	91 1d       	adc	r25, r1
    6eea:	96 95       	lsr	r25
    6eec:	87 95       	ror	r24
    6eee:	97 f9       	bld	r25, 7
    6ef0:	08 95       	ret

00006ef2 <__fp_inf>:
    6ef2:	97 f9       	bld	r25, 7
    6ef4:	9f 67       	ori	r25, 0x7F	; 127
    6ef6:	80 e8       	ldi	r24, 0x80	; 128
    6ef8:	70 e0       	ldi	r23, 0x00	; 0
    6efa:	60 e0       	ldi	r22, 0x00	; 0
    6efc:	08 95       	ret

00006efe <__fp_nan>:
    6efe:	9f ef       	ldi	r25, 0xFF	; 255
    6f00:	80 ec       	ldi	r24, 0xC0	; 192
    6f02:	08 95       	ret

00006f04 <__fp_pscA>:
    6f04:	00 24       	eor	r0, r0
    6f06:	0a 94       	dec	r0
    6f08:	16 16       	cp	r1, r22
    6f0a:	17 06       	cpc	r1, r23
    6f0c:	18 06       	cpc	r1, r24
    6f0e:	09 06       	cpc	r0, r25
    6f10:	08 95       	ret

00006f12 <__fp_pscB>:
    6f12:	00 24       	eor	r0, r0
    6f14:	0a 94       	dec	r0
    6f16:	12 16       	cp	r1, r18
    6f18:	13 06       	cpc	r1, r19
    6f1a:	14 06       	cpc	r1, r20
    6f1c:	05 06       	cpc	r0, r21
    6f1e:	08 95       	ret

00006f20 <__fp_round>:
    6f20:	09 2e       	mov	r0, r25
    6f22:	03 94       	inc	r0
    6f24:	00 0c       	add	r0, r0
    6f26:	11 f4       	brne	.+4      	; 0x6f2c <__fp_round+0xc>
    6f28:	88 23       	and	r24, r24
    6f2a:	52 f0       	brmi	.+20     	; 0x6f40 <__fp_round+0x20>
    6f2c:	bb 0f       	add	r27, r27
    6f2e:	40 f4       	brcc	.+16     	; 0x6f40 <__fp_round+0x20>
    6f30:	bf 2b       	or	r27, r31
    6f32:	11 f4       	brne	.+4      	; 0x6f38 <__fp_round+0x18>
    6f34:	60 ff       	sbrs	r22, 0
    6f36:	04 c0       	rjmp	.+8      	; 0x6f40 <__fp_round+0x20>
    6f38:	6f 5f       	subi	r22, 0xFF	; 255
    6f3a:	7f 4f       	sbci	r23, 0xFF	; 255
    6f3c:	8f 4f       	sbci	r24, 0xFF	; 255
    6f3e:	9f 4f       	sbci	r25, 0xFF	; 255
    6f40:	08 95       	ret

00006f42 <__divmodhi4>:
    6f42:	97 fb       	bst	r25, 7
    6f44:	07 2e       	mov	r0, r23
    6f46:	16 f4       	brtc	.+4      	; 0x6f4c <__divmodhi4+0xa>
    6f48:	00 94       	com	r0
    6f4a:	07 d0       	rcall	.+14     	; 0x6f5a <__divmodhi4_neg1>
    6f4c:	77 fd       	sbrc	r23, 7
    6f4e:	09 d0       	rcall	.+18     	; 0x6f62 <__divmodhi4_neg2>
    6f50:	0e 94 ec 37 	call	0x6fd8	; 0x6fd8 <__udivmodhi4>
    6f54:	07 fc       	sbrc	r0, 7
    6f56:	05 d0       	rcall	.+10     	; 0x6f62 <__divmodhi4_neg2>
    6f58:	3e f4       	brtc	.+14     	; 0x6f68 <__divmodhi4_exit>

00006f5a <__divmodhi4_neg1>:
    6f5a:	90 95       	com	r25
    6f5c:	81 95       	neg	r24
    6f5e:	9f 4f       	sbci	r25, 0xFF	; 255
    6f60:	08 95       	ret

00006f62 <__divmodhi4_neg2>:
    6f62:	70 95       	com	r23
    6f64:	61 95       	neg	r22
    6f66:	7f 4f       	sbci	r23, 0xFF	; 255

00006f68 <__divmodhi4_exit>:
    6f68:	08 95       	ret

00006f6a <__udivmodsi4>:
    6f6a:	a1 e2       	ldi	r26, 0x21	; 33
    6f6c:	1a 2e       	mov	r1, r26
    6f6e:	aa 1b       	sub	r26, r26
    6f70:	bb 1b       	sub	r27, r27
    6f72:	fd 01       	movw	r30, r26
    6f74:	0d c0       	rjmp	.+26     	; 0x6f90 <__udivmodsi4_ep>

00006f76 <__udivmodsi4_loop>:
    6f76:	aa 1f       	adc	r26, r26
    6f78:	bb 1f       	adc	r27, r27
    6f7a:	ee 1f       	adc	r30, r30
    6f7c:	ff 1f       	adc	r31, r31
    6f7e:	a2 17       	cp	r26, r18
    6f80:	b3 07       	cpc	r27, r19
    6f82:	e4 07       	cpc	r30, r20
    6f84:	f5 07       	cpc	r31, r21
    6f86:	20 f0       	brcs	.+8      	; 0x6f90 <__udivmodsi4_ep>
    6f88:	a2 1b       	sub	r26, r18
    6f8a:	b3 0b       	sbc	r27, r19
    6f8c:	e4 0b       	sbc	r30, r20
    6f8e:	f5 0b       	sbc	r31, r21

00006f90 <__udivmodsi4_ep>:
    6f90:	66 1f       	adc	r22, r22
    6f92:	77 1f       	adc	r23, r23
    6f94:	88 1f       	adc	r24, r24
    6f96:	99 1f       	adc	r25, r25
    6f98:	1a 94       	dec	r1
    6f9a:	69 f7       	brne	.-38     	; 0x6f76 <__udivmodsi4_loop>
    6f9c:	60 95       	com	r22
    6f9e:	70 95       	com	r23
    6fa0:	80 95       	com	r24
    6fa2:	90 95       	com	r25
    6fa4:	9b 01       	movw	r18, r22
    6fa6:	ac 01       	movw	r20, r24
    6fa8:	bd 01       	movw	r22, r26
    6faa:	cf 01       	movw	r24, r30
    6fac:	08 95       	ret

00006fae <__tablejump2__>:
    6fae:	ee 0f       	add	r30, r30
    6fb0:	ff 1f       	adc	r31, r31
    6fb2:	05 90       	lpm	r0, Z+
    6fb4:	f4 91       	lpm	r31, Z
    6fb6:	e0 2d       	mov	r30, r0
    6fb8:	09 94       	ijmp

00006fba <__umulhisi3>:
    6fba:	a2 9f       	mul	r26, r18
    6fbc:	b0 01       	movw	r22, r0
    6fbe:	b3 9f       	mul	r27, r19
    6fc0:	c0 01       	movw	r24, r0
    6fc2:	a3 9f       	mul	r26, r19
    6fc4:	70 0d       	add	r23, r0
    6fc6:	81 1d       	adc	r24, r1
    6fc8:	11 24       	eor	r1, r1
    6fca:	91 1d       	adc	r25, r1
    6fcc:	b2 9f       	mul	r27, r18
    6fce:	70 0d       	add	r23, r0
    6fd0:	81 1d       	adc	r24, r1
    6fd2:	11 24       	eor	r1, r1
    6fd4:	91 1d       	adc	r25, r1
    6fd6:	08 95       	ret

00006fd8 <__udivmodhi4>:
    6fd8:	aa 1b       	sub	r26, r26
    6fda:	bb 1b       	sub	r27, r27
    6fdc:	51 e1       	ldi	r21, 0x11	; 17
    6fde:	07 c0       	rjmp	.+14     	; 0x6fee <__udivmodhi4_ep>

00006fe0 <__udivmodhi4_loop>:
    6fe0:	aa 1f       	adc	r26, r26
    6fe2:	bb 1f       	adc	r27, r27
    6fe4:	a6 17       	cp	r26, r22
    6fe6:	b7 07       	cpc	r27, r23
    6fe8:	10 f0       	brcs	.+4      	; 0x6fee <__udivmodhi4_ep>
    6fea:	a6 1b       	sub	r26, r22
    6fec:	b7 0b       	sbc	r27, r23

00006fee <__udivmodhi4_ep>:
    6fee:	88 1f       	adc	r24, r24
    6ff0:	99 1f       	adc	r25, r25
    6ff2:	5a 95       	dec	r21
    6ff4:	a9 f7       	brne	.-22     	; 0x6fe0 <__udivmodhi4_loop>
    6ff6:	80 95       	com	r24
    6ff8:	90 95       	com	r25
    6ffa:	bc 01       	movw	r22, r24
    6ffc:	cd 01       	movw	r24, r26
    6ffe:	08 95       	ret

00007000 <eeprom_read_byte>:
    7000:	e1 99       	sbic	0x1c, 1	; 28
    7002:	fe cf       	rjmp	.-4      	; 0x7000 <eeprom_read_byte>
    7004:	9f bb       	out	0x1f, r25	; 31
    7006:	8e bb       	out	0x1e, r24	; 30
    7008:	e0 9a       	sbi	0x1c, 0	; 28
    700a:	99 27       	eor	r25, r25
    700c:	8d b3       	in	r24, 0x1d	; 29
    700e:	08 95       	ret

00007010 <eeprom_read_word>:
    7010:	a8 e1       	ldi	r26, 0x18	; 24
    7012:	b0 e0       	ldi	r27, 0x00	; 0
    7014:	42 e0       	ldi	r20, 0x02	; 2
    7016:	50 e0       	ldi	r21, 0x00	; 0
    7018:	0c 94 22 38 	jmp	0x7044	; 0x7044 <eeprom_read_blraw>

0000701c <eeprom_write_byte>:
    701c:	26 2f       	mov	r18, r22

0000701e <eeprom_write_r18>:
    701e:	e1 99       	sbic	0x1c, 1	; 28
    7020:	fe cf       	rjmp	.-4      	; 0x701e <eeprom_write_r18>
    7022:	9f bb       	out	0x1f, r25	; 31
    7024:	8e bb       	out	0x1e, r24	; 30
    7026:	2d bb       	out	0x1d, r18	; 29
    7028:	0f b6       	in	r0, 0x3f	; 63
    702a:	f8 94       	cli
    702c:	e2 9a       	sbi	0x1c, 2	; 28
    702e:	e1 9a       	sbi	0x1c, 1	; 28
    7030:	0f be       	out	0x3f, r0	; 63
    7032:	01 96       	adiw	r24, 0x01	; 1
    7034:	08 95       	ret

00007036 <eeprom_write_word>:
    7036:	0e 94 0e 38 	call	0x701c	; 0x701c <eeprom_write_byte>
    703a:	27 2f       	mov	r18, r23
    703c:	0c 94 0f 38 	jmp	0x701e	; 0x701e <eeprom_write_r18>

00007040 <eeprom_read_block>:
    7040:	dc 01       	movw	r26, r24
    7042:	cb 01       	movw	r24, r22

00007044 <eeprom_read_blraw>:
    7044:	fc 01       	movw	r30, r24
    7046:	e1 99       	sbic	0x1c, 1	; 28
    7048:	fe cf       	rjmp	.-4      	; 0x7046 <eeprom_read_blraw+0x2>
    704a:	06 c0       	rjmp	.+12     	; 0x7058 <eeprom_read_blraw+0x14>
    704c:	ff bb       	out	0x1f, r31	; 31
    704e:	ee bb       	out	0x1e, r30	; 30
    7050:	e0 9a       	sbi	0x1c, 0	; 28
    7052:	31 96       	adiw	r30, 0x01	; 1
    7054:	0d b2       	in	r0, 0x1d	; 29
    7056:	0d 92       	st	X+, r0
    7058:	41 50       	subi	r20, 0x01	; 1
    705a:	50 40       	sbci	r21, 0x00	; 0
    705c:	b8 f7       	brcc	.-18     	; 0x704c <eeprom_read_blraw+0x8>
    705e:	08 95       	ret

00007060 <_exit>:
    7060:	f8 94       	cli

00007062 <__stop_program>:
    7062:	ff cf       	rjmp	.-2      	; 0x7062 <__stop_program>
